
main:     file format elf64-littleriscv


Disassembly of section .text:

ffffffc050400000 <_start>:
ffffffc050400000:	10401073          	csrw	sie,zero
ffffffc050400004:	14401073          	csrw	sip,zero
ffffffc050400008:	6299                	lui	t0,0x6
ffffffc05040000a:	1002b073          	csrc	sstatus,t0
ffffffc05040000e:	00065197          	auipc	gp,0x65
ffffffc050400012:	47218193          	addi	gp,gp,1138 # ffffffc050465480 <__global_pointer$>
ffffffc050400016:	f1402573          	csrr	a0,mhartid
ffffffc05040001a:	e90d                	bnez	a0,ffffffc05040004c <set_slave>
ffffffc05040001c:	86418693          	addi	a3,gp,-1948 # ffffffc050464ce4 <_edata>
ffffffc050400020:	00069717          	auipc	a4,0x69
ffffffc050400024:	18870713          	addi	a4,a4,392 # ffffffc0504691a8 <__BSS_END__>
ffffffc050400028:	00e6d763          	bge	a3,a4,ffffffc050400036 <clear_bss_done>

ffffffc05040002c <clear_bss>:
ffffffc05040002c:	0006b023          	sd	zero,0(a3)
ffffffc050400030:	06a1                	addi	a3,a3,8
ffffffc050400032:	fee6cde3          	blt	a3,a4,ffffffc05040002c <clear_bss>

ffffffc050400036 <clear_bss_done>:
ffffffc050400036:	00007217          	auipc	tp,0x7
ffffffc05040003a:	be220213          	addi	tp,tp,-1054 # ffffffc050406c18 <pid0_pcb_m>
ffffffc05040003e:	00065117          	auipc	sp,0x65
ffffffc050400042:	c4213103          	ld	sp,-958(sp) # ffffffc050464c80 <pid0_stack_m>
ffffffc050400046:	14001073          	csrw	sscratch,zero
ffffffc05040004a:	a819                	j	ffffffc050400060 <end>

ffffffc05040004c <set_slave>:
ffffffc05040004c:	00007217          	auipc	tp,0x7
ffffffc050400050:	c6420213          	addi	tp,tp,-924 # ffffffc050406cb0 <pid0_pcb_s>
ffffffc050400054:	00065117          	auipc	sp,0x65
ffffffc050400058:	c3413103          	ld	sp,-972(sp) # ffffffc050464c88 <pid0_stack_s>
ffffffc05040005c:	14001073          	csrw	sscratch,zero

ffffffc050400060 <end>:
ffffffc050400060:	00067517          	auipc	a0,0x67
ffffffc050400064:	c6850513          	addi	a0,a0,-920 # ffffffc050466cc8 <riscv_dtb>
ffffffc050400068:	e10c                	sd	a1,0(a0)
ffffffc05040006a:	062010ef          	jal	ra,ffffffc0504010cc <main>

ffffffc05040006e <loop>:
ffffffc05040006e:	10500073          	wfi
ffffffc050400072:	bff5                	j	ffffffc05040006e <loop>
ffffffc050400074:	0000                	unimp
	...

ffffffc050400078 <setup_exception>:
ffffffc050400078:	00000297          	auipc	t0,0x0
ffffffc05040007c:	11c28293          	addi	t0,t0,284 # ffffffc050400194 <exception_handler_entry>
ffffffc050400080:	00040337          	lui	t1,0x40
ffffffc050400084:	0023031b          	addiw	t1,t1,2
ffffffc050400088:	22200393          	li	t2,546
ffffffc05040008c:	10529073          	csrw	stvec,t0
ffffffc050400090:	10031073          	csrw	sstatus,t1
ffffffc050400094:	10439073          	csrw	sie,t2
ffffffc050400098:	8082                	ret
	...

ffffffc05040009c <enable_preempt>:
ffffffc05040009c:	8082                	ret
ffffffc05040009e:	0001                	nop

ffffffc0504000a0 <disable_preempt>:
ffffffc0504000a0:	8082                	ret
ffffffc0504000a2:	0001                	nop

ffffffc0504000a4 <enable_interrupt>:
ffffffc0504000a4:	4289                	li	t0,2
ffffffc0504000a6:	1002a073          	csrs	sstatus,t0
ffffffc0504000aa:	8082                	ret

ffffffc0504000ac <disable_interrupt>:
ffffffc0504000ac:	4289                	li	t0,2
ffffffc0504000ae:	1002b073          	csrc	sstatus,t0
ffffffc0504000b2:	8082                	ret

ffffffc0504000b4 <switch_to>:
ffffffc0504000b4:	00053283          	ld	t0,0(a0)
ffffffc0504000b8:	0012b023          	sd	ra,0(t0)
ffffffc0504000bc:	0022b423          	sd	sp,8(t0)
ffffffc0504000c0:	0082b823          	sd	s0,16(t0)
ffffffc0504000c4:	0092bc23          	sd	s1,24(t0)
ffffffc0504000c8:	0322b023          	sd	s2,32(t0)
ffffffc0504000cc:	0332b423          	sd	s3,40(t0)
ffffffc0504000d0:	0342b823          	sd	s4,48(t0)
ffffffc0504000d4:	0352bc23          	sd	s5,56(t0)
ffffffc0504000d8:	0562b023          	sd	s6,64(t0)
ffffffc0504000dc:	0572b423          	sd	s7,72(t0)
ffffffc0504000e0:	0582b823          	sd	s8,80(t0)
ffffffc0504000e4:	0592bc23          	sd	s9,88(t0)
ffffffc0504000e8:	07a2b023          	sd	s10,96(t0)
ffffffc0504000ec:	07b2b423          	sd	s11,104(t0)
ffffffc0504000f0:	822e                	mv	tp,a1
ffffffc0504000f2:	0005b283          	ld	t0,0(a1)
ffffffc0504000f6:	0105b303          	ld	t1,16(a1)
ffffffc0504000fa:	18031073          	csrw	satp,t1
ffffffc0504000fe:	12000073          	sfence.vma
ffffffc050400102:	0002b083          	ld	ra,0(t0)
ffffffc050400106:	0082b103          	ld	sp,8(t0)
ffffffc05040010a:	0102b403          	ld	s0,16(t0)
ffffffc05040010e:	0182b483          	ld	s1,24(t0)
ffffffc050400112:	0202b903          	ld	s2,32(t0)
ffffffc050400116:	0282b983          	ld	s3,40(t0)
ffffffc05040011a:	0302ba03          	ld	s4,48(t0)
ffffffc05040011e:	0382ba83          	ld	s5,56(t0)
ffffffc050400122:	0402bb03          	ld	s6,64(t0)
ffffffc050400126:	0482bb83          	ld	s7,72(t0)
ffffffc05040012a:	0502bc03          	ld	s8,80(t0)
ffffffc05040012e:	0582bc83          	ld	s9,88(t0)
ffffffc050400132:	0602bd03          	ld	s10,96(t0)
ffffffc050400136:	0682bd83          	ld	s11,104(t0)
ffffffc05040013a:	8082                	ret

ffffffc05040013c <ret_from_exception>:
ffffffc05040013c:	2d8040ef          	jal	ra,ffffffc050404414 <unlock_kernel>
ffffffc050400140:	00023103          	ld	sp,0(tp) # 0 <_start-0xffffffc050400000>
ffffffc050400144:	6165                	addi	sp,sp,112
ffffffc050400146:	6412                	ld	s0,256(sp)
ffffffc050400148:	64b2                	ld	s1,264(sp)
ffffffc05040014a:	10041073          	csrw	sstatus,s0
ffffffc05040014e:	14149073          	csrw	sepc,s1
ffffffc050400152:	60a2                	ld	ra,8(sp)
ffffffc050400154:	61e2                	ld	gp,24(sp)
ffffffc050400156:	72a2                	ld	t0,40(sp)
ffffffc050400158:	7342                	ld	t1,48(sp)
ffffffc05040015a:	73e2                	ld	t2,56(sp)
ffffffc05040015c:	6406                	ld	s0,64(sp)
ffffffc05040015e:	64a6                	ld	s1,72(sp)
ffffffc050400160:	6546                	ld	a0,80(sp)
ffffffc050400162:	65e6                	ld	a1,88(sp)
ffffffc050400164:	7606                	ld	a2,96(sp)
ffffffc050400166:	76a6                	ld	a3,104(sp)
ffffffc050400168:	7746                	ld	a4,112(sp)
ffffffc05040016a:	77e6                	ld	a5,120(sp)
ffffffc05040016c:	680a                	ld	a6,128(sp)
ffffffc05040016e:	68aa                	ld	a7,136(sp)
ffffffc050400170:	694a                	ld	s2,144(sp)
ffffffc050400172:	69ea                	ld	s3,152(sp)
ffffffc050400174:	7a0a                	ld	s4,160(sp)
ffffffc050400176:	7aaa                	ld	s5,168(sp)
ffffffc050400178:	7b4a                	ld	s6,176(sp)
ffffffc05040017a:	7bea                	ld	s7,184(sp)
ffffffc05040017c:	6c0e                	ld	s8,192(sp)
ffffffc05040017e:	6cae                	ld	s9,200(sp)
ffffffc050400180:	6d4e                	ld	s10,208(sp)
ffffffc050400182:	6dee                	ld	s11,216(sp)
ffffffc050400184:	7e0e                	ld	t3,224(sp)
ffffffc050400186:	7eae                	ld	t4,232(sp)
ffffffc050400188:	7f4e                	ld	t5,240(sp)
ffffffc05040018a:	7fee                	ld	t6,248(sp)
ffffffc05040018c:	6142                	ld	sp,16(sp)
ffffffc05040018e:	10200073          	sret
ffffffc050400192:	0001                	nop

ffffffc050400194 <exception_handler_entry>:
ffffffc050400194:	14011073          	csrw	sscratch,sp
ffffffc050400198:	00023103          	ld	sp,0(tp) # 0 <_start-0xffffffc050400000>
ffffffc05040019c:	6165                	addi	sp,sp,112
ffffffc05040019e:	e406                	sd	ra,8(sp)
ffffffc0504001a0:	ec0e                	sd	gp,24(sp)
ffffffc0504001a2:	f416                	sd	t0,40(sp)
ffffffc0504001a4:	f81a                	sd	t1,48(sp)
ffffffc0504001a6:	fc1e                	sd	t2,56(sp)
ffffffc0504001a8:	e0a2                	sd	s0,64(sp)
ffffffc0504001aa:	e4a6                	sd	s1,72(sp)
ffffffc0504001ac:	e8aa                	sd	a0,80(sp)
ffffffc0504001ae:	ecae                	sd	a1,88(sp)
ffffffc0504001b0:	f0b2                	sd	a2,96(sp)
ffffffc0504001b2:	f4b6                	sd	a3,104(sp)
ffffffc0504001b4:	f8ba                	sd	a4,112(sp)
ffffffc0504001b6:	fcbe                	sd	a5,120(sp)
ffffffc0504001b8:	e142                	sd	a6,128(sp)
ffffffc0504001ba:	e546                	sd	a7,136(sp)
ffffffc0504001bc:	e94a                	sd	s2,144(sp)
ffffffc0504001be:	ed4e                	sd	s3,152(sp)
ffffffc0504001c0:	f152                	sd	s4,160(sp)
ffffffc0504001c2:	f556                	sd	s5,168(sp)
ffffffc0504001c4:	f95a                	sd	s6,176(sp)
ffffffc0504001c6:	fd5e                	sd	s7,184(sp)
ffffffc0504001c8:	e1e2                	sd	s8,192(sp)
ffffffc0504001ca:	e5e6                	sd	s9,200(sp)
ffffffc0504001cc:	e9ea                	sd	s10,208(sp)
ffffffc0504001ce:	edee                	sd	s11,216(sp)
ffffffc0504001d0:	f1f2                	sd	t3,224(sp)
ffffffc0504001d2:	f5f6                	sd	t4,232(sp)
ffffffc0504001d4:	f9fa                	sd	t5,240(sp)
ffffffc0504001d6:	fdfe                	sd	t6,248(sp)
ffffffc0504001d8:	14002473          	csrr	s0,sscratch
ffffffc0504001dc:	e822                	sd	s0,16(sp)
ffffffc0504001de:	6299                	lui	t0,0x6
ffffffc0504001e0:	1002b473          	csrrc	s0,sstatus,t0
ffffffc0504001e4:	141024f3          	csrr	s1,sepc
ffffffc0504001e8:	14302973          	csrr	s2,stval
ffffffc0504001ec:	142029f3          	csrr	s3,scause
ffffffc0504001f0:	e222                	sd	s0,256(sp)
ffffffc0504001f2:	e626                	sd	s1,264(sp)
ffffffc0504001f4:	ea4a                	sd	s2,272(sp)
ffffffc0504001f6:	ee4e                	sd	s3,280(sp)
ffffffc0504001f8:	7159                	addi	sp,sp,-112
ffffffc0504001fa:	00065197          	auipc	gp,0x65
ffffffc0504001fe:	28618193          	addi	gp,gp,646 # ffffffc050465480 <__global_pointer$>
ffffffc050400202:	1e4040ef          	jal	ra,ffffffc0504043e6 <lock_kernel>
ffffffc050400206:	00023503          	ld	a0,0(tp) # 0 <_start-0xffffffc050400000>
ffffffc05040020a:	07050513          	addi	a0,a0,112
ffffffc05040020e:	143025f3          	csrr	a1,stval
ffffffc050400212:	14202673          	csrr	a2,scause
ffffffc050400216:	7db000ef          	jal	ra,ffffffc0504011f0 <interrupt_helper>
ffffffc05040021a:	00000097          	auipc	ra,0x0
ffffffc05040021e:	f2208093          	addi	ra,ra,-222 # ffffffc05040013c <ret_from_exception>
ffffffc050400222:	8082                	ret

ffffffc050400224 <sbi_console_putstr>:
ffffffc050400224:	1101                	addi	sp,sp,-32
ffffffc050400226:	ec22                	sd	s0,24(sp)
ffffffc050400228:	1000                	addi	s0,sp,32
ffffffc05040022a:	fea43423          	sd	a0,-24(s0)
ffffffc05040022e:	a839                	j	ffffffc05040024c <sbi_console_putstr+0x28>
ffffffc050400230:	fe843783          	ld	a5,-24(s0)
ffffffc050400234:	00178713          	addi	a4,a5,1
ffffffc050400238:	fee43423          	sd	a4,-24(s0)
ffffffc05040023c:	0007c783          	lbu	a5,0(a5)
ffffffc050400240:	853e                	mv	a0,a5
ffffffc050400242:	4581                	li	a1,0
ffffffc050400244:	4601                	li	a2,0
ffffffc050400246:	4885                	li	a7,1
ffffffc050400248:	00000073          	ecall
ffffffc05040024c:	fe843783          	ld	a5,-24(s0)
ffffffc050400250:	0007c783          	lbu	a5,0(a5)
ffffffc050400254:	fff1                	bnez	a5,ffffffc050400230 <sbi_console_putstr+0xc>
ffffffc050400256:	0001                	nop
ffffffc050400258:	0001                	nop
ffffffc05040025a:	6462                	ld	s0,24(sp)
ffffffc05040025c:	6105                	addi	sp,sp,32
ffffffc05040025e:	8082                	ret

ffffffc050400260 <sbi_console_putchar>:
ffffffc050400260:	1101                	addi	sp,sp,-32
ffffffc050400262:	ec22                	sd	s0,24(sp)
ffffffc050400264:	1000                	addi	s0,sp,32
ffffffc050400266:	87aa                	mv	a5,a0
ffffffc050400268:	fef42623          	sw	a5,-20(s0)
ffffffc05040026c:	fec42783          	lw	a5,-20(s0)
ffffffc050400270:	853e                	mv	a0,a5
ffffffc050400272:	4581                	li	a1,0
ffffffc050400274:	4601                	li	a2,0
ffffffc050400276:	4885                	li	a7,1
ffffffc050400278:	00000073          	ecall
ffffffc05040027c:	0001                	nop
ffffffc05040027e:	6462                	ld	s0,24(sp)
ffffffc050400280:	6105                	addi	sp,sp,32
ffffffc050400282:	8082                	ret

ffffffc050400284 <port_write_ch>:
ffffffc050400284:	1101                	addi	sp,sp,-32
ffffffc050400286:	ec06                	sd	ra,24(sp)
ffffffc050400288:	e822                	sd	s0,16(sp)
ffffffc05040028a:	1000                	addi	s0,sp,32
ffffffc05040028c:	87aa                	mv	a5,a0
ffffffc05040028e:	fef407a3          	sb	a5,-17(s0)
ffffffc050400292:	fef44783          	lbu	a5,-17(s0)
ffffffc050400296:	2781                	sext.w	a5,a5
ffffffc050400298:	853e                	mv	a0,a5
ffffffc05040029a:	fc7ff0ef          	jal	ra,ffffffc050400260 <sbi_console_putchar>
ffffffc05040029e:	0001                	nop
ffffffc0504002a0:	60e2                	ld	ra,24(sp)
ffffffc0504002a2:	6442                	ld	s0,16(sp)
ffffffc0504002a4:	6105                	addi	sp,sp,32
ffffffc0504002a6:	8082                	ret

ffffffc0504002a8 <port_write>:
ffffffc0504002a8:	1101                	addi	sp,sp,-32
ffffffc0504002aa:	ec06                	sd	ra,24(sp)
ffffffc0504002ac:	e822                	sd	s0,16(sp)
ffffffc0504002ae:	1000                	addi	s0,sp,32
ffffffc0504002b0:	fea43423          	sd	a0,-24(s0)
ffffffc0504002b4:	fe843503          	ld	a0,-24(s0)
ffffffc0504002b8:	f6dff0ef          	jal	ra,ffffffc050400224 <sbi_console_putstr>
ffffffc0504002bc:	0001                	nop
ffffffc0504002be:	60e2                	ld	ra,24(sp)
ffffffc0504002c0:	6442                	ld	s0,16(sp)
ffffffc0504002c2:	6105                	addi	sp,sp,32
ffffffc0504002c4:	8082                	ret
	...

ffffffc0504002c8 <get_current_cpu_id>:
ffffffc0504002c8:	f1402573          	csrr	a0,mhartid
ffffffc0504002cc:	8082                	ret

ffffffc0504002ce <sbi_console_getchar>:
ffffffc0504002ce:	1141                	addi	sp,sp,-16
ffffffc0504002d0:	e422                	sd	s0,8(sp)
ffffffc0504002d2:	0800                	addi	s0,sp,16
ffffffc0504002d4:	4501                	li	a0,0
ffffffc0504002d6:	4581                	li	a1,0
ffffffc0504002d8:	4601                	li	a2,0
ffffffc0504002da:	4889                	li	a7,2
ffffffc0504002dc:	00000073          	ecall
ffffffc0504002e0:	87aa                	mv	a5,a0
ffffffc0504002e2:	2781                	sext.w	a5,a5
ffffffc0504002e4:	853e                	mv	a0,a5
ffffffc0504002e6:	6422                	ld	s0,8(sp)
ffffffc0504002e8:	0141                	addi	sp,sp,16
ffffffc0504002ea:	8082                	ret

ffffffc0504002ec <sbi_set_timer>:
ffffffc0504002ec:	1101                	addi	sp,sp,-32
ffffffc0504002ee:	ec22                	sd	s0,24(sp)
ffffffc0504002f0:	1000                	addi	s0,sp,32
ffffffc0504002f2:	fea43423          	sd	a0,-24(s0)
ffffffc0504002f6:	fe843503          	ld	a0,-24(s0)
ffffffc0504002fa:	4581                	li	a1,0
ffffffc0504002fc:	4601                	li	a2,0
ffffffc0504002fe:	4881                	li	a7,0
ffffffc050400300:	00000073          	ecall
ffffffc050400304:	0001                	nop
ffffffc050400306:	6462                	ld	s0,24(sp)
ffffffc050400308:	6105                	addi	sp,sp,32
ffffffc05040030a:	8082                	ret

ffffffc05040030c <sbi_read_fdt>:
ffffffc05040030c:	1101                	addi	sp,sp,-32
ffffffc05040030e:	ec22                	sd	s0,24(sp)
ffffffc050400310:	1000                	addi	s0,sp,32
ffffffc050400312:	87aa                	mv	a5,a0
ffffffc050400314:	fef42623          	sw	a5,-20(s0)
ffffffc050400318:	fec42783          	lw	a5,-20(s0)
ffffffc05040031c:	853e                	mv	a0,a5
ffffffc05040031e:	4581                	li	a1,0
ffffffc050400320:	4601                	li	a2,0
ffffffc050400322:	48b1                	li	a7,12
ffffffc050400324:	00000073          	ecall
ffffffc050400328:	87aa                	mv	a5,a0
ffffffc05040032a:	2781                	sext.w	a5,a5
ffffffc05040032c:	853e                	mv	a0,a5
ffffffc05040032e:	6462                	ld	s0,24(sp)
ffffffc050400330:	6105                	addi	sp,sp,32
ffffffc050400332:	8082                	ret

ffffffc050400334 <pa2kva>:
ffffffc050400334:	1101                	addi	sp,sp,-32
ffffffc050400336:	ec22                	sd	s0,24(sp)
ffffffc050400338:	1000                	addi	s0,sp,32
ffffffc05040033a:	fea43423          	sd	a0,-24(s0)
ffffffc05040033e:	fe843703          	ld	a4,-24(s0)
ffffffc050400342:	57fd                	li	a5,-1
ffffffc050400344:	179a                	slli	a5,a5,0x26
ffffffc050400346:	97ba                	add	a5,a5,a4
ffffffc050400348:	853e                	mv	a0,a5
ffffffc05040034a:	6462                	ld	s0,24(sp)
ffffffc05040034c:	6105                	addi	sp,sp,32
ffffffc05040034e:	8082                	ret

ffffffc050400350 <is_elf_format>:
ffffffc050400350:	7179                	addi	sp,sp,-48
ffffffc050400352:	f422                	sd	s0,40(sp)
ffffffc050400354:	1800                	addi	s0,sp,48
ffffffc050400356:	fca43c23          	sd	a0,-40(s0)
ffffffc05040035a:	fd843783          	ld	a5,-40(s0)
ffffffc05040035e:	fef43423          	sd	a5,-24(s0)
ffffffc050400362:	fe843783          	ld	a5,-24(s0)
ffffffc050400366:	0007c783          	lbu	a5,0(a5)
ffffffc05040036a:	eb9d                	bnez	a5,ffffffc0504003a0 <is_elf_format+0x50>
ffffffc05040036c:	fe843783          	ld	a5,-24(s0)
ffffffc050400370:	0017c783          	lbu	a5,1(a5)
ffffffc050400374:	873e                	mv	a4,a5
ffffffc050400376:	4785                	li	a5,1
ffffffc050400378:	02f71463          	bne	a4,a5,ffffffc0504003a0 <is_elf_format+0x50>
ffffffc05040037c:	fe843783          	ld	a5,-24(s0)
ffffffc050400380:	0027c783          	lbu	a5,2(a5)
ffffffc050400384:	873e                	mv	a4,a5
ffffffc050400386:	4789                	li	a5,2
ffffffc050400388:	00f71c63          	bne	a4,a5,ffffffc0504003a0 <is_elf_format+0x50>
ffffffc05040038c:	fe843783          	ld	a5,-24(s0)
ffffffc050400390:	0037c783          	lbu	a5,3(a5)
ffffffc050400394:	873e                	mv	a4,a5
ffffffc050400396:	478d                	li	a5,3
ffffffc050400398:	00f71463          	bne	a4,a5,ffffffc0504003a0 <is_elf_format+0x50>
ffffffc05040039c:	4781                	li	a5,0
ffffffc05040039e:	a011                	j	ffffffc0504003a2 <is_elf_format+0x52>
ffffffc0504003a0:	4785                	li	a5,1
ffffffc0504003a2:	853e                	mv	a0,a5
ffffffc0504003a4:	7422                	ld	s0,40(sp)
ffffffc0504003a6:	6145                	addi	sp,sp,48
ffffffc0504003a8:	8082                	ret

ffffffc0504003aa <load_elf>:
ffffffc0504003aa:	7159                	addi	sp,sp,-112
ffffffc0504003ac:	f486                	sd	ra,104(sp)
ffffffc0504003ae:	f0a2                	sd	s0,96(sp)
ffffffc0504003b0:	1880                	addi	s0,sp,112
ffffffc0504003b2:	faa43423          	sd	a0,-88(s0)
ffffffc0504003b6:	87ae                	mv	a5,a1
ffffffc0504003b8:	f8c43c23          	sd	a2,-104(s0)
ffffffc0504003bc:	f8d43823          	sd	a3,-112(s0)
ffffffc0504003c0:	faf42223          	sw	a5,-92(s0)
ffffffc0504003c4:	fa843783          	ld	a5,-88(s0)
ffffffc0504003c8:	fcf43823          	sd	a5,-48(s0)
ffffffc0504003cc:	fc043423          	sd	zero,-56(s0)
ffffffc0504003d0:	fe043423          	sd	zero,-24(s0)
ffffffc0504003d4:	fe042023          	sw	zero,-32(s0)
ffffffc0504003d8:	fa442783          	lw	a5,-92(s0)
ffffffc0504003dc:	0007871b          	sext.w	a4,a5
ffffffc0504003e0:	478d                	li	a5,3
ffffffc0504003e2:	00e7f863          	bgeu	a5,a4,ffffffc0504003f2 <load_elf+0x48>
ffffffc0504003e6:	fa843503          	ld	a0,-88(s0)
ffffffc0504003ea:	f67ff0ef          	jal	ra,ffffffc050400350 <is_elf_format>
ffffffc0504003ee:	87aa                	mv	a5,a0
ffffffc0504003f0:	e399                	bnez	a5,ffffffc0504003f6 <load_elf+0x4c>
ffffffc0504003f2:	4781                	li	a5,0
ffffffc0504003f4:	a269                	j	ffffffc05040057e <load_elf+0x1d4>
ffffffc0504003f6:	fd043783          	ld	a5,-48(s0)
ffffffc0504003fa:	739c                	ld	a5,32(a5)
ffffffc0504003fc:	fa843703          	ld	a4,-88(s0)
ffffffc050400400:	97ba                	add	a5,a5,a4
ffffffc050400402:	fef43423          	sd	a5,-24(s0)
ffffffc050400406:	fd043783          	ld	a5,-48(s0)
ffffffc05040040a:	0387d783          	lhu	a5,56(a5)
ffffffc05040040e:	fef41323          	sh	a5,-26(s0)
ffffffc050400412:	fd043783          	ld	a5,-48(s0)
ffffffc050400416:	0367d783          	lhu	a5,54(a5)
ffffffc05040041a:	fcf41323          	sh	a5,-58(s0)
ffffffc05040041e:	a2a9                	j	ffffffc050400568 <load_elf+0x1be>
ffffffc050400420:	fe843783          	ld	a5,-24(s0)
ffffffc050400424:	fcf43423          	sd	a5,-56(s0)
ffffffc050400428:	fc843783          	ld	a5,-56(s0)
ffffffc05040042c:	439c                	lw	a5,0(a5)
ffffffc05040042e:	873e                	mv	a4,a5
ffffffc050400430:	4785                	li	a5,1
ffffffc050400432:	12f71463          	bne	a4,a5,ffffffc05040055a <load_elf+0x1b0>
ffffffc050400436:	fe042023          	sw	zero,-32(s0)
ffffffc05040043a:	aa09                	j	ffffffc05040054c <load_elf+0x1a2>
ffffffc05040043c:	fe042703          	lw	a4,-32(s0)
ffffffc050400440:	fc843783          	ld	a5,-56(s0)
ffffffc050400444:	739c                	ld	a5,32(a5)
ffffffc050400446:	0af77563          	bgeu	a4,a5,ffffffc0504004f0 <load_elf+0x146>
ffffffc05040044a:	fc843783          	ld	a5,-56(s0)
ffffffc05040044e:	6b98                	ld	a4,16(a5)
ffffffc050400450:	fe042783          	lw	a5,-32(s0)
ffffffc050400454:	97ba                	add	a5,a5,a4
ffffffc050400456:	f9043703          	ld	a4,-112(s0)
ffffffc05040045a:	4601                	li	a2,0
ffffffc05040045c:	f9843583          	ld	a1,-104(s0)
ffffffc050400460:	853e                	mv	a0,a5
ffffffc050400462:	9702                	jalr	a4
ffffffc050400464:	87aa                	mv	a5,a0
ffffffc050400466:	faf43823          	sd	a5,-80(s0)
ffffffc05040046a:	fc843783          	ld	a5,-56(s0)
ffffffc05040046e:	6798                	ld	a4,8(a5)
ffffffc050400470:	fe042783          	lw	a5,-32(s0)
ffffffc050400474:	97ba                	add	a5,a5,a4
ffffffc050400476:	fa843703          	ld	a4,-88(s0)
ffffffc05040047a:	00f706b3          	add	a3,a4,a5
ffffffc05040047e:	fc843783          	ld	a5,-56(s0)
ffffffc050400482:	7398                	ld	a4,32(a5)
ffffffc050400484:	fe042783          	lw	a5,-32(s0)
ffffffc050400488:	40f707b3          	sub	a5,a4,a5
ffffffc05040048c:	6705                	lui	a4,0x1
ffffffc05040048e:	00f77363          	bgeu	a4,a5,ffffffc050400494 <load_elf+0xea>
ffffffc050400492:	6785                	lui	a5,0x1
ffffffc050400494:	2781                	sext.w	a5,a5
ffffffc050400496:	863e                	mv	a2,a5
ffffffc050400498:	85b6                	mv	a1,a3
ffffffc05040049a:	fb043503          	ld	a0,-80(s0)
ffffffc05040049e:	790050ef          	jal	ra,ffffffc050405c2e <kmemcpy>
ffffffc0504004a2:	fc843783          	ld	a5,-56(s0)
ffffffc0504004a6:	7398                	ld	a4,32(a5)
ffffffc0504004a8:	fe042783          	lw	a5,-32(s0)
ffffffc0504004ac:	8f1d                	sub	a4,a4,a5
ffffffc0504004ae:	6785                	lui	a5,0x1
ffffffc0504004b0:	08f77763          	bgeu	a4,a5,ffffffc05040053e <load_elf+0x194>
ffffffc0504004b4:	fc843783          	ld	a5,-56(s0)
ffffffc0504004b8:	739c                	ld	a5,32(a5)
ffffffc0504004ba:	0007871b          	sext.w	a4,a5
ffffffc0504004be:	6785                	lui	a5,0x1
ffffffc0504004c0:	17fd                	addi	a5,a5,-1
ffffffc0504004c2:	8ff9                	and	a5,a5,a4
ffffffc0504004c4:	fcf42e23          	sw	a5,-36(s0)
ffffffc0504004c8:	a829                	j	ffffffc0504004e2 <load_elf+0x138>
ffffffc0504004ca:	fdc42783          	lw	a5,-36(s0)
ffffffc0504004ce:	fb043703          	ld	a4,-80(s0)
ffffffc0504004d2:	97ba                	add	a5,a5,a4
ffffffc0504004d4:	00078023          	sb	zero,0(a5) # 1000 <_start-0xffffffc0503ff000>
ffffffc0504004d8:	fdc42783          	lw	a5,-36(s0)
ffffffc0504004dc:	2785                	addiw	a5,a5,1
ffffffc0504004de:	fcf42e23          	sw	a5,-36(s0)
ffffffc0504004e2:	fdc42783          	lw	a5,-36(s0)
ffffffc0504004e6:	873e                	mv	a4,a5
ffffffc0504004e8:	6785                	lui	a5,0x1
ffffffc0504004ea:	fef760e3          	bltu	a4,a5,ffffffc0504004ca <load_elf+0x120>
ffffffc0504004ee:	a881                	j	ffffffc05040053e <load_elf+0x194>
ffffffc0504004f0:	fc843783          	ld	a5,-56(s0)
ffffffc0504004f4:	6b98                	ld	a4,16(a5)
ffffffc0504004f6:	fe042783          	lw	a5,-32(s0)
ffffffc0504004fa:	97ba                	add	a5,a5,a4
ffffffc0504004fc:	f9043703          	ld	a4,-112(s0)
ffffffc050400500:	4601                	li	a2,0
ffffffc050400502:	f9843583          	ld	a1,-104(s0)
ffffffc050400506:	853e                	mv	a0,a5
ffffffc050400508:	9702                	jalr	a4
ffffffc05040050a:	87aa                	mv	a5,a0
ffffffc05040050c:	faf43c23          	sd	a5,-72(s0)
ffffffc050400510:	fc042c23          	sw	zero,-40(s0)
ffffffc050400514:	a831                	j	ffffffc050400530 <load_elf+0x186>
ffffffc050400516:	fd842783          	lw	a5,-40(s0)
ffffffc05040051a:	078e                	slli	a5,a5,0x3
ffffffc05040051c:	fb843703          	ld	a4,-72(s0)
ffffffc050400520:	97ba                	add	a5,a5,a4
ffffffc050400522:	0007b023          	sd	zero,0(a5) # 1000 <_start-0xffffffc0503ff000>
ffffffc050400526:	fd842783          	lw	a5,-40(s0)
ffffffc05040052a:	2785                	addiw	a5,a5,1
ffffffc05040052c:	fcf42c23          	sw	a5,-40(s0)
ffffffc050400530:	fd842783          	lw	a5,-40(s0)
ffffffc050400534:	873e                	mv	a4,a5
ffffffc050400536:	1ff00793          	li	a5,511
ffffffc05040053a:	fce7fee3          	bgeu	a5,a4,ffffffc050400516 <load_elf+0x16c>
ffffffc05040053e:	fe042703          	lw	a4,-32(s0)
ffffffc050400542:	6785                	lui	a5,0x1
ffffffc050400544:	9fb9                	addw	a5,a5,a4
ffffffc050400546:	2781                	sext.w	a5,a5
ffffffc050400548:	fef42023          	sw	a5,-32(s0)
ffffffc05040054c:	fe042703          	lw	a4,-32(s0)
ffffffc050400550:	fc843783          	ld	a5,-56(s0)
ffffffc050400554:	779c                	ld	a5,40(a5)
ffffffc050400556:	eef763e3          	bltu	a4,a5,ffffffc05040043c <load_elf+0x92>
ffffffc05040055a:	fc645783          	lhu	a5,-58(s0)
ffffffc05040055e:	fe843703          	ld	a4,-24(s0)
ffffffc050400562:	97ba                	add	a5,a5,a4
ffffffc050400564:	fef43423          	sd	a5,-24(s0)
ffffffc050400568:	fe645783          	lhu	a5,-26(s0)
ffffffc05040056c:	fff7871b          	addiw	a4,a5,-1
ffffffc050400570:	fee41323          	sh	a4,-26(s0)
ffffffc050400574:	ea0796e3          	bnez	a5,ffffffc050400420 <load_elf+0x76>
ffffffc050400578:	fd043783          	ld	a5,-48(s0)
ffffffc05040057c:	6f9c                	ld	a5,24(a5)
ffffffc05040057e:	853e                	mv	a0,a5
ffffffc050400580:	70a6                	ld	ra,104(sp)
ffffffc050400582:	7406                	ld	s0,96(sp)
ffffffc050400584:	6165                	addi	sp,sp,112
ffffffc050400586:	8082                	ret

ffffffc050400588 <init_pcb_stack>:
ffffffc050400588:	7131                	addi	sp,sp,-192
ffffffc05040058a:	fd06                	sd	ra,184(sp)
ffffffc05040058c:	f922                	sd	s0,176(sp)
ffffffc05040058e:	0180                	addi	s0,sp,192
ffffffc050400590:	f6a43c23          	sd	a0,-136(s0)
ffffffc050400594:	f6b43823          	sd	a1,-144(s0)
ffffffc050400598:	f6c43423          	sd	a2,-152(s0)
ffffffc05040059c:	f6d43023          	sd	a3,-160(s0)
ffffffc0504005a0:	f4f43823          	sd	a5,-176(s0)
ffffffc0504005a4:	f5043423          	sd	a6,-184(s0)
ffffffc0504005a8:	87ba                	mv	a5,a4
ffffffc0504005aa:	f4f42e23          	sw	a5,-164(s0)
ffffffc0504005ae:	fe042623          	sw	zero,-20(s0)
ffffffc0504005b2:	a059                	j	ffffffc050400638 <init_pcb_stack+0xb0>
ffffffc0504005b4:	fec42783          	lw	a5,-20(s0)
ffffffc0504005b8:	078e                	slli	a5,a5,0x3
ffffffc0504005ba:	f5043703          	ld	a4,-176(s0)
ffffffc0504005be:	97ba                	add	a5,a5,a4
ffffffc0504005c0:	639c                	ld	a5,0(a5)
ffffffc0504005c2:	853e                	mv	a0,a5
ffffffc0504005c4:	634050ef          	jal	ra,ffffffc050405bf8 <kstrlen>
ffffffc0504005c8:	87aa                	mv	a5,a0
ffffffc0504005ca:	2785                	addiw	a5,a5,1
ffffffc0504005cc:	fcf42a23          	sw	a5,-44(s0)
ffffffc0504005d0:	fd442783          	lw	a5,-44(s0)
ffffffc0504005d4:	f6043703          	ld	a4,-160(s0)
ffffffc0504005d8:	40f707b3          	sub	a5,a4,a5
ffffffc0504005dc:	86be                	mv	a3,a5
ffffffc0504005de:	fec42783          	lw	a5,-20(s0)
ffffffc0504005e2:	078e                	slli	a5,a5,0x3
ffffffc0504005e4:	f5043703          	ld	a4,-176(s0)
ffffffc0504005e8:	97ba                	add	a5,a5,a4
ffffffc0504005ea:	639c                	ld	a5,0(a5)
ffffffc0504005ec:	fd442703          	lw	a4,-44(s0)
ffffffc0504005f0:	863a                	mv	a2,a4
ffffffc0504005f2:	85be                	mv	a1,a5
ffffffc0504005f4:	8536                	mv	a0,a3
ffffffc0504005f6:	638050ef          	jal	ra,ffffffc050405c2e <kmemcpy>
ffffffc0504005fa:	fd442783          	lw	a5,-44(s0)
ffffffc0504005fe:	f6043703          	ld	a4,-160(s0)
ffffffc050400602:	40f707b3          	sub	a5,a4,a5
ffffffc050400606:	f6f43023          	sd	a5,-160(s0)
ffffffc05040060a:	fd442783          	lw	a5,-44(s0)
ffffffc05040060e:	f7043703          	ld	a4,-144(s0)
ffffffc050400612:	40f707b3          	sub	a5,a4,a5
ffffffc050400616:	f6f43823          	sd	a5,-144(s0)
ffffffc05040061a:	f7043703          	ld	a4,-144(s0)
ffffffc05040061e:	fec42783          	lw	a5,-20(s0)
ffffffc050400622:	078e                	slli	a5,a5,0x3
ffffffc050400624:	ff040693          	addi	a3,s0,-16
ffffffc050400628:	97b6                	add	a5,a5,a3
ffffffc05040062a:	f8e7b823          	sd	a4,-112(a5) # f90 <_start-0xffffffc0503ff070>
ffffffc05040062e:	fec42783          	lw	a5,-20(s0)
ffffffc050400632:	2785                	addiw	a5,a5,1
ffffffc050400634:	fef42623          	sw	a5,-20(s0)
ffffffc050400638:	fec42703          	lw	a4,-20(s0)
ffffffc05040063c:	f5c42783          	lw	a5,-164(s0)
ffffffc050400640:	2701                	sext.w	a4,a4
ffffffc050400642:	2781                	sext.w	a5,a5
ffffffc050400644:	f6f748e3          	blt	a4,a5,ffffffc0504005b4 <init_pcb_stack+0x2c>
ffffffc050400648:	f5c42783          	lw	a5,-164(s0)
ffffffc05040064c:	0037979b          	slliw	a5,a5,0x3
ffffffc050400650:	2781                	sext.w	a5,a5
ffffffc050400652:	873e                	mv	a4,a5
ffffffc050400654:	f6043783          	ld	a5,-160(s0)
ffffffc050400658:	8f99                	sub	a5,a5,a4
ffffffc05040065a:	86be                	mv	a3,a5
ffffffc05040065c:	f5c42783          	lw	a5,-164(s0)
ffffffc050400660:	0037979b          	slliw	a5,a5,0x3
ffffffc050400664:	2781                	sext.w	a5,a5
ffffffc050400666:	0007871b          	sext.w	a4,a5
ffffffc05040066a:	f8040793          	addi	a5,s0,-128
ffffffc05040066e:	863a                	mv	a2,a4
ffffffc050400670:	85be                	mv	a1,a5
ffffffc050400672:	8536                	mv	a0,a3
ffffffc050400674:	5ba050ef          	jal	ra,ffffffc050405c2e <kmemcpy>
ffffffc050400678:	f5c42783          	lw	a5,-164(s0)
ffffffc05040067c:	0037979b          	slliw	a5,a5,0x3
ffffffc050400680:	2781                	sext.w	a5,a5
ffffffc050400682:	873e                	mv	a4,a5
ffffffc050400684:	f7043783          	ld	a5,-144(s0)
ffffffc050400688:	8f99                	sub	a5,a5,a4
ffffffc05040068a:	f6f43823          	sd	a5,-144(s0)
ffffffc05040068e:	f7843783          	ld	a5,-136(s0)
ffffffc050400692:	ee078793          	addi	a5,a5,-288
ffffffc050400696:	fef43023          	sd	a5,-32(s0)
ffffffc05040069a:	f7043783          	ld	a5,-144(s0)
ffffffc05040069e:	f807f713          	andi	a4,a5,-128
ffffffc0504006a2:	fe043783          	ld	a5,-32(s0)
ffffffc0504006a6:	eb98                	sd	a4,16(a5)
ffffffc0504006a8:	00018713          	mv	a4,gp
ffffffc0504006ac:	fe043783          	ld	a5,-32(s0)
ffffffc0504006b0:	ef98                	sd	a4,24(a5)
ffffffc0504006b2:	f4843703          	ld	a4,-184(s0)
ffffffc0504006b6:	fe043783          	ld	a5,-32(s0)
ffffffc0504006ba:	f398                	sd	a4,32(a5)
ffffffc0504006bc:	f5c42703          	lw	a4,-164(s0)
ffffffc0504006c0:	fe043783          	ld	a5,-32(s0)
ffffffc0504006c4:	ebb8                	sd	a4,80(a5)
ffffffc0504006c6:	fe043783          	ld	a5,-32(s0)
ffffffc0504006ca:	f7043703          	ld	a4,-144(s0)
ffffffc0504006ce:	efb8                	sd	a4,88(a5)
ffffffc0504006d0:	fe043783          	ld	a5,-32(s0)
ffffffc0504006d4:	f6843703          	ld	a4,-152(s0)
ffffffc0504006d8:	10e7b423          	sd	a4,264(a5)
ffffffc0504006dc:	fe043783          	ld	a5,-32(s0)
ffffffc0504006e0:	00040737          	lui	a4,0x40
ffffffc0504006e4:	10e7b023          	sd	a4,256(a5)
ffffffc0504006e8:	fe043783          	ld	a5,-32(s0)
ffffffc0504006ec:	1007bc23          	sd	zero,280(a5)
ffffffc0504006f0:	fe043783          	ld	a5,-32(s0)
ffffffc0504006f4:	1007b823          	sd	zero,272(a5)
ffffffc0504006f8:	f7843783          	ld	a5,-136(s0)
ffffffc0504006fc:	e7078713          	addi	a4,a5,-400
ffffffc050400700:	f4843783          	ld	a5,-184(s0)
ffffffc050400704:	e398                	sd	a4,0(a5)
ffffffc050400706:	f4843783          	ld	a5,-184(s0)
ffffffc05040070a:	f7043703          	ld	a4,-144(s0)
ffffffc05040070e:	e798                	sd	a4,8(a5)
ffffffc050400710:	f4843783          	ld	a5,-184(s0)
ffffffc050400714:	639c                	ld	a5,0(a5)
ffffffc050400716:	fcf43c23          	sd	a5,-40(s0)
ffffffc05040071a:	00000717          	auipc	a4,0x0
ffffffc05040071e:	a2270713          	addi	a4,a4,-1502 # ffffffc05040013c <ret_from_exception>
ffffffc050400722:	fd843783          	ld	a5,-40(s0)
ffffffc050400726:	e398                	sd	a4,0(a5)
ffffffc050400728:	fd843783          	ld	a5,-40(s0)
ffffffc05040072c:	f7843703          	ld	a4,-136(s0)
ffffffc050400730:	e798                	sd	a4,8(a5)
ffffffc050400732:	4789                	li	a5,2
ffffffc050400734:	fef42423          	sw	a5,-24(s0)
ffffffc050400738:	a831                	j	ffffffc050400754 <init_pcb_stack+0x1cc>
ffffffc05040073a:	fd843703          	ld	a4,-40(s0)
ffffffc05040073e:	fe842783          	lw	a5,-24(s0)
ffffffc050400742:	078e                	slli	a5,a5,0x3
ffffffc050400744:	97ba                	add	a5,a5,a4
ffffffc050400746:	0007b023          	sd	zero,0(a5)
ffffffc05040074a:	fe842783          	lw	a5,-24(s0)
ffffffc05040074e:	2785                	addiw	a5,a5,1
ffffffc050400750:	fef42423          	sw	a5,-24(s0)
ffffffc050400754:	fe842783          	lw	a5,-24(s0)
ffffffc050400758:	0007871b          	sext.w	a4,a5
ffffffc05040075c:	47b5                	li	a5,13
ffffffc05040075e:	fce7dee3          	bge	a5,a4,ffffffc05040073a <init_pcb_stack+0x1b2>
ffffffc050400762:	0001                	nop
ffffffc050400764:	0001                	nop
ffffffc050400766:	70ea                	ld	ra,184(sp)
ffffffc050400768:	744a                	ld	s0,176(sp)
ffffffc05040076a:	6129                	addi	sp,sp,192
ffffffc05040076c:	8082                	ret

ffffffc05040076e <init_pcb>:
ffffffc05040076e:	715d                	addi	sp,sp,-80
ffffffc050400770:	e486                	sd	ra,72(sp)
ffffffc050400772:	e0a2                	sd	s0,64(sp)
ffffffc050400774:	0880                	addi	s0,sp,80
ffffffc050400776:	00067797          	auipc	a5,0x67
ffffffc05040077a:	a2a78793          	addi	a5,a5,-1494 # ffffffc0504671a0 <current_running>
ffffffc05040077e:	00006717          	auipc	a4,0x6
ffffffc050400782:	49a70713          	addi	a4,a4,1178 # ffffffc050406c18 <pid0_pcb_m>
ffffffc050400786:	e398                	sd	a4,0(a5)
ffffffc050400788:	00067797          	auipc	a5,0x67
ffffffc05040078c:	a1878793          	addi	a5,a5,-1512 # ffffffc0504671a0 <current_running>
ffffffc050400790:	00006717          	auipc	a4,0x6
ffffffc050400794:	52070713          	addi	a4,a4,1312 # ffffffc050406cb0 <pid0_pcb_s>
ffffffc050400798:	e798                	sd	a4,8(a5)
ffffffc05040079a:	00067517          	auipc	a0,0x67
ffffffc05040079e:	9f650513          	addi	a0,a0,-1546 # ffffffc050467190 <ready_queue>
ffffffc0504007a2:	3ba020ef          	jal	ra,ffffffc050402b5c <list_init>
ffffffc0504007a6:	fe042623          	sw	zero,-20(s0)
ffffffc0504007aa:	a01d                	j	ffffffc0504007d0 <init_pcb+0x62>
ffffffc0504007ac:	00067717          	auipc	a4,0x67
ffffffc0504007b0:	af470713          	addi	a4,a4,-1292 # ffffffc0504672a0 <pcb>
ffffffc0504007b4:	fec42683          	lw	a3,-20(s0)
ffffffc0504007b8:	09800793          	li	a5,152
ffffffc0504007bc:	02f687b3          	mul	a5,a3,a5
ffffffc0504007c0:	97ba                	add	a5,a5,a4
ffffffc0504007c2:	0407a423          	sw	zero,72(a5)
ffffffc0504007c6:	fec42783          	lw	a5,-20(s0)
ffffffc0504007ca:	2785                	addiw	a5,a5,1
ffffffc0504007cc:	fef42623          	sw	a5,-20(s0)
ffffffc0504007d0:	fec42783          	lw	a5,-20(s0)
ffffffc0504007d4:	0007871b          	sext.w	a4,a5
ffffffc0504007d8:	47bd                	li	a5,15
ffffffc0504007da:	fce7d9e3          	bge	a5,a4,ffffffc0504007ac <init_pcb+0x3e>
ffffffc0504007de:	fbc40713          	addi	a4,s0,-68
ffffffc0504007e2:	fc040793          	addi	a5,s0,-64
ffffffc0504007e6:	863a                	mv	a2,a4
ffffffc0504007e8:	85be                	mv	a1,a5
ffffffc0504007ea:	00006517          	auipc	a0,0x6
ffffffc0504007ee:	02e50513          	addi	a0,a0,46 # ffffffc050406818 <get_elf_file+0xac>
ffffffc0504007f2:	77b050ef          	jal	ra,ffffffc05040676c <get_elf_file>
ffffffc0504007f6:	2f6050ef          	jal	ra,ffffffc050405aec <create_pt>
ffffffc0504007fa:	fea43023          	sd	a0,-32(s0)
ffffffc0504007fe:	5e0005b7          	lui	a1,0x5e000
ffffffc050400802:	fe043503          	ld	a0,-32(s0)
ffffffc050400806:	70d040ef          	jal	ra,ffffffc050405712 <share_pgtable>
ffffffc05040080a:	4601                	li	a2,0
ffffffc05040080c:	fe043583          	ld	a1,-32(s0)
ffffffc050400810:	00f007b7          	lui	a5,0xf00
ffffffc050400814:	07bd                	addi	a5,a5,15
ffffffc050400816:	00c79513          	slli	a0,a5,0xc
ffffffc05040081a:	22e050ef          	jal	ra,ffffffc050405a48 <alloc_page_helper>
ffffffc05040081e:	fca43c23          	sd	a0,-40(s0)
ffffffc050400822:	4581                	li	a1,0
ffffffc050400824:	4505                	li	a0,1
ffffffc050400826:	7cf030ef          	jal	ra,ffffffc0504047f4 <allocPage>
ffffffc05040082a:	87aa                	mv	a5,a0
ffffffc05040082c:	853e                	mv	a0,a5
ffffffc05040082e:	b07ff0ef          	jal	ra,ffffffc050400334 <pa2kva>
ffffffc050400832:	fca43823          	sd	a0,-48(s0)
ffffffc050400836:	fc043783          	ld	a5,-64(s0)
ffffffc05040083a:	fbc42703          	lw	a4,-68(s0)
ffffffc05040083e:	2701                	sext.w	a4,a4
ffffffc050400840:	00005697          	auipc	a3,0x5
ffffffc050400844:	20868693          	addi	a3,a3,520 # ffffffc050405a48 <alloc_page_helper>
ffffffc050400848:	fe043603          	ld	a2,-32(s0)
ffffffc05040084c:	85ba                	mv	a1,a4
ffffffc05040084e:	853e                	mv	a0,a5
ffffffc050400850:	b5bff0ef          	jal	ra,ffffffc0504003aa <load_elf>
ffffffc050400854:	fca43423          	sd	a0,-56(s0)
ffffffc050400858:	00067797          	auipc	a5,0x67
ffffffc05040085c:	a4878793          	addi	a5,a5,-1464 # ffffffc0504672a0 <pcb>
ffffffc050400860:	470d                	li	a4,3
ffffffc050400862:	cfb8                	sw	a4,88(a5)
ffffffc050400864:	00067797          	auipc	a5,0x67
ffffffc050400868:	a3c78793          	addi	a5,a5,-1476 # ffffffc0504672a0 <pcb>
ffffffc05040086c:	0607aa23          	sw	zero,116(a5)
ffffffc050400870:	fd043703          	ld	a4,-48(s0)
ffffffc050400874:	6785                	lui	a5,0x1
ffffffc050400876:	973e                	add	a4,a4,a5
ffffffc050400878:	00067797          	auipc	a5,0x67
ffffffc05040087c:	a2878793          	addi	a5,a5,-1496 # ffffffc0504672a0 <pcb>
ffffffc050400880:	e398                	sd	a4,0(a5)
ffffffc050400882:	00067797          	auipc	a5,0x67
ffffffc050400886:	a1e78793          	addi	a5,a5,-1506 # ffffffc0504672a0 <pcb>
ffffffc05040088a:	000f0737          	lui	a4,0xf0
ffffffc05040088e:	0705                	addi	a4,a4,1
ffffffc050400890:	0742                	slli	a4,a4,0x10
ffffffc050400892:	e798                	sd	a4,8(a5)
ffffffc050400894:	00067717          	auipc	a4,0x67
ffffffc050400898:	a0c70713          	addi	a4,a4,-1524 # ffffffc0504672a0 <pcb>
ffffffc05040089c:	fec42683          	lw	a3,-20(s0)
ffffffc0504008a0:	09800793          	li	a5,152
ffffffc0504008a4:	02f687b3          	mul	a5,a3,a5
ffffffc0504008a8:	97ba                	add	a5,a5,a4
ffffffc0504008aa:	6398                	ld	a4,0(a5)
ffffffc0504008ac:	00067797          	auipc	a5,0x67
ffffffc0504008b0:	9f478793          	addi	a5,a5,-1548 # ffffffc0504672a0 <pcb>
ffffffc0504008b4:	ff98                	sd	a4,56(a5)
ffffffc0504008b6:	00067717          	auipc	a4,0x67
ffffffc0504008ba:	9ea70713          	addi	a4,a4,-1558 # ffffffc0504672a0 <pcb>
ffffffc0504008be:	fec42683          	lw	a3,-20(s0)
ffffffc0504008c2:	09800793          	li	a5,152
ffffffc0504008c6:	02f687b3          	mul	a5,a3,a5
ffffffc0504008ca:	97ba                	add	a5,a5,a4
ffffffc0504008cc:	6798                	ld	a4,8(a5)
ffffffc0504008ce:	00067797          	auipc	a5,0x67
ffffffc0504008d2:	9d278793          	addi	a5,a5,-1582 # ffffffc0504672a0 <pcb>
ffffffc0504008d6:	e3b8                	sd	a4,64(a5)
ffffffc0504008d8:	00067797          	auipc	a5,0x67
ffffffc0504008dc:	9c878793          	addi	a5,a5,-1592 # ffffffc0504672a0 <pcb>
ffffffc0504008e0:	4705                	li	a4,1
ffffffc0504008e2:	c7b8                	sw	a4,72(a5)
ffffffc0504008e4:	00067797          	auipc	a5,0x67
ffffffc0504008e8:	9bc78793          	addi	a5,a5,-1604 # ffffffc0504672a0 <pcb>
ffffffc0504008ec:	4709                	li	a4,2
ffffffc0504008ee:	dff8                	sw	a4,124(a5)
ffffffc0504008f0:	00067797          	auipc	a5,0x67
ffffffc0504008f4:	9b078793          	addi	a5,a5,-1616 # ffffffc0504672a0 <pcb>
ffffffc0504008f8:	4709                	li	a4,2
ffffffc0504008fa:	08e7a023          	sw	a4,128(a5)
ffffffc0504008fe:	00067797          	auipc	a5,0x67
ffffffc050400902:	9a278793          	addi	a5,a5,-1630 # ffffffc0504672a0 <pcb>
ffffffc050400906:	4705                	li	a4,1
ffffffc050400908:	08e7a223          	sw	a4,132(a5)
ffffffc05040090c:	00067797          	auipc	a5,0x67
ffffffc050400910:	99478793          	addi	a5,a5,-1644 # ffffffc0504672a0 <pcb>
ffffffc050400914:	47bc                	lw	a5,72(a5)
ffffffc050400916:	02c79713          	slli	a4,a5,0x2c
ffffffc05040091a:	fe043783          	ld	a5,-32(s0)
ffffffc05040091e:	83b1                	srli	a5,a5,0xc
ffffffc050400920:	8f5d                	or	a4,a4,a5
ffffffc050400922:	57fd                	li	a5,-1
ffffffc050400924:	17fe                	slli	a5,a5,0x3f
ffffffc050400926:	8f5d                	or	a4,a4,a5
ffffffc050400928:	00067797          	auipc	a5,0x67
ffffffc05040092c:	97878793          	addi	a5,a5,-1672 # ffffffc0504672a0 <pcb>
ffffffc050400930:	eb98                	sd	a4,16(a5)
ffffffc050400932:	00067517          	auipc	a0,0x67
ffffffc050400936:	99650513          	addi	a0,a0,-1642 # ffffffc0504672c8 <pcb+0x28>
ffffffc05040093a:	222020ef          	jal	ra,ffffffc050402b5c <list_init>
ffffffc05040093e:	00067797          	auipc	a5,0x67
ffffffc050400942:	96278793          	addi	a5,a5,-1694 # ffffffc0504672a0 <pcb>
ffffffc050400946:	6388                	ld	a0,0(a5)
ffffffc050400948:	00067797          	auipc	a5,0x67
ffffffc05040094c:	95878793          	addi	a5,a5,-1704 # ffffffc0504672a0 <pcb>
ffffffc050400950:	678c                	ld	a1,8(a5)
ffffffc050400952:	00067817          	auipc	a6,0x67
ffffffc050400956:	94e80813          	addi	a6,a6,-1714 # ffffffc0504672a0 <pcb>
ffffffc05040095a:	4781                	li	a5,0
ffffffc05040095c:	4701                	li	a4,0
ffffffc05040095e:	4681                	li	a3,0
ffffffc050400960:	fc843603          	ld	a2,-56(s0)
ffffffc050400964:	c25ff0ef          	jal	ra,ffffffc050400588 <init_pcb_stack>
ffffffc050400968:	00067597          	auipc	a1,0x67
ffffffc05040096c:	93858593          	addi	a1,a1,-1736 # ffffffc0504672a0 <pcb>
ffffffc050400970:	00067517          	auipc	a0,0x67
ffffffc050400974:	82050513          	addi	a0,a0,-2016 # ffffffc050467190 <ready_queue>
ffffffc050400978:	294020ef          	jal	ra,ffffffc050402c0c <in_queue>
ffffffc05040097c:	0001                	nop
ffffffc05040097e:	60a6                	ld	ra,72(sp)
ffffffc050400980:	6406                	ld	s0,64(sp)
ffffffc050400982:	6161                	addi	sp,sp,80
ffffffc050400984:	8082                	ret

ffffffc050400986 <do_exec>:
ffffffc050400986:	7159                	addi	sp,sp,-112
ffffffc050400988:	f486                	sd	ra,104(sp)
ffffffc05040098a:	f0a2                	sd	s0,96(sp)
ffffffc05040098c:	1880                	addi	s0,sp,112
ffffffc05040098e:	faa43423          	sd	a0,-88(s0)
ffffffc050400992:	87ae                	mv	a5,a1
ffffffc050400994:	f8c43c23          	sd	a2,-104(s0)
ffffffc050400998:	8736                	mv	a4,a3
ffffffc05040099a:	faf42223          	sw	a5,-92(s0)
ffffffc05040099e:	87ba                	mv	a5,a4
ffffffc0504009a0:	faf42023          	sw	a5,-96(s0)
ffffffc0504009a4:	fb440713          	addi	a4,s0,-76
ffffffc0504009a8:	fb840793          	addi	a5,s0,-72
ffffffc0504009ac:	863a                	mv	a2,a4
ffffffc0504009ae:	85be                	mv	a1,a5
ffffffc0504009b0:	fa843503          	ld	a0,-88(s0)
ffffffc0504009b4:	5b9050ef          	jal	ra,ffffffc05040676c <get_elf_file>
ffffffc0504009b8:	134050ef          	jal	ra,ffffffc050405aec <create_pt>
ffffffc0504009bc:	fea43023          	sd	a0,-32(s0)
ffffffc0504009c0:	5e0005b7          	lui	a1,0x5e000
ffffffc0504009c4:	fe043503          	ld	a0,-32(s0)
ffffffc0504009c8:	54b040ef          	jal	ra,ffffffc050405712 <share_pgtable>
ffffffc0504009cc:	4601                	li	a2,0
ffffffc0504009ce:	fe043583          	ld	a1,-32(s0)
ffffffc0504009d2:	00f007b7          	lui	a5,0xf00
ffffffc0504009d6:	07bd                	addi	a5,a5,15
ffffffc0504009d8:	00c79513          	slli	a0,a5,0xc
ffffffc0504009dc:	06c050ef          	jal	ra,ffffffc050405a48 <alloc_page_helper>
ffffffc0504009e0:	fca43c23          	sd	a0,-40(s0)
ffffffc0504009e4:	4581                	li	a1,0
ffffffc0504009e6:	4505                	li	a0,1
ffffffc0504009e8:	60d030ef          	jal	ra,ffffffc0504047f4 <allocPage>
ffffffc0504009ec:	87aa                	mv	a5,a0
ffffffc0504009ee:	853e                	mv	a0,a5
ffffffc0504009f0:	945ff0ef          	jal	ra,ffffffc050400334 <pa2kva>
ffffffc0504009f4:	fca43823          	sd	a0,-48(s0)
ffffffc0504009f8:	fb843783          	ld	a5,-72(s0)
ffffffc0504009fc:	fb442703          	lw	a4,-76(s0)
ffffffc050400a00:	2701                	sext.w	a4,a4
ffffffc050400a02:	00005697          	auipc	a3,0x5
ffffffc050400a06:	04668693          	addi	a3,a3,70 # ffffffc050405a48 <alloc_page_helper>
ffffffc050400a0a:	fe043603          	ld	a2,-32(s0)
ffffffc050400a0e:	85ba                	mv	a1,a4
ffffffc050400a10:	853e                	mv	a0,a5
ffffffc050400a12:	999ff0ef          	jal	ra,ffffffc0504003aa <load_elf>
ffffffc050400a16:	fca43423          	sd	a0,-56(s0)
ffffffc050400a1a:	fe042623          	sw	zero,-20(s0)
ffffffc050400a1e:	a01d                	j	ffffffc050400a44 <do_exec+0xbe>
ffffffc050400a20:	00067717          	auipc	a4,0x67
ffffffc050400a24:	88070713          	addi	a4,a4,-1920 # ffffffc0504672a0 <pcb>
ffffffc050400a28:	fec42683          	lw	a3,-20(s0)
ffffffc050400a2c:	09800793          	li	a5,152
ffffffc050400a30:	02f687b3          	mul	a5,a3,a5
ffffffc050400a34:	97ba                	add	a5,a5,a4
ffffffc050400a36:	47bc                	lw	a5,72(a5)
ffffffc050400a38:	cf91                	beqz	a5,ffffffc050400a54 <do_exec+0xce>
ffffffc050400a3a:	fec42783          	lw	a5,-20(s0)
ffffffc050400a3e:	2785                	addiw	a5,a5,1
ffffffc050400a40:	fef42623          	sw	a5,-20(s0)
ffffffc050400a44:	fec42783          	lw	a5,-20(s0)
ffffffc050400a48:	0007871b          	sext.w	a4,a5
ffffffc050400a4c:	47bd                	li	a5,15
ffffffc050400a4e:	fce7d9e3          	bge	a5,a4,ffffffc050400a20 <do_exec+0x9a>
ffffffc050400a52:	a011                	j	ffffffc050400a56 <do_exec+0xd0>
ffffffc050400a54:	0001                	nop
ffffffc050400a56:	fec42783          	lw	a5,-20(s0)
ffffffc050400a5a:	0007871b          	sext.w	a4,a5
ffffffc050400a5e:	47c1                	li	a5,16
ffffffc050400a60:	00f71a63          	bne	a4,a5,ffffffc050400a74 <do_exec+0xee>
ffffffc050400a64:	00006517          	auipc	a0,0x6
ffffffc050400a68:	dbc50513          	addi	a0,a0,-580 # ffffffc050406820 <get_elf_file+0xb4>
ffffffc050400a6c:	4a9050ef          	jal	ra,ffffffc050406714 <prints>
ffffffc050400a70:	4781                	li	a5,0
ffffffc050400a72:	aca9                	j	ffffffc050400ccc <do_exec+0x346>
ffffffc050400a74:	855ff0ef          	jal	ra,ffffffc0504002c8 <get_current_cpu_id>
ffffffc050400a78:	87aa                	mv	a5,a0
ffffffc050400a7a:	fcf43023          	sd	a5,-64(s0)
ffffffc050400a7e:	00066717          	auipc	a4,0x66
ffffffc050400a82:	72270713          	addi	a4,a4,1826 # ffffffc0504671a0 <current_running>
ffffffc050400a86:	fc043783          	ld	a5,-64(s0)
ffffffc050400a8a:	078e                	slli	a5,a5,0x3
ffffffc050400a8c:	97ba                	add	a5,a5,a4
ffffffc050400a8e:	639c                	ld	a5,0(a5)
ffffffc050400a90:	4fb8                	lw	a4,88(a5)
ffffffc050400a92:	00067697          	auipc	a3,0x67
ffffffc050400a96:	80e68693          	addi	a3,a3,-2034 # ffffffc0504672a0 <pcb>
ffffffc050400a9a:	fec42603          	lw	a2,-20(s0)
ffffffc050400a9e:	09800793          	li	a5,152
ffffffc050400aa2:	02f607b3          	mul	a5,a2,a5
ffffffc050400aa6:	97b6                	add	a5,a5,a3
ffffffc050400aa8:	cfb8                	sw	a4,88(a5)
ffffffc050400aaa:	fd043703          	ld	a4,-48(s0)
ffffffc050400aae:	6785                	lui	a5,0x1
ffffffc050400ab0:	973e                	add	a4,a4,a5
ffffffc050400ab2:	00066697          	auipc	a3,0x66
ffffffc050400ab6:	7ee68693          	addi	a3,a3,2030 # ffffffc0504672a0 <pcb>
ffffffc050400aba:	fec42603          	lw	a2,-20(s0)
ffffffc050400abe:	09800793          	li	a5,152
ffffffc050400ac2:	02f607b3          	mul	a5,a2,a5
ffffffc050400ac6:	97b6                	add	a5,a5,a3
ffffffc050400ac8:	e398                	sd	a4,0(a5)
ffffffc050400aca:	00066717          	auipc	a4,0x66
ffffffc050400ace:	7d670713          	addi	a4,a4,2006 # ffffffc0504672a0 <pcb>
ffffffc050400ad2:	fec42683          	lw	a3,-20(s0)
ffffffc050400ad6:	09800793          	li	a5,152
ffffffc050400ada:	02f687b3          	mul	a5,a3,a5
ffffffc050400ade:	97ba                	add	a5,a5,a4
ffffffc050400ae0:	000f0737          	lui	a4,0xf0
ffffffc050400ae4:	0705                	addi	a4,a4,1
ffffffc050400ae6:	0742                	slli	a4,a4,0x10
ffffffc050400ae8:	e798                	sd	a4,8(a5)
ffffffc050400aea:	00066717          	auipc	a4,0x66
ffffffc050400aee:	7b670713          	addi	a4,a4,1974 # ffffffc0504672a0 <pcb>
ffffffc050400af2:	fec42683          	lw	a3,-20(s0)
ffffffc050400af6:	09800793          	li	a5,152
ffffffc050400afa:	02f687b3          	mul	a5,a3,a5
ffffffc050400afe:	97ba                	add	a5,a5,a4
ffffffc050400b00:	6398                	ld	a4,0(a5)
ffffffc050400b02:	00066697          	auipc	a3,0x66
ffffffc050400b06:	79e68693          	addi	a3,a3,1950 # ffffffc0504672a0 <pcb>
ffffffc050400b0a:	fec42603          	lw	a2,-20(s0)
ffffffc050400b0e:	09800793          	li	a5,152
ffffffc050400b12:	02f607b3          	mul	a5,a2,a5
ffffffc050400b16:	97b6                	add	a5,a5,a3
ffffffc050400b18:	ff98                	sd	a4,56(a5)
ffffffc050400b1a:	00066717          	auipc	a4,0x66
ffffffc050400b1e:	78670713          	addi	a4,a4,1926 # ffffffc0504672a0 <pcb>
ffffffc050400b22:	fec42683          	lw	a3,-20(s0)
ffffffc050400b26:	09800793          	li	a5,152
ffffffc050400b2a:	02f687b3          	mul	a5,a3,a5
ffffffc050400b2e:	97ba                	add	a5,a5,a4
ffffffc050400b30:	6798                	ld	a4,8(a5)
ffffffc050400b32:	00066697          	auipc	a3,0x66
ffffffc050400b36:	76e68693          	addi	a3,a3,1902 # ffffffc0504672a0 <pcb>
ffffffc050400b3a:	fec42603          	lw	a2,-20(s0)
ffffffc050400b3e:	09800793          	li	a5,152
ffffffc050400b42:	02f607b3          	mul	a5,a2,a5
ffffffc050400b46:	97b6                	add	a5,a5,a3
ffffffc050400b48:	e3b8                	sd	a4,64(a5)
ffffffc050400b4a:	fec42783          	lw	a5,-20(s0)
ffffffc050400b4e:	2785                	addiw	a5,a5,1
ffffffc050400b50:	0007871b          	sext.w	a4,a5
ffffffc050400b54:	00066697          	auipc	a3,0x66
ffffffc050400b58:	74c68693          	addi	a3,a3,1868 # ffffffc0504672a0 <pcb>
ffffffc050400b5c:	fec42603          	lw	a2,-20(s0)
ffffffc050400b60:	09800793          	li	a5,152
ffffffc050400b64:	02f607b3          	mul	a5,a2,a5
ffffffc050400b68:	97b6                	add	a5,a5,a3
ffffffc050400b6a:	c7b8                	sw	a4,72(a5)
ffffffc050400b6c:	00066717          	auipc	a4,0x66
ffffffc050400b70:	73470713          	addi	a4,a4,1844 # ffffffc0504672a0 <pcb>
ffffffc050400b74:	fec42683          	lw	a3,-20(s0)
ffffffc050400b78:	09800793          	li	a5,152
ffffffc050400b7c:	02f687b3          	mul	a5,a3,a5
ffffffc050400b80:	97ba                	add	a5,a5,a4
ffffffc050400b82:	0607aa23          	sw	zero,116(a5) # 1074 <_start-0xffffffc0503fef8c>
ffffffc050400b86:	00066717          	auipc	a4,0x66
ffffffc050400b8a:	71a70713          	addi	a4,a4,1818 # ffffffc0504672a0 <pcb>
ffffffc050400b8e:	fec42683          	lw	a3,-20(s0)
ffffffc050400b92:	09800793          	li	a5,152
ffffffc050400b96:	02f687b3          	mul	a5,a3,a5
ffffffc050400b9a:	97ba                	add	a5,a5,a4
ffffffc050400b9c:	4709                	li	a4,2
ffffffc050400b9e:	dff8                	sw	a4,124(a5)
ffffffc050400ba0:	00066717          	auipc	a4,0x66
ffffffc050400ba4:	70070713          	addi	a4,a4,1792 # ffffffc0504672a0 <pcb>
ffffffc050400ba8:	fec42683          	lw	a3,-20(s0)
ffffffc050400bac:	09800793          	li	a5,152
ffffffc050400bb0:	02f687b3          	mul	a5,a3,a5
ffffffc050400bb4:	97ba                	add	a5,a5,a4
ffffffc050400bb6:	4709                	li	a4,2
ffffffc050400bb8:	08e7a023          	sw	a4,128(a5)
ffffffc050400bbc:	00066717          	auipc	a4,0x66
ffffffc050400bc0:	6e470713          	addi	a4,a4,1764 # ffffffc0504672a0 <pcb>
ffffffc050400bc4:	fec42683          	lw	a3,-20(s0)
ffffffc050400bc8:	09800793          	li	a5,152
ffffffc050400bcc:	02f687b3          	mul	a5,a3,a5
ffffffc050400bd0:	97ba                	add	a5,a5,a4
ffffffc050400bd2:	fa042703          	lw	a4,-96(s0)
ffffffc050400bd6:	08e7a223          	sw	a4,132(a5)
ffffffc050400bda:	00066717          	auipc	a4,0x66
ffffffc050400bde:	6c670713          	addi	a4,a4,1734 # ffffffc0504672a0 <pcb>
ffffffc050400be2:	fec42683          	lw	a3,-20(s0)
ffffffc050400be6:	09800793          	li	a5,152
ffffffc050400bea:	02f687b3          	mul	a5,a3,a5
ffffffc050400bee:	97ba                	add	a5,a5,a4
ffffffc050400bf0:	47bc                	lw	a5,72(a5)
ffffffc050400bf2:	02c79713          	slli	a4,a5,0x2c
ffffffc050400bf6:	fe043783          	ld	a5,-32(s0)
ffffffc050400bfa:	83b1                	srli	a5,a5,0xc
ffffffc050400bfc:	8f5d                	or	a4,a4,a5
ffffffc050400bfe:	57fd                	li	a5,-1
ffffffc050400c00:	17fe                	slli	a5,a5,0x3f
ffffffc050400c02:	8f5d                	or	a4,a4,a5
ffffffc050400c04:	00066697          	auipc	a3,0x66
ffffffc050400c08:	69c68693          	addi	a3,a3,1692 # ffffffc0504672a0 <pcb>
ffffffc050400c0c:	fec42603          	lw	a2,-20(s0)
ffffffc050400c10:	09800793          	li	a5,152
ffffffc050400c14:	02f607b3          	mul	a5,a2,a5
ffffffc050400c18:	97b6                	add	a5,a5,a3
ffffffc050400c1a:	eb98                	sd	a4,16(a5)
ffffffc050400c1c:	fec42703          	lw	a4,-20(s0)
ffffffc050400c20:	09800793          	li	a5,152
ffffffc050400c24:	02f707b3          	mul	a5,a4,a5
ffffffc050400c28:	02078713          	addi	a4,a5,32
ffffffc050400c2c:	00066797          	auipc	a5,0x66
ffffffc050400c30:	67478793          	addi	a5,a5,1652 # ffffffc0504672a0 <pcb>
ffffffc050400c34:	97ba                	add	a5,a5,a4
ffffffc050400c36:	07a1                	addi	a5,a5,8
ffffffc050400c38:	853e                	mv	a0,a5
ffffffc050400c3a:	723010ef          	jal	ra,ffffffc050402b5c <list_init>
ffffffc050400c3e:	00066717          	auipc	a4,0x66
ffffffc050400c42:	66270713          	addi	a4,a4,1634 # ffffffc0504672a0 <pcb>
ffffffc050400c46:	fec42683          	lw	a3,-20(s0)
ffffffc050400c4a:	09800793          	li	a5,152
ffffffc050400c4e:	02f687b3          	mul	a5,a3,a5
ffffffc050400c52:	97ba                	add	a5,a5,a4
ffffffc050400c54:	6388                	ld	a0,0(a5)
ffffffc050400c56:	00066717          	auipc	a4,0x66
ffffffc050400c5a:	64a70713          	addi	a4,a4,1610 # ffffffc0504672a0 <pcb>
ffffffc050400c5e:	fec42683          	lw	a3,-20(s0)
ffffffc050400c62:	09800793          	li	a5,152
ffffffc050400c66:	02f687b3          	mul	a5,a3,a5
ffffffc050400c6a:	97ba                	add	a5,a5,a4
ffffffc050400c6c:	678c                	ld	a1,8(a5)
ffffffc050400c6e:	fd843703          	ld	a4,-40(s0)
ffffffc050400c72:	6785                	lui	a5,0x1
ffffffc050400c74:	00f706b3          	add	a3,a4,a5
ffffffc050400c78:	fec42703          	lw	a4,-20(s0)
ffffffc050400c7c:	09800793          	li	a5,152
ffffffc050400c80:	02f70733          	mul	a4,a4,a5
ffffffc050400c84:	00066797          	auipc	a5,0x66
ffffffc050400c88:	61c78793          	addi	a5,a5,1564 # ffffffc0504672a0 <pcb>
ffffffc050400c8c:	97ba                	add	a5,a5,a4
ffffffc050400c8e:	fa442703          	lw	a4,-92(s0)
ffffffc050400c92:	883e                	mv	a6,a5
ffffffc050400c94:	f9843783          	ld	a5,-104(s0)
ffffffc050400c98:	fc843603          	ld	a2,-56(s0)
ffffffc050400c9c:	8edff0ef          	jal	ra,ffffffc050400588 <init_pcb_stack>
ffffffc050400ca0:	fec42703          	lw	a4,-20(s0)
ffffffc050400ca4:	09800793          	li	a5,152
ffffffc050400ca8:	02f70733          	mul	a4,a4,a5
ffffffc050400cac:	00066797          	auipc	a5,0x66
ffffffc050400cb0:	5f478793          	addi	a5,a5,1524 # ffffffc0504672a0 <pcb>
ffffffc050400cb4:	97ba                	add	a5,a5,a4
ffffffc050400cb6:	85be                	mv	a1,a5
ffffffc050400cb8:	00066517          	auipc	a0,0x66
ffffffc050400cbc:	4d850513          	addi	a0,a0,1240 # ffffffc050467190 <ready_queue>
ffffffc050400cc0:	74d010ef          	jal	ra,ffffffc050402c0c <in_queue>
ffffffc050400cc4:	fec42783          	lw	a5,-20(s0)
ffffffc050400cc8:	2785                	addiw	a5,a5,1
ffffffc050400cca:	2781                	sext.w	a5,a5
ffffffc050400ccc:	853e                	mv	a0,a5
ffffffc050400cce:	70a6                	ld	ra,104(sp)
ffffffc050400cd0:	7406                	ld	s0,96(sp)
ffffffc050400cd2:	6165                	addi	sp,sp,112
ffffffc050400cd4:	8082                	ret

ffffffc050400cd6 <do_spawn>:
ffffffc050400cd6:	7179                	addi	sp,sp,-48
ffffffc050400cd8:	f422                	sd	s0,40(sp)
ffffffc050400cda:	1800                	addi	s0,sp,48
ffffffc050400cdc:	fea43423          	sd	a0,-24(s0)
ffffffc050400ce0:	feb43023          	sd	a1,-32(s0)
ffffffc050400ce4:	87b2                	mv	a5,a2
ffffffc050400ce6:	fcf42e23          	sw	a5,-36(s0)
ffffffc050400cea:	0001                	nop
ffffffc050400cec:	853e                	mv	a0,a5
ffffffc050400cee:	7422                	ld	s0,40(sp)
ffffffc050400cf0:	6145                	addi	sp,sp,48
ffffffc050400cf2:	8082                	ret

ffffffc050400cf4 <do_taskset>:
ffffffc050400cf4:	1101                	addi	sp,sp,-32
ffffffc050400cf6:	ec22                	sd	s0,24(sp)
ffffffc050400cf8:	1000                	addi	s0,sp,32
ffffffc050400cfa:	fea43423          	sd	a0,-24(s0)
ffffffc050400cfe:	87ae                	mv	a5,a1
ffffffc050400d00:	fef42223          	sw	a5,-28(s0)
ffffffc050400d04:	0001                	nop
ffffffc050400d06:	853e                	mv	a0,a5
ffffffc050400d08:	6462                	ld	s0,24(sp)
ffffffc050400d0a:	6105                	addi	sp,sp,32
ffffffc050400d0c:	8082                	ret

ffffffc050400d0e <do_taskset_p>:
ffffffc050400d0e:	7179                	addi	sp,sp,-48
ffffffc050400d10:	f422                	sd	s0,40(sp)
ffffffc050400d12:	1800                	addi	s0,sp,48
ffffffc050400d14:	87aa                	mv	a5,a0
ffffffc050400d16:	872e                	mv	a4,a1
ffffffc050400d18:	fcf42e23          	sw	a5,-36(s0)
ffffffc050400d1c:	87ba                	mv	a5,a4
ffffffc050400d1e:	fcf42c23          	sw	a5,-40(s0)
ffffffc050400d22:	fe042623          	sw	zero,-20(s0)
ffffffc050400d26:	a031                	j	ffffffc050400d32 <do_taskset_p+0x24>
ffffffc050400d28:	fec42783          	lw	a5,-20(s0)
ffffffc050400d2c:	2785                	addiw	a5,a5,1
ffffffc050400d2e:	fef42623          	sw	a5,-20(s0)
ffffffc050400d32:	00066717          	auipc	a4,0x66
ffffffc050400d36:	56e70713          	addi	a4,a4,1390 # ffffffc0504672a0 <pcb>
ffffffc050400d3a:	fec42683          	lw	a3,-20(s0)
ffffffc050400d3e:	09800793          	li	a5,152
ffffffc050400d42:	02f687b3          	mul	a5,a3,a5
ffffffc050400d46:	97ba                	add	a5,a5,a4
ffffffc050400d48:	47b8                	lw	a4,72(a5)
ffffffc050400d4a:	fdc42783          	lw	a5,-36(s0)
ffffffc050400d4e:	2781                	sext.w	a5,a5
ffffffc050400d50:	00e78963          	beq	a5,a4,ffffffc050400d62 <do_taskset_p+0x54>
ffffffc050400d54:	fec42783          	lw	a5,-20(s0)
ffffffc050400d58:	0007871b          	sext.w	a4,a5
ffffffc050400d5c:	47bd                	li	a5,15
ffffffc050400d5e:	fce7d5e3          	bge	a5,a4,ffffffc050400d28 <do_taskset_p+0x1a>
ffffffc050400d62:	fec42783          	lw	a5,-20(s0)
ffffffc050400d66:	0007871b          	sext.w	a4,a5
ffffffc050400d6a:	47c1                	li	a5,16
ffffffc050400d6c:	00f71463          	bne	a4,a5,ffffffc050400d74 <do_taskset_p+0x66>
ffffffc050400d70:	4781                	li	a5,0
ffffffc050400d72:	a839                	j	ffffffc050400d90 <do_taskset_p+0x82>
ffffffc050400d74:	00066717          	auipc	a4,0x66
ffffffc050400d78:	52c70713          	addi	a4,a4,1324 # ffffffc0504672a0 <pcb>
ffffffc050400d7c:	fec42683          	lw	a3,-20(s0)
ffffffc050400d80:	09800793          	li	a5,152
ffffffc050400d84:	02f687b3          	mul	a5,a3,a5
ffffffc050400d88:	97ba                	add	a5,a5,a4
ffffffc050400d8a:	fd842703          	lw	a4,-40(s0)
ffffffc050400d8e:	cfb8                	sw	a4,88(a5)
ffffffc050400d90:	853e                	mv	a0,a5
ffffffc050400d92:	7422                	ld	s0,40(sp)
ffffffc050400d94:	6145                	addi	sp,sp,48
ffffffc050400d96:	8082                	ret

ffffffc050400d98 <init_syscall>:
ffffffc050400d98:	1141                	addi	sp,sp,-16
ffffffc050400d9a:	e422                	sd	s0,8(sp)
ffffffc050400d9c:	0800                	addi	s0,sp,16
ffffffc050400d9e:	00068797          	auipc	a5,0x68
ffffffc050400da2:	20a78793          	addi	a5,a5,522 # ffffffc050468fa8 <syscall>
ffffffc050400da6:	00002717          	auipc	a4,0x2
ffffffc050400daa:	5e270713          	addi	a4,a4,1506 # ffffffc050403388 <do_fork>
ffffffc050400dae:	e3b8                	sd	a4,64(a5)
ffffffc050400db0:	00068797          	auipc	a5,0x68
ffffffc050400db4:	1f878793          	addi	a5,a5,504 # ffffffc050468fa8 <syscall>
ffffffc050400db8:	00002717          	auipc	a4,0x2
ffffffc050400dbc:	40e70713          	addi	a4,a4,1038 # ffffffc0504031c6 <do_sleep>
ffffffc050400dc0:	eb98                	sd	a4,16(a5)
ffffffc050400dc2:	00068797          	auipc	a5,0x68
ffffffc050400dc6:	1e678793          	addi	a5,a5,486 # ffffffc050468fa8 <syscall>
ffffffc050400dca:	00001717          	auipc	a4,0x1
ffffffc050400dce:	be470713          	addi	a4,a4,-1052 # ffffffc0504019ae <mutex_get>
ffffffc050400dd2:	f3b8                	sd	a4,96(a5)
ffffffc050400dd4:	00068797          	auipc	a5,0x68
ffffffc050400dd8:	1d478793          	addi	a5,a5,468 # ffffffc050468fa8 <syscall>
ffffffc050400ddc:	00001717          	auipc	a4,0x1
ffffffc050400de0:	c0870713          	addi	a4,a4,-1016 # ffffffc0504019e4 <mutex_lock>
ffffffc050400de4:	f7b8                	sd	a4,104(a5)
ffffffc050400de6:	00068797          	auipc	a5,0x68
ffffffc050400dea:	1c278793          	addi	a5,a5,450 # ffffffc050468fa8 <syscall>
ffffffc050400dee:	00001717          	auipc	a4,0x1
ffffffc050400df2:	c5670713          	addi	a4,a4,-938 # ffffffc050401a44 <mutex_unlock>
ffffffc050400df6:	fbb8                	sd	a4,112(a5)
ffffffc050400df8:	00068797          	auipc	a5,0x68
ffffffc050400dfc:	1b078793          	addi	a5,a5,432 # ffffffc050468fa8 <syscall>
ffffffc050400e00:	00002717          	auipc	a4,0x2
ffffffc050400e04:	e7070713          	addi	a4,a4,-400 # ffffffc050402c70 <get_time>
ffffffc050400e08:	ffb8                	sd	a4,120(a5)
ffffffc050400e0a:	00068797          	auipc	a5,0x68
ffffffc050400e0e:	19e78793          	addi	a5,a5,414 # ffffffc050468fa8 <syscall>
ffffffc050400e12:	00002717          	auipc	a4,0x2
ffffffc050400e16:	f5a70713          	addi	a4,a4,-166 # ffffffc050402d6c <do_scheduler>
ffffffc050400e1a:	ff98                	sd	a4,56(a5)
ffffffc050400e1c:	00068797          	auipc	a5,0x68
ffffffc050400e20:	18c78793          	addi	a5,a5,396 # ffffffc050468fa8 <syscall>
ffffffc050400e24:	00001717          	auipc	a4,0x1
ffffffc050400e28:	8ca70713          	addi	a4,a4,-1846 # ffffffc0504016ee <screen_write>
ffffffc050400e2c:	f3d8                	sd	a4,160(a5)
ffffffc050400e2e:	00068797          	auipc	a5,0x68
ffffffc050400e32:	17a78793          	addi	a5,a5,378 # ffffffc050468fa8 <syscall>
ffffffc050400e36:	fffff717          	auipc	a4,0xfffff
ffffffc050400e3a:	49870713          	addi	a4,a4,1176 # ffffffc0504002ce <sbi_console_getchar>
ffffffc050400e3e:	f7d8                	sd	a4,168(a5)
ffffffc050400e40:	00068797          	auipc	a5,0x68
ffffffc050400e44:	16878793          	addi	a5,a5,360 # ffffffc050468fa8 <syscall>
ffffffc050400e48:	00001717          	auipc	a4,0x1
ffffffc050400e4c:	84a70713          	addi	a4,a4,-1974 # ffffffc050401692 <screen_move_cursor>
ffffffc050400e50:	fbd8                	sd	a4,176(a5)
ffffffc050400e52:	00068797          	auipc	a5,0x68
ffffffc050400e56:	15678793          	addi	a5,a5,342 # ffffffc050468fa8 <syscall>
ffffffc050400e5a:	00001717          	auipc	a4,0x1
ffffffc050400e5e:	8f470713          	addi	a4,a4,-1804 # ffffffc05040174e <screen_reflush>
ffffffc050400e62:	ffd8                	sd	a4,184(a5)
ffffffc050400e64:	00068797          	auipc	a5,0x68
ffffffc050400e68:	14478793          	addi	a5,a5,324 # ffffffc050468fa8 <syscall>
ffffffc050400e6c:	00003717          	auipc	a4,0x3
ffffffc050400e70:	48e70713          	addi	a4,a4,1166 # ffffffc0504042fa <get_time_base>
ffffffc050400e74:	fbf8                	sd	a4,240(a5)
ffffffc050400e76:	00068797          	auipc	a5,0x68
ffffffc050400e7a:	13278793          	addi	a5,a5,306 # ffffffc050468fa8 <syscall>
ffffffc050400e7e:	00003717          	auipc	a4,0x3
ffffffc050400e82:	43870713          	addi	a4,a4,1080 # ffffffc0504042b6 <get_ticks>
ffffffc050400e86:	fff8                	sd	a4,248(a5)
ffffffc050400e88:	00068797          	auipc	a5,0x68
ffffffc050400e8c:	12078793          	addi	a5,a5,288 # ffffffc050468fa8 <syscall>
ffffffc050400e90:	00003717          	auipc	a4,0x3
ffffffc050400e94:	89470713          	addi	a4,a4,-1900 # ffffffc050403724 <do_process_show>
ffffffc050400e98:	f798                	sd	a4,40(a5)
ffffffc050400e9a:	00068797          	auipc	a5,0x68
ffffffc050400e9e:	10e78793          	addi	a5,a5,270 # ffffffc050468fa8 <syscall>
ffffffc050400ea2:	00000717          	auipc	a4,0x0
ffffffc050400ea6:	73670713          	addi	a4,a4,1846 # ffffffc0504015d8 <screen_clear>
ffffffc050400eaa:	eff8                	sd	a4,216(a5)
ffffffc050400eac:	00068797          	auipc	a5,0x68
ffffffc050400eb0:	0fc78793          	addi	a5,a5,252 # ffffffc050468fa8 <syscall>
ffffffc050400eb4:	00001717          	auipc	a4,0x1
ffffffc050400eb8:	ae070713          	addi	a4,a4,-1312 # ffffffc050401994 <screen_back>
ffffffc050400ebc:	e7b8                	sd	a4,72(a5)
ffffffc050400ebe:	00068797          	auipc	a5,0x68
ffffffc050400ec2:	0ea78793          	addi	a5,a5,234 # ffffffc050468fa8 <syscall>
ffffffc050400ec6:	00000717          	auipc	a4,0x0
ffffffc050400eca:	e1070713          	addi	a4,a4,-496 # ffffffc050400cd6 <do_spawn>
ffffffc050400ece:	e398                	sd	a4,0(a5)
ffffffc050400ed0:	00068797          	auipc	a5,0x68
ffffffc050400ed4:	0d878793          	addi	a5,a5,216 # ffffffc050468fa8 <syscall>
ffffffc050400ed8:	00003717          	auipc	a4,0x3
ffffffc050400edc:	a1470713          	addi	a4,a4,-1516 # ffffffc0504038ec <do_exit>
ffffffc050400ee0:	e798                	sd	a4,8(a5)
ffffffc050400ee2:	00068797          	auipc	a5,0x68
ffffffc050400ee6:	0c678793          	addi	a5,a5,198 # ffffffc050468fa8 <syscall>
ffffffc050400eea:	00003717          	auipc	a4,0x3
ffffffc050400eee:	bfe70713          	addi	a4,a4,-1026 # ffffffc050403ae8 <do_kill>
ffffffc050400ef2:	ef98                	sd	a4,24(a5)
ffffffc050400ef4:	00068797          	auipc	a5,0x68
ffffffc050400ef8:	0b478793          	addi	a5,a5,180 # ffffffc050468fa8 <syscall>
ffffffc050400efc:	00003717          	auipc	a4,0x3
ffffffc050400f00:	da470713          	addi	a4,a4,-604 # ffffffc050403ca0 <do_waitpid>
ffffffc050400f04:	f398                	sd	a4,32(a5)
ffffffc050400f06:	00068797          	auipc	a5,0x68
ffffffc050400f0a:	0a278793          	addi	a5,a5,162 # ffffffc050468fa8 <syscall>
ffffffc050400f0e:	00003717          	auipc	a4,0x3
ffffffc050400f12:	ed870713          	addi	a4,a4,-296 # ffffffc050403de6 <do_getpid>
ffffffc050400f16:	fb98                	sd	a4,48(a5)
ffffffc050400f18:	00068797          	auipc	a5,0x68
ffffffc050400f1c:	09078793          	addi	a5,a5,144 # ffffffc050468fa8 <syscall>
ffffffc050400f20:	00001717          	auipc	a4,0x1
ffffffc050400f24:	dae70713          	addi	a4,a4,-594 # ffffffc050401cce <barrier_get>
ffffffc050400f28:	e3d8                	sd	a4,128(a5)
ffffffc050400f2a:	00068797          	auipc	a5,0x68
ffffffc050400f2e:	07e78793          	addi	a5,a5,126 # ffffffc050468fa8 <syscall>
ffffffc050400f32:	00001717          	auipc	a4,0x1
ffffffc050400f36:	e2470713          	addi	a4,a4,-476 # ffffffc050401d56 <barrier_wait>
ffffffc050400f3a:	e7d8                	sd	a4,136(a5)
ffffffc050400f3c:	00068797          	auipc	a5,0x68
ffffffc050400f40:	06c78793          	addi	a5,a5,108 # ffffffc050468fa8 <syscall>
ffffffc050400f44:	00001717          	auipc	a4,0x1
ffffffc050400f48:	f0a70713          	addi	a4,a4,-246 # ffffffc050401e4e <barrier_destroy>
ffffffc050400f4c:	ebd8                	sd	a4,144(a5)
ffffffc050400f4e:	00068797          	auipc	a5,0x68
ffffffc050400f52:	05a78793          	addi	a5,a5,90 # ffffffc050468fa8 <syscall>
ffffffc050400f56:	00001717          	auipc	a4,0x1
ffffffc050400f5a:	f6270713          	addi	a4,a4,-158 # ffffffc050401eb8 <semaphore_init>
ffffffc050400f5e:	efd8                	sd	a4,152(a5)
ffffffc050400f60:	00068797          	auipc	a5,0x68
ffffffc050400f64:	04878793          	addi	a5,a5,72 # ffffffc050468fa8 <syscall>
ffffffc050400f68:	00001717          	auipc	a4,0x1
ffffffc050400f6c:	fbc70713          	addi	a4,a4,-68 # ffffffc050401f24 <semaphore_up>
ffffffc050400f70:	f3f8                	sd	a4,224(a5)
ffffffc050400f72:	00068797          	auipc	a5,0x68
ffffffc050400f76:	03678793          	addi	a5,a5,54 # ffffffc050468fa8 <syscall>
ffffffc050400f7a:	00001717          	auipc	a4,0x1
ffffffc050400f7e:	06e70713          	addi	a4,a4,110 # ffffffc050401fe8 <semaphore_down>
ffffffc050400f82:	f7f8                	sd	a4,232(a5)
ffffffc050400f84:	00068797          	auipc	a5,0x68
ffffffc050400f88:	02478793          	addi	a5,a5,36 # ffffffc050468fa8 <syscall>
ffffffc050400f8c:	00001717          	auipc	a4,0x1
ffffffc050400f90:	0fc70713          	addi	a4,a4,252 # ffffffc050402088 <semaphore_destroy>
ffffffc050400f94:	10e7b423          	sd	a4,264(a5)
ffffffc050400f98:	00068797          	auipc	a5,0x68
ffffffc050400f9c:	01078793          	addi	a5,a5,16 # ffffffc050468fa8 <syscall>
ffffffc050400fa0:	00001717          	auipc	a4,0x1
ffffffc050400fa4:	13870713          	addi	a4,a4,312 # ffffffc0504020d8 <kernel_mbox_open>
ffffffc050400fa8:	10e7b823          	sd	a4,272(a5)
ffffffc050400fac:	00068797          	auipc	a5,0x68
ffffffc050400fb0:	ffc78793          	addi	a5,a5,-4 # ffffffc050468fa8 <syscall>
ffffffc050400fb4:	00001717          	auipc	a4,0x1
ffffffc050400fb8:	2bc70713          	addi	a4,a4,700 # ffffffc050402270 <kernel_mbox_close>
ffffffc050400fbc:	10e7bc23          	sd	a4,280(a5)
ffffffc050400fc0:	00068797          	auipc	a5,0x68
ffffffc050400fc4:	fe878793          	addi	a5,a5,-24 # ffffffc050468fa8 <syscall>
ffffffc050400fc8:	00001717          	auipc	a4,0x1
ffffffc050400fcc:	2d070713          	addi	a4,a4,720 # ffffffc050402298 <kernel_mbox_send>
ffffffc050400fd0:	12e7b023          	sd	a4,288(a5)
ffffffc050400fd4:	00068797          	auipc	a5,0x68
ffffffc050400fd8:	fd478793          	addi	a5,a5,-44 # ffffffc050468fa8 <syscall>
ffffffc050400fdc:	00001717          	auipc	a4,0x1
ffffffc050400fe0:	42470713          	addi	a4,a4,1060 # ffffffc050402400 <kernel_mbox_recv>
ffffffc050400fe4:	12e7b423          	sd	a4,296(a5)
ffffffc050400fe8:	00068797          	auipc	a5,0x68
ffffffc050400fec:	fc078793          	addi	a5,a5,-64 # ffffffc050468fa8 <syscall>
ffffffc050400ff0:	00001717          	auipc	a4,0x1
ffffffc050400ff4:	62670713          	addi	a4,a4,1574 # ffffffc050402616 <kernel_send_recv>
ffffffc050400ff8:	12e7b823          	sd	a4,304(a5)
ffffffc050400ffc:	00068797          	auipc	a5,0x68
ffffffc050401000:	fac78793          	addi	a5,a5,-84 # ffffffc050468fa8 <syscall>
ffffffc050401004:	00000717          	auipc	a4,0x0
ffffffc050401008:	cf070713          	addi	a4,a4,-784 # ffffffc050400cf4 <do_taskset>
ffffffc05040100c:	12e7bc23          	sd	a4,312(a5)
ffffffc050401010:	00068797          	auipc	a5,0x68
ffffffc050401014:	f9878793          	addi	a5,a5,-104 # ffffffc050468fa8 <syscall>
ffffffc050401018:	00000717          	auipc	a4,0x0
ffffffc05040101c:	cf670713          	addi	a4,a4,-778 # ffffffc050400d0e <do_taskset_p>
ffffffc050401020:	14e7b023          	sd	a4,320(a5)
ffffffc050401024:	00068797          	auipc	a5,0x68
ffffffc050401028:	f8478793          	addi	a5,a5,-124 # ffffffc050468fa8 <syscall>
ffffffc05040102c:	00000717          	auipc	a4,0x0
ffffffc050401030:	95a70713          	addi	a4,a4,-1702 # ffffffc050400986 <do_exec>
ffffffc050401034:	14e7b423          	sd	a4,328(a5)
ffffffc050401038:	00068797          	auipc	a5,0x68
ffffffc05040103c:	f7078793          	addi	a5,a5,-144 # ffffffc050468fa8 <syscall>
ffffffc050401040:	00001717          	auipc	a4,0x1
ffffffc050401044:	a3a70713          	addi	a4,a4,-1478 # ffffffc050401a7a <do_binsem_get>
ffffffc050401048:	14e7b823          	sd	a4,336(a5)
ffffffc05040104c:	00068797          	auipc	a5,0x68
ffffffc050401050:	f5c78793          	addi	a5,a5,-164 # ffffffc050468fa8 <syscall>
ffffffc050401054:	00001717          	auipc	a4,0x1
ffffffc050401058:	af670713          	addi	a4,a4,-1290 # ffffffc050401b4a <do_binsem_lock>
ffffffc05040105c:	14e7bc23          	sd	a4,344(a5)
ffffffc050401060:	00068797          	auipc	a5,0x68
ffffffc050401064:	f4878793          	addi	a5,a5,-184 # ffffffc050468fa8 <syscall>
ffffffc050401068:	00001717          	auipc	a4,0x1
ffffffc05040106c:	b4270713          	addi	a4,a4,-1214 # ffffffc050401baa <do_binsem_unlock>
ffffffc050401070:	16e7b023          	sd	a4,352(a5)
ffffffc050401074:	00068797          	auipc	a5,0x68
ffffffc050401078:	f3478793          	addi	a5,a5,-204 # ffffffc050468fa8 <syscall>
ffffffc05040107c:	00003717          	auipc	a4,0x3
ffffffc050401080:	d9a70713          	addi	a4,a4,-614 # ffffffc050403e16 <do_mthread_create>
ffffffc050401084:	16e7b423          	sd	a4,360(a5)
ffffffc050401088:	00068797          	auipc	a5,0x68
ffffffc05040108c:	f2078793          	addi	a5,a5,-224 # ffffffc050468fa8 <syscall>
ffffffc050401090:	00003717          	auipc	a4,0x3
ffffffc050401094:	20270713          	addi	a4,a4,514 # ffffffc050404292 <do_mthread_join>
ffffffc050401098:	16e7b823          	sd	a4,368(a5)
ffffffc05040109c:	00068797          	auipc	a5,0x68
ffffffc0504010a0:	f0c78793          	addi	a5,a5,-244 # ffffffc050468fa8 <syscall>
ffffffc0504010a4:	00004717          	auipc	a4,0x4
ffffffc0504010a8:	20c70713          	addi	a4,a4,524 # ffffffc0504052b0 <shm_page_get>
ffffffc0504010ac:	16e7bc23          	sd	a4,376(a5)
ffffffc0504010b0:	00068797          	auipc	a5,0x68
ffffffc0504010b4:	ef878793          	addi	a5,a5,-264 # ffffffc050468fa8 <syscall>
ffffffc0504010b8:	00004717          	auipc	a4,0x4
ffffffc0504010bc:	3ca70713          	addi	a4,a4,970 # ffffffc050405482 <shm_page_dt>
ffffffc0504010c0:	18e7b023          	sd	a4,384(a5)
ffffffc0504010c4:	0001                	nop
ffffffc0504010c6:	6422                	ld	s0,8(sp)
ffffffc0504010c8:	0141                	addi	sp,sp,16
ffffffc0504010ca:	8082                	ret

ffffffc0504010cc <main>:
ffffffc0504010cc:	1101                	addi	sp,sp,-32
ffffffc0504010ce:	ec06                	sd	ra,24(sp)
ffffffc0504010d0:	e822                	sd	s0,16(sp)
ffffffc0504010d2:	1000                	addi	s0,sp,32
ffffffc0504010d4:	9f4ff0ef          	jal	ra,ffffffc0504002c8 <get_current_cpu_id>
ffffffc0504010d8:	87aa                	mv	a5,a0
ffffffc0504010da:	fef43423          	sd	a5,-24(s0)
ffffffc0504010de:	fe843783          	ld	a5,-24(s0)
ffffffc0504010e2:	e7ad                	bnez	a5,ffffffc05040114c <main+0x80>
ffffffc0504010e4:	e8aff0ef          	jal	ra,ffffffc05040076e <init_pcb>
ffffffc0504010e8:	00005517          	auipc	a0,0x5
ffffffc0504010ec:	75050513          	addi	a0,a0,1872 # ffffffc050406838 <get_elf_file+0xcc>
ffffffc0504010f0:	59c050ef          	jal	ra,ffffffc05040668c <printk>
ffffffc0504010f4:	4501                	li	a0,0
ffffffc0504010f6:	a16ff0ef          	jal	ra,ffffffc05040030c <sbi_read_fdt>
ffffffc0504010fa:	87aa                	mv	a5,a0
ffffffc0504010fc:	0007871b          	sext.w	a4,a5
ffffffc050401100:	88018793          	addi	a5,gp,-1920 # ffffffc050464d00 <time_base>
ffffffc050401104:	c398                	sw	a4,0(a5)
ffffffc050401106:	218000ef          	jal	ra,ffffffc05040131e <init_exception>
ffffffc05040110a:	00005517          	auipc	a0,0x5
ffffffc05040110e:	75e50513          	addi	a0,a0,1886 # ffffffc050406868 <get_elf_file+0xfc>
ffffffc050401112:	57a050ef          	jal	ra,ffffffc05040668c <printk>
ffffffc050401116:	c83ff0ef          	jal	ra,ffffffc050400d98 <init_syscall>
ffffffc05040111a:	00005517          	auipc	a0,0x5
ffffffc05040111e:	78e50513          	addi	a0,a0,1934 # ffffffc0504068a8 <get_elf_file+0x13c>
ffffffc050401122:	56a050ef          	jal	ra,ffffffc05040668c <printk>
ffffffc050401126:	498000ef          	jal	ra,ffffffc0504015be <init_screen>
ffffffc05040112a:	00005517          	auipc	a0,0x5
ffffffc05040112e:	7b650513          	addi	a0,a0,1974 # ffffffc0504068e0 <get_elf_file+0x174>
ffffffc050401132:	55a050ef          	jal	ra,ffffffc05040668c <printk>
ffffffc050401136:	27a030ef          	jal	ra,ffffffc0504043b0 <smp_init>
ffffffc05040113a:	2ac030ef          	jal	ra,ffffffc0504043e6 <lock_kernel>
ffffffc05040113e:	f6ffe0ef          	jal	ra,ffffffc0504000ac <disable_interrupt>
ffffffc050401142:	288030ef          	jal	ra,ffffffc0504043ca <wakeup_other_hart>
ffffffc050401146:	f5ffe0ef          	jal	ra,ffffffc0504000a4 <enable_interrupt>
ffffffc05040114a:	a029                	j	ffffffc050401154 <main+0x88>
ffffffc05040114c:	29a030ef          	jal	ra,ffffffc0504043e6 <lock_kernel>
ffffffc050401150:	f29fe0ef          	jal	ra,ffffffc050400078 <setup_exception>
ffffffc050401154:	fe843583          	ld	a1,-24(s0)
ffffffc050401158:	00005517          	auipc	a0,0x5
ffffffc05040115c:	7b850513          	addi	a0,a0,1976 # ffffffc050406910 <get_elf_file+0x1a4>
ffffffc050401160:	52c050ef          	jal	ra,ffffffc05040668c <printk>
ffffffc050401164:	152030ef          	jal	ra,ffffffc0504042b6 <get_ticks>
ffffffc050401168:	872a                	mv	a4,a0
ffffffc05040116a:	88018793          	addi	a5,gp,-1920 # ffffffc050464d00 <time_base>
ffffffc05040116e:	439c                	lw	a5,0(a5)
ffffffc050401170:	86be                	mv	a3,a5
ffffffc050401172:	12c00793          	li	a5,300
ffffffc050401176:	02f6d7bb          	divuw	a5,a3,a5
ffffffc05040117a:	2781                	sext.w	a5,a5
ffffffc05040117c:	1782                	slli	a5,a5,0x20
ffffffc05040117e:	9381                	srli	a5,a5,0x20
ffffffc050401180:	97ba                	add	a5,a5,a4
ffffffc050401182:	853e                	mv	a0,a5
ffffffc050401184:	968ff0ef          	jal	ra,ffffffc0504002ec <sbi_set_timer>
ffffffc050401188:	28c030ef          	jal	ra,ffffffc050404414 <unlock_kernel>
ffffffc05040118c:	a001                	j	ffffffc05040118c <main+0xc0>

ffffffc05040118e <sbi_set_timer>:
ffffffc05040118e:	1101                	addi	sp,sp,-32
ffffffc050401190:	ec22                	sd	s0,24(sp)
ffffffc050401192:	1000                	addi	s0,sp,32
ffffffc050401194:	fea43423          	sd	a0,-24(s0)
ffffffc050401198:	fe843503          	ld	a0,-24(s0)
ffffffc05040119c:	4581                	li	a1,0
ffffffc05040119e:	4601                	li	a2,0
ffffffc0504011a0:	4881                	li	a7,0
ffffffc0504011a2:	00000073          	ecall
ffffffc0504011a6:	0001                	nop
ffffffc0504011a8:	6462                	ld	s0,24(sp)
ffffffc0504011aa:	6105                	addi	sp,sp,32
ffffffc0504011ac:	8082                	ret

ffffffc0504011ae <reset_irq_timer>:
ffffffc0504011ae:	1141                	addi	sp,sp,-16
ffffffc0504011b0:	e406                	sd	ra,8(sp)
ffffffc0504011b2:	e022                	sd	s0,0(sp)
ffffffc0504011b4:	0800                	addi	s0,sp,16
ffffffc0504011b6:	598000ef          	jal	ra,ffffffc05040174e <screen_reflush>
ffffffc0504011ba:	0a8020ef          	jal	ra,ffffffc050403262 <time_check>
ffffffc0504011be:	0f8030ef          	jal	ra,ffffffc0504042b6 <get_ticks>
ffffffc0504011c2:	872a                	mv	a4,a0
ffffffc0504011c4:	88018793          	addi	a5,gp,-1920 # ffffffc050464d00 <time_base>
ffffffc0504011c8:	439c                	lw	a5,0(a5)
ffffffc0504011ca:	86be                	mv	a3,a5
ffffffc0504011cc:	12c00793          	li	a5,300
ffffffc0504011d0:	02f6d7bb          	divuw	a5,a3,a5
ffffffc0504011d4:	2781                	sext.w	a5,a5
ffffffc0504011d6:	1782                	slli	a5,a5,0x20
ffffffc0504011d8:	9381                	srli	a5,a5,0x20
ffffffc0504011da:	97ba                	add	a5,a5,a4
ffffffc0504011dc:	853e                	mv	a0,a5
ffffffc0504011de:	fb1ff0ef          	jal	ra,ffffffc05040118e <sbi_set_timer>
ffffffc0504011e2:	38b010ef          	jal	ra,ffffffc050402d6c <do_scheduler>
ffffffc0504011e6:	0001                	nop
ffffffc0504011e8:	60a2                	ld	ra,8(sp)
ffffffc0504011ea:	6402                	ld	s0,0(sp)
ffffffc0504011ec:	0141                	addi	sp,sp,16
ffffffc0504011ee:	8082                	ret

ffffffc0504011f0 <interrupt_helper>:
ffffffc0504011f0:	7179                	addi	sp,sp,-48
ffffffc0504011f2:	f406                	sd	ra,40(sp)
ffffffc0504011f4:	f022                	sd	s0,32(sp)
ffffffc0504011f6:	1800                	addi	s0,sp,48
ffffffc0504011f8:	fea43423          	sd	a0,-24(s0)
ffffffc0504011fc:	feb43023          	sd	a1,-32(s0)
ffffffc050401200:	fcc43c23          	sd	a2,-40(s0)
ffffffc050401204:	fd843783          	ld	a5,-40(s0)
ffffffc050401208:	0207dc63          	bgez	a5,ffffffc050401240 <interrupt_helper+0x50>
ffffffc05040120c:	fd843703          	ld	a4,-40(s0)
ffffffc050401210:	800007b7          	lui	a5,0x80000
ffffffc050401214:	fff7c793          	not	a5,a5
ffffffc050401218:	8ff9                	and	a5,a5,a4
ffffffc05040121a:	fcf43c23          	sd	a5,-40(s0)
ffffffc05040121e:	00066717          	auipc	a4,0x66
ffffffc050401222:	ab270713          	addi	a4,a4,-1358 # ffffffc050466cd0 <irq_table>
ffffffc050401226:	fd843783          	ld	a5,-40(s0)
ffffffc05040122a:	078e                	slli	a5,a5,0x3
ffffffc05040122c:	97ba                	add	a5,a5,a4
ffffffc05040122e:	639c                	ld	a5,0(a5)
ffffffc050401230:	fd843603          	ld	a2,-40(s0)
ffffffc050401234:	fe043583          	ld	a1,-32(s0)
ffffffc050401238:	fe843503          	ld	a0,-24(s0)
ffffffc05040123c:	9782                	jalr	a5
ffffffc05040123e:	a00d                	j	ffffffc050401260 <interrupt_helper+0x70>
ffffffc050401240:	00066717          	auipc	a4,0x66
ffffffc050401244:	a0870713          	addi	a4,a4,-1528 # ffffffc050466c48 <exc_table>
ffffffc050401248:	fd843783          	ld	a5,-40(s0)
ffffffc05040124c:	078e                	slli	a5,a5,0x3
ffffffc05040124e:	97ba                	add	a5,a5,a4
ffffffc050401250:	639c                	ld	a5,0(a5)
ffffffc050401252:	fd843603          	ld	a2,-40(s0)
ffffffc050401256:	fe043583          	ld	a1,-32(s0)
ffffffc05040125a:	fe843503          	ld	a0,-24(s0)
ffffffc05040125e:	9782                	jalr	a5
ffffffc050401260:	0001                	nop
ffffffc050401262:	70a2                	ld	ra,40(sp)
ffffffc050401264:	7402                	ld	s0,32(sp)
ffffffc050401266:	6145                	addi	sp,sp,48
ffffffc050401268:	8082                	ret

ffffffc05040126a <handle_int>:
ffffffc05040126a:	7179                	addi	sp,sp,-48
ffffffc05040126c:	f406                	sd	ra,40(sp)
ffffffc05040126e:	f022                	sd	s0,32(sp)
ffffffc050401270:	1800                	addi	s0,sp,48
ffffffc050401272:	fea43423          	sd	a0,-24(s0)
ffffffc050401276:	feb43023          	sd	a1,-32(s0)
ffffffc05040127a:	fcc43c23          	sd	a2,-40(s0)
ffffffc05040127e:	f31ff0ef          	jal	ra,ffffffc0504011ae <reset_irq_timer>
ffffffc050401282:	0001                	nop
ffffffc050401284:	70a2                	ld	ra,40(sp)
ffffffc050401286:	7402                	ld	s0,32(sp)
ffffffc050401288:	6145                	addi	sp,sp,48
ffffffc05040128a:	8082                	ret

ffffffc05040128c <handle_inst_pagefault>:
ffffffc05040128c:	7179                	addi	sp,sp,-48
ffffffc05040128e:	f406                	sd	ra,40(sp)
ffffffc050401290:	f022                	sd	s0,32(sp)
ffffffc050401292:	1800                	addi	s0,sp,48
ffffffc050401294:	fea43423          	sd	a0,-24(s0)
ffffffc050401298:	feb43023          	sd	a1,-32(s0)
ffffffc05040129c:	fcc43c23          	sd	a2,-40(s0)
ffffffc0504012a0:	00005517          	auipc	a0,0x5
ffffffc0504012a4:	68850513          	addi	a0,a0,1672 # ffffffc050406928 <get_elf_file+0x1bc>
ffffffc0504012a8:	3e4050ef          	jal	ra,ffffffc05040668c <printk>
ffffffc0504012ac:	0001                	nop
ffffffc0504012ae:	70a2                	ld	ra,40(sp)
ffffffc0504012b0:	7402                	ld	s0,32(sp)
ffffffc0504012b2:	6145                	addi	sp,sp,48
ffffffc0504012b4:	8082                	ret

ffffffc0504012b6 <handle_pagefault>:
ffffffc0504012b6:	715d                	addi	sp,sp,-80
ffffffc0504012b8:	e486                	sd	ra,72(sp)
ffffffc0504012ba:	e0a2                	sd	s0,64(sp)
ffffffc0504012bc:	0880                	addi	s0,sp,80
ffffffc0504012be:	fca43423          	sd	a0,-56(s0)
ffffffc0504012c2:	fcb43023          	sd	a1,-64(s0)
ffffffc0504012c6:	fac43c23          	sd	a2,-72(s0)
ffffffc0504012ca:	ffffe0ef          	jal	ra,ffffffc0504002c8 <get_current_cpu_id>
ffffffc0504012ce:	87aa                	mv	a5,a0
ffffffc0504012d0:	fef43423          	sd	a5,-24(s0)
ffffffc0504012d4:	00066717          	auipc	a4,0x66
ffffffc0504012d8:	ecc70713          	addi	a4,a4,-308 # ffffffc0504671a0 <current_running>
ffffffc0504012dc:	fe843783          	ld	a5,-24(s0)
ffffffc0504012e0:	078e                	slli	a5,a5,0x3
ffffffc0504012e2:	97ba                	add	a5,a5,a4
ffffffc0504012e4:	639c                	ld	a5,0(a5)
ffffffc0504012e6:	fef43023          	sd	a5,-32(s0)
ffffffc0504012ea:	fe043783          	ld	a5,-32(s0)
ffffffc0504012ee:	6b9c                	ld	a5,16(a5)
ffffffc0504012f0:	fcf43c23          	sd	a5,-40(s0)
ffffffc0504012f4:	fd843703          	ld	a4,-40(s0)
ffffffc0504012f8:	57fd                	li	a5,-1
ffffffc0504012fa:	83d1                	srli	a5,a5,0x14
ffffffc0504012fc:	8ff9                	and	a5,a5,a4
ffffffc0504012fe:	fcf43823          	sd	a5,-48(s0)
ffffffc050401302:	fd043783          	ld	a5,-48(s0)
ffffffc050401306:	07b2                	slli	a5,a5,0xc
ffffffc050401308:	4605                	li	a2,1
ffffffc05040130a:	85be                	mv	a1,a5
ffffffc05040130c:	fc043503          	ld	a0,-64(s0)
ffffffc050401310:	738040ef          	jal	ra,ffffffc050405a48 <alloc_page_helper>
ffffffc050401314:	0001                	nop
ffffffc050401316:	60a6                	ld	ra,72(sp)
ffffffc050401318:	6406                	ld	s0,64(sp)
ffffffc05040131a:	6161                	addi	sp,sp,80
ffffffc05040131c:	8082                	ret

ffffffc05040131e <init_exception>:
ffffffc05040131e:	1101                	addi	sp,sp,-32
ffffffc050401320:	ec06                	sd	ra,24(sp)
ffffffc050401322:	e822                	sd	s0,16(sp)
ffffffc050401324:	1000                	addi	s0,sp,32
ffffffc050401326:	fe042623          	sw	zero,-20(s0)
ffffffc05040132a:	a01d                	j	ffffffc050401350 <init_exception+0x32>
ffffffc05040132c:	00066717          	auipc	a4,0x66
ffffffc050401330:	9a470713          	addi	a4,a4,-1628 # ffffffc050466cd0 <irq_table>
ffffffc050401334:	fec42783          	lw	a5,-20(s0)
ffffffc050401338:	078e                	slli	a5,a5,0x3
ffffffc05040133a:	97ba                	add	a5,a5,a4
ffffffc05040133c:	00000717          	auipc	a4,0x0
ffffffc050401340:	0c270713          	addi	a4,a4,194 # ffffffc0504013fe <handle_other>
ffffffc050401344:	e398                	sd	a4,0(a5)
ffffffc050401346:	fec42783          	lw	a5,-20(s0)
ffffffc05040134a:	2785                	addiw	a5,a5,1
ffffffc05040134c:	fef42623          	sw	a5,-20(s0)
ffffffc050401350:	fec42783          	lw	a5,-20(s0)
ffffffc050401354:	0007871b          	sext.w	a4,a5
ffffffc050401358:	47ad                	li	a5,11
ffffffc05040135a:	fce7d9e3          	bge	a5,a4,ffffffc05040132c <init_exception+0xe>
ffffffc05040135e:	00066797          	auipc	a5,0x66
ffffffc050401362:	97278793          	addi	a5,a5,-1678 # ffffffc050466cd0 <irq_table>
ffffffc050401366:	00000717          	auipc	a4,0x0
ffffffc05040136a:	f0470713          	addi	a4,a4,-252 # ffffffc05040126a <handle_int>
ffffffc05040136e:	f798                	sd	a4,40(a5)
ffffffc050401370:	fe042623          	sw	zero,-20(s0)
ffffffc050401374:	a01d                	j	ffffffc05040139a <init_exception+0x7c>
ffffffc050401376:	00066717          	auipc	a4,0x66
ffffffc05040137a:	8d270713          	addi	a4,a4,-1838 # ffffffc050466c48 <exc_table>
ffffffc05040137e:	fec42783          	lw	a5,-20(s0)
ffffffc050401382:	078e                	slli	a5,a5,0x3
ffffffc050401384:	97ba                	add	a5,a5,a4
ffffffc050401386:	00000717          	auipc	a4,0x0
ffffffc05040138a:	07870713          	addi	a4,a4,120 # ffffffc0504013fe <handle_other>
ffffffc05040138e:	e398                	sd	a4,0(a5)
ffffffc050401390:	fec42783          	lw	a5,-20(s0)
ffffffc050401394:	2785                	addiw	a5,a5,1
ffffffc050401396:	fef42623          	sw	a5,-20(s0)
ffffffc05040139a:	fec42783          	lw	a5,-20(s0)
ffffffc05040139e:	0007871b          	sext.w	a4,a5
ffffffc0504013a2:	47bd                	li	a5,15
ffffffc0504013a4:	fce7d9e3          	bge	a5,a4,ffffffc050401376 <init_exception+0x58>
ffffffc0504013a8:	00066797          	auipc	a5,0x66
ffffffc0504013ac:	8a078793          	addi	a5,a5,-1888 # ffffffc050466c48 <exc_table>
ffffffc0504013b0:	00004717          	auipc	a4,0x4
ffffffc0504013b4:	7d870713          	addi	a4,a4,2008 # ffffffc050405b88 <handle_syscall>
ffffffc0504013b8:	e3b8                	sd	a4,64(a5)
ffffffc0504013ba:	00066797          	auipc	a5,0x66
ffffffc0504013be:	88e78793          	addi	a5,a5,-1906 # ffffffc050466c48 <exc_table>
ffffffc0504013c2:	00000717          	auipc	a4,0x0
ffffffc0504013c6:	eca70713          	addi	a4,a4,-310 # ffffffc05040128c <handle_inst_pagefault>
ffffffc0504013ca:	f3b8                	sd	a4,96(a5)
ffffffc0504013cc:	00066797          	auipc	a5,0x66
ffffffc0504013d0:	87c78793          	addi	a5,a5,-1924 # ffffffc050466c48 <exc_table>
ffffffc0504013d4:	00000717          	auipc	a4,0x0
ffffffc0504013d8:	ee270713          	addi	a4,a4,-286 # ffffffc0504012b6 <handle_pagefault>
ffffffc0504013dc:	f7b8                	sd	a4,104(a5)
ffffffc0504013de:	00066797          	auipc	a5,0x66
ffffffc0504013e2:	86a78793          	addi	a5,a5,-1942 # ffffffc050466c48 <exc_table>
ffffffc0504013e6:	00000717          	auipc	a4,0x0
ffffffc0504013ea:	ed070713          	addi	a4,a4,-304 # ffffffc0504012b6 <handle_pagefault>
ffffffc0504013ee:	ffb8                	sd	a4,120(a5)
ffffffc0504013f0:	c89fe0ef          	jal	ra,ffffffc050400078 <setup_exception>
ffffffc0504013f4:	0001                	nop
ffffffc0504013f6:	60e2                	ld	ra,24(sp)
ffffffc0504013f8:	6442                	ld	s0,16(sp)
ffffffc0504013fa:	6105                	addi	sp,sp,32
ffffffc0504013fc:	8082                	ret

ffffffc0504013fe <handle_other>:
ffffffc0504013fe:	7179                	addi	sp,sp,-48
ffffffc050401400:	f406                	sd	ra,40(sp)
ffffffc050401402:	f022                	sd	s0,32(sp)
ffffffc050401404:	1800                	addi	s0,sp,48
ffffffc050401406:	fea43423          	sd	a0,-24(s0)
ffffffc05040140a:	feb43023          	sd	a1,-32(s0)
ffffffc05040140e:	fcc43c23          	sd	a2,-40(s0)
ffffffc050401412:	00005517          	auipc	a0,0x5
ffffffc050401416:	53650513          	addi	a0,a0,1334 # ffffffc050406948 <get_elf_file+0x1dc>
ffffffc05040141a:	272050ef          	jal	ra,ffffffc05040668c <printk>
ffffffc05040141e:	a001                	j	ffffffc05040141e <handle_other+0x20>

ffffffc050401420 <vt100_move_cursor>:
ffffffc050401420:	7179                	addi	sp,sp,-48
ffffffc050401422:	f406                	sd	ra,40(sp)
ffffffc050401424:	f022                	sd	s0,32(sp)
ffffffc050401426:	1800                	addi	s0,sp,48
ffffffc050401428:	87aa                	mv	a5,a0
ffffffc05040142a:	872e                	mv	a4,a1
ffffffc05040142c:	fcf42e23          	sw	a5,-36(s0)
ffffffc050401430:	87ba                	mv	a5,a4
ffffffc050401432:	fcf42c23          	sw	a5,-40(s0)
ffffffc050401436:	c6bfe0ef          	jal	ra,ffffffc0504000a0 <disable_preempt>
ffffffc05040143a:	fdc42703          	lw	a4,-36(s0)
ffffffc05040143e:	fd842783          	lw	a5,-40(s0)
ffffffc050401442:	86ba                	mv	a3,a4
ffffffc050401444:	863e                	mv	a2,a5
ffffffc050401446:	45ed                	li	a1,27
ffffffc050401448:	00005517          	auipc	a0,0x5
ffffffc05040144c:	52050513          	addi	a0,a0,1312 # ffffffc050406968 <get_elf_file+0x1fc>
ffffffc050401450:	23c050ef          	jal	ra,ffffffc05040668c <printk>
ffffffc050401454:	e75fe0ef          	jal	ra,ffffffc0504002c8 <get_current_cpu_id>
ffffffc050401458:	fea43423          	sd	a0,-24(s0)
ffffffc05040145c:	00066717          	auipc	a4,0x66
ffffffc050401460:	d4470713          	addi	a4,a4,-700 # ffffffc0504671a0 <current_running>
ffffffc050401464:	fe843783          	ld	a5,-24(s0)
ffffffc050401468:	078e                	slli	a5,a5,0x3
ffffffc05040146a:	97ba                	add	a5,a5,a4
ffffffc05040146c:	639c                	ld	a5,0(a5)
ffffffc05040146e:	fdc42703          	lw	a4,-36(s0)
ffffffc050401472:	08e7a823          	sw	a4,144(a5)
ffffffc050401476:	00066717          	auipc	a4,0x66
ffffffc05040147a:	d2a70713          	addi	a4,a4,-726 # ffffffc0504671a0 <current_running>
ffffffc05040147e:	fe843783          	ld	a5,-24(s0)
ffffffc050401482:	078e                	slli	a5,a5,0x3
ffffffc050401484:	97ba                	add	a5,a5,a4
ffffffc050401486:	639c                	ld	a5,0(a5)
ffffffc050401488:	fd842703          	lw	a4,-40(s0)
ffffffc05040148c:	08e7aa23          	sw	a4,148(a5)
ffffffc050401490:	c0dfe0ef          	jal	ra,ffffffc05040009c <enable_preempt>
ffffffc050401494:	0001                	nop
ffffffc050401496:	70a2                	ld	ra,40(sp)
ffffffc050401498:	7402                	ld	s0,32(sp)
ffffffc05040149a:	6145                	addi	sp,sp,48
ffffffc05040149c:	8082                	ret

ffffffc05040149e <vt100_clear>:
ffffffc05040149e:	1141                	addi	sp,sp,-16
ffffffc0504014a0:	e406                	sd	ra,8(sp)
ffffffc0504014a2:	e022                	sd	s0,0(sp)
ffffffc0504014a4:	0800                	addi	s0,sp,16
ffffffc0504014a6:	45ed                	li	a1,27
ffffffc0504014a8:	00005517          	auipc	a0,0x5
ffffffc0504014ac:	4d050513          	addi	a0,a0,1232 # ffffffc050406978 <get_elf_file+0x20c>
ffffffc0504014b0:	1dc050ef          	jal	ra,ffffffc05040668c <printk>
ffffffc0504014b4:	0001                	nop
ffffffc0504014b6:	60a2                	ld	ra,8(sp)
ffffffc0504014b8:	6402                	ld	s0,0(sp)
ffffffc0504014ba:	0141                	addi	sp,sp,16
ffffffc0504014bc:	8082                	ret

ffffffc0504014be <vt100_hidden_cursor>:
ffffffc0504014be:	1141                	addi	sp,sp,-16
ffffffc0504014c0:	e406                	sd	ra,8(sp)
ffffffc0504014c2:	e022                	sd	s0,0(sp)
ffffffc0504014c4:	0800                	addi	s0,sp,16
ffffffc0504014c6:	45ed                	li	a1,27
ffffffc0504014c8:	00005517          	auipc	a0,0x5
ffffffc0504014cc:	4b850513          	addi	a0,a0,1208 # ffffffc050406980 <get_elf_file+0x214>
ffffffc0504014d0:	1bc050ef          	jal	ra,ffffffc05040668c <printk>
ffffffc0504014d4:	0001                	nop
ffffffc0504014d6:	60a2                	ld	ra,8(sp)
ffffffc0504014d8:	6402                	ld	s0,0(sp)
ffffffc0504014da:	0141                	addi	sp,sp,16
ffffffc0504014dc:	8082                	ret

ffffffc0504014de <screen_write_ch>:
ffffffc0504014de:	7179                	addi	sp,sp,-48
ffffffc0504014e0:	f406                	sd	ra,40(sp)
ffffffc0504014e2:	f022                	sd	s0,32(sp)
ffffffc0504014e4:	1800                	addi	s0,sp,48
ffffffc0504014e6:	87aa                	mv	a5,a0
ffffffc0504014e8:	fcf40fa3          	sb	a5,-33(s0)
ffffffc0504014ec:	dddfe0ef          	jal	ra,ffffffc0504002c8 <get_current_cpu_id>
ffffffc0504014f0:	fea43423          	sd	a0,-24(s0)
ffffffc0504014f4:	fdf44783          	lbu	a5,-33(s0)
ffffffc0504014f8:	0ff7f713          	andi	a4,a5,255
ffffffc0504014fc:	47a9                	li	a5,10
ffffffc0504014fe:	02f71e63          	bne	a4,a5,ffffffc05040153a <screen_write_ch+0x5c>
ffffffc050401502:	00066717          	auipc	a4,0x66
ffffffc050401506:	c9e70713          	addi	a4,a4,-866 # ffffffc0504671a0 <current_running>
ffffffc05040150a:	fe843783          	ld	a5,-24(s0)
ffffffc05040150e:	078e                	slli	a5,a5,0x3
ffffffc050401510:	97ba                	add	a5,a5,a4
ffffffc050401512:	639c                	ld	a5,0(a5)
ffffffc050401514:	4705                	li	a4,1
ffffffc050401516:	08e7a823          	sw	a4,144(a5)
ffffffc05040151a:	00066717          	auipc	a4,0x66
ffffffc05040151e:	c8670713          	addi	a4,a4,-890 # ffffffc0504671a0 <current_running>
ffffffc050401522:	fe843783          	ld	a5,-24(s0)
ffffffc050401526:	078e                	slli	a5,a5,0x3
ffffffc050401528:	97ba                	add	a5,a5,a4
ffffffc05040152a:	639c                	ld	a5,0(a5)
ffffffc05040152c:	0947a703          	lw	a4,148(a5)
ffffffc050401530:	2705                	addiw	a4,a4,1
ffffffc050401532:	2701                	sext.w	a4,a4
ffffffc050401534:	08e7aa23          	sw	a4,148(a5)
ffffffc050401538:	a8b5                	j	ffffffc0504015b4 <screen_write_ch+0xd6>
ffffffc05040153a:	00066717          	auipc	a4,0x66
ffffffc05040153e:	c6670713          	addi	a4,a4,-922 # ffffffc0504671a0 <current_running>
ffffffc050401542:	fe843783          	ld	a5,-24(s0)
ffffffc050401546:	078e                	slli	a5,a5,0x3
ffffffc050401548:	97ba                	add	a5,a5,a4
ffffffc05040154a:	639c                	ld	a5,0(a5)
ffffffc05040154c:	0947a783          	lw	a5,148(a5)
ffffffc050401550:	37fd                	addiw	a5,a5,-1
ffffffc050401552:	2781                	sext.w	a5,a5
ffffffc050401554:	873e                	mv	a4,a5
ffffffc050401556:	87ba                	mv	a5,a4
ffffffc050401558:	0027979b          	slliw	a5,a5,0x2
ffffffc05040155c:	9fb9                	addw	a5,a5,a4
ffffffc05040155e:	0047979b          	slliw	a5,a5,0x4
ffffffc050401562:	0007871b          	sext.w	a4,a5
ffffffc050401566:	00066697          	auipc	a3,0x66
ffffffc05040156a:	c3a68693          	addi	a3,a3,-966 # ffffffc0504671a0 <current_running>
ffffffc05040156e:	fe843783          	ld	a5,-24(s0)
ffffffc050401572:	078e                	slli	a5,a5,0x3
ffffffc050401574:	97b6                	add	a5,a5,a3
ffffffc050401576:	639c                	ld	a5,0(a5)
ffffffc050401578:	0907a783          	lw	a5,144(a5)
ffffffc05040157c:	37fd                	addiw	a5,a5,-1
ffffffc05040157e:	2781                	sext.w	a5,a5
ffffffc050401580:	9fb9                	addw	a5,a5,a4
ffffffc050401582:	2781                	sext.w	a5,a5
ffffffc050401584:	00063717          	auipc	a4,0x63
ffffffc050401588:	78470713          	addi	a4,a4,1924 # ffffffc050464d08 <new_screen>
ffffffc05040158c:	97ba                	add	a5,a5,a4
ffffffc05040158e:	fdf44703          	lbu	a4,-33(s0)
ffffffc050401592:	00e78023          	sb	a4,0(a5)
ffffffc050401596:	00066717          	auipc	a4,0x66
ffffffc05040159a:	c0a70713          	addi	a4,a4,-1014 # ffffffc0504671a0 <current_running>
ffffffc05040159e:	fe843783          	ld	a5,-24(s0)
ffffffc0504015a2:	078e                	slli	a5,a5,0x3
ffffffc0504015a4:	97ba                	add	a5,a5,a4
ffffffc0504015a6:	639c                	ld	a5,0(a5)
ffffffc0504015a8:	0907a703          	lw	a4,144(a5)
ffffffc0504015ac:	2705                	addiw	a4,a4,1
ffffffc0504015ae:	2701                	sext.w	a4,a4
ffffffc0504015b0:	08e7a823          	sw	a4,144(a5)
ffffffc0504015b4:	0001                	nop
ffffffc0504015b6:	70a2                	ld	ra,40(sp)
ffffffc0504015b8:	7402                	ld	s0,32(sp)
ffffffc0504015ba:	6145                	addi	sp,sp,48
ffffffc0504015bc:	8082                	ret

ffffffc0504015be <init_screen>:
ffffffc0504015be:	1141                	addi	sp,sp,-16
ffffffc0504015c0:	e406                	sd	ra,8(sp)
ffffffc0504015c2:	e022                	sd	s0,0(sp)
ffffffc0504015c4:	0800                	addi	s0,sp,16
ffffffc0504015c6:	ef9ff0ef          	jal	ra,ffffffc0504014be <vt100_hidden_cursor>
ffffffc0504015ca:	ed5ff0ef          	jal	ra,ffffffc05040149e <vt100_clear>
ffffffc0504015ce:	0001                	nop
ffffffc0504015d0:	60a2                	ld	ra,8(sp)
ffffffc0504015d2:	6402                	ld	s0,0(sp)
ffffffc0504015d4:	0141                	addi	sp,sp,16
ffffffc0504015d6:	8082                	ret

ffffffc0504015d8 <screen_clear>:
ffffffc0504015d8:	1101                	addi	sp,sp,-32
ffffffc0504015da:	ec06                	sd	ra,24(sp)
ffffffc0504015dc:	e822                	sd	s0,16(sp)
ffffffc0504015de:	1000                	addi	s0,sp,32
ffffffc0504015e0:	fe042623          	sw	zero,-20(s0)
ffffffc0504015e4:	a8a1                	j	ffffffc05040163c <screen_clear+0x64>
ffffffc0504015e6:	fe042423          	sw	zero,-24(s0)
ffffffc0504015ea:	a825                	j	ffffffc050401622 <screen_clear+0x4a>
ffffffc0504015ec:	fec42703          	lw	a4,-20(s0)
ffffffc0504015f0:	87ba                	mv	a5,a4
ffffffc0504015f2:	0027979b          	slliw	a5,a5,0x2
ffffffc0504015f6:	9fb9                	addw	a5,a5,a4
ffffffc0504015f8:	0047979b          	slliw	a5,a5,0x4
ffffffc0504015fc:	2781                	sext.w	a5,a5
ffffffc0504015fe:	fe842703          	lw	a4,-24(s0)
ffffffc050401602:	9fb9                	addw	a5,a5,a4
ffffffc050401604:	2781                	sext.w	a5,a5
ffffffc050401606:	00063717          	auipc	a4,0x63
ffffffc05040160a:	70270713          	addi	a4,a4,1794 # ffffffc050464d08 <new_screen>
ffffffc05040160e:	97ba                	add	a5,a5,a4
ffffffc050401610:	02000713          	li	a4,32
ffffffc050401614:	00e78023          	sb	a4,0(a5)
ffffffc050401618:	fe842783          	lw	a5,-24(s0)
ffffffc05040161c:	2785                	addiw	a5,a5,1
ffffffc05040161e:	fef42423          	sw	a5,-24(s0)
ffffffc050401622:	fe842783          	lw	a5,-24(s0)
ffffffc050401626:	0007871b          	sext.w	a4,a5
ffffffc05040162a:	04f00793          	li	a5,79
ffffffc05040162e:	fae7dfe3          	bge	a5,a4,ffffffc0504015ec <screen_clear+0x14>
ffffffc050401632:	fec42783          	lw	a5,-20(s0)
ffffffc050401636:	2785                	addiw	a5,a5,1
ffffffc050401638:	fef42623          	sw	a5,-20(s0)
ffffffc05040163c:	fec42783          	lw	a5,-20(s0)
ffffffc050401640:	0007871b          	sext.w	a4,a5
ffffffc050401644:	03100793          	li	a5,49
ffffffc050401648:	f8e7dfe3          	bge	a5,a4,ffffffc0504015e6 <screen_clear+0xe>
ffffffc05040164c:	c7dfe0ef          	jal	ra,ffffffc0504002c8 <get_current_cpu_id>
ffffffc050401650:	fea43023          	sd	a0,-32(s0)
ffffffc050401654:	00066717          	auipc	a4,0x66
ffffffc050401658:	b4c70713          	addi	a4,a4,-1204 # ffffffc0504671a0 <current_running>
ffffffc05040165c:	fe043783          	ld	a5,-32(s0)
ffffffc050401660:	078e                	slli	a5,a5,0x3
ffffffc050401662:	97ba                	add	a5,a5,a4
ffffffc050401664:	639c                	ld	a5,0(a5)
ffffffc050401666:	4705                	li	a4,1
ffffffc050401668:	08e7a823          	sw	a4,144(a5)
ffffffc05040166c:	00066717          	auipc	a4,0x66
ffffffc050401670:	b3470713          	addi	a4,a4,-1228 # ffffffc0504671a0 <current_running>
ffffffc050401674:	fe043783          	ld	a5,-32(s0)
ffffffc050401678:	078e                	slli	a5,a5,0x3
ffffffc05040167a:	97ba                	add	a5,a5,a4
ffffffc05040167c:	639c                	ld	a5,0(a5)
ffffffc05040167e:	4705                	li	a4,1
ffffffc050401680:	08e7aa23          	sw	a4,148(a5)
ffffffc050401684:	0ca000ef          	jal	ra,ffffffc05040174e <screen_reflush>
ffffffc050401688:	0001                	nop
ffffffc05040168a:	60e2                	ld	ra,24(sp)
ffffffc05040168c:	6442                	ld	s0,16(sp)
ffffffc05040168e:	6105                	addi	sp,sp,32
ffffffc050401690:	8082                	ret

ffffffc050401692 <screen_move_cursor>:
ffffffc050401692:	7179                	addi	sp,sp,-48
ffffffc050401694:	f406                	sd	ra,40(sp)
ffffffc050401696:	f022                	sd	s0,32(sp)
ffffffc050401698:	1800                	addi	s0,sp,48
ffffffc05040169a:	87aa                	mv	a5,a0
ffffffc05040169c:	872e                	mv	a4,a1
ffffffc05040169e:	fcf42e23          	sw	a5,-36(s0)
ffffffc0504016a2:	87ba                	mv	a5,a4
ffffffc0504016a4:	fcf42c23          	sw	a5,-40(s0)
ffffffc0504016a8:	c21fe0ef          	jal	ra,ffffffc0504002c8 <get_current_cpu_id>
ffffffc0504016ac:	fea43423          	sd	a0,-24(s0)
ffffffc0504016b0:	00066717          	auipc	a4,0x66
ffffffc0504016b4:	af070713          	addi	a4,a4,-1296 # ffffffc0504671a0 <current_running>
ffffffc0504016b8:	fe843783          	ld	a5,-24(s0)
ffffffc0504016bc:	078e                	slli	a5,a5,0x3
ffffffc0504016be:	97ba                	add	a5,a5,a4
ffffffc0504016c0:	639c                	ld	a5,0(a5)
ffffffc0504016c2:	fdc42703          	lw	a4,-36(s0)
ffffffc0504016c6:	08e7a823          	sw	a4,144(a5)
ffffffc0504016ca:	00066717          	auipc	a4,0x66
ffffffc0504016ce:	ad670713          	addi	a4,a4,-1322 # ffffffc0504671a0 <current_running>
ffffffc0504016d2:	fe843783          	ld	a5,-24(s0)
ffffffc0504016d6:	078e                	slli	a5,a5,0x3
ffffffc0504016d8:	97ba                	add	a5,a5,a4
ffffffc0504016da:	639c                	ld	a5,0(a5)
ffffffc0504016dc:	fd842703          	lw	a4,-40(s0)
ffffffc0504016e0:	08e7aa23          	sw	a4,148(a5)
ffffffc0504016e4:	0001                	nop
ffffffc0504016e6:	70a2                	ld	ra,40(sp)
ffffffc0504016e8:	7402                	ld	s0,32(sp)
ffffffc0504016ea:	6145                	addi	sp,sp,48
ffffffc0504016ec:	8082                	ret

ffffffc0504016ee <screen_write>:
ffffffc0504016ee:	7179                	addi	sp,sp,-48
ffffffc0504016f0:	f406                	sd	ra,40(sp)
ffffffc0504016f2:	f022                	sd	s0,32(sp)
ffffffc0504016f4:	1800                	addi	s0,sp,48
ffffffc0504016f6:	fca43c23          	sd	a0,-40(s0)
ffffffc0504016fa:	fe042623          	sw	zero,-20(s0)
ffffffc0504016fe:	fd843503          	ld	a0,-40(s0)
ffffffc050401702:	4f6040ef          	jal	ra,ffffffc050405bf8 <kstrlen>
ffffffc050401706:	87aa                	mv	a5,a0
ffffffc050401708:	fef42423          	sw	a5,-24(s0)
ffffffc05040170c:	fe042623          	sw	zero,-20(s0)
ffffffc050401710:	a005                	j	ffffffc050401730 <screen_write+0x42>
ffffffc050401712:	fec42783          	lw	a5,-20(s0)
ffffffc050401716:	fd843703          	ld	a4,-40(s0)
ffffffc05040171a:	97ba                	add	a5,a5,a4
ffffffc05040171c:	0007c783          	lbu	a5,0(a5)
ffffffc050401720:	853e                	mv	a0,a5
ffffffc050401722:	dbdff0ef          	jal	ra,ffffffc0504014de <screen_write_ch>
ffffffc050401726:	fec42783          	lw	a5,-20(s0)
ffffffc05040172a:	2785                	addiw	a5,a5,1
ffffffc05040172c:	fef42623          	sw	a5,-20(s0)
ffffffc050401730:	fec42703          	lw	a4,-20(s0)
ffffffc050401734:	fe842783          	lw	a5,-24(s0)
ffffffc050401738:	2701                	sext.w	a4,a4
ffffffc05040173a:	2781                	sext.w	a5,a5
ffffffc05040173c:	fcf74be3          	blt	a4,a5,ffffffc050401712 <screen_write+0x24>
ffffffc050401740:	00e000ef          	jal	ra,ffffffc05040174e <screen_reflush>
ffffffc050401744:	0001                	nop
ffffffc050401746:	70a2                	ld	ra,40(sp)
ffffffc050401748:	7402                	ld	s0,32(sp)
ffffffc05040174a:	6145                	addi	sp,sp,48
ffffffc05040174c:	8082                	ret

ffffffc05040174e <screen_reflush>:
ffffffc05040174e:	7179                	addi	sp,sp,-48
ffffffc050401750:	f406                	sd	ra,40(sp)
ffffffc050401752:	f022                	sd	s0,32(sp)
ffffffc050401754:	1800                	addi	s0,sp,48
ffffffc050401756:	b73fe0ef          	jal	ra,ffffffc0504002c8 <get_current_cpu_id>
ffffffc05040175a:	fea43023          	sd	a0,-32(s0)
ffffffc05040175e:	00066717          	auipc	a4,0x66
ffffffc050401762:	a4270713          	addi	a4,a4,-1470 # ffffffc0504671a0 <current_running>
ffffffc050401766:	fe043783          	ld	a5,-32(s0)
ffffffc05040176a:	078e                	slli	a5,a5,0x3
ffffffc05040176c:	97ba                	add	a5,a5,a4
ffffffc05040176e:	639c                	ld	a5,0(a5)
ffffffc050401770:	0907a783          	lw	a5,144(a5)
ffffffc050401774:	fcf42e23          	sw	a5,-36(s0)
ffffffc050401778:	00066717          	auipc	a4,0x66
ffffffc05040177c:	a2870713          	addi	a4,a4,-1496 # ffffffc0504671a0 <current_running>
ffffffc050401780:	fe043783          	ld	a5,-32(s0)
ffffffc050401784:	078e                	slli	a5,a5,0x3
ffffffc050401786:	97ba                	add	a5,a5,a4
ffffffc050401788:	639c                	ld	a5,0(a5)
ffffffc05040178a:	0947a783          	lw	a5,148(a5)
ffffffc05040178e:	fcf42c23          	sw	a5,-40(s0)
ffffffc050401792:	fe042623          	sw	zero,-20(s0)
ffffffc050401796:	aa31                	j	ffffffc0504018b2 <screen_reflush+0x164>
ffffffc050401798:	fe042423          	sw	zero,-24(s0)
ffffffc05040179c:	a8f5                	j	ffffffc050401898 <screen_reflush+0x14a>
ffffffc05040179e:	fec42703          	lw	a4,-20(s0)
ffffffc0504017a2:	87ba                	mv	a5,a4
ffffffc0504017a4:	0027979b          	slliw	a5,a5,0x2
ffffffc0504017a8:	9fb9                	addw	a5,a5,a4
ffffffc0504017aa:	0047979b          	slliw	a5,a5,0x4
ffffffc0504017ae:	2781                	sext.w	a5,a5
ffffffc0504017b0:	fe842703          	lw	a4,-24(s0)
ffffffc0504017b4:	9fb9                	addw	a5,a5,a4
ffffffc0504017b6:	2781                	sext.w	a5,a5
ffffffc0504017b8:	00063717          	auipc	a4,0x63
ffffffc0504017bc:	55070713          	addi	a4,a4,1360 # ffffffc050464d08 <new_screen>
ffffffc0504017c0:	97ba                	add	a5,a5,a4
ffffffc0504017c2:	0007c683          	lbu	a3,0(a5)
ffffffc0504017c6:	fec42703          	lw	a4,-20(s0)
ffffffc0504017ca:	87ba                	mv	a5,a4
ffffffc0504017cc:	0027979b          	slliw	a5,a5,0x2
ffffffc0504017d0:	9fb9                	addw	a5,a5,a4
ffffffc0504017d2:	0047979b          	slliw	a5,a5,0x4
ffffffc0504017d6:	2781                	sext.w	a5,a5
ffffffc0504017d8:	fe842703          	lw	a4,-24(s0)
ffffffc0504017dc:	9fb9                	addw	a5,a5,a4
ffffffc0504017de:	2781                	sext.w	a5,a5
ffffffc0504017e0:	00064717          	auipc	a4,0x64
ffffffc0504017e4:	4c870713          	addi	a4,a4,1224 # ffffffc050465ca8 <old_screen>
ffffffc0504017e8:	97ba                	add	a5,a5,a4
ffffffc0504017ea:	0007c783          	lbu	a5,0(a5)
ffffffc0504017ee:	8736                	mv	a4,a3
ffffffc0504017f0:	08f70f63          	beq	a4,a5,ffffffc05040188e <screen_reflush+0x140>
ffffffc0504017f4:	fe842783          	lw	a5,-24(s0)
ffffffc0504017f8:	2785                	addiw	a5,a5,1
ffffffc0504017fa:	0007871b          	sext.w	a4,a5
ffffffc0504017fe:	fec42783          	lw	a5,-20(s0)
ffffffc050401802:	2785                	addiw	a5,a5,1
ffffffc050401804:	2781                	sext.w	a5,a5
ffffffc050401806:	85be                	mv	a1,a5
ffffffc050401808:	853a                	mv	a0,a4
ffffffc05040180a:	c17ff0ef          	jal	ra,ffffffc050401420 <vt100_move_cursor>
ffffffc05040180e:	fec42703          	lw	a4,-20(s0)
ffffffc050401812:	87ba                	mv	a5,a4
ffffffc050401814:	0027979b          	slliw	a5,a5,0x2
ffffffc050401818:	9fb9                	addw	a5,a5,a4
ffffffc05040181a:	0047979b          	slliw	a5,a5,0x4
ffffffc05040181e:	2781                	sext.w	a5,a5
ffffffc050401820:	fe842703          	lw	a4,-24(s0)
ffffffc050401824:	9fb9                	addw	a5,a5,a4
ffffffc050401826:	2781                	sext.w	a5,a5
ffffffc050401828:	00063717          	auipc	a4,0x63
ffffffc05040182c:	4e070713          	addi	a4,a4,1248 # ffffffc050464d08 <new_screen>
ffffffc050401830:	97ba                	add	a5,a5,a4
ffffffc050401832:	0007c783          	lbu	a5,0(a5)
ffffffc050401836:	853e                	mv	a0,a5
ffffffc050401838:	a4dfe0ef          	jal	ra,ffffffc050400284 <port_write_ch>
ffffffc05040183c:	fec42703          	lw	a4,-20(s0)
ffffffc050401840:	87ba                	mv	a5,a4
ffffffc050401842:	0027979b          	slliw	a5,a5,0x2
ffffffc050401846:	9fb9                	addw	a5,a5,a4
ffffffc050401848:	0047979b          	slliw	a5,a5,0x4
ffffffc05040184c:	2781                	sext.w	a5,a5
ffffffc05040184e:	fe842703          	lw	a4,-24(s0)
ffffffc050401852:	9fb9                	addw	a5,a5,a4
ffffffc050401854:	0007869b          	sext.w	a3,a5
ffffffc050401858:	fec42703          	lw	a4,-20(s0)
ffffffc05040185c:	87ba                	mv	a5,a4
ffffffc05040185e:	0027979b          	slliw	a5,a5,0x2
ffffffc050401862:	9fb9                	addw	a5,a5,a4
ffffffc050401864:	0047979b          	slliw	a5,a5,0x4
ffffffc050401868:	2781                	sext.w	a5,a5
ffffffc05040186a:	fe842703          	lw	a4,-24(s0)
ffffffc05040186e:	9fb9                	addw	a5,a5,a4
ffffffc050401870:	2781                	sext.w	a5,a5
ffffffc050401872:	00063717          	auipc	a4,0x63
ffffffc050401876:	49670713          	addi	a4,a4,1174 # ffffffc050464d08 <new_screen>
ffffffc05040187a:	9736                	add	a4,a4,a3
ffffffc05040187c:	00074703          	lbu	a4,0(a4)
ffffffc050401880:	00064697          	auipc	a3,0x64
ffffffc050401884:	42868693          	addi	a3,a3,1064 # ffffffc050465ca8 <old_screen>
ffffffc050401888:	97b6                	add	a5,a5,a3
ffffffc05040188a:	00e78023          	sb	a4,0(a5)
ffffffc05040188e:	fe842783          	lw	a5,-24(s0)
ffffffc050401892:	2785                	addiw	a5,a5,1
ffffffc050401894:	fef42423          	sw	a5,-24(s0)
ffffffc050401898:	fe842783          	lw	a5,-24(s0)
ffffffc05040189c:	0007871b          	sext.w	a4,a5
ffffffc0504018a0:	04f00793          	li	a5,79
ffffffc0504018a4:	eee7dde3          	bge	a5,a4,ffffffc05040179e <screen_reflush+0x50>
ffffffc0504018a8:	fec42783          	lw	a5,-20(s0)
ffffffc0504018ac:	2785                	addiw	a5,a5,1
ffffffc0504018ae:	fef42623          	sw	a5,-20(s0)
ffffffc0504018b2:	fec42783          	lw	a5,-20(s0)
ffffffc0504018b6:	0007871b          	sext.w	a4,a5
ffffffc0504018ba:	03100793          	li	a5,49
ffffffc0504018be:	ece7dde3          	bge	a5,a4,ffffffc050401798 <screen_reflush+0x4a>
ffffffc0504018c2:	00066717          	auipc	a4,0x66
ffffffc0504018c6:	8de70713          	addi	a4,a4,-1826 # ffffffc0504671a0 <current_running>
ffffffc0504018ca:	fe043783          	ld	a5,-32(s0)
ffffffc0504018ce:	078e                	slli	a5,a5,0x3
ffffffc0504018d0:	97ba                	add	a5,a5,a4
ffffffc0504018d2:	639c                	ld	a5,0(a5)
ffffffc0504018d4:	fdc42703          	lw	a4,-36(s0)
ffffffc0504018d8:	08e7a823          	sw	a4,144(a5)
ffffffc0504018dc:	00066717          	auipc	a4,0x66
ffffffc0504018e0:	8c470713          	addi	a4,a4,-1852 # ffffffc0504671a0 <current_running>
ffffffc0504018e4:	fe043783          	ld	a5,-32(s0)
ffffffc0504018e8:	078e                	slli	a5,a5,0x3
ffffffc0504018ea:	97ba                	add	a5,a5,a4
ffffffc0504018ec:	639c                	ld	a5,0(a5)
ffffffc0504018ee:	fd842703          	lw	a4,-40(s0)
ffffffc0504018f2:	08e7aa23          	sw	a4,148(a5)
ffffffc0504018f6:	0001                	nop
ffffffc0504018f8:	70a2                	ld	ra,40(sp)
ffffffc0504018fa:	7402                	ld	s0,32(sp)
ffffffc0504018fc:	6145                	addi	sp,sp,48
ffffffc0504018fe:	8082                	ret

ffffffc050401900 <screen_back_ch>:
ffffffc050401900:	1101                	addi	sp,sp,-32
ffffffc050401902:	ec06                	sd	ra,24(sp)
ffffffc050401904:	e822                	sd	s0,16(sp)
ffffffc050401906:	1000                	addi	s0,sp,32
ffffffc050401908:	9c1fe0ef          	jal	ra,ffffffc0504002c8 <get_current_cpu_id>
ffffffc05040190c:	fea43423          	sd	a0,-24(s0)
ffffffc050401910:	00066717          	auipc	a4,0x66
ffffffc050401914:	89070713          	addi	a4,a4,-1904 # ffffffc0504671a0 <current_running>
ffffffc050401918:	fe843783          	ld	a5,-24(s0)
ffffffc05040191c:	078e                	slli	a5,a5,0x3
ffffffc05040191e:	97ba                	add	a5,a5,a4
ffffffc050401920:	639c                	ld	a5,0(a5)
ffffffc050401922:	0947a783          	lw	a5,148(a5)
ffffffc050401926:	37fd                	addiw	a5,a5,-1
ffffffc050401928:	2781                	sext.w	a5,a5
ffffffc05040192a:	873e                	mv	a4,a5
ffffffc05040192c:	87ba                	mv	a5,a4
ffffffc05040192e:	0027979b          	slliw	a5,a5,0x2
ffffffc050401932:	9fb9                	addw	a5,a5,a4
ffffffc050401934:	0047979b          	slliw	a5,a5,0x4
ffffffc050401938:	0007871b          	sext.w	a4,a5
ffffffc05040193c:	00066697          	auipc	a3,0x66
ffffffc050401940:	86468693          	addi	a3,a3,-1948 # ffffffc0504671a0 <current_running>
ffffffc050401944:	fe843783          	ld	a5,-24(s0)
ffffffc050401948:	078e                	slli	a5,a5,0x3
ffffffc05040194a:	97b6                	add	a5,a5,a3
ffffffc05040194c:	639c                	ld	a5,0(a5)
ffffffc05040194e:	0907a783          	lw	a5,144(a5)
ffffffc050401952:	37f9                	addiw	a5,a5,-2
ffffffc050401954:	2781                	sext.w	a5,a5
ffffffc050401956:	9fb9                	addw	a5,a5,a4
ffffffc050401958:	2781                	sext.w	a5,a5
ffffffc05040195a:	00063717          	auipc	a4,0x63
ffffffc05040195e:	3ae70713          	addi	a4,a4,942 # ffffffc050464d08 <new_screen>
ffffffc050401962:	97ba                	add	a5,a5,a4
ffffffc050401964:	02000713          	li	a4,32
ffffffc050401968:	00e78023          	sb	a4,0(a5)
ffffffc05040196c:	00066717          	auipc	a4,0x66
ffffffc050401970:	83470713          	addi	a4,a4,-1996 # ffffffc0504671a0 <current_running>
ffffffc050401974:	fe843783          	ld	a5,-24(s0)
ffffffc050401978:	078e                	slli	a5,a5,0x3
ffffffc05040197a:	97ba                	add	a5,a5,a4
ffffffc05040197c:	639c                	ld	a5,0(a5)
ffffffc05040197e:	0907a703          	lw	a4,144(a5)
ffffffc050401982:	377d                	addiw	a4,a4,-1
ffffffc050401984:	2701                	sext.w	a4,a4
ffffffc050401986:	08e7a823          	sw	a4,144(a5)
ffffffc05040198a:	0001                	nop
ffffffc05040198c:	60e2                	ld	ra,24(sp)
ffffffc05040198e:	6442                	ld	s0,16(sp)
ffffffc050401990:	6105                	addi	sp,sp,32
ffffffc050401992:	8082                	ret

ffffffc050401994 <screen_back>:
ffffffc050401994:	1141                	addi	sp,sp,-16
ffffffc050401996:	e406                	sd	ra,8(sp)
ffffffc050401998:	e022                	sd	s0,0(sp)
ffffffc05040199a:	0800                	addi	s0,sp,16
ffffffc05040199c:	f65ff0ef          	jal	ra,ffffffc050401900 <screen_back_ch>
ffffffc0504019a0:	dafff0ef          	jal	ra,ffffffc05040174e <screen_reflush>
ffffffc0504019a4:	0001                	nop
ffffffc0504019a6:	60a2                	ld	ra,8(sp)
ffffffc0504019a8:	6402                	ld	s0,0(sp)
ffffffc0504019aa:	0141                	addi	sp,sp,16
ffffffc0504019ac:	8082                	ret

ffffffc0504019ae <mutex_get>:
ffffffc0504019ae:	1141                	addi	sp,sp,-16
ffffffc0504019b0:	e406                	sd	ra,8(sp)
ffffffc0504019b2:	e022                	sd	s0,0(sp)
ffffffc0504019b4:	0800                	addi	s0,sp,16
ffffffc0504019b6:	86818793          	addi	a5,gp,-1944 # ffffffc050464ce8 <count>
ffffffc0504019ba:	439c                	lw	a5,0(a5)
ffffffc0504019bc:	2785                	addiw	a5,a5,1
ffffffc0504019be:	0007871b          	sext.w	a4,a5
ffffffc0504019c2:	86818793          	addi	a5,gp,-1944 # ffffffc050464ce8 <count>
ffffffc0504019c6:	c398                	sw	a4,0(a5)
ffffffc0504019c8:	86818793          	addi	a5,gp,-1944 # ffffffc050464ce8 <count>
ffffffc0504019cc:	439c                	lw	a5,0(a5)
ffffffc0504019ce:	853e                	mv	a0,a5
ffffffc0504019d0:	210000ef          	jal	ra,ffffffc050401be0 <do_mutex_lock_init>
ffffffc0504019d4:	86818793          	addi	a5,gp,-1944 # ffffffc050464ce8 <count>
ffffffc0504019d8:	439c                	lw	a5,0(a5)
ffffffc0504019da:	853e                	mv	a0,a5
ffffffc0504019dc:	60a2                	ld	ra,8(sp)
ffffffc0504019de:	6402                	ld	s0,0(sp)
ffffffc0504019e0:	0141                	addi	sp,sp,16
ffffffc0504019e2:	8082                	ret

ffffffc0504019e4 <mutex_lock>:
ffffffc0504019e4:	7179                	addi	sp,sp,-48
ffffffc0504019e6:	f406                	sd	ra,40(sp)
ffffffc0504019e8:	f022                	sd	s0,32(sp)
ffffffc0504019ea:	1800                	addi	s0,sp,48
ffffffc0504019ec:	87aa                	mv	a5,a0
ffffffc0504019ee:	fcf42e23          	sw	a5,-36(s0)
ffffffc0504019f2:	8d7fe0ef          	jal	ra,ffffffc0504002c8 <get_current_cpu_id>
ffffffc0504019f6:	87aa                	mv	a5,a0
ffffffc0504019f8:	fef43423          	sd	a5,-24(s0)
ffffffc0504019fc:	00065717          	auipc	a4,0x65
ffffffc050401a00:	7a470713          	addi	a4,a4,1956 # ffffffc0504671a0 <current_running>
ffffffc050401a04:	fe843783          	ld	a5,-24(s0)
ffffffc050401a08:	078e                	slli	a5,a5,0x3
ffffffc050401a0a:	97ba                	add	a5,a5,a4
ffffffc050401a0c:	6398                	ld	a4,0(a5)
ffffffc050401a0e:	fdc42783          	lw	a5,-36(s0)
ffffffc050401a12:	07d1                	addi	a5,a5,20
ffffffc050401a14:	078a                	slli	a5,a5,0x2
ffffffc050401a16:	97ba                	add	a5,a5,a4
ffffffc050401a18:	4705                	li	a4,1
ffffffc050401a1a:	c7d8                	sw	a4,12(a5)
ffffffc050401a1c:	fdc42703          	lw	a4,-36(s0)
ffffffc050401a20:	87ba                	mv	a5,a4
ffffffc050401a22:	0786                	slli	a5,a5,0x1
ffffffc050401a24:	97ba                	add	a5,a5,a4
ffffffc050401a26:	078e                	slli	a5,a5,0x3
ffffffc050401a28:	00065717          	auipc	a4,0x65
ffffffc050401a2c:	67870713          	addi	a4,a4,1656 # ffffffc0504670a0 <mutex_arr>
ffffffc050401a30:	97ba                	add	a5,a5,a4
ffffffc050401a32:	853e                	mv	a0,a5
ffffffc050401a34:	1fc000ef          	jal	ra,ffffffc050401c30 <do_mutex_lock_acquire>
ffffffc050401a38:	4781                	li	a5,0
ffffffc050401a3a:	853e                	mv	a0,a5
ffffffc050401a3c:	70a2                	ld	ra,40(sp)
ffffffc050401a3e:	7402                	ld	s0,32(sp)
ffffffc050401a40:	6145                	addi	sp,sp,48
ffffffc050401a42:	8082                	ret

ffffffc050401a44 <mutex_unlock>:
ffffffc050401a44:	1101                	addi	sp,sp,-32
ffffffc050401a46:	ec06                	sd	ra,24(sp)
ffffffc050401a48:	e822                	sd	s0,16(sp)
ffffffc050401a4a:	1000                	addi	s0,sp,32
ffffffc050401a4c:	87aa                	mv	a5,a0
ffffffc050401a4e:	fef42623          	sw	a5,-20(s0)
ffffffc050401a52:	fec42703          	lw	a4,-20(s0)
ffffffc050401a56:	87ba                	mv	a5,a4
ffffffc050401a58:	0786                	slli	a5,a5,0x1
ffffffc050401a5a:	97ba                	add	a5,a5,a4
ffffffc050401a5c:	078e                	slli	a5,a5,0x3
ffffffc050401a5e:	00065717          	auipc	a4,0x65
ffffffc050401a62:	6ba70713          	addi	a4,a4,1722 # ffffffc050467118 <binsem_arr>
ffffffc050401a66:	97ba                	add	a5,a5,a4
ffffffc050401a68:	853e                	mv	a0,a5
ffffffc050401a6a:	220000ef          	jal	ra,ffffffc050401c8a <do_mutex_lock_release>
ffffffc050401a6e:	4781                	li	a5,0
ffffffc050401a70:	853e                	mv	a0,a5
ffffffc050401a72:	60e2                	ld	ra,24(sp)
ffffffc050401a74:	6442                	ld	s0,16(sp)
ffffffc050401a76:	6105                	addi	sp,sp,32
ffffffc050401a78:	8082                	ret

ffffffc050401a7a <do_binsem_get>:
ffffffc050401a7a:	7179                	addi	sp,sp,-48
ffffffc050401a7c:	f406                	sd	ra,40(sp)
ffffffc050401a7e:	f022                	sd	s0,32(sp)
ffffffc050401a80:	1800                	addi	s0,sp,48
ffffffc050401a82:	87aa                	mv	a5,a0
ffffffc050401a84:	fcf42e23          	sw	a5,-36(s0)
ffffffc050401a88:	fe042623          	sw	zero,-20(s0)
ffffffc050401a8c:	a815                	j	ffffffc050401ac0 <do_binsem_get+0x46>
ffffffc050401a8e:	00065697          	auipc	a3,0x65
ffffffc050401a92:	68a68693          	addi	a3,a3,1674 # ffffffc050467118 <binsem_arr>
ffffffc050401a96:	fec42703          	lw	a4,-20(s0)
ffffffc050401a9a:	87ba                	mv	a5,a4
ffffffc050401a9c:	0786                	slli	a5,a5,0x1
ffffffc050401a9e:	97ba                	add	a5,a5,a4
ffffffc050401aa0:	078e                	slli	a5,a5,0x3
ffffffc050401aa2:	97b6                	add	a5,a5,a3
ffffffc050401aa4:	43d8                	lw	a4,4(a5)
ffffffc050401aa6:	fdc42783          	lw	a5,-36(s0)
ffffffc050401aaa:	2781                	sext.w	a5,a5
ffffffc050401aac:	00e79563          	bne	a5,a4,ffffffc050401ab6 <do_binsem_get+0x3c>
ffffffc050401ab0:	fec42783          	lw	a5,-20(s0)
ffffffc050401ab4:	a071                	j	ffffffc050401b40 <do_binsem_get+0xc6>
ffffffc050401ab6:	fec42783          	lw	a5,-20(s0)
ffffffc050401aba:	2785                	addiw	a5,a5,1
ffffffc050401abc:	fef42623          	sw	a5,-20(s0)
ffffffc050401ac0:	fec42783          	lw	a5,-20(s0)
ffffffc050401ac4:	0007871b          	sext.w	a4,a5
ffffffc050401ac8:	4791                	li	a5,4
ffffffc050401aca:	fce7d2e3          	bge	a5,a4,ffffffc050401a8e <do_binsem_get+0x14>
ffffffc050401ace:	86c18793          	addi	a5,gp,-1940 # ffffffc050464cec <binsem_count>
ffffffc050401ad2:	439c                	lw	a5,0(a5)
ffffffc050401ad4:	2785                	addiw	a5,a5,1
ffffffc050401ad6:	0007871b          	sext.w	a4,a5
ffffffc050401ada:	86c18793          	addi	a5,gp,-1940 # ffffffc050464cec <binsem_count>
ffffffc050401ade:	c398                	sw	a4,0(a5)
ffffffc050401ae0:	86c18793          	addi	a5,gp,-1940 # ffffffc050464cec <binsem_count>
ffffffc050401ae4:	4398                	lw	a4,0(a5)
ffffffc050401ae6:	00065697          	auipc	a3,0x65
ffffffc050401aea:	63268693          	addi	a3,a3,1586 # ffffffc050467118 <binsem_arr>
ffffffc050401aee:	87ba                	mv	a5,a4
ffffffc050401af0:	0786                	slli	a5,a5,0x1
ffffffc050401af2:	97ba                	add	a5,a5,a4
ffffffc050401af4:	078e                	slli	a5,a5,0x3
ffffffc050401af6:	97b6                	add	a5,a5,a3
ffffffc050401af8:	fdc42703          	lw	a4,-36(s0)
ffffffc050401afc:	c3d8                	sw	a4,4(a5)
ffffffc050401afe:	86c18793          	addi	a5,gp,-1940 # ffffffc050464cec <binsem_count>
ffffffc050401b02:	4398                	lw	a4,0(a5)
ffffffc050401b04:	87ba                	mv	a5,a4
ffffffc050401b06:	0786                	slli	a5,a5,0x1
ffffffc050401b08:	97ba                	add	a5,a5,a4
ffffffc050401b0a:	078e                	slli	a5,a5,0x3
ffffffc050401b0c:	00065717          	auipc	a4,0x65
ffffffc050401b10:	60c70713          	addi	a4,a4,1548 # ffffffc050467118 <binsem_arr>
ffffffc050401b14:	97ba                	add	a5,a5,a4
ffffffc050401b16:	07a1                	addi	a5,a5,8
ffffffc050401b18:	853e                	mv	a0,a5
ffffffc050401b1a:	042010ef          	jal	ra,ffffffc050402b5c <list_init>
ffffffc050401b1e:	86c18793          	addi	a5,gp,-1940 # ffffffc050464cec <binsem_count>
ffffffc050401b22:	4398                	lw	a4,0(a5)
ffffffc050401b24:	00065697          	auipc	a3,0x65
ffffffc050401b28:	5f468693          	addi	a3,a3,1524 # ffffffc050467118 <binsem_arr>
ffffffc050401b2c:	87ba                	mv	a5,a4
ffffffc050401b2e:	0786                	slli	a5,a5,0x1
ffffffc050401b30:	97ba                	add	a5,a5,a4
ffffffc050401b32:	078e                	slli	a5,a5,0x3
ffffffc050401b34:	97b6                	add	a5,a5,a3
ffffffc050401b36:	0007a023          	sw	zero,0(a5)
ffffffc050401b3a:	86c18793          	addi	a5,gp,-1940 # ffffffc050464cec <binsem_count>
ffffffc050401b3e:	439c                	lw	a5,0(a5)
ffffffc050401b40:	853e                	mv	a0,a5
ffffffc050401b42:	70a2                	ld	ra,40(sp)
ffffffc050401b44:	7402                	ld	s0,32(sp)
ffffffc050401b46:	6145                	addi	sp,sp,48
ffffffc050401b48:	8082                	ret

ffffffc050401b4a <do_binsem_lock>:
ffffffc050401b4a:	7179                	addi	sp,sp,-48
ffffffc050401b4c:	f406                	sd	ra,40(sp)
ffffffc050401b4e:	f022                	sd	s0,32(sp)
ffffffc050401b50:	1800                	addi	s0,sp,48
ffffffc050401b52:	87aa                	mv	a5,a0
ffffffc050401b54:	fcf42e23          	sw	a5,-36(s0)
ffffffc050401b58:	f70fe0ef          	jal	ra,ffffffc0504002c8 <get_current_cpu_id>
ffffffc050401b5c:	87aa                	mv	a5,a0
ffffffc050401b5e:	fef43423          	sd	a5,-24(s0)
ffffffc050401b62:	00065717          	auipc	a4,0x65
ffffffc050401b66:	63e70713          	addi	a4,a4,1598 # ffffffc0504671a0 <current_running>
ffffffc050401b6a:	fe843783          	ld	a5,-24(s0)
ffffffc050401b6e:	078e                	slli	a5,a5,0x3
ffffffc050401b70:	97ba                	add	a5,a5,a4
ffffffc050401b72:	6398                	ld	a4,0(a5)
ffffffc050401b74:	fdc42783          	lw	a5,-36(s0)
ffffffc050401b78:	07d1                	addi	a5,a5,20
ffffffc050401b7a:	078a                	slli	a5,a5,0x2
ffffffc050401b7c:	97ba                	add	a5,a5,a4
ffffffc050401b7e:	4705                	li	a4,1
ffffffc050401b80:	c7d8                	sw	a4,12(a5)
ffffffc050401b82:	fdc42703          	lw	a4,-36(s0)
ffffffc050401b86:	87ba                	mv	a5,a4
ffffffc050401b88:	0786                	slli	a5,a5,0x1
ffffffc050401b8a:	97ba                	add	a5,a5,a4
ffffffc050401b8c:	078e                	slli	a5,a5,0x3
ffffffc050401b8e:	00065717          	auipc	a4,0x65
ffffffc050401b92:	58a70713          	addi	a4,a4,1418 # ffffffc050467118 <binsem_arr>
ffffffc050401b96:	97ba                	add	a5,a5,a4
ffffffc050401b98:	853e                	mv	a0,a5
ffffffc050401b9a:	096000ef          	jal	ra,ffffffc050401c30 <do_mutex_lock_acquire>
ffffffc050401b9e:	4781                	li	a5,0
ffffffc050401ba0:	853e                	mv	a0,a5
ffffffc050401ba2:	70a2                	ld	ra,40(sp)
ffffffc050401ba4:	7402                	ld	s0,32(sp)
ffffffc050401ba6:	6145                	addi	sp,sp,48
ffffffc050401ba8:	8082                	ret

ffffffc050401baa <do_binsem_unlock>:
ffffffc050401baa:	1101                	addi	sp,sp,-32
ffffffc050401bac:	ec06                	sd	ra,24(sp)
ffffffc050401bae:	e822                	sd	s0,16(sp)
ffffffc050401bb0:	1000                	addi	s0,sp,32
ffffffc050401bb2:	87aa                	mv	a5,a0
ffffffc050401bb4:	fef42623          	sw	a5,-20(s0)
ffffffc050401bb8:	fec42703          	lw	a4,-20(s0)
ffffffc050401bbc:	87ba                	mv	a5,a4
ffffffc050401bbe:	0786                	slli	a5,a5,0x1
ffffffc050401bc0:	97ba                	add	a5,a5,a4
ffffffc050401bc2:	078e                	slli	a5,a5,0x3
ffffffc050401bc4:	00065717          	auipc	a4,0x65
ffffffc050401bc8:	55470713          	addi	a4,a4,1364 # ffffffc050467118 <binsem_arr>
ffffffc050401bcc:	97ba                	add	a5,a5,a4
ffffffc050401bce:	853e                	mv	a0,a5
ffffffc050401bd0:	0ba000ef          	jal	ra,ffffffc050401c8a <do_mutex_lock_release>
ffffffc050401bd4:	4781                	li	a5,0
ffffffc050401bd6:	853e                	mv	a0,a5
ffffffc050401bd8:	60e2                	ld	ra,24(sp)
ffffffc050401bda:	6442                	ld	s0,16(sp)
ffffffc050401bdc:	6105                	addi	sp,sp,32
ffffffc050401bde:	8082                	ret

ffffffc050401be0 <do_mutex_lock_init>:
ffffffc050401be0:	1101                	addi	sp,sp,-32
ffffffc050401be2:	ec06                	sd	ra,24(sp)
ffffffc050401be4:	e822                	sd	s0,16(sp)
ffffffc050401be6:	1000                	addi	s0,sp,32
ffffffc050401be8:	87aa                	mv	a5,a0
ffffffc050401bea:	fef42623          	sw	a5,-20(s0)
ffffffc050401bee:	fec42703          	lw	a4,-20(s0)
ffffffc050401bf2:	87ba                	mv	a5,a4
ffffffc050401bf4:	0786                	slli	a5,a5,0x1
ffffffc050401bf6:	97ba                	add	a5,a5,a4
ffffffc050401bf8:	078e                	slli	a5,a5,0x3
ffffffc050401bfa:	00065717          	auipc	a4,0x65
ffffffc050401bfe:	4a670713          	addi	a4,a4,1190 # ffffffc0504670a0 <mutex_arr>
ffffffc050401c02:	97ba                	add	a5,a5,a4
ffffffc050401c04:	07a1                	addi	a5,a5,8
ffffffc050401c06:	853e                	mv	a0,a5
ffffffc050401c08:	755000ef          	jal	ra,ffffffc050402b5c <list_init>
ffffffc050401c0c:	00065697          	auipc	a3,0x65
ffffffc050401c10:	49468693          	addi	a3,a3,1172 # ffffffc0504670a0 <mutex_arr>
ffffffc050401c14:	fec42703          	lw	a4,-20(s0)
ffffffc050401c18:	87ba                	mv	a5,a4
ffffffc050401c1a:	0786                	slli	a5,a5,0x1
ffffffc050401c1c:	97ba                	add	a5,a5,a4
ffffffc050401c1e:	078e                	slli	a5,a5,0x3
ffffffc050401c20:	97b6                	add	a5,a5,a3
ffffffc050401c22:	0007a023          	sw	zero,0(a5)
ffffffc050401c26:	0001                	nop
ffffffc050401c28:	60e2                	ld	ra,24(sp)
ffffffc050401c2a:	6442                	ld	s0,16(sp)
ffffffc050401c2c:	6105                	addi	sp,sp,32
ffffffc050401c2e:	8082                	ret

ffffffc050401c30 <do_mutex_lock_acquire>:
ffffffc050401c30:	7179                	addi	sp,sp,-48
ffffffc050401c32:	f406                	sd	ra,40(sp)
ffffffc050401c34:	f022                	sd	s0,32(sp)
ffffffc050401c36:	1800                	addi	s0,sp,48
ffffffc050401c38:	fca43c23          	sd	a0,-40(s0)
ffffffc050401c3c:	e8cfe0ef          	jal	ra,ffffffc0504002c8 <get_current_cpu_id>
ffffffc050401c40:	87aa                	mv	a5,a0
ffffffc050401c42:	fef43423          	sd	a5,-24(s0)
ffffffc050401c46:	fd843783          	ld	a5,-40(s0)
ffffffc050401c4a:	439c                	lw	a5,0(a5)
ffffffc050401c4c:	2781                	sext.w	a5,a5
ffffffc050401c4e:	873e                	mv	a4,a5
ffffffc050401c50:	4785                	li	a5,1
ffffffc050401c52:	02f71363          	bne	a4,a5,ffffffc050401c78 <do_mutex_lock_acquire+0x48>
ffffffc050401c56:	00065717          	auipc	a4,0x65
ffffffc050401c5a:	54a70713          	addi	a4,a4,1354 # ffffffc0504671a0 <current_running>
ffffffc050401c5e:	fe843783          	ld	a5,-24(s0)
ffffffc050401c62:	078e                	slli	a5,a5,0x3
ffffffc050401c64:	97ba                	add	a5,a5,a4
ffffffc050401c66:	6398                	ld	a4,0(a5)
ffffffc050401c68:	fd843783          	ld	a5,-40(s0)
ffffffc050401c6c:	07a1                	addi	a5,a5,8
ffffffc050401c6e:	85be                	mv	a1,a5
ffffffc050401c70:	853a                	mv	a0,a4
ffffffc050401c72:	662010ef          	jal	ra,ffffffc0504032d4 <do_block>
ffffffc050401c76:	a029                	j	ffffffc050401c80 <do_mutex_lock_acquire+0x50>
ffffffc050401c78:	fd843783          	ld	a5,-40(s0)
ffffffc050401c7c:	4705                	li	a4,1
ffffffc050401c7e:	c398                	sw	a4,0(a5)
ffffffc050401c80:	0001                	nop
ffffffc050401c82:	70a2                	ld	ra,40(sp)
ffffffc050401c84:	7402                	ld	s0,32(sp)
ffffffc050401c86:	6145                	addi	sp,sp,48
ffffffc050401c88:	8082                	ret

ffffffc050401c8a <do_mutex_lock_release>:
ffffffc050401c8a:	1101                	addi	sp,sp,-32
ffffffc050401c8c:	ec06                	sd	ra,24(sp)
ffffffc050401c8e:	e822                	sd	s0,16(sp)
ffffffc050401c90:	1000                	addi	s0,sp,32
ffffffc050401c92:	fea43423          	sd	a0,-24(s0)
ffffffc050401c96:	fe843783          	ld	a5,-24(s0)
ffffffc050401c9a:	6b98                	ld	a4,16(a5)
ffffffc050401c9c:	fe843783          	ld	a5,-24(s0)
ffffffc050401ca0:	07a1                	addi	a5,a5,8
ffffffc050401ca2:	00f71763          	bne	a4,a5,ffffffc050401cb0 <do_mutex_lock_release+0x26>
ffffffc050401ca6:	fe843783          	ld	a5,-24(s0)
ffffffc050401caa:	0007a023          	sw	zero,0(a5)
ffffffc050401cae:	a819                	j	ffffffc050401cc4 <do_mutex_lock_release+0x3a>
ffffffc050401cb0:	fe843783          	ld	a5,-24(s0)
ffffffc050401cb4:	6b9c                	ld	a5,16(a5)
ffffffc050401cb6:	853e                	mv	a0,a5
ffffffc050401cb8:	68c010ef          	jal	ra,ffffffc050403344 <do_unblock>
ffffffc050401cbc:	fe843783          	ld	a5,-24(s0)
ffffffc050401cc0:	4705                	li	a4,1
ffffffc050401cc2:	c398                	sw	a4,0(a5)
ffffffc050401cc4:	0001                	nop
ffffffc050401cc6:	60e2                	ld	ra,24(sp)
ffffffc050401cc8:	6442                	ld	s0,16(sp)
ffffffc050401cca:	6105                	addi	sp,sp,32
ffffffc050401ccc:	8082                	ret

ffffffc050401cce <barrier_get>:
ffffffc050401cce:	1101                	addi	sp,sp,-32
ffffffc050401cd0:	ec06                	sd	ra,24(sp)
ffffffc050401cd2:	e822                	sd	s0,16(sp)
ffffffc050401cd4:	1000                	addi	s0,sp,32
ffffffc050401cd6:	87aa                	mv	a5,a0
ffffffc050401cd8:	fef42623          	sw	a5,-20(s0)
ffffffc050401cdc:	87018793          	addi	a5,gp,-1936 # ffffffc050464cf0 <barrier_count>
ffffffc050401ce0:	439c                	lw	a5,0(a5)
ffffffc050401ce2:	2785                	addiw	a5,a5,1
ffffffc050401ce4:	0007871b          	sext.w	a4,a5
ffffffc050401ce8:	87018793          	addi	a5,gp,-1936 # ffffffc050464cf0 <barrier_count>
ffffffc050401cec:	c398                	sw	a4,0(a5)
ffffffc050401cee:	87018793          	addi	a5,gp,-1936 # ffffffc050464cf0 <barrier_count>
ffffffc050401cf2:	4398                	lw	a4,0(a5)
ffffffc050401cf4:	87ba                	mv	a5,a4
ffffffc050401cf6:	0786                	slli	a5,a5,0x1
ffffffc050401cf8:	97ba                	add	a5,a5,a4
ffffffc050401cfa:	078e                	slli	a5,a5,0x3
ffffffc050401cfc:	00065717          	auipc	a4,0x65
ffffffc050401d00:	03470713          	addi	a4,a4,52 # ffffffc050466d30 <barrier_arr>
ffffffc050401d04:	97ba                	add	a5,a5,a4
ffffffc050401d06:	853e                	mv	a0,a5
ffffffc050401d08:	655000ef          	jal	ra,ffffffc050402b5c <list_init>
ffffffc050401d0c:	87018793          	addi	a5,gp,-1936 # ffffffc050464cf0 <barrier_count>
ffffffc050401d10:	4398                	lw	a4,0(a5)
ffffffc050401d12:	00065697          	auipc	a3,0x65
ffffffc050401d16:	01e68693          	addi	a3,a3,30 # ffffffc050466d30 <barrier_arr>
ffffffc050401d1a:	87ba                	mv	a5,a4
ffffffc050401d1c:	0786                	slli	a5,a5,0x1
ffffffc050401d1e:	97ba                	add	a5,a5,a4
ffffffc050401d20:	078e                	slli	a5,a5,0x3
ffffffc050401d22:	97b6                	add	a5,a5,a3
ffffffc050401d24:	fec42703          	lw	a4,-20(s0)
ffffffc050401d28:	cbd8                	sw	a4,20(a5)
ffffffc050401d2a:	87018793          	addi	a5,gp,-1936 # ffffffc050464cf0 <barrier_count>
ffffffc050401d2e:	4398                	lw	a4,0(a5)
ffffffc050401d30:	00065697          	auipc	a3,0x65
ffffffc050401d34:	00068693          	mv	a3,a3
ffffffc050401d38:	87ba                	mv	a5,a4
ffffffc050401d3a:	0786                	slli	a5,a5,0x1
ffffffc050401d3c:	97ba                	add	a5,a5,a4
ffffffc050401d3e:	078e                	slli	a5,a5,0x3
ffffffc050401d40:	97b6                	add	a5,a5,a3
ffffffc050401d42:	0007a823          	sw	zero,16(a5)
ffffffc050401d46:	87018793          	addi	a5,gp,-1936 # ffffffc050464cf0 <barrier_count>
ffffffc050401d4a:	439c                	lw	a5,0(a5)
ffffffc050401d4c:	853e                	mv	a0,a5
ffffffc050401d4e:	60e2                	ld	ra,24(sp)
ffffffc050401d50:	6442                	ld	s0,16(sp)
ffffffc050401d52:	6105                	addi	sp,sp,32
ffffffc050401d54:	8082                	ret

ffffffc050401d56 <barrier_wait>:
ffffffc050401d56:	7179                	addi	sp,sp,-48
ffffffc050401d58:	f406                	sd	ra,40(sp)
ffffffc050401d5a:	f022                	sd	s0,32(sp)
ffffffc050401d5c:	1800                	addi	s0,sp,48
ffffffc050401d5e:	87aa                	mv	a5,a0
ffffffc050401d60:	fcf42e23          	sw	a5,-36(s0)
ffffffc050401d64:	d64fe0ef          	jal	ra,ffffffc0504002c8 <get_current_cpu_id>
ffffffc050401d68:	87aa                	mv	a5,a0
ffffffc050401d6a:	fef43423          	sd	a5,-24(s0)
ffffffc050401d6e:	00065697          	auipc	a3,0x65
ffffffc050401d72:	fc268693          	addi	a3,a3,-62 # ffffffc050466d30 <barrier_arr>
ffffffc050401d76:	fdc42703          	lw	a4,-36(s0)
ffffffc050401d7a:	87ba                	mv	a5,a4
ffffffc050401d7c:	0786                	slli	a5,a5,0x1
ffffffc050401d7e:	97ba                	add	a5,a5,a4
ffffffc050401d80:	078e                	slli	a5,a5,0x3
ffffffc050401d82:	97b6                	add	a5,a5,a3
ffffffc050401d84:	4b9c                	lw	a5,16(a5)
ffffffc050401d86:	2785                	addiw	a5,a5,1
ffffffc050401d88:	0007869b          	sext.w	a3,a5
ffffffc050401d8c:	00065617          	auipc	a2,0x65
ffffffc050401d90:	fa460613          	addi	a2,a2,-92 # ffffffc050466d30 <barrier_arr>
ffffffc050401d94:	fdc42703          	lw	a4,-36(s0)
ffffffc050401d98:	87ba                	mv	a5,a4
ffffffc050401d9a:	0786                	slli	a5,a5,0x1
ffffffc050401d9c:	97ba                	add	a5,a5,a4
ffffffc050401d9e:	078e                	slli	a5,a5,0x3
ffffffc050401da0:	97b2                	add	a5,a5,a2
ffffffc050401da2:	cb94                	sw	a3,16(a5)
ffffffc050401da4:	00065697          	auipc	a3,0x65
ffffffc050401da8:	f8c68693          	addi	a3,a3,-116 # ffffffc050466d30 <barrier_arr>
ffffffc050401dac:	fdc42703          	lw	a4,-36(s0)
ffffffc050401db0:	87ba                	mv	a5,a4
ffffffc050401db2:	0786                	slli	a5,a5,0x1
ffffffc050401db4:	97ba                	add	a5,a5,a4
ffffffc050401db6:	078e                	slli	a5,a5,0x3
ffffffc050401db8:	97b6                	add	a5,a5,a3
ffffffc050401dba:	4b90                	lw	a2,16(a5)
ffffffc050401dbc:	00065697          	auipc	a3,0x65
ffffffc050401dc0:	f7468693          	addi	a3,a3,-140 # ffffffc050466d30 <barrier_arr>
ffffffc050401dc4:	fdc42703          	lw	a4,-36(s0)
ffffffc050401dc8:	87ba                	mv	a5,a4
ffffffc050401dca:	0786                	slli	a5,a5,0x1
ffffffc050401dcc:	97ba                	add	a5,a5,a4
ffffffc050401dce:	078e                	slli	a5,a5,0x3
ffffffc050401dd0:	97b6                	add	a5,a5,a3
ffffffc050401dd2:	4bdc                	lw	a5,20(a5)
ffffffc050401dd4:	8732                	mv	a4,a2
ffffffc050401dd6:	02f71e63          	bne	a4,a5,ffffffc050401e12 <barrier_wait+0xbc>
ffffffc050401dda:	00065697          	auipc	a3,0x65
ffffffc050401dde:	f5668693          	addi	a3,a3,-170 # ffffffc050466d30 <barrier_arr>
ffffffc050401de2:	fdc42703          	lw	a4,-36(s0)
ffffffc050401de6:	87ba                	mv	a5,a4
ffffffc050401de8:	0786                	slli	a5,a5,0x1
ffffffc050401dea:	97ba                	add	a5,a5,a4
ffffffc050401dec:	078e                	slli	a5,a5,0x3
ffffffc050401dee:	97b6                	add	a5,a5,a3
ffffffc050401df0:	0007a823          	sw	zero,16(a5)
ffffffc050401df4:	fdc42703          	lw	a4,-36(s0)
ffffffc050401df8:	87ba                	mv	a5,a4
ffffffc050401dfa:	0786                	slli	a5,a5,0x1
ffffffc050401dfc:	97ba                	add	a5,a5,a4
ffffffc050401dfe:	078e                	slli	a5,a5,0x3
ffffffc050401e00:	00065717          	auipc	a4,0x65
ffffffc050401e04:	f3070713          	addi	a4,a4,-208 # ffffffc050466d30 <barrier_arr>
ffffffc050401e08:	97ba                	add	a5,a5,a4
ffffffc050401e0a:	853e                	mv	a0,a5
ffffffc050401e0c:	29f010ef          	jal	ra,ffffffc0504038aa <release_queue>
ffffffc050401e10:	a80d                	j	ffffffc050401e42 <barrier_wait+0xec>
ffffffc050401e12:	00065717          	auipc	a4,0x65
ffffffc050401e16:	38e70713          	addi	a4,a4,910 # ffffffc0504671a0 <current_running>
ffffffc050401e1a:	fe843783          	ld	a5,-24(s0)
ffffffc050401e1e:	078e                	slli	a5,a5,0x3
ffffffc050401e20:	97ba                	add	a5,a5,a4
ffffffc050401e22:	6394                	ld	a3,0(a5)
ffffffc050401e24:	fdc42703          	lw	a4,-36(s0)
ffffffc050401e28:	87ba                	mv	a5,a4
ffffffc050401e2a:	0786                	slli	a5,a5,0x1
ffffffc050401e2c:	97ba                	add	a5,a5,a4
ffffffc050401e2e:	078e                	slli	a5,a5,0x3
ffffffc050401e30:	00065717          	auipc	a4,0x65
ffffffc050401e34:	f0070713          	addi	a4,a4,-256 # ffffffc050466d30 <barrier_arr>
ffffffc050401e38:	97ba                	add	a5,a5,a4
ffffffc050401e3a:	85be                	mv	a1,a5
ffffffc050401e3c:	8536                	mv	a0,a3
ffffffc050401e3e:	496010ef          	jal	ra,ffffffc0504032d4 <do_block>
ffffffc050401e42:	4781                	li	a5,0
ffffffc050401e44:	853e                	mv	a0,a5
ffffffc050401e46:	70a2                	ld	ra,40(sp)
ffffffc050401e48:	7402                	ld	s0,32(sp)
ffffffc050401e4a:	6145                	addi	sp,sp,48
ffffffc050401e4c:	8082                	ret

ffffffc050401e4e <barrier_destroy>:
ffffffc050401e4e:	1101                	addi	sp,sp,-32
ffffffc050401e50:	ec06                	sd	ra,24(sp)
ffffffc050401e52:	e822                	sd	s0,16(sp)
ffffffc050401e54:	1000                	addi	s0,sp,32
ffffffc050401e56:	87aa                	mv	a5,a0
ffffffc050401e58:	fef42623          	sw	a5,-20(s0)
ffffffc050401e5c:	00065697          	auipc	a3,0x65
ffffffc050401e60:	ed468693          	addi	a3,a3,-300 # ffffffc050466d30 <barrier_arr>
ffffffc050401e64:	fec42703          	lw	a4,-20(s0)
ffffffc050401e68:	87ba                	mv	a5,a4
ffffffc050401e6a:	0786                	slli	a5,a5,0x1
ffffffc050401e6c:	97ba                	add	a5,a5,a4
ffffffc050401e6e:	078e                	slli	a5,a5,0x3
ffffffc050401e70:	97b6                	add	a5,a5,a3
ffffffc050401e72:	0007a823          	sw	zero,16(a5)
ffffffc050401e76:	00065697          	auipc	a3,0x65
ffffffc050401e7a:	eba68693          	addi	a3,a3,-326 # ffffffc050466d30 <barrier_arr>
ffffffc050401e7e:	fec42703          	lw	a4,-20(s0)
ffffffc050401e82:	87ba                	mv	a5,a4
ffffffc050401e84:	0786                	slli	a5,a5,0x1
ffffffc050401e86:	97ba                	add	a5,a5,a4
ffffffc050401e88:	078e                	slli	a5,a5,0x3
ffffffc050401e8a:	97b6                	add	a5,a5,a3
ffffffc050401e8c:	0007aa23          	sw	zero,20(a5)
ffffffc050401e90:	fec42703          	lw	a4,-20(s0)
ffffffc050401e94:	87ba                	mv	a5,a4
ffffffc050401e96:	0786                	slli	a5,a5,0x1
ffffffc050401e98:	97ba                	add	a5,a5,a4
ffffffc050401e9a:	078e                	slli	a5,a5,0x3
ffffffc050401e9c:	00065717          	auipc	a4,0x65
ffffffc050401ea0:	e9470713          	addi	a4,a4,-364 # ffffffc050466d30 <barrier_arr>
ffffffc050401ea4:	97ba                	add	a5,a5,a4
ffffffc050401ea6:	853e                	mv	a0,a5
ffffffc050401ea8:	203010ef          	jal	ra,ffffffc0504038aa <release_queue>
ffffffc050401eac:	4781                	li	a5,0
ffffffc050401eae:	853e                	mv	a0,a5
ffffffc050401eb0:	60e2                	ld	ra,24(sp)
ffffffc050401eb2:	6442                	ld	s0,16(sp)
ffffffc050401eb4:	6105                	addi	sp,sp,32
ffffffc050401eb6:	8082                	ret

ffffffc050401eb8 <semaphore_init>:
ffffffc050401eb8:	1101                	addi	sp,sp,-32
ffffffc050401eba:	ec06                	sd	ra,24(sp)
ffffffc050401ebc:	e822                	sd	s0,16(sp)
ffffffc050401ebe:	1000                	addi	s0,sp,32
ffffffc050401ec0:	87aa                	mv	a5,a0
ffffffc050401ec2:	fef42623          	sw	a5,-20(s0)
ffffffc050401ec6:	87418793          	addi	a5,gp,-1932 # ffffffc050464cf4 <semaphore_count>
ffffffc050401eca:	439c                	lw	a5,0(a5)
ffffffc050401ecc:	2785                	addiw	a5,a5,1
ffffffc050401ece:	0007871b          	sext.w	a4,a5
ffffffc050401ed2:	87418793          	addi	a5,gp,-1932 # ffffffc050464cf4 <semaphore_count>
ffffffc050401ed6:	c398                	sw	a4,0(a5)
ffffffc050401ed8:	87418793          	addi	a5,gp,-1932 # ffffffc050464cf4 <semaphore_count>
ffffffc050401edc:	4398                	lw	a4,0(a5)
ffffffc050401ede:	87ba                	mv	a5,a4
ffffffc050401ee0:	0786                	slli	a5,a5,0x1
ffffffc050401ee2:	97ba                	add	a5,a5,a4
ffffffc050401ee4:	078e                	slli	a5,a5,0x3
ffffffc050401ee6:	00065717          	auipc	a4,0x65
ffffffc050401eea:	ec270713          	addi	a4,a4,-318 # ffffffc050466da8 <semaphore_arr>
ffffffc050401eee:	97ba                	add	a5,a5,a4
ffffffc050401ef0:	853e                	mv	a0,a5
ffffffc050401ef2:	46b000ef          	jal	ra,ffffffc050402b5c <list_init>
ffffffc050401ef6:	87418793          	addi	a5,gp,-1932 # ffffffc050464cf4 <semaphore_count>
ffffffc050401efa:	4398                	lw	a4,0(a5)
ffffffc050401efc:	00065697          	auipc	a3,0x65
ffffffc050401f00:	eac68693          	addi	a3,a3,-340 # ffffffc050466da8 <semaphore_arr>
ffffffc050401f04:	87ba                	mv	a5,a4
ffffffc050401f06:	0786                	slli	a5,a5,0x1
ffffffc050401f08:	97ba                	add	a5,a5,a4
ffffffc050401f0a:	078e                	slli	a5,a5,0x3
ffffffc050401f0c:	97b6                	add	a5,a5,a3
ffffffc050401f0e:	fec42703          	lw	a4,-20(s0)
ffffffc050401f12:	cb98                	sw	a4,16(a5)
ffffffc050401f14:	87418793          	addi	a5,gp,-1932 # ffffffc050464cf4 <semaphore_count>
ffffffc050401f18:	439c                	lw	a5,0(a5)
ffffffc050401f1a:	853e                	mv	a0,a5
ffffffc050401f1c:	60e2                	ld	ra,24(sp)
ffffffc050401f1e:	6442                	ld	s0,16(sp)
ffffffc050401f20:	6105                	addi	sp,sp,32
ffffffc050401f22:	8082                	ret

ffffffc050401f24 <semaphore_up>:
ffffffc050401f24:	7179                	addi	sp,sp,-48
ffffffc050401f26:	f406                	sd	ra,40(sp)
ffffffc050401f28:	f022                	sd	s0,32(sp)
ffffffc050401f2a:	1800                	addi	s0,sp,48
ffffffc050401f2c:	87aa                	mv	a5,a0
ffffffc050401f2e:	fcf42e23          	sw	a5,-36(s0)
ffffffc050401f32:	b96fe0ef          	jal	ra,ffffffc0504002c8 <get_current_cpu_id>
ffffffc050401f36:	87aa                	mv	a5,a0
ffffffc050401f38:	fef43423          	sd	a5,-24(s0)
ffffffc050401f3c:	00065697          	auipc	a3,0x65
ffffffc050401f40:	e6c68693          	addi	a3,a3,-404 # ffffffc050466da8 <semaphore_arr>
ffffffc050401f44:	fdc42703          	lw	a4,-36(s0)
ffffffc050401f48:	87ba                	mv	a5,a4
ffffffc050401f4a:	0786                	slli	a5,a5,0x1
ffffffc050401f4c:	97ba                	add	a5,a5,a4
ffffffc050401f4e:	078e                	slli	a5,a5,0x3
ffffffc050401f50:	97b6                	add	a5,a5,a3
ffffffc050401f52:	4b9c                	lw	a5,16(a5)
ffffffc050401f54:	02f05f63          	blez	a5,ffffffc050401f92 <semaphore_up+0x6e>
ffffffc050401f58:	00065697          	auipc	a3,0x65
ffffffc050401f5c:	e5068693          	addi	a3,a3,-432 # ffffffc050466da8 <semaphore_arr>
ffffffc050401f60:	fdc42703          	lw	a4,-36(s0)
ffffffc050401f64:	87ba                	mv	a5,a4
ffffffc050401f66:	0786                	slli	a5,a5,0x1
ffffffc050401f68:	97ba                	add	a5,a5,a4
ffffffc050401f6a:	078e                	slli	a5,a5,0x3
ffffffc050401f6c:	97b6                	add	a5,a5,a3
ffffffc050401f6e:	4b9c                	lw	a5,16(a5)
ffffffc050401f70:	37fd                	addiw	a5,a5,-1
ffffffc050401f72:	0007869b          	sext.w	a3,a5
ffffffc050401f76:	00065617          	auipc	a2,0x65
ffffffc050401f7a:	e3260613          	addi	a2,a2,-462 # ffffffc050466da8 <semaphore_arr>
ffffffc050401f7e:	fdc42703          	lw	a4,-36(s0)
ffffffc050401f82:	87ba                	mv	a5,a4
ffffffc050401f84:	0786                	slli	a5,a5,0x1
ffffffc050401f86:	97ba                	add	a5,a5,a4
ffffffc050401f88:	078e                	slli	a5,a5,0x3
ffffffc050401f8a:	97b2                	add	a5,a5,a2
ffffffc050401f8c:	cb94                	sw	a3,16(a5)
ffffffc050401f8e:	4785                	li	a5,1
ffffffc050401f90:	a0b9                	j	ffffffc050401fde <semaphore_up+0xba>
ffffffc050401f92:	00065697          	auipc	a3,0x65
ffffffc050401f96:	e1668693          	addi	a3,a3,-490 # ffffffc050466da8 <semaphore_arr>
ffffffc050401f9a:	fdc42703          	lw	a4,-36(s0)
ffffffc050401f9e:	87ba                	mv	a5,a4
ffffffc050401fa0:	0786                	slli	a5,a5,0x1
ffffffc050401fa2:	97ba                	add	a5,a5,a4
ffffffc050401fa4:	078e                	slli	a5,a5,0x3
ffffffc050401fa6:	97b6                	add	a5,a5,a3
ffffffc050401fa8:	4b9c                	lw	a5,16(a5)
ffffffc050401faa:	eb8d                	bnez	a5,ffffffc050401fdc <semaphore_up+0xb8>
ffffffc050401fac:	00065717          	auipc	a4,0x65
ffffffc050401fb0:	1f470713          	addi	a4,a4,500 # ffffffc0504671a0 <current_running>
ffffffc050401fb4:	fe843783          	ld	a5,-24(s0)
ffffffc050401fb8:	078e                	slli	a5,a5,0x3
ffffffc050401fba:	97ba                	add	a5,a5,a4
ffffffc050401fbc:	6394                	ld	a3,0(a5)
ffffffc050401fbe:	fdc42703          	lw	a4,-36(s0)
ffffffc050401fc2:	87ba                	mv	a5,a4
ffffffc050401fc4:	0786                	slli	a5,a5,0x1
ffffffc050401fc6:	97ba                	add	a5,a5,a4
ffffffc050401fc8:	078e                	slli	a5,a5,0x3
ffffffc050401fca:	00065717          	auipc	a4,0x65
ffffffc050401fce:	dde70713          	addi	a4,a4,-546 # ffffffc050466da8 <semaphore_arr>
ffffffc050401fd2:	97ba                	add	a5,a5,a4
ffffffc050401fd4:	85be                	mv	a1,a5
ffffffc050401fd6:	8536                	mv	a0,a3
ffffffc050401fd8:	2fc010ef          	jal	ra,ffffffc0504032d4 <do_block>
ffffffc050401fdc:	4781                	li	a5,0
ffffffc050401fde:	853e                	mv	a0,a5
ffffffc050401fe0:	70a2                	ld	ra,40(sp)
ffffffc050401fe2:	7402                	ld	s0,32(sp)
ffffffc050401fe4:	6145                	addi	sp,sp,48
ffffffc050401fe6:	8082                	ret

ffffffc050401fe8 <semaphore_down>:
ffffffc050401fe8:	7179                	addi	sp,sp,-48
ffffffc050401fea:	f406                	sd	ra,40(sp)
ffffffc050401fec:	f022                	sd	s0,32(sp)
ffffffc050401fee:	1800                	addi	s0,sp,48
ffffffc050401ff0:	87aa                	mv	a5,a0
ffffffc050401ff2:	fcf42e23          	sw	a5,-36(s0)
ffffffc050401ff6:	00065697          	auipc	a3,0x65
ffffffc050401ffa:	db268693          	addi	a3,a3,-590 # ffffffc050466da8 <semaphore_arr>
ffffffc050401ffe:	fdc42703          	lw	a4,-36(s0)
ffffffc050402002:	87ba                	mv	a5,a4
ffffffc050402004:	0786                	slli	a5,a5,0x1
ffffffc050402006:	97ba                	add	a5,a5,a4
ffffffc050402008:	078e                	slli	a5,a5,0x3
ffffffc05040200a:	97b6                	add	a5,a5,a3
ffffffc05040200c:	679c                	ld	a5,8(a5)
ffffffc05040200e:	fef43423          	sd	a5,-24(s0)
ffffffc050402012:	fdc42703          	lw	a4,-36(s0)
ffffffc050402016:	87ba                	mv	a5,a4
ffffffc050402018:	0786                	slli	a5,a5,0x1
ffffffc05040201a:	97ba                	add	a5,a5,a4
ffffffc05040201c:	078e                	slli	a5,a5,0x3
ffffffc05040201e:	00065717          	auipc	a4,0x65
ffffffc050402022:	d8a70713          	addi	a4,a4,-630 # ffffffc050466da8 <semaphore_arr>
ffffffc050402026:	97ba                	add	a5,a5,a4
ffffffc050402028:	fe843703          	ld	a4,-24(s0)
ffffffc05040202c:	00f70d63          	beq	a4,a5,ffffffc050402046 <semaphore_down+0x5e>
ffffffc050402030:	fe843783          	ld	a5,-24(s0)
ffffffc050402034:	17a1                	addi	a5,a5,-24
ffffffc050402036:	fef43023          	sd	a5,-32(s0)
ffffffc05040203a:	fe843503          	ld	a0,-24(s0)
ffffffc05040203e:	306010ef          	jal	ra,ffffffc050403344 <do_unblock>
ffffffc050402042:	4781                	li	a5,0
ffffffc050402044:	a82d                	j	ffffffc05040207e <semaphore_down+0x96>
ffffffc050402046:	00065697          	auipc	a3,0x65
ffffffc05040204a:	d6268693          	addi	a3,a3,-670 # ffffffc050466da8 <semaphore_arr>
ffffffc05040204e:	fdc42703          	lw	a4,-36(s0)
ffffffc050402052:	87ba                	mv	a5,a4
ffffffc050402054:	0786                	slli	a5,a5,0x1
ffffffc050402056:	97ba                	add	a5,a5,a4
ffffffc050402058:	078e                	slli	a5,a5,0x3
ffffffc05040205a:	97b6                	add	a5,a5,a3
ffffffc05040205c:	4b9c                	lw	a5,16(a5)
ffffffc05040205e:	2785                	addiw	a5,a5,1
ffffffc050402060:	0007869b          	sext.w	a3,a5
ffffffc050402064:	00065617          	auipc	a2,0x65
ffffffc050402068:	d4460613          	addi	a2,a2,-700 # ffffffc050466da8 <semaphore_arr>
ffffffc05040206c:	fdc42703          	lw	a4,-36(s0)
ffffffc050402070:	87ba                	mv	a5,a4
ffffffc050402072:	0786                	slli	a5,a5,0x1
ffffffc050402074:	97ba                	add	a5,a5,a4
ffffffc050402076:	078e                	slli	a5,a5,0x3
ffffffc050402078:	97b2                	add	a5,a5,a2
ffffffc05040207a:	cb94                	sw	a3,16(a5)
ffffffc05040207c:	4781                	li	a5,0
ffffffc05040207e:	853e                	mv	a0,a5
ffffffc050402080:	70a2                	ld	ra,40(sp)
ffffffc050402082:	7402                	ld	s0,32(sp)
ffffffc050402084:	6145                	addi	sp,sp,48
ffffffc050402086:	8082                	ret

ffffffc050402088 <semaphore_destroy>:
ffffffc050402088:	1101                	addi	sp,sp,-32
ffffffc05040208a:	ec06                	sd	ra,24(sp)
ffffffc05040208c:	e822                	sd	s0,16(sp)
ffffffc05040208e:	1000                	addi	s0,sp,32
ffffffc050402090:	87aa                	mv	a5,a0
ffffffc050402092:	fef42623          	sw	a5,-20(s0)
ffffffc050402096:	00065697          	auipc	a3,0x65
ffffffc05040209a:	d1268693          	addi	a3,a3,-750 # ffffffc050466da8 <semaphore_arr>
ffffffc05040209e:	fec42703          	lw	a4,-20(s0)
ffffffc0504020a2:	87ba                	mv	a5,a4
ffffffc0504020a4:	0786                	slli	a5,a5,0x1
ffffffc0504020a6:	97ba                	add	a5,a5,a4
ffffffc0504020a8:	078e                	slli	a5,a5,0x3
ffffffc0504020aa:	97b6                	add	a5,a5,a3
ffffffc0504020ac:	0007a823          	sw	zero,16(a5)
ffffffc0504020b0:	fec42703          	lw	a4,-20(s0)
ffffffc0504020b4:	87ba                	mv	a5,a4
ffffffc0504020b6:	0786                	slli	a5,a5,0x1
ffffffc0504020b8:	97ba                	add	a5,a5,a4
ffffffc0504020ba:	078e                	slli	a5,a5,0x3
ffffffc0504020bc:	00065717          	auipc	a4,0x65
ffffffc0504020c0:	cec70713          	addi	a4,a4,-788 # ffffffc050466da8 <semaphore_arr>
ffffffc0504020c4:	97ba                	add	a5,a5,a4
ffffffc0504020c6:	853e                	mv	a0,a5
ffffffc0504020c8:	7e2010ef          	jal	ra,ffffffc0504038aa <release_queue>
ffffffc0504020cc:	4781                	li	a5,0
ffffffc0504020ce:	853e                	mv	a0,a5
ffffffc0504020d0:	60e2                	ld	ra,24(sp)
ffffffc0504020d2:	6442                	ld	s0,16(sp)
ffffffc0504020d4:	6105                	addi	sp,sp,32
ffffffc0504020d6:	8082                	ret

ffffffc0504020d8 <kernel_mbox_open>:
ffffffc0504020d8:	7179                	addi	sp,sp,-48
ffffffc0504020da:	f406                	sd	ra,40(sp)
ffffffc0504020dc:	f022                	sd	s0,32(sp)
ffffffc0504020de:	1800                	addi	s0,sp,48
ffffffc0504020e0:	fca43c23          	sd	a0,-40(s0)
ffffffc0504020e4:	fe042623          	sw	zero,-20(s0)
ffffffc0504020e8:	fe042623          	sw	zero,-20(s0)
ffffffc0504020ec:	a03d                	j	ffffffc05040211a <kernel_mbox_open+0x42>
ffffffc0504020ee:	fec42783          	lw	a5,-20(s0)
ffffffc0504020f2:	00779713          	slli	a4,a5,0x7
ffffffc0504020f6:	00065797          	auipc	a5,0x65
ffffffc0504020fa:	d2a78793          	addi	a5,a5,-726 # ffffffc050466e20 <mbox_arr>
ffffffc0504020fe:	97ba                	add	a5,a5,a4
ffffffc050402100:	0791                	addi	a5,a5,4
ffffffc050402102:	85be                	mv	a1,a5
ffffffc050402104:	fd843503          	ld	a0,-40(s0)
ffffffc050402108:	449030ef          	jal	ra,ffffffc050405d50 <kstrcmp>
ffffffc05040210c:	87aa                	mv	a5,a0
ffffffc05040210e:	cf99                	beqz	a5,ffffffc05040212c <kernel_mbox_open+0x54>
ffffffc050402110:	fec42783          	lw	a5,-20(s0)
ffffffc050402114:	2785                	addiw	a5,a5,1
ffffffc050402116:	fef42623          	sw	a5,-20(s0)
ffffffc05040211a:	82018793          	addi	a5,gp,-2016 # ffffffc050464ca0 <mbox_count>
ffffffc05040211e:	4398                	lw	a4,0(a5)
ffffffc050402120:	fec42783          	lw	a5,-20(s0)
ffffffc050402124:	2781                	sext.w	a5,a5
ffffffc050402126:	fce7c4e3          	blt	a5,a4,ffffffc0504020ee <kernel_mbox_open+0x16>
ffffffc05040212a:	a011                	j	ffffffc05040212e <kernel_mbox_open+0x56>
ffffffc05040212c:	0001                	nop
ffffffc05040212e:	82018793          	addi	a5,gp,-2016 # ffffffc050464ca0 <mbox_count>
ffffffc050402132:	4398                	lw	a4,0(a5)
ffffffc050402134:	fec42783          	lw	a5,-20(s0)
ffffffc050402138:	2781                	sext.w	a5,a5
ffffffc05040213a:	10e79a63          	bne	a5,a4,ffffffc05040224e <kernel_mbox_open+0x176>
ffffffc05040213e:	82018793          	addi	a5,gp,-2016 # ffffffc050464ca0 <mbox_count>
ffffffc050402142:	439c                	lw	a5,0(a5)
ffffffc050402144:	00065717          	auipc	a4,0x65
ffffffc050402148:	cdc70713          	addi	a4,a4,-804 # ffffffc050466e20 <mbox_arr>
ffffffc05040214c:	079e                	slli	a5,a5,0x7
ffffffc05040214e:	97ba                	add	a5,a5,a4
ffffffc050402150:	4705                	li	a4,1
ffffffc050402152:	c398                	sw	a4,0(a5)
ffffffc050402154:	fe042423          	sw	zero,-24(s0)
ffffffc050402158:	a825                	j	ffffffc050402190 <kernel_mbox_open+0xb8>
ffffffc05040215a:	82018793          	addi	a5,gp,-2016 # ffffffc050464ca0 <mbox_count>
ffffffc05040215e:	439c                	lw	a5,0(a5)
ffffffc050402160:	fe842703          	lw	a4,-24(s0)
ffffffc050402164:	0017069b          	addiw	a3,a4,1
ffffffc050402168:	fed42423          	sw	a3,-24(s0)
ffffffc05040216c:	fd843683          	ld	a3,-40(s0)
ffffffc050402170:	0006c683          	lbu	a3,0(a3)
ffffffc050402174:	00065617          	auipc	a2,0x65
ffffffc050402178:	cac60613          	addi	a2,a2,-852 # ffffffc050466e20 <mbox_arr>
ffffffc05040217c:	079e                	slli	a5,a5,0x7
ffffffc05040217e:	97b2                	add	a5,a5,a2
ffffffc050402180:	97ba                	add	a5,a5,a4
ffffffc050402182:	00d78223          	sb	a3,4(a5)
ffffffc050402186:	fd843783          	ld	a5,-40(s0)
ffffffc05040218a:	0785                	addi	a5,a5,1
ffffffc05040218c:	fcf43c23          	sd	a5,-40(s0)
ffffffc050402190:	fd843783          	ld	a5,-40(s0)
ffffffc050402194:	0007c783          	lbu	a5,0(a5)
ffffffc050402198:	f3e9                	bnez	a5,ffffffc05040215a <kernel_mbox_open+0x82>
ffffffc05040219a:	82018793          	addi	a5,gp,-2016 # ffffffc050464ca0 <mbox_count>
ffffffc05040219e:	439c                	lw	a5,0(a5)
ffffffc0504021a0:	00065697          	auipc	a3,0x65
ffffffc0504021a4:	c8068693          	addi	a3,a3,-896 # ffffffc050466e20 <mbox_arr>
ffffffc0504021a8:	fe842703          	lw	a4,-24(s0)
ffffffc0504021ac:	079e                	slli	a5,a5,0x7
ffffffc0504021ae:	97b6                	add	a5,a5,a3
ffffffc0504021b0:	97ba                	add	a5,a5,a4
ffffffc0504021b2:	00078223          	sb	zero,4(a5)
ffffffc0504021b6:	82018793          	addi	a5,gp,-2016 # ffffffc050464ca0 <mbox_count>
ffffffc0504021ba:	439c                	lw	a5,0(a5)
ffffffc0504021bc:	00065717          	auipc	a4,0x65
ffffffc0504021c0:	c6470713          	addi	a4,a4,-924 # ffffffc050466e20 <mbox_arr>
ffffffc0504021c4:	079e                	slli	a5,a5,0x7
ffffffc0504021c6:	97ba                	add	a5,a5,a4
ffffffc0504021c8:	0007aa23          	sw	zero,20(a5)
ffffffc0504021cc:	82018793          	addi	a5,gp,-2016 # ffffffc050464ca0 <mbox_count>
ffffffc0504021d0:	439c                	lw	a5,0(a5)
ffffffc0504021d2:	00065717          	auipc	a4,0x65
ffffffc0504021d6:	c4e70713          	addi	a4,a4,-946 # ffffffc050466e20 <mbox_arr>
ffffffc0504021da:	079e                	slli	a5,a5,0x7
ffffffc0504021dc:	97ba                	add	a5,a5,a4
ffffffc0504021de:	0007ac23          	sw	zero,24(a5)
ffffffc0504021e2:	82018793          	addi	a5,gp,-2016 # ffffffc050464ca0 <mbox_count>
ffffffc0504021e6:	439c                	lw	a5,0(a5)
ffffffc0504021e8:	00065717          	auipc	a4,0x65
ffffffc0504021ec:	c3870713          	addi	a4,a4,-968 # ffffffc050466e20 <mbox_arr>
ffffffc0504021f0:	079e                	slli	a5,a5,0x7
ffffffc0504021f2:	97ba                	add	a5,a5,a4
ffffffc0504021f4:	0007ae23          	sw	zero,28(a5)
ffffffc0504021f8:	82018793          	addi	a5,gp,-2016 # ffffffc050464ca0 <mbox_count>
ffffffc0504021fc:	439c                	lw	a5,0(a5)
ffffffc0504021fe:	079e                	slli	a5,a5,0x7
ffffffc050402200:	06078713          	addi	a4,a5,96
ffffffc050402204:	00065797          	auipc	a5,0x65
ffffffc050402208:	c1c78793          	addi	a5,a5,-996 # ffffffc050466e20 <mbox_arr>
ffffffc05040220c:	97ba                	add	a5,a5,a4
ffffffc05040220e:	853e                	mv	a0,a5
ffffffc050402210:	14d000ef          	jal	ra,ffffffc050402b5c <list_init>
ffffffc050402214:	82018793          	addi	a5,gp,-2016 # ffffffc050464ca0 <mbox_count>
ffffffc050402218:	439c                	lw	a5,0(a5)
ffffffc05040221a:	079e                	slli	a5,a5,0x7
ffffffc05040221c:	07078713          	addi	a4,a5,112
ffffffc050402220:	00065797          	auipc	a5,0x65
ffffffc050402224:	c0078793          	addi	a5,a5,-1024 # ffffffc050466e20 <mbox_arr>
ffffffc050402228:	97ba                	add	a5,a5,a4
ffffffc05040222a:	853e                	mv	a0,a5
ffffffc05040222c:	131000ef          	jal	ra,ffffffc050402b5c <list_init>
ffffffc050402230:	82018793          	addi	a5,gp,-2016 # ffffffc050464ca0 <mbox_count>
ffffffc050402234:	439c                	lw	a5,0(a5)
ffffffc050402236:	2785                	addiw	a5,a5,1
ffffffc050402238:	0007871b          	sext.w	a4,a5
ffffffc05040223c:	82018793          	addi	a5,gp,-2016 # ffffffc050464ca0 <mbox_count>
ffffffc050402240:	c398                	sw	a4,0(a5)
ffffffc050402242:	82018793          	addi	a5,gp,-2016 # ffffffc050464ca0 <mbox_count>
ffffffc050402246:	439c                	lw	a5,0(a5)
ffffffc050402248:	37fd                	addiw	a5,a5,-1
ffffffc05040224a:	2781                	sext.w	a5,a5
ffffffc05040224c:	a829                	j	ffffffc050402266 <kernel_mbox_open+0x18e>
ffffffc05040224e:	00065717          	auipc	a4,0x65
ffffffc050402252:	bd270713          	addi	a4,a4,-1070 # ffffffc050466e20 <mbox_arr>
ffffffc050402256:	fec42783          	lw	a5,-20(s0)
ffffffc05040225a:	079e                	slli	a5,a5,0x7
ffffffc05040225c:	97ba                	add	a5,a5,a4
ffffffc05040225e:	4705                	li	a4,1
ffffffc050402260:	c398                	sw	a4,0(a5)
ffffffc050402262:	fec42783          	lw	a5,-20(s0)
ffffffc050402266:	853e                	mv	a0,a5
ffffffc050402268:	70a2                	ld	ra,40(sp)
ffffffc05040226a:	7402                	ld	s0,32(sp)
ffffffc05040226c:	6145                	addi	sp,sp,48
ffffffc05040226e:	8082                	ret

ffffffc050402270 <kernel_mbox_close>:
ffffffc050402270:	1101                	addi	sp,sp,-32
ffffffc050402272:	ec22                	sd	s0,24(sp)
ffffffc050402274:	1000                	addi	s0,sp,32
ffffffc050402276:	87aa                	mv	a5,a0
ffffffc050402278:	fef42623          	sw	a5,-20(s0)
ffffffc05040227c:	00065717          	auipc	a4,0x65
ffffffc050402280:	ba470713          	addi	a4,a4,-1116 # ffffffc050466e20 <mbox_arr>
ffffffc050402284:	fec42783          	lw	a5,-20(s0)
ffffffc050402288:	079e                	slli	a5,a5,0x7
ffffffc05040228a:	97ba                	add	a5,a5,a4
ffffffc05040228c:	0007a023          	sw	zero,0(a5)
ffffffc050402290:	0001                	nop
ffffffc050402292:	6462                	ld	s0,24(sp)
ffffffc050402294:	6105                	addi	sp,sp,32
ffffffc050402296:	8082                	ret

ffffffc050402298 <kernel_mbox_send>:
ffffffc050402298:	7139                	addi	sp,sp,-64
ffffffc05040229a:	fc06                	sd	ra,56(sp)
ffffffc05040229c:	f822                	sd	s0,48(sp)
ffffffc05040229e:	0080                	addi	s0,sp,64
ffffffc0504022a0:	87aa                	mv	a5,a0
ffffffc0504022a2:	fcb43023          	sd	a1,-64(s0)
ffffffc0504022a6:	8732                	mv	a4,a2
ffffffc0504022a8:	fcf42623          	sw	a5,-52(s0)
ffffffc0504022ac:	87ba                	mv	a5,a4
ffffffc0504022ae:	fcf42423          	sw	a5,-56(s0)
ffffffc0504022b2:	fe042623          	sw	zero,-20(s0)
ffffffc0504022b6:	812fe0ef          	jal	ra,ffffffc0504002c8 <get_current_cpu_id>
ffffffc0504022ba:	87aa                	mv	a5,a0
ffffffc0504022bc:	fcf43c23          	sd	a5,-40(s0)
ffffffc0504022c0:	00065717          	auipc	a4,0x65
ffffffc0504022c4:	b6070713          	addi	a4,a4,-1184 # ffffffc050466e20 <mbox_arr>
ffffffc0504022c8:	fcc42783          	lw	a5,-52(s0)
ffffffc0504022cc:	079e                	slli	a5,a5,0x7
ffffffc0504022ce:	97ba                	add	a5,a5,a4
ffffffc0504022d0:	4bdc                	lw	a5,20(a5)
ffffffc0504022d2:	04000713          	li	a4,64
ffffffc0504022d6:	40f707bb          	subw	a5,a4,a5
ffffffc0504022da:	0007871b          	sext.w	a4,a5
ffffffc0504022de:	fc842783          	lw	a5,-56(s0)
ffffffc0504022e2:	2781                	sext.w	a5,a5
ffffffc0504022e4:	0cf74c63          	blt	a4,a5,ffffffc0504023bc <kernel_mbox_send+0x124>
ffffffc0504022e8:	fe042423          	sw	zero,-24(s0)
ffffffc0504022ec:	a8b9                	j	ffffffc05040234a <kernel_mbox_send+0xb2>
ffffffc0504022ee:	fe842783          	lw	a5,-24(s0)
ffffffc0504022f2:	fc043703          	ld	a4,-64(s0)
ffffffc0504022f6:	00f706b3          	add	a3,a4,a5
ffffffc0504022fa:	00065717          	auipc	a4,0x65
ffffffc0504022fe:	b2670713          	addi	a4,a4,-1242 # ffffffc050466e20 <mbox_arr>
ffffffc050402302:	fcc42783          	lw	a5,-52(s0)
ffffffc050402306:	079e                	slli	a5,a5,0x7
ffffffc050402308:	97ba                	add	a5,a5,a4
ffffffc05040230a:	4bd8                	lw	a4,20(a5)
ffffffc05040230c:	0017079b          	addiw	a5,a4,1
ffffffc050402310:	0007861b          	sext.w	a2,a5
ffffffc050402314:	00065597          	auipc	a1,0x65
ffffffc050402318:	b0c58593          	addi	a1,a1,-1268 # ffffffc050466e20 <mbox_arr>
ffffffc05040231c:	fcc42783          	lw	a5,-52(s0)
ffffffc050402320:	079e                	slli	a5,a5,0x7
ffffffc050402322:	97ae                	add	a5,a5,a1
ffffffc050402324:	cbd0                	sw	a2,20(a5)
ffffffc050402326:	0006c683          	lbu	a3,0(a3)
ffffffc05040232a:	00065617          	auipc	a2,0x65
ffffffc05040232e:	af660613          	addi	a2,a2,-1290 # ffffffc050466e20 <mbox_arr>
ffffffc050402332:	fcc42783          	lw	a5,-52(s0)
ffffffc050402336:	079e                	slli	a5,a5,0x7
ffffffc050402338:	97b2                	add	a5,a5,a2
ffffffc05040233a:	97ba                	add	a5,a5,a4
ffffffc05040233c:	02d78023          	sb	a3,32(a5)
ffffffc050402340:	fe842783          	lw	a5,-24(s0)
ffffffc050402344:	2785                	addiw	a5,a5,1
ffffffc050402346:	fef42423          	sw	a5,-24(s0)
ffffffc05040234a:	fe842703          	lw	a4,-24(s0)
ffffffc05040234e:	fc842783          	lw	a5,-56(s0)
ffffffc050402352:	2701                	sext.w	a4,a4
ffffffc050402354:	2781                	sext.w	a5,a5
ffffffc050402356:	f8f74ce3          	blt	a4,a5,ffffffc0504022ee <kernel_mbox_send+0x56>
ffffffc05040235a:	00065717          	auipc	a4,0x65
ffffffc05040235e:	ac670713          	addi	a4,a4,-1338 # ffffffc050466e20 <mbox_arr>
ffffffc050402362:	fcc42783          	lw	a5,-52(s0)
ffffffc050402366:	079e                	slli	a5,a5,0x7
ffffffc050402368:	97ba                	add	a5,a5,a4
ffffffc05040236a:	7fbc                	ld	a5,120(a5)
ffffffc05040236c:	fef43023          	sd	a5,-32(s0)
ffffffc050402370:	a02d                	j	ffffffc05040239a <kernel_mbox_send+0x102>
ffffffc050402372:	fe043783          	ld	a5,-32(s0)
ffffffc050402376:	17a1                	addi	a5,a5,-24
ffffffc050402378:	fcf43823          	sd	a5,-48(s0)
ffffffc05040237c:	fe043503          	ld	a0,-32(s0)
ffffffc050402380:	7c5000ef          	jal	ra,ffffffc050403344 <do_unblock>
ffffffc050402384:	00065717          	auipc	a4,0x65
ffffffc050402388:	a9c70713          	addi	a4,a4,-1380 # ffffffc050466e20 <mbox_arr>
ffffffc05040238c:	fcc42783          	lw	a5,-52(s0)
ffffffc050402390:	079e                	slli	a5,a5,0x7
ffffffc050402392:	97ba                	add	a5,a5,a4
ffffffc050402394:	7fbc                	ld	a5,120(a5)
ffffffc050402396:	fef43023          	sd	a5,-32(s0)
ffffffc05040239a:	fcc42783          	lw	a5,-52(s0)
ffffffc05040239e:	079e                	slli	a5,a5,0x7
ffffffc0504023a0:	07078713          	addi	a4,a5,112
ffffffc0504023a4:	00065797          	auipc	a5,0x65
ffffffc0504023a8:	a7c78793          	addi	a5,a5,-1412 # ffffffc050466e20 <mbox_arr>
ffffffc0504023ac:	97ba                	add	a5,a5,a4
ffffffc0504023ae:	fe043703          	ld	a4,-32(s0)
ffffffc0504023b2:	fcf710e3          	bne	a4,a5,ffffffc050402372 <kernel_mbox_send+0xda>
ffffffc0504023b6:	fec42783          	lw	a5,-20(s0)
ffffffc0504023ba:	a835                	j	ffffffc0504023f6 <kernel_mbox_send+0x15e>
ffffffc0504023bc:	00065717          	auipc	a4,0x65
ffffffc0504023c0:	de470713          	addi	a4,a4,-540 # ffffffc0504671a0 <current_running>
ffffffc0504023c4:	fd843783          	ld	a5,-40(s0)
ffffffc0504023c8:	078e                	slli	a5,a5,0x3
ffffffc0504023ca:	97ba                	add	a5,a5,a4
ffffffc0504023cc:	6394                	ld	a3,0(a5)
ffffffc0504023ce:	fcc42783          	lw	a5,-52(s0)
ffffffc0504023d2:	079e                	slli	a5,a5,0x7
ffffffc0504023d4:	06078713          	addi	a4,a5,96
ffffffc0504023d8:	00065797          	auipc	a5,0x65
ffffffc0504023dc:	a4878793          	addi	a5,a5,-1464 # ffffffc050466e20 <mbox_arr>
ffffffc0504023e0:	97ba                	add	a5,a5,a4
ffffffc0504023e2:	85be                	mv	a1,a5
ffffffc0504023e4:	8536                	mv	a0,a3
ffffffc0504023e6:	6ef000ef          	jal	ra,ffffffc0504032d4 <do_block>
ffffffc0504023ea:	fec42783          	lw	a5,-20(s0)
ffffffc0504023ee:	2785                	addiw	a5,a5,1
ffffffc0504023f0:	fef42623          	sw	a5,-20(s0)
ffffffc0504023f4:	b5f1                	j	ffffffc0504022c0 <kernel_mbox_send+0x28>
ffffffc0504023f6:	853e                	mv	a0,a5
ffffffc0504023f8:	70e2                	ld	ra,56(sp)
ffffffc0504023fa:	7442                	ld	s0,48(sp)
ffffffc0504023fc:	6121                	addi	sp,sp,64
ffffffc0504023fe:	8082                	ret

ffffffc050402400 <kernel_mbox_recv>:
ffffffc050402400:	715d                	addi	sp,sp,-80
ffffffc050402402:	e486                	sd	ra,72(sp)
ffffffc050402404:	e0a2                	sd	s0,64(sp)
ffffffc050402406:	0880                	addi	s0,sp,80
ffffffc050402408:	87aa                	mv	a5,a0
ffffffc05040240a:	fab43823          	sd	a1,-80(s0)
ffffffc05040240e:	8732                	mv	a4,a2
ffffffc050402410:	faf42e23          	sw	a5,-68(s0)
ffffffc050402414:	87ba                	mv	a5,a4
ffffffc050402416:	faf42c23          	sw	a5,-72(s0)
ffffffc05040241a:	fe042623          	sw	zero,-20(s0)
ffffffc05040241e:	eabfd0ef          	jal	ra,ffffffc0504002c8 <get_current_cpu_id>
ffffffc050402422:	87aa                	mv	a5,a0
ffffffc050402424:	fcf43823          	sd	a5,-48(s0)
ffffffc050402428:	00065717          	auipc	a4,0x65
ffffffc05040242c:	9f870713          	addi	a4,a4,-1544 # ffffffc050466e20 <mbox_arr>
ffffffc050402430:	fbc42783          	lw	a5,-68(s0)
ffffffc050402434:	079e                	slli	a5,a5,0x7
ffffffc050402436:	97ba                	add	a5,a5,a4
ffffffc050402438:	4bd8                	lw	a4,20(a5)
ffffffc05040243a:	fb842783          	lw	a5,-72(s0)
ffffffc05040243e:	40f707bb          	subw	a5,a4,a5
ffffffc050402442:	2781                	sext.w	a5,a5
ffffffc050402444:	1407c663          	bltz	a5,ffffffc050402590 <kernel_mbox_recv+0x190>
ffffffc050402448:	fe042423          	sw	zero,-24(s0)
ffffffc05040244c:	fe042223          	sw	zero,-28(s0)
ffffffc050402450:	a83d                	j	ffffffc05040248e <kernel_mbox_recv+0x8e>
ffffffc050402452:	fe842783          	lw	a5,-24(s0)
ffffffc050402456:	fb043703          	ld	a4,-80(s0)
ffffffc05040245a:	973e                	add	a4,a4,a5
ffffffc05040245c:	00065617          	auipc	a2,0x65
ffffffc050402460:	9c460613          	addi	a2,a2,-1596 # ffffffc050466e20 <mbox_arr>
ffffffc050402464:	fe442683          	lw	a3,-28(s0)
ffffffc050402468:	fbc42783          	lw	a5,-68(s0)
ffffffc05040246c:	079e                	slli	a5,a5,0x7
ffffffc05040246e:	97b2                	add	a5,a5,a2
ffffffc050402470:	97b6                	add	a5,a5,a3
ffffffc050402472:	0207c783          	lbu	a5,32(a5)
ffffffc050402476:	00f70023          	sb	a5,0(a4)
ffffffc05040247a:	fe842783          	lw	a5,-24(s0)
ffffffc05040247e:	2785                	addiw	a5,a5,1
ffffffc050402480:	fef42423          	sw	a5,-24(s0)
ffffffc050402484:	fe442783          	lw	a5,-28(s0)
ffffffc050402488:	2785                	addiw	a5,a5,1
ffffffc05040248a:	fef42223          	sw	a5,-28(s0)
ffffffc05040248e:	fe842703          	lw	a4,-24(s0)
ffffffc050402492:	fb842783          	lw	a5,-72(s0)
ffffffc050402496:	2701                	sext.w	a4,a4
ffffffc050402498:	2781                	sext.w	a5,a5
ffffffc05040249a:	faf74ce3          	blt	a4,a5,ffffffc050402452 <kernel_mbox_recv+0x52>
ffffffc05040249e:	00065717          	auipc	a4,0x65
ffffffc0504024a2:	98270713          	addi	a4,a4,-1662 # ffffffc050466e20 <mbox_arr>
ffffffc0504024a6:	fbc42783          	lw	a5,-68(s0)
ffffffc0504024aa:	079e                	slli	a5,a5,0x7
ffffffc0504024ac:	97ba                	add	a5,a5,a4
ffffffc0504024ae:	4bd8                	lw	a4,20(a5)
ffffffc0504024b0:	fe442783          	lw	a5,-28(s0)
ffffffc0504024b4:	40f707bb          	subw	a5,a4,a5
ffffffc0504024b8:	fcf42623          	sw	a5,-52(s0)
ffffffc0504024bc:	fe042023          	sw	zero,-32(s0)
ffffffc0504024c0:	a0a1                	j	ffffffc050402508 <kernel_mbox_recv+0x108>
ffffffc0504024c2:	fe442703          	lw	a4,-28(s0)
ffffffc0504024c6:	0017079b          	addiw	a5,a4,1
ffffffc0504024ca:	fef42223          	sw	a5,-28(s0)
ffffffc0504024ce:	00065697          	auipc	a3,0x65
ffffffc0504024d2:	95268693          	addi	a3,a3,-1710 # ffffffc050466e20 <mbox_arr>
ffffffc0504024d6:	fbc42783          	lw	a5,-68(s0)
ffffffc0504024da:	079e                	slli	a5,a5,0x7
ffffffc0504024dc:	97b6                	add	a5,a5,a3
ffffffc0504024de:	97ba                	add	a5,a5,a4
ffffffc0504024e0:	0207c703          	lbu	a4,32(a5)
ffffffc0504024e4:	00065617          	auipc	a2,0x65
ffffffc0504024e8:	93c60613          	addi	a2,a2,-1732 # ffffffc050466e20 <mbox_arr>
ffffffc0504024ec:	fe042683          	lw	a3,-32(s0)
ffffffc0504024f0:	fbc42783          	lw	a5,-68(s0)
ffffffc0504024f4:	079e                	slli	a5,a5,0x7
ffffffc0504024f6:	97b2                	add	a5,a5,a2
ffffffc0504024f8:	97b6                	add	a5,a5,a3
ffffffc0504024fa:	02e78023          	sb	a4,32(a5)
ffffffc0504024fe:	fe042783          	lw	a5,-32(s0)
ffffffc050402502:	2785                	addiw	a5,a5,1
ffffffc050402504:	fef42023          	sw	a5,-32(s0)
ffffffc050402508:	fe042703          	lw	a4,-32(s0)
ffffffc05040250c:	fcc42783          	lw	a5,-52(s0)
ffffffc050402510:	2701                	sext.w	a4,a4
ffffffc050402512:	2781                	sext.w	a5,a5
ffffffc050402514:	faf747e3          	blt	a4,a5,ffffffc0504024c2 <kernel_mbox_recv+0xc2>
ffffffc050402518:	00065717          	auipc	a4,0x65
ffffffc05040251c:	90870713          	addi	a4,a4,-1784 # ffffffc050466e20 <mbox_arr>
ffffffc050402520:	fbc42783          	lw	a5,-68(s0)
ffffffc050402524:	079e                	slli	a5,a5,0x7
ffffffc050402526:	97ba                	add	a5,a5,a4
ffffffc050402528:	fcc42703          	lw	a4,-52(s0)
ffffffc05040252c:	cbd8                	sw	a4,20(a5)
ffffffc05040252e:	00065717          	auipc	a4,0x65
ffffffc050402532:	8f270713          	addi	a4,a4,-1806 # ffffffc050466e20 <mbox_arr>
ffffffc050402536:	fbc42783          	lw	a5,-68(s0)
ffffffc05040253a:	079e                	slli	a5,a5,0x7
ffffffc05040253c:	97ba                	add	a5,a5,a4
ffffffc05040253e:	77bc                	ld	a5,104(a5)
ffffffc050402540:	fcf43c23          	sd	a5,-40(s0)
ffffffc050402544:	a02d                	j	ffffffc05040256e <kernel_mbox_recv+0x16e>
ffffffc050402546:	fd843783          	ld	a5,-40(s0)
ffffffc05040254a:	17a1                	addi	a5,a5,-24
ffffffc05040254c:	fcf43023          	sd	a5,-64(s0)
ffffffc050402550:	fd843503          	ld	a0,-40(s0)
ffffffc050402554:	5f1000ef          	jal	ra,ffffffc050403344 <do_unblock>
ffffffc050402558:	00065717          	auipc	a4,0x65
ffffffc05040255c:	8c870713          	addi	a4,a4,-1848 # ffffffc050466e20 <mbox_arr>
ffffffc050402560:	fbc42783          	lw	a5,-68(s0)
ffffffc050402564:	079e                	slli	a5,a5,0x7
ffffffc050402566:	97ba                	add	a5,a5,a4
ffffffc050402568:	77bc                	ld	a5,104(a5)
ffffffc05040256a:	fcf43c23          	sd	a5,-40(s0)
ffffffc05040256e:	fbc42783          	lw	a5,-68(s0)
ffffffc050402572:	079e                	slli	a5,a5,0x7
ffffffc050402574:	06078713          	addi	a4,a5,96
ffffffc050402578:	00065797          	auipc	a5,0x65
ffffffc05040257c:	8a878793          	addi	a5,a5,-1880 # ffffffc050466e20 <mbox_arr>
ffffffc050402580:	97ba                	add	a5,a5,a4
ffffffc050402582:	fd843703          	ld	a4,-40(s0)
ffffffc050402586:	fcf710e3          	bne	a4,a5,ffffffc050402546 <kernel_mbox_recv+0x146>
ffffffc05040258a:	fec42783          	lw	a5,-20(s0)
ffffffc05040258e:	a835                	j	ffffffc0504025ca <kernel_mbox_recv+0x1ca>
ffffffc050402590:	00065717          	auipc	a4,0x65
ffffffc050402594:	c1070713          	addi	a4,a4,-1008 # ffffffc0504671a0 <current_running>
ffffffc050402598:	fd043783          	ld	a5,-48(s0)
ffffffc05040259c:	078e                	slli	a5,a5,0x3
ffffffc05040259e:	97ba                	add	a5,a5,a4
ffffffc0504025a0:	6394                	ld	a3,0(a5)
ffffffc0504025a2:	fbc42783          	lw	a5,-68(s0)
ffffffc0504025a6:	079e                	slli	a5,a5,0x7
ffffffc0504025a8:	07078713          	addi	a4,a5,112
ffffffc0504025ac:	00065797          	auipc	a5,0x65
ffffffc0504025b0:	87478793          	addi	a5,a5,-1932 # ffffffc050466e20 <mbox_arr>
ffffffc0504025b4:	97ba                	add	a5,a5,a4
ffffffc0504025b6:	85be                	mv	a1,a5
ffffffc0504025b8:	8536                	mv	a0,a3
ffffffc0504025ba:	51b000ef          	jal	ra,ffffffc0504032d4 <do_block>
ffffffc0504025be:	fec42783          	lw	a5,-20(s0)
ffffffc0504025c2:	2785                	addiw	a5,a5,1
ffffffc0504025c4:	fef42623          	sw	a5,-20(s0)
ffffffc0504025c8:	b585                	j	ffffffc050402428 <kernel_mbox_recv+0x28>
ffffffc0504025ca:	853e                	mv	a0,a5
ffffffc0504025cc:	60a6                	ld	ra,72(sp)
ffffffc0504025ce:	6406                	ld	s0,64(sp)
ffffffc0504025d0:	6161                	addi	sp,sp,80
ffffffc0504025d2:	8082                	ret

ffffffc0504025d4 <count_length>:
ffffffc0504025d4:	7179                	addi	sp,sp,-48
ffffffc0504025d6:	f422                	sd	s0,40(sp)
ffffffc0504025d8:	1800                	addi	s0,sp,48
ffffffc0504025da:	fca43c23          	sd	a0,-40(s0)
ffffffc0504025de:	fe042623          	sw	zero,-20(s0)
ffffffc0504025e2:	fd843783          	ld	a5,-40(s0)
ffffffc0504025e6:	fef43023          	sd	a5,-32(s0)
ffffffc0504025ea:	a819                	j	ffffffc050402600 <count_length+0x2c>
ffffffc0504025ec:	fec42783          	lw	a5,-20(s0)
ffffffc0504025f0:	2785                	addiw	a5,a5,1
ffffffc0504025f2:	fef42623          	sw	a5,-20(s0)
ffffffc0504025f6:	fe043783          	ld	a5,-32(s0)
ffffffc0504025fa:	0785                	addi	a5,a5,1
ffffffc0504025fc:	fef43023          	sd	a5,-32(s0)
ffffffc050402600:	fe043783          	ld	a5,-32(s0)
ffffffc050402604:	0007c783          	lbu	a5,0(a5)
ffffffc050402608:	f3f5                	bnez	a5,ffffffc0504025ec <count_length+0x18>
ffffffc05040260a:	fec42783          	lw	a5,-20(s0)
ffffffc05040260e:	853e                	mv	a0,a5
ffffffc050402610:	7422                	ld	s0,40(sp)
ffffffc050402612:	6145                	addi	sp,sp,48
ffffffc050402614:	8082                	ret

ffffffc050402616 <kernel_send_recv>:
ffffffc050402616:	7171                	addi	sp,sp,-176
ffffffc050402618:	f506                	sd	ra,168(sp)
ffffffc05040261a:	f122                	sd	s0,160(sp)
ffffffc05040261c:	1900                	addi	s0,sp,176
ffffffc05040261e:	f6a43423          	sd	a0,-152(s0)
ffffffc050402622:	f6b43023          	sd	a1,-160(s0)
ffffffc050402626:	f4c43c23          	sd	a2,-168(s0)
ffffffc05040262a:	f6843783          	ld	a5,-152(s0)
ffffffc05040262e:	439c                	lw	a5,0(a5)
ffffffc050402630:	faf42223          	sw	a5,-92(s0)
ffffffc050402634:	f6843783          	ld	a5,-152(s0)
ffffffc050402638:	43dc                	lw	a5,4(a5)
ffffffc05040263a:	faf42023          	sw	a5,-96(s0)
ffffffc05040263e:	c8bfd0ef          	jal	ra,ffffffc0504002c8 <get_current_cpu_id>
ffffffc050402642:	87aa                	mv	a5,a0
ffffffc050402644:	f8f43c23          	sd	a5,-104(s0)
ffffffc050402648:	fe042623          	sw	zero,-20(s0)
ffffffc05040264c:	fe042423          	sw	zero,-24(s0)
ffffffc050402650:	fa442783          	lw	a5,-92(s0)
ffffffc050402654:	2781                	sext.w	a5,a5
ffffffc050402656:	28078563          	beqz	a5,ffffffc0504028e0 <kernel_send_recv+0x2ca>
ffffffc05040265a:	fa042783          	lw	a5,-96(s0)
ffffffc05040265e:	2781                	sext.w	a5,a5
ffffffc050402660:	28078063          	beqz	a5,ffffffc0504028e0 <kernel_send_recv+0x2ca>
ffffffc050402664:	00064717          	auipc	a4,0x64
ffffffc050402668:	7bc70713          	addi	a4,a4,1980 # ffffffc050466e20 <mbox_arr>
ffffffc05040266c:	fa442783          	lw	a5,-92(s0)
ffffffc050402670:	079e                	slli	a5,a5,0x7
ffffffc050402672:	97ba                	add	a5,a5,a4
ffffffc050402674:	4bdc                	lw	a5,20(a5)
ffffffc050402676:	0cf05e63          	blez	a5,ffffffc050402752 <kernel_send_recv+0x13c>
ffffffc05040267a:	fe042223          	sw	zero,-28(s0)
ffffffc05040267e:	fe042023          	sw	zero,-32(s0)
ffffffc050402682:	a83d                	j	ffffffc0504026c0 <kernel_send_recv+0xaa>
ffffffc050402684:	fe442783          	lw	a5,-28(s0)
ffffffc050402688:	f5843703          	ld	a4,-168(s0)
ffffffc05040268c:	973e                	add	a4,a4,a5
ffffffc05040268e:	00064617          	auipc	a2,0x64
ffffffc050402692:	79260613          	addi	a2,a2,1938 # ffffffc050466e20 <mbox_arr>
ffffffc050402696:	fe042683          	lw	a3,-32(s0)
ffffffc05040269a:	fa442783          	lw	a5,-92(s0)
ffffffc05040269e:	079e                	slli	a5,a5,0x7
ffffffc0504026a0:	97b2                	add	a5,a5,a2
ffffffc0504026a2:	97b6                	add	a5,a5,a3
ffffffc0504026a4:	0207c783          	lbu	a5,32(a5)
ffffffc0504026a8:	00f70023          	sb	a5,0(a4)
ffffffc0504026ac:	fe442783          	lw	a5,-28(s0)
ffffffc0504026b0:	2785                	addiw	a5,a5,1
ffffffc0504026b2:	fef42223          	sw	a5,-28(s0)
ffffffc0504026b6:	fe042783          	lw	a5,-32(s0)
ffffffc0504026ba:	2785                	addiw	a5,a5,1
ffffffc0504026bc:	fef42023          	sw	a5,-32(s0)
ffffffc0504026c0:	00064717          	auipc	a4,0x64
ffffffc0504026c4:	76070713          	addi	a4,a4,1888 # ffffffc050466e20 <mbox_arr>
ffffffc0504026c8:	fa442783          	lw	a5,-92(s0)
ffffffc0504026cc:	079e                	slli	a5,a5,0x7
ffffffc0504026ce:	97ba                	add	a5,a5,a4
ffffffc0504026d0:	4bd8                	lw	a4,20(a5)
ffffffc0504026d2:	fe442783          	lw	a5,-28(s0)
ffffffc0504026d6:	2781                	sext.w	a5,a5
ffffffc0504026d8:	fae7c6e3          	blt	a5,a4,ffffffc050402684 <kernel_send_recv+0x6e>
ffffffc0504026dc:	00064717          	auipc	a4,0x64
ffffffc0504026e0:	74470713          	addi	a4,a4,1860 # ffffffc050466e20 <mbox_arr>
ffffffc0504026e4:	fa442783          	lw	a5,-92(s0)
ffffffc0504026e8:	079e                	slli	a5,a5,0x7
ffffffc0504026ea:	97ba                	add	a5,a5,a4
ffffffc0504026ec:	0007aa23          	sw	zero,20(a5)
ffffffc0504026f0:	00064717          	auipc	a4,0x64
ffffffc0504026f4:	73070713          	addi	a4,a4,1840 # ffffffc050466e20 <mbox_arr>
ffffffc0504026f8:	fa442783          	lw	a5,-92(s0)
ffffffc0504026fc:	079e                	slli	a5,a5,0x7
ffffffc0504026fe:	97ba                	add	a5,a5,a4
ffffffc050402700:	77bc                	ld	a5,104(a5)
ffffffc050402702:	fcf43c23          	sd	a5,-40(s0)
ffffffc050402706:	a02d                	j	ffffffc050402730 <kernel_send_recv+0x11a>
ffffffc050402708:	fd843783          	ld	a5,-40(s0)
ffffffc05040270c:	17a1                	addi	a5,a5,-24
ffffffc05040270e:	f8f43823          	sd	a5,-112(s0)
ffffffc050402712:	fd843503          	ld	a0,-40(s0)
ffffffc050402716:	42f000ef          	jal	ra,ffffffc050403344 <do_unblock>
ffffffc05040271a:	00064717          	auipc	a4,0x64
ffffffc05040271e:	70670713          	addi	a4,a4,1798 # ffffffc050466e20 <mbox_arr>
ffffffc050402722:	fa442783          	lw	a5,-92(s0)
ffffffc050402726:	079e                	slli	a5,a5,0x7
ffffffc050402728:	97ba                	add	a5,a5,a4
ffffffc05040272a:	77bc                	ld	a5,104(a5)
ffffffc05040272c:	fcf43c23          	sd	a5,-40(s0)
ffffffc050402730:	fa442783          	lw	a5,-92(s0)
ffffffc050402734:	079e                	slli	a5,a5,0x7
ffffffc050402736:	06078713          	addi	a4,a5,96
ffffffc05040273a:	00064797          	auipc	a5,0x64
ffffffc05040273e:	6e678793          	addi	a5,a5,1766 # ffffffc050466e20 <mbox_arr>
ffffffc050402742:	97ba                	add	a5,a5,a4
ffffffc050402744:	fd843703          	ld	a4,-40(s0)
ffffffc050402748:	fcf710e3          	bne	a4,a5,ffffffc050402708 <kernel_send_recv+0xf2>
ffffffc05040274c:	4785                	li	a5,1
ffffffc05040274e:	fef42623          	sw	a5,-20(s0)
ffffffc050402752:	f6043503          	ld	a0,-160(s0)
ffffffc050402756:	4a2030ef          	jal	ra,ffffffc050405bf8 <kstrlen>
ffffffc05040275a:	87aa                	mv	a5,a0
ffffffc05040275c:	f8f42623          	sw	a5,-116(s0)
ffffffc050402760:	00064717          	auipc	a4,0x64
ffffffc050402764:	6c070713          	addi	a4,a4,1728 # ffffffc050466e20 <mbox_arr>
ffffffc050402768:	fa042783          	lw	a5,-96(s0)
ffffffc05040276c:	079e                	slli	a5,a5,0x7
ffffffc05040276e:	97ba                	add	a5,a5,a4
ffffffc050402770:	4bdc                	lw	a5,20(a5)
ffffffc050402772:	04000713          	li	a4,64
ffffffc050402776:	40f707bb          	subw	a5,a4,a5
ffffffc05040277a:	0007871b          	sext.w	a4,a5
ffffffc05040277e:	f8c42783          	lw	a5,-116(s0)
ffffffc050402782:	2781                	sext.w	a5,a5
ffffffc050402784:	0cf74c63          	blt	a4,a5,ffffffc05040285c <kernel_send_recv+0x246>
ffffffc050402788:	fc042a23          	sw	zero,-44(s0)
ffffffc05040278c:	a8b9                	j	ffffffc0504027ea <kernel_send_recv+0x1d4>
ffffffc05040278e:	fd442783          	lw	a5,-44(s0)
ffffffc050402792:	f6043703          	ld	a4,-160(s0)
ffffffc050402796:	00f706b3          	add	a3,a4,a5
ffffffc05040279a:	00064717          	auipc	a4,0x64
ffffffc05040279e:	68670713          	addi	a4,a4,1670 # ffffffc050466e20 <mbox_arr>
ffffffc0504027a2:	fa042783          	lw	a5,-96(s0)
ffffffc0504027a6:	079e                	slli	a5,a5,0x7
ffffffc0504027a8:	97ba                	add	a5,a5,a4
ffffffc0504027aa:	4bd8                	lw	a4,20(a5)
ffffffc0504027ac:	0017079b          	addiw	a5,a4,1
ffffffc0504027b0:	0007861b          	sext.w	a2,a5
ffffffc0504027b4:	00064597          	auipc	a1,0x64
ffffffc0504027b8:	66c58593          	addi	a1,a1,1644 # ffffffc050466e20 <mbox_arr>
ffffffc0504027bc:	fa042783          	lw	a5,-96(s0)
ffffffc0504027c0:	079e                	slli	a5,a5,0x7
ffffffc0504027c2:	97ae                	add	a5,a5,a1
ffffffc0504027c4:	cbd0                	sw	a2,20(a5)
ffffffc0504027c6:	0006c683          	lbu	a3,0(a3)
ffffffc0504027ca:	00064617          	auipc	a2,0x64
ffffffc0504027ce:	65660613          	addi	a2,a2,1622 # ffffffc050466e20 <mbox_arr>
ffffffc0504027d2:	fa042783          	lw	a5,-96(s0)
ffffffc0504027d6:	079e                	slli	a5,a5,0x7
ffffffc0504027d8:	97b2                	add	a5,a5,a2
ffffffc0504027da:	97ba                	add	a5,a5,a4
ffffffc0504027dc:	02d78023          	sb	a3,32(a5)
ffffffc0504027e0:	fd442783          	lw	a5,-44(s0)
ffffffc0504027e4:	2785                	addiw	a5,a5,1
ffffffc0504027e6:	fcf42a23          	sw	a5,-44(s0)
ffffffc0504027ea:	fd442703          	lw	a4,-44(s0)
ffffffc0504027ee:	f8c42783          	lw	a5,-116(s0)
ffffffc0504027f2:	2701                	sext.w	a4,a4
ffffffc0504027f4:	2781                	sext.w	a5,a5
ffffffc0504027f6:	f8f74ce3          	blt	a4,a5,ffffffc05040278e <kernel_send_recv+0x178>
ffffffc0504027fa:	00064717          	auipc	a4,0x64
ffffffc0504027fe:	62670713          	addi	a4,a4,1574 # ffffffc050466e20 <mbox_arr>
ffffffc050402802:	fa042783          	lw	a5,-96(s0)
ffffffc050402806:	079e                	slli	a5,a5,0x7
ffffffc050402808:	97ba                	add	a5,a5,a4
ffffffc05040280a:	7fbc                	ld	a5,120(a5)
ffffffc05040280c:	fcf43423          	sd	a5,-56(s0)
ffffffc050402810:	a02d                	j	ffffffc05040283a <kernel_send_recv+0x224>
ffffffc050402812:	fc843783          	ld	a5,-56(s0)
ffffffc050402816:	17a1                	addi	a5,a5,-24
ffffffc050402818:	f8f43023          	sd	a5,-128(s0)
ffffffc05040281c:	fc843503          	ld	a0,-56(s0)
ffffffc050402820:	325000ef          	jal	ra,ffffffc050403344 <do_unblock>
ffffffc050402824:	00064717          	auipc	a4,0x64
ffffffc050402828:	5fc70713          	addi	a4,a4,1532 # ffffffc050466e20 <mbox_arr>
ffffffc05040282c:	fa042783          	lw	a5,-96(s0)
ffffffc050402830:	079e                	slli	a5,a5,0x7
ffffffc050402832:	97ba                	add	a5,a5,a4
ffffffc050402834:	7fbc                	ld	a5,120(a5)
ffffffc050402836:	fcf43423          	sd	a5,-56(s0)
ffffffc05040283a:	fa042783          	lw	a5,-96(s0)
ffffffc05040283e:	079e                	slli	a5,a5,0x7
ffffffc050402840:	07078713          	addi	a4,a5,112
ffffffc050402844:	00064797          	auipc	a5,0x64
ffffffc050402848:	5dc78793          	addi	a5,a5,1500 # ffffffc050466e20 <mbox_arr>
ffffffc05040284c:	97ba                	add	a5,a5,a4
ffffffc05040284e:	fc843703          	ld	a4,-56(s0)
ffffffc050402852:	fcf710e3          	bne	a4,a5,ffffffc050402812 <kernel_send_recv+0x1fc>
ffffffc050402856:	4785                	li	a5,1
ffffffc050402858:	fef42423          	sw	a5,-24(s0)
ffffffc05040285c:	fec42783          	lw	a5,-20(s0)
ffffffc050402860:	0007871b          	sext.w	a4,a5
ffffffc050402864:	4785                	li	a5,1
ffffffc050402866:	00f71863          	bne	a4,a5,ffffffc050402876 <kernel_send_recv+0x260>
ffffffc05040286a:	fe842783          	lw	a5,-24(s0)
ffffffc05040286e:	2781                	sext.w	a5,a5
ffffffc050402870:	e399                	bnez	a5,ffffffc050402876 <kernel_send_recv+0x260>
ffffffc050402872:	4789                	li	a5,2
ffffffc050402874:	ac41                	j	ffffffc050402b04 <kernel_send_recv+0x4ee>
ffffffc050402876:	fec42783          	lw	a5,-20(s0)
ffffffc05040287a:	2781                	sext.w	a5,a5
ffffffc05040287c:	eb91                	bnez	a5,ffffffc050402890 <kernel_send_recv+0x27a>
ffffffc05040287e:	fe842783          	lw	a5,-24(s0)
ffffffc050402882:	0007871b          	sext.w	a4,a5
ffffffc050402886:	4785                	li	a5,1
ffffffc050402888:	00f71463          	bne	a4,a5,ffffffc050402890 <kernel_send_recv+0x27a>
ffffffc05040288c:	4785                	li	a5,1
ffffffc05040288e:	ac9d                	j	ffffffc050402b04 <kernel_send_recv+0x4ee>
ffffffc050402890:	fec42783          	lw	a5,-20(s0)
ffffffc050402894:	0007871b          	sext.w	a4,a5
ffffffc050402898:	4785                	li	a5,1
ffffffc05040289a:	00f71b63          	bne	a4,a5,ffffffc0504028b0 <kernel_send_recv+0x29a>
ffffffc05040289e:	fe842783          	lw	a5,-24(s0)
ffffffc0504028a2:	0007871b          	sext.w	a4,a5
ffffffc0504028a6:	4785                	li	a5,1
ffffffc0504028a8:	00f71463          	bne	a4,a5,ffffffc0504028b0 <kernel_send_recv+0x29a>
ffffffc0504028ac:	4781                	li	a5,0
ffffffc0504028ae:	ac99                	j	ffffffc050402b04 <kernel_send_recv+0x4ee>
ffffffc0504028b0:	00065717          	auipc	a4,0x65
ffffffc0504028b4:	8f070713          	addi	a4,a4,-1808 # ffffffc0504671a0 <current_running>
ffffffc0504028b8:	f9843783          	ld	a5,-104(s0)
ffffffc0504028bc:	078e                	slli	a5,a5,0x3
ffffffc0504028be:	97ba                	add	a5,a5,a4
ffffffc0504028c0:	6394                	ld	a3,0(a5)
ffffffc0504028c2:	fa442783          	lw	a5,-92(s0)
ffffffc0504028c6:	079e                	slli	a5,a5,0x7
ffffffc0504028c8:	07078713          	addi	a4,a5,112
ffffffc0504028cc:	00064797          	auipc	a5,0x64
ffffffc0504028d0:	55478793          	addi	a5,a5,1364 # ffffffc050466e20 <mbox_arr>
ffffffc0504028d4:	97ba                	add	a5,a5,a4
ffffffc0504028d6:	85be                	mv	a1,a5
ffffffc0504028d8:	8536                	mv	a0,a3
ffffffc0504028da:	1fb000ef          	jal	ra,ffffffc0504032d4 <do_block>
ffffffc0504028de:	b359                	j	ffffffc050402664 <kernel_send_recv+0x4e>
ffffffc0504028e0:	fa442783          	lw	a5,-92(s0)
ffffffc0504028e4:	2781                	sext.w	a5,a5
ffffffc0504028e6:	10079d63          	bnez	a5,ffffffc050402a00 <kernel_send_recv+0x3ea>
ffffffc0504028ea:	fa042783          	lw	a5,-96(s0)
ffffffc0504028ee:	2781                	sext.w	a5,a5
ffffffc0504028f0:	10078863          	beqz	a5,ffffffc050402a00 <kernel_send_recv+0x3ea>
ffffffc0504028f4:	f6043503          	ld	a0,-160(s0)
ffffffc0504028f8:	300030ef          	jal	ra,ffffffc050405bf8 <kstrlen>
ffffffc0504028fc:	87aa                	mv	a5,a0
ffffffc0504028fe:	f8f42623          	sw	a5,-116(s0)
ffffffc050402902:	00064717          	auipc	a4,0x64
ffffffc050402906:	51e70713          	addi	a4,a4,1310 # ffffffc050466e20 <mbox_arr>
ffffffc05040290a:	fa042783          	lw	a5,-96(s0)
ffffffc05040290e:	079e                	slli	a5,a5,0x7
ffffffc050402910:	97ba                	add	a5,a5,a4
ffffffc050402912:	4bdc                	lw	a5,20(a5)
ffffffc050402914:	04000713          	li	a4,64
ffffffc050402918:	40f707bb          	subw	a5,a4,a5
ffffffc05040291c:	0007871b          	sext.w	a4,a5
ffffffc050402920:	f8c42783          	lw	a5,-116(s0)
ffffffc050402924:	2781                	sext.w	a5,a5
ffffffc050402926:	0cf74b63          	blt	a4,a5,ffffffc0504029fc <kernel_send_recv+0x3e6>
ffffffc05040292a:	fc042223          	sw	zero,-60(s0)
ffffffc05040292e:	a8b9                	j	ffffffc05040298c <kernel_send_recv+0x376>
ffffffc050402930:	fc442783          	lw	a5,-60(s0)
ffffffc050402934:	f6043703          	ld	a4,-160(s0)
ffffffc050402938:	00f706b3          	add	a3,a4,a5
ffffffc05040293c:	00064717          	auipc	a4,0x64
ffffffc050402940:	4e470713          	addi	a4,a4,1252 # ffffffc050466e20 <mbox_arr>
ffffffc050402944:	fa042783          	lw	a5,-96(s0)
ffffffc050402948:	079e                	slli	a5,a5,0x7
ffffffc05040294a:	97ba                	add	a5,a5,a4
ffffffc05040294c:	4bd8                	lw	a4,20(a5)
ffffffc05040294e:	0017079b          	addiw	a5,a4,1
ffffffc050402952:	0007861b          	sext.w	a2,a5
ffffffc050402956:	00064597          	auipc	a1,0x64
ffffffc05040295a:	4ca58593          	addi	a1,a1,1226 # ffffffc050466e20 <mbox_arr>
ffffffc05040295e:	fa042783          	lw	a5,-96(s0)
ffffffc050402962:	079e                	slli	a5,a5,0x7
ffffffc050402964:	97ae                	add	a5,a5,a1
ffffffc050402966:	cbd0                	sw	a2,20(a5)
ffffffc050402968:	0006c683          	lbu	a3,0(a3)
ffffffc05040296c:	00064617          	auipc	a2,0x64
ffffffc050402970:	4b460613          	addi	a2,a2,1204 # ffffffc050466e20 <mbox_arr>
ffffffc050402974:	fa042783          	lw	a5,-96(s0)
ffffffc050402978:	079e                	slli	a5,a5,0x7
ffffffc05040297a:	97b2                	add	a5,a5,a2
ffffffc05040297c:	97ba                	add	a5,a5,a4
ffffffc05040297e:	02d78023          	sb	a3,32(a5)
ffffffc050402982:	fc442783          	lw	a5,-60(s0)
ffffffc050402986:	2785                	addiw	a5,a5,1
ffffffc050402988:	fcf42223          	sw	a5,-60(s0)
ffffffc05040298c:	fc442703          	lw	a4,-60(s0)
ffffffc050402990:	f8c42783          	lw	a5,-116(s0)
ffffffc050402994:	2701                	sext.w	a4,a4
ffffffc050402996:	2781                	sext.w	a5,a5
ffffffc050402998:	f8f74ce3          	blt	a4,a5,ffffffc050402930 <kernel_send_recv+0x31a>
ffffffc05040299c:	00064717          	auipc	a4,0x64
ffffffc0504029a0:	48470713          	addi	a4,a4,1156 # ffffffc050466e20 <mbox_arr>
ffffffc0504029a4:	fa042783          	lw	a5,-96(s0)
ffffffc0504029a8:	079e                	slli	a5,a5,0x7
ffffffc0504029aa:	97ba                	add	a5,a5,a4
ffffffc0504029ac:	7fbc                	ld	a5,120(a5)
ffffffc0504029ae:	faf43c23          	sd	a5,-72(s0)
ffffffc0504029b2:	a02d                	j	ffffffc0504029dc <kernel_send_recv+0x3c6>
ffffffc0504029b4:	fb843783          	ld	a5,-72(s0)
ffffffc0504029b8:	17a1                	addi	a5,a5,-24
ffffffc0504029ba:	f6f43c23          	sd	a5,-136(s0)
ffffffc0504029be:	fb843503          	ld	a0,-72(s0)
ffffffc0504029c2:	183000ef          	jal	ra,ffffffc050403344 <do_unblock>
ffffffc0504029c6:	00064717          	auipc	a4,0x64
ffffffc0504029ca:	45a70713          	addi	a4,a4,1114 # ffffffc050466e20 <mbox_arr>
ffffffc0504029ce:	fa042783          	lw	a5,-96(s0)
ffffffc0504029d2:	079e                	slli	a5,a5,0x7
ffffffc0504029d4:	97ba                	add	a5,a5,a4
ffffffc0504029d6:	7fbc                	ld	a5,120(a5)
ffffffc0504029d8:	faf43c23          	sd	a5,-72(s0)
ffffffc0504029dc:	fa042783          	lw	a5,-96(s0)
ffffffc0504029e0:	079e                	slli	a5,a5,0x7
ffffffc0504029e2:	07078713          	addi	a4,a5,112
ffffffc0504029e6:	00064797          	auipc	a5,0x64
ffffffc0504029ea:	43a78793          	addi	a5,a5,1082 # ffffffc050466e20 <mbox_arr>
ffffffc0504029ee:	97ba                	add	a5,a5,a4
ffffffc0504029f0:	fb843703          	ld	a4,-72(s0)
ffffffc0504029f4:	fcf710e3          	bne	a4,a5,ffffffc0504029b4 <kernel_send_recv+0x39e>
ffffffc0504029f8:	4781                	li	a5,0
ffffffc0504029fa:	a229                	j	ffffffc050402b04 <kernel_send_recv+0x4ee>
ffffffc0504029fc:	4789                	li	a5,2
ffffffc0504029fe:	a219                	j	ffffffc050402b04 <kernel_send_recv+0x4ee>
ffffffc050402a00:	fa442783          	lw	a5,-92(s0)
ffffffc050402a04:	2781                	sext.w	a5,a5
ffffffc050402a06:	0e078e63          	beqz	a5,ffffffc050402b02 <kernel_send_recv+0x4ec>
ffffffc050402a0a:	fa042783          	lw	a5,-96(s0)
ffffffc050402a0e:	2781                	sext.w	a5,a5
ffffffc050402a10:	ebed                	bnez	a5,ffffffc050402b02 <kernel_send_recv+0x4ec>
ffffffc050402a12:	00064717          	auipc	a4,0x64
ffffffc050402a16:	40e70713          	addi	a4,a4,1038 # ffffffc050466e20 <mbox_arr>
ffffffc050402a1a:	fa442783          	lw	a5,-92(s0)
ffffffc050402a1e:	079e                	slli	a5,a5,0x7
ffffffc050402a20:	97ba                	add	a5,a5,a4
ffffffc050402a22:	4bdc                	lw	a5,20(a5)
ffffffc050402a24:	0cf05d63          	blez	a5,ffffffc050402afe <kernel_send_recv+0x4e8>
ffffffc050402a28:	fa042a23          	sw	zero,-76(s0)
ffffffc050402a2c:	fa042823          	sw	zero,-80(s0)
ffffffc050402a30:	a83d                	j	ffffffc050402a6e <kernel_send_recv+0x458>
ffffffc050402a32:	fb442783          	lw	a5,-76(s0)
ffffffc050402a36:	f5843703          	ld	a4,-168(s0)
ffffffc050402a3a:	973e                	add	a4,a4,a5
ffffffc050402a3c:	00064617          	auipc	a2,0x64
ffffffc050402a40:	3e460613          	addi	a2,a2,996 # ffffffc050466e20 <mbox_arr>
ffffffc050402a44:	fb042683          	lw	a3,-80(s0)
ffffffc050402a48:	fa442783          	lw	a5,-92(s0)
ffffffc050402a4c:	079e                	slli	a5,a5,0x7
ffffffc050402a4e:	97b2                	add	a5,a5,a2
ffffffc050402a50:	97b6                	add	a5,a5,a3
ffffffc050402a52:	0207c783          	lbu	a5,32(a5)
ffffffc050402a56:	00f70023          	sb	a5,0(a4)
ffffffc050402a5a:	fb442783          	lw	a5,-76(s0)
ffffffc050402a5e:	2785                	addiw	a5,a5,1
ffffffc050402a60:	faf42a23          	sw	a5,-76(s0)
ffffffc050402a64:	fb042783          	lw	a5,-80(s0)
ffffffc050402a68:	2785                	addiw	a5,a5,1
ffffffc050402a6a:	faf42823          	sw	a5,-80(s0)
ffffffc050402a6e:	00064717          	auipc	a4,0x64
ffffffc050402a72:	3b270713          	addi	a4,a4,946 # ffffffc050466e20 <mbox_arr>
ffffffc050402a76:	fa442783          	lw	a5,-92(s0)
ffffffc050402a7a:	079e                	slli	a5,a5,0x7
ffffffc050402a7c:	97ba                	add	a5,a5,a4
ffffffc050402a7e:	4bd8                	lw	a4,20(a5)
ffffffc050402a80:	fb442783          	lw	a5,-76(s0)
ffffffc050402a84:	2781                	sext.w	a5,a5
ffffffc050402a86:	fae7c6e3          	blt	a5,a4,ffffffc050402a32 <kernel_send_recv+0x41c>
ffffffc050402a8a:	00064717          	auipc	a4,0x64
ffffffc050402a8e:	39670713          	addi	a4,a4,918 # ffffffc050466e20 <mbox_arr>
ffffffc050402a92:	fa442783          	lw	a5,-92(s0)
ffffffc050402a96:	079e                	slli	a5,a5,0x7
ffffffc050402a98:	97ba                	add	a5,a5,a4
ffffffc050402a9a:	0007aa23          	sw	zero,20(a5)
ffffffc050402a9e:	00064717          	auipc	a4,0x64
ffffffc050402aa2:	38270713          	addi	a4,a4,898 # ffffffc050466e20 <mbox_arr>
ffffffc050402aa6:	fa442783          	lw	a5,-92(s0)
ffffffc050402aaa:	079e                	slli	a5,a5,0x7
ffffffc050402aac:	97ba                	add	a5,a5,a4
ffffffc050402aae:	77bc                	ld	a5,104(a5)
ffffffc050402ab0:	faf43423          	sd	a5,-88(s0)
ffffffc050402ab4:	a02d                	j	ffffffc050402ade <kernel_send_recv+0x4c8>
ffffffc050402ab6:	fa843783          	ld	a5,-88(s0)
ffffffc050402aba:	17a1                	addi	a5,a5,-24
ffffffc050402abc:	f6f43823          	sd	a5,-144(s0)
ffffffc050402ac0:	fa843503          	ld	a0,-88(s0)
ffffffc050402ac4:	081000ef          	jal	ra,ffffffc050403344 <do_unblock>
ffffffc050402ac8:	00064717          	auipc	a4,0x64
ffffffc050402acc:	35870713          	addi	a4,a4,856 # ffffffc050466e20 <mbox_arr>
ffffffc050402ad0:	fa442783          	lw	a5,-92(s0)
ffffffc050402ad4:	079e                	slli	a5,a5,0x7
ffffffc050402ad6:	97ba                	add	a5,a5,a4
ffffffc050402ad8:	77bc                	ld	a5,104(a5)
ffffffc050402ada:	faf43423          	sd	a5,-88(s0)
ffffffc050402ade:	fa442783          	lw	a5,-92(s0)
ffffffc050402ae2:	079e                	slli	a5,a5,0x7
ffffffc050402ae4:	06078713          	addi	a4,a5,96
ffffffc050402ae8:	00064797          	auipc	a5,0x64
ffffffc050402aec:	33878793          	addi	a5,a5,824 # ffffffc050466e20 <mbox_arr>
ffffffc050402af0:	97ba                	add	a5,a5,a4
ffffffc050402af2:	fa843703          	ld	a4,-88(s0)
ffffffc050402af6:	fcf710e3          	bne	a4,a5,ffffffc050402ab6 <kernel_send_recv+0x4a0>
ffffffc050402afa:	4781                	li	a5,0
ffffffc050402afc:	a021                	j	ffffffc050402b04 <kernel_send_recv+0x4ee>
ffffffc050402afe:	4785                	li	a5,1
ffffffc050402b00:	a011                	j	ffffffc050402b04 <kernel_send_recv+0x4ee>
ffffffc050402b02:	4781                	li	a5,0
ffffffc050402b04:	853e                	mv	a0,a5
ffffffc050402b06:	70aa                	ld	ra,168(sp)
ffffffc050402b08:	740a                	ld	s0,160(sp)
ffffffc050402b0a:	614d                	addi	sp,sp,176
ffffffc050402b0c:	8082                	ret

ffffffc050402b0e <pa2kva>:
ffffffc050402b0e:	1101                	addi	sp,sp,-32
ffffffc050402b10:	ec22                	sd	s0,24(sp)
ffffffc050402b12:	1000                	addi	s0,sp,32
ffffffc050402b14:	fea43423          	sd	a0,-24(s0)
ffffffc050402b18:	fe843703          	ld	a4,-24(s0)
ffffffc050402b1c:	57fd                	li	a5,-1
ffffffc050402b1e:	179a                	slli	a5,a5,0x26
ffffffc050402b20:	97ba                	add	a5,a5,a4
ffffffc050402b22:	853e                	mv	a0,a5
ffffffc050402b24:	6462                	ld	s0,24(sp)
ffffffc050402b26:	6105                	addi	sp,sp,32
ffffffc050402b28:	8082                	ret

ffffffc050402b2a <_panic>:
ffffffc050402b2a:	7179                	addi	sp,sp,-48
ffffffc050402b2c:	f406                	sd	ra,40(sp)
ffffffc050402b2e:	f022                	sd	s0,32(sp)
ffffffc050402b30:	1800                	addi	s0,sp,48
ffffffc050402b32:	fea43423          	sd	a0,-24(s0)
ffffffc050402b36:	87ae                	mv	a5,a1
ffffffc050402b38:	fcc43c23          	sd	a2,-40(s0)
ffffffc050402b3c:	fef42223          	sw	a5,-28(s0)
ffffffc050402b40:	fe442783          	lw	a5,-28(s0)
ffffffc050402b44:	86be                	mv	a3,a5
ffffffc050402b46:	fe843603          	ld	a2,-24(s0)
ffffffc050402b4a:	fd843583          	ld	a1,-40(s0)
ffffffc050402b4e:	00004517          	auipc	a0,0x4
ffffffc050402b52:	e3a50513          	addi	a0,a0,-454 # ffffffc050406988 <get_elf_file+0x21c>
ffffffc050402b56:	337030ef          	jal	ra,ffffffc05040668c <printk>
ffffffc050402b5a:	a001                	j	ffffffc050402b5a <_panic+0x30>

ffffffc050402b5c <list_init>:
ffffffc050402b5c:	1101                	addi	sp,sp,-32
ffffffc050402b5e:	ec22                	sd	s0,24(sp)
ffffffc050402b60:	1000                	addi	s0,sp,32
ffffffc050402b62:	fea43423          	sd	a0,-24(s0)
ffffffc050402b66:	fe843783          	ld	a5,-24(s0)
ffffffc050402b6a:	fe843703          	ld	a4,-24(s0)
ffffffc050402b6e:	e798                	sd	a4,8(a5)
ffffffc050402b70:	fe843783          	ld	a5,-24(s0)
ffffffc050402b74:	fe843703          	ld	a4,-24(s0)
ffffffc050402b78:	e398                	sd	a4,0(a5)
ffffffc050402b7a:	0001                	nop
ffffffc050402b7c:	6462                	ld	s0,24(sp)
ffffffc050402b7e:	6105                	addi	sp,sp,32
ffffffc050402b80:	8082                	ret

ffffffc050402b82 <list_add>:
ffffffc050402b82:	7179                	addi	sp,sp,-48
ffffffc050402b84:	f422                	sd	s0,40(sp)
ffffffc050402b86:	1800                	addi	s0,sp,48
ffffffc050402b88:	fca43c23          	sd	a0,-40(s0)
ffffffc050402b8c:	fcb43823          	sd	a1,-48(s0)
ffffffc050402b90:	fd843783          	ld	a5,-40(s0)
ffffffc050402b94:	639c                	ld	a5,0(a5)
ffffffc050402b96:	fef43423          	sd	a5,-24(s0)
ffffffc050402b9a:	fd843783          	ld	a5,-40(s0)
ffffffc050402b9e:	fef43023          	sd	a5,-32(s0)
ffffffc050402ba2:	fe043783          	ld	a5,-32(s0)
ffffffc050402ba6:	fd043703          	ld	a4,-48(s0)
ffffffc050402baa:	e398                	sd	a4,0(a5)
ffffffc050402bac:	fd043783          	ld	a5,-48(s0)
ffffffc050402bb0:	fe043703          	ld	a4,-32(s0)
ffffffc050402bb4:	e798                	sd	a4,8(a5)
ffffffc050402bb6:	fd043783          	ld	a5,-48(s0)
ffffffc050402bba:	fe843703          	ld	a4,-24(s0)
ffffffc050402bbe:	e398                	sd	a4,0(a5)
ffffffc050402bc0:	fe843783          	ld	a5,-24(s0)
ffffffc050402bc4:	fd043703          	ld	a4,-48(s0)
ffffffc050402bc8:	e798                	sd	a4,8(a5)
ffffffc050402bca:	0001                	nop
ffffffc050402bcc:	7422                	ld	s0,40(sp)
ffffffc050402bce:	6145                	addi	sp,sp,48
ffffffc050402bd0:	8082                	ret

ffffffc050402bd2 <list_out>:
ffffffc050402bd2:	7179                	addi	sp,sp,-48
ffffffc050402bd4:	f422                	sd	s0,40(sp)
ffffffc050402bd6:	1800                	addi	s0,sp,48
ffffffc050402bd8:	fca43c23          	sd	a0,-40(s0)
ffffffc050402bdc:	fd843783          	ld	a5,-40(s0)
ffffffc050402be0:	639c                	ld	a5,0(a5)
ffffffc050402be2:	fef43423          	sd	a5,-24(s0)
ffffffc050402be6:	fd843783          	ld	a5,-40(s0)
ffffffc050402bea:	679c                	ld	a5,8(a5)
ffffffc050402bec:	fef43023          	sd	a5,-32(s0)
ffffffc050402bf0:	fe843783          	ld	a5,-24(s0)
ffffffc050402bf4:	fe043703          	ld	a4,-32(s0)
ffffffc050402bf8:	e798                	sd	a4,8(a5)
ffffffc050402bfa:	fe043783          	ld	a5,-32(s0)
ffffffc050402bfe:	fe843703          	ld	a4,-24(s0)
ffffffc050402c02:	e398                	sd	a4,0(a5)
ffffffc050402c04:	0001                	nop
ffffffc050402c06:	7422                	ld	s0,40(sp)
ffffffc050402c08:	6145                	addi	sp,sp,48
ffffffc050402c0a:	8082                	ret

ffffffc050402c0c <in_queue>:
ffffffc050402c0c:	1101                	addi	sp,sp,-32
ffffffc050402c0e:	ec06                	sd	ra,24(sp)
ffffffc050402c10:	e822                	sd	s0,16(sp)
ffffffc050402c12:	1000                	addi	s0,sp,32
ffffffc050402c14:	fea43423          	sd	a0,-24(s0)
ffffffc050402c18:	feb43023          	sd	a1,-32(s0)
ffffffc050402c1c:	fe043783          	ld	a5,-32(s0)
ffffffc050402c20:	07e1                	addi	a5,a5,24
ffffffc050402c22:	85be                	mv	a1,a5
ffffffc050402c24:	fe843503          	ld	a0,-24(s0)
ffffffc050402c28:	f5bff0ef          	jal	ra,ffffffc050402b82 <list_add>
ffffffc050402c2c:	0001                	nop
ffffffc050402c2e:	60e2                	ld	ra,24(sp)
ffffffc050402c30:	6442                	ld	s0,16(sp)
ffffffc050402c32:	6105                	addi	sp,sp,32
ffffffc050402c34:	8082                	ret

ffffffc050402c36 <out_queue>:
ffffffc050402c36:	1101                	addi	sp,sp,-32
ffffffc050402c38:	ec06                	sd	ra,24(sp)
ffffffc050402c3a:	e822                	sd	s0,16(sp)
ffffffc050402c3c:	1000                	addi	s0,sp,32
ffffffc050402c3e:	fea43423          	sd	a0,-24(s0)
ffffffc050402c42:	fe843783          	ld	a5,-24(s0)
ffffffc050402c46:	07e1                	addi	a5,a5,24
ffffffc050402c48:	853e                	mv	a0,a5
ffffffc050402c4a:	f89ff0ef          	jal	ra,ffffffc050402bd2 <list_out>
ffffffc050402c4e:	0001                	nop
ffffffc050402c50:	60e2                	ld	ra,24(sp)
ffffffc050402c52:	6442                	ld	s0,16(sp)
ffffffc050402c54:	6105                	addi	sp,sp,32
ffffffc050402c56:	8082                	ret

ffffffc050402c58 <pcb_addr>:
ffffffc050402c58:	1101                	addi	sp,sp,-32
ffffffc050402c5a:	ec22                	sd	s0,24(sp)
ffffffc050402c5c:	1000                	addi	s0,sp,32
ffffffc050402c5e:	fea43423          	sd	a0,-24(s0)
ffffffc050402c62:	fe843783          	ld	a5,-24(s0)
ffffffc050402c66:	17a1                	addi	a5,a5,-24
ffffffc050402c68:	853e                	mv	a0,a5
ffffffc050402c6a:	6462                	ld	s0,24(sp)
ffffffc050402c6c:	6105                	addi	sp,sp,32
ffffffc050402c6e:	8082                	ret

ffffffc050402c70 <get_time>:
ffffffc050402c70:	1101                	addi	sp,sp,-32
ffffffc050402c72:	ec06                	sd	ra,24(sp)
ffffffc050402c74:	e822                	sd	s0,16(sp)
ffffffc050402c76:	1000                	addi	s0,sp,32
ffffffc050402c78:	fea43423          	sd	a0,-24(s0)
ffffffc050402c7c:	63a010ef          	jal	ra,ffffffc0504042b6 <get_ticks>
ffffffc050402c80:	87aa                	mv	a5,a0
ffffffc050402c82:	0007871b          	sext.w	a4,a5
ffffffc050402c86:	fe843783          	ld	a5,-24(s0)
ffffffc050402c8a:	c398                	sw	a4,0(a5)
ffffffc050402c8c:	66e010ef          	jal	ra,ffffffc0504042fa <get_time_base>
ffffffc050402c90:	87aa                	mv	a5,a0
ffffffc050402c92:	2781                	sext.w	a5,a5
ffffffc050402c94:	853e                	mv	a0,a5
ffffffc050402c96:	60e2                	ld	ra,24(sp)
ffffffc050402c98:	6442                	ld	s0,16(sp)
ffffffc050402c9a:	6105                	addi	sp,sp,32
ffffffc050402c9c:	8082                	ret

ffffffc050402c9e <search_queue>:
ffffffc050402c9e:	7179                	addi	sp,sp,-48
ffffffc050402ca0:	f406                	sd	ra,40(sp)
ffffffc050402ca2:	f022                	sd	s0,32(sp)
ffffffc050402ca4:	1800                	addi	s0,sp,48
ffffffc050402ca6:	e22fd0ef          	jal	ra,ffffffc0504002c8 <get_current_cpu_id>
ffffffc050402caa:	87aa                	mv	a5,a0
ffffffc050402cac:	fcf43c23          	sd	a5,-40(s0)
ffffffc050402cb0:	00064797          	auipc	a5,0x64
ffffffc050402cb4:	4e078793          	addi	a5,a5,1248 # ffffffc050467190 <ready_queue>
ffffffc050402cb8:	679c                	ld	a5,8(a5)
ffffffc050402cba:	fef43023          	sd	a5,-32(s0)
ffffffc050402cbe:	fe043783          	ld	a5,-32(s0)
ffffffc050402cc2:	6798                	ld	a4,8(a5)
ffffffc050402cc4:	00064797          	auipc	a5,0x64
ffffffc050402cc8:	4cc78793          	addi	a5,a5,1228 # ffffffc050467190 <ready_queue>
ffffffc050402ccc:	00f71763          	bne	a4,a5,ffffffc050402cda <search_queue+0x3c>
ffffffc050402cd0:	00004797          	auipc	a5,0x4
ffffffc050402cd4:	fe078793          	addi	a5,a5,-32 # ffffffc050406cb0 <pid0_pcb_s>
ffffffc050402cd8:	a069                	j	ffffffc050402d62 <search_queue+0xc4>
ffffffc050402cda:	fe043783          	ld	a5,-32(s0)
ffffffc050402cde:	679c                	ld	a5,8(a5)
ffffffc050402ce0:	fef43023          	sd	a5,-32(s0)
ffffffc050402ce4:	fe043503          	ld	a0,-32(s0)
ffffffc050402ce8:	f71ff0ef          	jal	ra,ffffffc050402c58 <pcb_addr>
ffffffc050402cec:	fea43423          	sd	a0,-24(s0)
ffffffc050402cf0:	a821                	j	ffffffc050402d08 <search_queue+0x6a>
ffffffc050402cf2:	fe043783          	ld	a5,-32(s0)
ffffffc050402cf6:	679c                	ld	a5,8(a5)
ffffffc050402cf8:	fef43023          	sd	a5,-32(s0)
ffffffc050402cfc:	fe043503          	ld	a0,-32(s0)
ffffffc050402d00:	f59ff0ef          	jal	ra,ffffffc050402c58 <pcb_addr>
ffffffc050402d04:	fea43423          	sd	a0,-24(s0)
ffffffc050402d08:	fe043703          	ld	a4,-32(s0)
ffffffc050402d0c:	00064797          	auipc	a5,0x64
ffffffc050402d10:	48478793          	addi	a5,a5,1156 # ffffffc050467190 <ready_queue>
ffffffc050402d14:	02f70863          	beq	a4,a5,ffffffc050402d44 <search_queue+0xa6>
ffffffc050402d18:	fe843783          	ld	a5,-24(s0)
ffffffc050402d1c:	0807a783          	lw	a5,128(a5)
ffffffc050402d20:	873e                	mv	a4,a5
ffffffc050402d22:	4785                	li	a5,1
ffffffc050402d24:	00f71963          	bne	a4,a5,ffffffc050402d36 <search_queue+0x98>
ffffffc050402d28:	fe843783          	ld	a5,-24(s0)
ffffffc050402d2c:	6bbc                	ld	a5,80(a5)
ffffffc050402d2e:	fd843703          	ld	a4,-40(s0)
ffffffc050402d32:	fcf710e3          	bne	a4,a5,ffffffc050402cf2 <search_queue+0x54>
ffffffc050402d36:	fe843783          	ld	a5,-24(s0)
ffffffc050402d3a:	4fbc                	lw	a5,88(a5)
ffffffc050402d3c:	873e                	mv	a4,a5
ffffffc050402d3e:	4785                	li	a5,1
ffffffc050402d40:	faf709e3          	beq	a4,a5,ffffffc050402cf2 <search_queue+0x54>
ffffffc050402d44:	fe043703          	ld	a4,-32(s0)
ffffffc050402d48:	00064797          	auipc	a5,0x64
ffffffc050402d4c:	44878793          	addi	a5,a5,1096 # ffffffc050467190 <ready_queue>
ffffffc050402d50:	00f71763          	bne	a4,a5,ffffffc050402d5e <search_queue+0xc0>
ffffffc050402d54:	00004797          	auipc	a5,0x4
ffffffc050402d58:	f5c78793          	addi	a5,a5,-164 # ffffffc050406cb0 <pid0_pcb_s>
ffffffc050402d5c:	a019                	j	ffffffc050402d62 <search_queue+0xc4>
ffffffc050402d5e:	fe843783          	ld	a5,-24(s0)
ffffffc050402d62:	853e                	mv	a0,a5
ffffffc050402d64:	70a2                	ld	ra,40(sp)
ffffffc050402d66:	7402                	ld	s0,32(sp)
ffffffc050402d68:	6145                	addi	sp,sp,48
ffffffc050402d6a:	8082                	ret

ffffffc050402d6c <do_scheduler>:
ffffffc050402d6c:	711d                	addi	sp,sp,-96
ffffffc050402d6e:	ec86                	sd	ra,88(sp)
ffffffc050402d70:	e8a2                	sd	s0,80(sp)
ffffffc050402d72:	1080                	addi	s0,sp,96
ffffffc050402d74:	d54fd0ef          	jal	ra,ffffffc0504002c8 <get_current_cpu_id>
ffffffc050402d78:	87aa                	mv	a5,a0
ffffffc050402d7a:	fcf43023          	sd	a5,-64(s0)
ffffffc050402d7e:	00064717          	auipc	a4,0x64
ffffffc050402d82:	42270713          	addi	a4,a4,1058 # ffffffc0504671a0 <current_running>
ffffffc050402d86:	fc043783          	ld	a5,-64(s0)
ffffffc050402d8a:	078e                	slli	a5,a5,0x3
ffffffc050402d8c:	97ba                	add	a5,a5,a4
ffffffc050402d8e:	639c                	ld	a5,0(a5)
ffffffc050402d90:	faf43c23          	sd	a5,-72(s0)
ffffffc050402d94:	fb843783          	ld	a5,-72(s0)
ffffffc050402d98:	47bc                	lw	a5,72(a5)
ffffffc050402d9a:	14078363          	beqz	a5,ffffffc050402ee0 <do_scheduler+0x174>
ffffffc050402d9e:	fb843783          	ld	a5,-72(s0)
ffffffc050402da2:	0807a783          	lw	a5,128(a5)
ffffffc050402da6:	873e                	mv	a4,a5
ffffffc050402da8:	4785                	li	a5,1
ffffffc050402daa:	12f71b63          	bne	a4,a5,ffffffc050402ee0 <do_scheduler+0x174>
ffffffc050402dae:	fb843783          	ld	a5,-72(s0)
ffffffc050402db2:	739c                	ld	a5,32(a5)
ffffffc050402db4:	fcf43c23          	sd	a5,-40(s0)
ffffffc050402db8:	fd843503          	ld	a0,-40(s0)
ffffffc050402dbc:	e9dff0ef          	jal	ra,ffffffc050402c58 <pcb_addr>
ffffffc050402dc0:	fea43023          	sd	a0,-32(s0)
ffffffc050402dc4:	4785                	li	a5,1
ffffffc050402dc6:	fcf42a23          	sw	a5,-44(s0)
ffffffc050402dca:	fc043783          	ld	a5,-64(s0)
ffffffc050402dce:	e7d5                	bnez	a5,ffffffc050402e7a <do_scheduler+0x10e>
ffffffc050402dd0:	a02d                	j	ffffffc050402dfa <do_scheduler+0x8e>
ffffffc050402dd2:	fd843783          	ld	a5,-40(s0)
ffffffc050402dd6:	679c                	ld	a5,8(a5)
ffffffc050402dd8:	fcf43c23          	sd	a5,-40(s0)
ffffffc050402ddc:	fd843503          	ld	a0,-40(s0)
ffffffc050402de0:	e79ff0ef          	jal	ra,ffffffc050402c58 <pcb_addr>
ffffffc050402de4:	fea43023          	sd	a0,-32(s0)
ffffffc050402de8:	fe043703          	ld	a4,-32(s0)
ffffffc050402dec:	fb843783          	ld	a5,-72(s0)
ffffffc050402df0:	00f71563          	bne	a4,a5,ffffffc050402dfa <do_scheduler+0x8e>
ffffffc050402df4:	fc042a23          	sw	zero,-44(s0)
ffffffc050402df8:	a83d                	j	ffffffc050402e36 <do_scheduler+0xca>
ffffffc050402dfa:	fd843703          	ld	a4,-40(s0)
ffffffc050402dfe:	00064797          	auipc	a5,0x64
ffffffc050402e02:	39278793          	addi	a5,a5,914 # ffffffc050467190 <ready_queue>
ffffffc050402e06:	fcf706e3          	beq	a4,a5,ffffffc050402dd2 <do_scheduler+0x66>
ffffffc050402e0a:	fe043783          	ld	a5,-32(s0)
ffffffc050402e0e:	0807a783          	lw	a5,128(a5)
ffffffc050402e12:	873e                	mv	a4,a5
ffffffc050402e14:	4785                	li	a5,1
ffffffc050402e16:	00f71963          	bne	a4,a5,ffffffc050402e28 <do_scheduler+0xbc>
ffffffc050402e1a:	fe043783          	ld	a5,-32(s0)
ffffffc050402e1e:	6bbc                	ld	a5,80(a5)
ffffffc050402e20:	fc043703          	ld	a4,-64(s0)
ffffffc050402e24:	faf717e3          	bne	a4,a5,ffffffc050402dd2 <do_scheduler+0x66>
ffffffc050402e28:	fe043783          	ld	a5,-32(s0)
ffffffc050402e2c:	4fbc                	lw	a5,88(a5)
ffffffc050402e2e:	873e                	mv	a4,a5
ffffffc050402e30:	4789                	li	a5,2
ffffffc050402e32:	faf700e3          	beq	a4,a5,ffffffc050402dd2 <do_scheduler+0x66>
ffffffc050402e36:	fd442783          	lw	a5,-44(s0)
ffffffc050402e3a:	2781                	sext.w	a5,a5
ffffffc050402e3c:	c781                	beqz	a5,ffffffc050402e44 <do_scheduler+0xd8>
ffffffc050402e3e:	fe043783          	ld	a5,-32(s0)
ffffffc050402e42:	a029                	j	ffffffc050402e4c <do_scheduler+0xe0>
ffffffc050402e44:	00004797          	auipc	a5,0x4
ffffffc050402e48:	dd478793          	addi	a5,a5,-556 # ffffffc050406c18 <pid0_pcb_m>
ffffffc050402e4c:	fef43423          	sd	a5,-24(s0)
ffffffc050402e50:	a855                	j	ffffffc050402f04 <do_scheduler+0x198>
ffffffc050402e52:	fd843783          	ld	a5,-40(s0)
ffffffc050402e56:	679c                	ld	a5,8(a5)
ffffffc050402e58:	fcf43c23          	sd	a5,-40(s0)
ffffffc050402e5c:	fd843503          	ld	a0,-40(s0)
ffffffc050402e60:	df9ff0ef          	jal	ra,ffffffc050402c58 <pcb_addr>
ffffffc050402e64:	fea43023          	sd	a0,-32(s0)
ffffffc050402e68:	fe043703          	ld	a4,-32(s0)
ffffffc050402e6c:	fb843783          	ld	a5,-72(s0)
ffffffc050402e70:	00f71563          	bne	a4,a5,ffffffc050402e7a <do_scheduler+0x10e>
ffffffc050402e74:	fc042a23          	sw	zero,-44(s0)
ffffffc050402e78:	a0b1                	j	ffffffc050402ec4 <do_scheduler+0x158>
ffffffc050402e7a:	fd843703          	ld	a4,-40(s0)
ffffffc050402e7e:	00064797          	auipc	a5,0x64
ffffffc050402e82:	31278793          	addi	a5,a5,786 # ffffffc050467190 <ready_queue>
ffffffc050402e86:	fcf706e3          	beq	a4,a5,ffffffc050402e52 <do_scheduler+0xe6>
ffffffc050402e8a:	fe043783          	ld	a5,-32(s0)
ffffffc050402e8e:	0807a783          	lw	a5,128(a5)
ffffffc050402e92:	873e                	mv	a4,a5
ffffffc050402e94:	4785                	li	a5,1
ffffffc050402e96:	00f71963          	bne	a4,a5,ffffffc050402ea8 <do_scheduler+0x13c>
ffffffc050402e9a:	fe043783          	ld	a5,-32(s0)
ffffffc050402e9e:	6bbc                	ld	a5,80(a5)
ffffffc050402ea0:	fc043703          	ld	a4,-64(s0)
ffffffc050402ea4:	faf717e3          	bne	a4,a5,ffffffc050402e52 <do_scheduler+0xe6>
ffffffc050402ea8:	fe043783          	ld	a5,-32(s0)
ffffffc050402eac:	47bc                	lw	a5,72(a5)
ffffffc050402eae:	873e                	mv	a4,a5
ffffffc050402eb0:	4785                	li	a5,1
ffffffc050402eb2:	faf700e3          	beq	a4,a5,ffffffc050402e52 <do_scheduler+0xe6>
ffffffc050402eb6:	fe043783          	ld	a5,-32(s0)
ffffffc050402eba:	4fbc                	lw	a5,88(a5)
ffffffc050402ebc:	873e                	mv	a4,a5
ffffffc050402ebe:	4785                	li	a5,1
ffffffc050402ec0:	f8f709e3          	beq	a4,a5,ffffffc050402e52 <do_scheduler+0xe6>
ffffffc050402ec4:	fd442783          	lw	a5,-44(s0)
ffffffc050402ec8:	2781                	sext.w	a5,a5
ffffffc050402eca:	c781                	beqz	a5,ffffffc050402ed2 <do_scheduler+0x166>
ffffffc050402ecc:	fe043783          	ld	a5,-32(s0)
ffffffc050402ed0:	a029                	j	ffffffc050402eda <do_scheduler+0x16e>
ffffffc050402ed2:	00004797          	auipc	a5,0x4
ffffffc050402ed6:	dde78793          	addi	a5,a5,-546 # ffffffc050406cb0 <pid0_pcb_s>
ffffffc050402eda:	fef43423          	sd	a5,-24(s0)
ffffffc050402ede:	a01d                	j	ffffffc050402f04 <do_scheduler+0x198>
ffffffc050402ee0:	fc043783          	ld	a5,-64(s0)
ffffffc050402ee4:	ef81                	bnez	a5,ffffffc050402efc <do_scheduler+0x190>
ffffffc050402ee6:	00064797          	auipc	a5,0x64
ffffffc050402eea:	2aa78793          	addi	a5,a5,682 # ffffffc050467190 <ready_queue>
ffffffc050402eee:	679c                	ld	a5,8(a5)
ffffffc050402ef0:	853e                	mv	a0,a5
ffffffc050402ef2:	d67ff0ef          	jal	ra,ffffffc050402c58 <pcb_addr>
ffffffc050402ef6:	fea43423          	sd	a0,-24(s0)
ffffffc050402efa:	a029                	j	ffffffc050402f04 <do_scheduler+0x198>
ffffffc050402efc:	da3ff0ef          	jal	ra,ffffffc050402c9e <search_queue>
ffffffc050402f00:	fea43423          	sd	a0,-24(s0)
ffffffc050402f04:	00064717          	auipc	a4,0x64
ffffffc050402f08:	29c70713          	addi	a4,a4,668 # ffffffc0504671a0 <current_running>
ffffffc050402f0c:	fc043783          	ld	a5,-64(s0)
ffffffc050402f10:	078e                	slli	a5,a5,0x3
ffffffc050402f12:	97ba                	add	a5,a5,a4
ffffffc050402f14:	639c                	ld	a5,0(a5)
ffffffc050402f16:	0807a783          	lw	a5,128(a5)
ffffffc050402f1a:	873e                	mv	a4,a5
ffffffc050402f1c:	4785                	li	a5,1
ffffffc050402f1e:	00f70e63          	beq	a4,a5,ffffffc050402f3a <do_scheduler+0x1ce>
ffffffc050402f22:	00064717          	auipc	a4,0x64
ffffffc050402f26:	27e70713          	addi	a4,a4,638 # ffffffc0504671a0 <current_running>
ffffffc050402f2a:	fc043783          	ld	a5,-64(s0)
ffffffc050402f2e:	078e                	slli	a5,a5,0x3
ffffffc050402f30:	97ba                	add	a5,a5,a4
ffffffc050402f32:	639c                	ld	a5,0(a5)
ffffffc050402f34:	0807a783          	lw	a5,128(a5)
ffffffc050402f38:	a011                	j	ffffffc050402f3c <do_scheduler+0x1d0>
ffffffc050402f3a:	4789                	li	a5,2
ffffffc050402f3c:	00064697          	auipc	a3,0x64
ffffffc050402f40:	26468693          	addi	a3,a3,612 # ffffffc0504671a0 <current_running>
ffffffc050402f44:	fc043703          	ld	a4,-64(s0)
ffffffc050402f48:	070e                	slli	a4,a4,0x3
ffffffc050402f4a:	9736                	add	a4,a4,a3
ffffffc050402f4c:	6318                	ld	a4,0(a4)
ffffffc050402f4e:	08f72023          	sw	a5,128(a4)
ffffffc050402f52:	00064717          	auipc	a4,0x64
ffffffc050402f56:	24e70713          	addi	a4,a4,590 # ffffffc0504671a0 <current_running>
ffffffc050402f5a:	fc043783          	ld	a5,-64(s0)
ffffffc050402f5e:	078e                	slli	a5,a5,0x3
ffffffc050402f60:	97ba                	add	a5,a5,a4
ffffffc050402f62:	639c                	ld	a5,0(a5)
ffffffc050402f64:	5bbc                	lw	a5,112(a5)
ffffffc050402f66:	873e                	mv	a4,a5
ffffffc050402f68:	4785                	li	a5,1
ffffffc050402f6a:	10f71b63          	bne	a4,a5,ffffffc050403080 <do_scheduler+0x314>
ffffffc050402f6e:	00064717          	auipc	a4,0x64
ffffffc050402f72:	23270713          	addi	a4,a4,562 # ffffffc0504671a0 <current_running>
ffffffc050402f76:	fc043783          	ld	a5,-64(s0)
ffffffc050402f7a:	078e                	slli	a5,a5,0x3
ffffffc050402f7c:	97ba                	add	a5,a5,a4
ffffffc050402f7e:	639c                	ld	a5,0(a5)
ffffffc050402f80:	0607a823          	sw	zero,112(a5)
ffffffc050402f84:	00064717          	auipc	a4,0x64
ffffffc050402f88:	21c70713          	addi	a4,a4,540 # ffffffc0504671a0 <current_running>
ffffffc050402f8c:	fc043783          	ld	a5,-64(s0)
ffffffc050402f90:	078e                	slli	a5,a5,0x3
ffffffc050402f92:	97ba                	add	a5,a5,a4
ffffffc050402f94:	639c                	ld	a5,0(a5)
ffffffc050402f96:	0407a423          	sw	zero,72(a5)
ffffffc050402f9a:	00064717          	auipc	a4,0x64
ffffffc050402f9e:	20670713          	addi	a4,a4,518 # ffffffc0504671a0 <current_running>
ffffffc050402fa2:	fc043783          	ld	a5,-64(s0)
ffffffc050402fa6:	078e                	slli	a5,a5,0x3
ffffffc050402fa8:	97ba                	add	a5,a5,a4
ffffffc050402faa:	639c                	ld	a5,0(a5)
ffffffc050402fac:	853e                	mv	a0,a5
ffffffc050402fae:	c89ff0ef          	jal	ra,ffffffc050402c36 <out_queue>
ffffffc050402fb2:	00064717          	auipc	a4,0x64
ffffffc050402fb6:	1ee70713          	addi	a4,a4,494 # ffffffc0504671a0 <current_running>
ffffffc050402fba:	fc043783          	ld	a5,-64(s0)
ffffffc050402fbe:	078e                	slli	a5,a5,0x3
ffffffc050402fc0:	97ba                	add	a5,a5,a4
ffffffc050402fc2:	639c                	ld	a5,0(a5)
ffffffc050402fc4:	4711                	li	a4,4
ffffffc050402fc6:	08e7a023          	sw	a4,128(a5)
ffffffc050402fca:	fc042823          	sw	zero,-48(s0)
ffffffc050402fce:	a8b1                	j	ffffffc05040302a <do_scheduler+0x2be>
ffffffc050402fd0:	00064717          	auipc	a4,0x64
ffffffc050402fd4:	1d070713          	addi	a4,a4,464 # ffffffc0504671a0 <current_running>
ffffffc050402fd8:	fc043783          	ld	a5,-64(s0)
ffffffc050402fdc:	078e                	slli	a5,a5,0x3
ffffffc050402fde:	97ba                	add	a5,a5,a4
ffffffc050402fe0:	6398                	ld	a4,0(a5)
ffffffc050402fe2:	fd042783          	lw	a5,-48(s0)
ffffffc050402fe6:	07d1                	addi	a5,a5,20
ffffffc050402fe8:	078a                	slli	a5,a5,0x2
ffffffc050402fea:	97ba                	add	a5,a5,a4
ffffffc050402fec:	47dc                	lw	a5,12(a5)
ffffffc050402fee:	873e                	mv	a4,a5
ffffffc050402ff0:	4785                	li	a5,1
ffffffc050402ff2:	02f71763          	bne	a4,a5,ffffffc050403020 <do_scheduler+0x2b4>
ffffffc050402ff6:	fd042783          	lw	a5,-48(s0)
ffffffc050402ffa:	853e                	mv	a0,a5
ffffffc050402ffc:	a49fe0ef          	jal	ra,ffffffc050401a44 <mutex_unlock>
ffffffc050403000:	00064717          	auipc	a4,0x64
ffffffc050403004:	1a070713          	addi	a4,a4,416 # ffffffc0504671a0 <current_running>
ffffffc050403008:	fc043783          	ld	a5,-64(s0)
ffffffc05040300c:	078e                	slli	a5,a5,0x3
ffffffc05040300e:	97ba                	add	a5,a5,a4
ffffffc050403010:	6398                	ld	a4,0(a5)
ffffffc050403012:	fd042783          	lw	a5,-48(s0)
ffffffc050403016:	07d1                	addi	a5,a5,20
ffffffc050403018:	078a                	slli	a5,a5,0x2
ffffffc05040301a:	97ba                	add	a5,a5,a4
ffffffc05040301c:	0007a623          	sw	zero,12(a5)
ffffffc050403020:	fd042783          	lw	a5,-48(s0)
ffffffc050403024:	2785                	addiw	a5,a5,1
ffffffc050403026:	fcf42823          	sw	a5,-48(s0)
ffffffc05040302a:	fd042783          	lw	a5,-48(s0)
ffffffc05040302e:	0007871b          	sext.w	a4,a5
ffffffc050403032:	4791                	li	a5,4
ffffffc050403034:	f8e7dee3          	bge	a5,a4,ffffffc050402fd0 <do_scheduler+0x264>
ffffffc050403038:	00064717          	auipc	a4,0x64
ffffffc05040303c:	16870713          	addi	a4,a4,360 # ffffffc0504671a0 <current_running>
ffffffc050403040:	fc043783          	ld	a5,-64(s0)
ffffffc050403044:	078e                	slli	a5,a5,0x3
ffffffc050403046:	97ba                	add	a5,a5,a4
ffffffc050403048:	639c                	ld	a5,0(a5)
ffffffc05040304a:	5fbc                	lw	a5,120(a5)
ffffffc05040304c:	ef81                	bnez	a5,ffffffc050403064 <do_scheduler+0x2f8>
ffffffc05040304e:	00064717          	auipc	a4,0x64
ffffffc050403052:	15270713          	addi	a4,a4,338 # ffffffc0504671a0 <current_running>
ffffffc050403056:	fc043783          	ld	a5,-64(s0)
ffffffc05040305a:	078e                	slli	a5,a5,0x3
ffffffc05040305c:	97ba                	add	a5,a5,a4
ffffffc05040305e:	639c                	ld	a5,0(a5)
ffffffc050403060:	4705                	li	a4,1
ffffffc050403062:	dbf8                	sw	a4,116(a5)
ffffffc050403064:	00064717          	auipc	a4,0x64
ffffffc050403068:	13c70713          	addi	a4,a4,316 # ffffffc0504671a0 <current_running>
ffffffc05040306c:	fc043783          	ld	a5,-64(s0)
ffffffc050403070:	078e                	slli	a5,a5,0x3
ffffffc050403072:	97ba                	add	a5,a5,a4
ffffffc050403074:	639c                	ld	a5,0(a5)
ffffffc050403076:	02878793          	addi	a5,a5,40
ffffffc05040307a:	853e                	mv	a0,a5
ffffffc05040307c:	02f000ef          	jal	ra,ffffffc0504038aa <release_queue>
ffffffc050403080:	fc042623          	sw	zero,-52(s0)
ffffffc050403084:	a8d5                	j	ffffffc050403178 <do_scheduler+0x40c>
ffffffc050403086:	00064717          	auipc	a4,0x64
ffffffc05040308a:	21a70713          	addi	a4,a4,538 # ffffffc0504672a0 <pcb>
ffffffc05040308e:	fcc42683          	lw	a3,-52(s0)
ffffffc050403092:	09800793          	li	a5,152
ffffffc050403096:	02f687b3          	mul	a5,a3,a5
ffffffc05040309a:	97ba                	add	a5,a5,a4
ffffffc05040309c:	5bfc                	lw	a5,116(a5)
ffffffc05040309e:	873e                	mv	a4,a5
ffffffc0504030a0:	4785                	li	a5,1
ffffffc0504030a2:	0cf71663          	bne	a4,a5,ffffffc05040316e <do_scheduler+0x402>
ffffffc0504030a6:	fcc42703          	lw	a4,-52(s0)
ffffffc0504030aa:	09800793          	li	a5,152
ffffffc0504030ae:	02f70733          	mul	a4,a4,a5
ffffffc0504030b2:	00064797          	auipc	a5,0x64
ffffffc0504030b6:	1ee78793          	addi	a5,a5,494 # ffffffc0504672a0 <pcb>
ffffffc0504030ba:	973e                	add	a4,a4,a5
ffffffc0504030bc:	00064797          	auipc	a5,0x64
ffffffc0504030c0:	0e478793          	addi	a5,a5,228 # ffffffc0504671a0 <current_running>
ffffffc0504030c4:	639c                	ld	a5,0(a5)
ffffffc0504030c6:	0af70463          	beq	a4,a5,ffffffc05040316e <do_scheduler+0x402>
ffffffc0504030ca:	fcc42703          	lw	a4,-52(s0)
ffffffc0504030ce:	09800793          	li	a5,152
ffffffc0504030d2:	02f70733          	mul	a4,a4,a5
ffffffc0504030d6:	00064797          	auipc	a5,0x64
ffffffc0504030da:	1ca78793          	addi	a5,a5,458 # ffffffc0504672a0 <pcb>
ffffffc0504030de:	973e                	add	a4,a4,a5
ffffffc0504030e0:	00064797          	auipc	a5,0x64
ffffffc0504030e4:	0c078793          	addi	a5,a5,192 # ffffffc0504671a0 <current_running>
ffffffc0504030e8:	679c                	ld	a5,8(a5)
ffffffc0504030ea:	08f70263          	beq	a4,a5,ffffffc05040316e <do_scheduler+0x402>
ffffffc0504030ee:	00064717          	auipc	a4,0x64
ffffffc0504030f2:	1b270713          	addi	a4,a4,434 # ffffffc0504672a0 <pcb>
ffffffc0504030f6:	fcc42683          	lw	a3,-52(s0)
ffffffc0504030fa:	09800793          	li	a5,152
ffffffc0504030fe:	02f687b3          	mul	a5,a3,a5
ffffffc050403102:	97ba                	add	a5,a5,a4
ffffffc050403104:	0407a423          	sw	zero,72(a5)
ffffffc050403108:	00064717          	auipc	a4,0x64
ffffffc05040310c:	19870713          	addi	a4,a4,408 # ffffffc0504672a0 <pcb>
ffffffc050403110:	fcc42683          	lw	a3,-52(s0)
ffffffc050403114:	09800793          	li	a5,152
ffffffc050403118:	02f687b3          	mul	a5,a3,a5
ffffffc05040311c:	97ba                	add	a5,a5,a4
ffffffc05040311e:	6b9c                	ld	a5,16(a5)
ffffffc050403120:	faf43823          	sd	a5,-80(s0)
ffffffc050403124:	fb043703          	ld	a4,-80(s0)
ffffffc050403128:	57fd                	li	a5,-1
ffffffc05040312a:	83d1                	srli	a5,a5,0x14
ffffffc05040312c:	8ff9                	and	a5,a5,a4
ffffffc05040312e:	faf43423          	sd	a5,-88(s0)
ffffffc050403132:	00064717          	auipc	a4,0x64
ffffffc050403136:	16e70713          	addi	a4,a4,366 # ffffffc0504672a0 <pcb>
ffffffc05040313a:	fcc42683          	lw	a3,-52(s0)
ffffffc05040313e:	09800793          	li	a5,152
ffffffc050403142:	02f687b3          	mul	a5,a3,a5
ffffffc050403146:	97ba                	add	a5,a5,a4
ffffffc050403148:	5fbc                	lw	a5,120(a5)
ffffffc05040314a:	e789                	bnez	a5,ffffffc050403154 <do_scheduler+0x3e8>
ffffffc05040314c:	fa843503          	ld	a0,-88(s0)
ffffffc050403150:	147010ef          	jal	ra,ffffffc050404a96 <freePage>
ffffffc050403154:	00064717          	auipc	a4,0x64
ffffffc050403158:	14c70713          	addi	a4,a4,332 # ffffffc0504672a0 <pcb>
ffffffc05040315c:	fcc42683          	lw	a3,-52(s0)
ffffffc050403160:	09800793          	li	a5,152
ffffffc050403164:	02f687b3          	mul	a5,a3,a5
ffffffc050403168:	97ba                	add	a5,a5,a4
ffffffc05040316a:	0607aa23          	sw	zero,116(a5)
ffffffc05040316e:	fcc42783          	lw	a5,-52(s0)
ffffffc050403172:	2785                	addiw	a5,a5,1
ffffffc050403174:	fcf42623          	sw	a5,-52(s0)
ffffffc050403178:	fcc42783          	lw	a5,-52(s0)
ffffffc05040317c:	0007871b          	sext.w	a4,a5
ffffffc050403180:	47bd                	li	a5,15
ffffffc050403182:	f0e7d2e3          	bge	a5,a4,ffffffc050403086 <do_scheduler+0x31a>
ffffffc050403186:	fe843783          	ld	a5,-24(s0)
ffffffc05040318a:	4705                	li	a4,1
ffffffc05040318c:	08e7a023          	sw	a4,128(a5)
ffffffc050403190:	fe843783          	ld	a5,-24(s0)
ffffffc050403194:	fc043703          	ld	a4,-64(s0)
ffffffc050403198:	ebb8                	sd	a4,80(a5)
ffffffc05040319a:	00064717          	auipc	a4,0x64
ffffffc05040319e:	00670713          	addi	a4,a4,6 # ffffffc0504671a0 <current_running>
ffffffc0504031a2:	fc043783          	ld	a5,-64(s0)
ffffffc0504031a6:	078e                	slli	a5,a5,0x3
ffffffc0504031a8:	97ba                	add	a5,a5,a4
ffffffc0504031aa:	fe843703          	ld	a4,-24(s0)
ffffffc0504031ae:	e398                	sd	a4,0(a5)
ffffffc0504031b0:	fe843583          	ld	a1,-24(s0)
ffffffc0504031b4:	fb843503          	ld	a0,-72(s0)
ffffffc0504031b8:	efdfc0ef          	jal	ra,ffffffc0504000b4 <switch_to>
ffffffc0504031bc:	0001                	nop
ffffffc0504031be:	60e6                	ld	ra,88(sp)
ffffffc0504031c0:	6446                	ld	s0,80(sp)
ffffffc0504031c2:	6125                	addi	sp,sp,96
ffffffc0504031c4:	8082                	ret

ffffffc0504031c6 <do_sleep>:
ffffffc0504031c6:	7179                	addi	sp,sp,-48
ffffffc0504031c8:	f406                	sd	ra,40(sp)
ffffffc0504031ca:	f022                	sd	s0,32(sp)
ffffffc0504031cc:	1800                	addi	s0,sp,48
ffffffc0504031ce:	87aa                	mv	a5,a0
ffffffc0504031d0:	fcf42e23          	sw	a5,-36(s0)
ffffffc0504031d4:	8f4fd0ef          	jal	ra,ffffffc0504002c8 <get_current_cpu_id>
ffffffc0504031d8:	87aa                	mv	a5,a0
ffffffc0504031da:	fef43423          	sd	a5,-24(s0)
ffffffc0504031de:	88018793          	addi	a5,gp,-1920 # ffffffc050464d00 <time_base>
ffffffc0504031e2:	439c                	lw	a5,0(a5)
ffffffc0504031e4:	fdc42703          	lw	a4,-36(s0)
ffffffc0504031e8:	02f707bb          	mulw	a5,a4,a5
ffffffc0504031ec:	2781                	sext.w	a5,a5
ffffffc0504031ee:	1782                	slli	a5,a5,0x20
ffffffc0504031f0:	9381                	srli	a5,a5,0x20
ffffffc0504031f2:	853e                	mv	a0,a5
ffffffc0504031f4:	02e000ef          	jal	ra,ffffffc050403222 <create_timer>
ffffffc0504031f8:	00064717          	auipc	a4,0x64
ffffffc0504031fc:	fa870713          	addi	a4,a4,-88 # ffffffc0504671a0 <current_running>
ffffffc050403200:	fe843783          	ld	a5,-24(s0)
ffffffc050403204:	078e                	slli	a5,a5,0x3
ffffffc050403206:	97ba                	add	a5,a5,a4
ffffffc050403208:	639c                	ld	a5,0(a5)
ffffffc05040320a:	00004597          	auipc	a1,0x4
ffffffc05040320e:	b3e58593          	addi	a1,a1,-1218 # ffffffc050406d48 <sleep_queue>
ffffffc050403212:	853e                	mv	a0,a5
ffffffc050403214:	0c0000ef          	jal	ra,ffffffc0504032d4 <do_block>
ffffffc050403218:	0001                	nop
ffffffc05040321a:	70a2                	ld	ra,40(sp)
ffffffc05040321c:	7402                	ld	s0,32(sp)
ffffffc05040321e:	6145                	addi	sp,sp,48
ffffffc050403220:	8082                	ret

ffffffc050403222 <create_timer>:
ffffffc050403222:	7179                	addi	sp,sp,-48
ffffffc050403224:	f406                	sd	ra,40(sp)
ffffffc050403226:	f022                	sd	s0,32(sp)
ffffffc050403228:	1800                	addi	s0,sp,48
ffffffc05040322a:	fca43c23          	sd	a0,-40(s0)
ffffffc05040322e:	89afd0ef          	jal	ra,ffffffc0504002c8 <get_current_cpu_id>
ffffffc050403232:	87aa                	mv	a5,a0
ffffffc050403234:	fef43423          	sd	a5,-24(s0)
ffffffc050403238:	07e010ef          	jal	ra,ffffffc0504042b6 <get_ticks>
ffffffc05040323c:	86aa                	mv	a3,a0
ffffffc05040323e:	00064717          	auipc	a4,0x64
ffffffc050403242:	f6270713          	addi	a4,a4,-158 # ffffffc0504671a0 <current_running>
ffffffc050403246:	fe843783          	ld	a5,-24(s0)
ffffffc05040324a:	078e                	slli	a5,a5,0x3
ffffffc05040324c:	97ba                	add	a5,a5,a4
ffffffc05040324e:	639c                	ld	a5,0(a5)
ffffffc050403250:	fd843703          	ld	a4,-40(s0)
ffffffc050403254:	9736                	add	a4,a4,a3
ffffffc050403256:	e7d8                	sd	a4,136(a5)
ffffffc050403258:	0001                	nop
ffffffc05040325a:	70a2                	ld	ra,40(sp)
ffffffc05040325c:	7402                	ld	s0,32(sp)
ffffffc05040325e:	6145                	addi	sp,sp,48
ffffffc050403260:	8082                	ret

ffffffc050403262 <time_check>:
ffffffc050403262:	1101                	addi	sp,sp,-32
ffffffc050403264:	ec06                	sd	ra,24(sp)
ffffffc050403266:	e822                	sd	s0,16(sp)
ffffffc050403268:	1000                	addi	s0,sp,32
ffffffc05040326a:	00004797          	auipc	a5,0x4
ffffffc05040326e:	ade78793          	addi	a5,a5,-1314 # ffffffc050406d48 <sleep_queue>
ffffffc050403272:	679c                	ld	a5,8(a5)
ffffffc050403274:	fef43423          	sd	a5,-24(s0)
ffffffc050403278:	a081                	j	ffffffc0504032b8 <time_check+0x56>
ffffffc05040327a:	fe843503          	ld	a0,-24(s0)
ffffffc05040327e:	9dbff0ef          	jal	ra,ffffffc050402c58 <pcb_addr>
ffffffc050403282:	fea43023          	sd	a0,-32(s0)
ffffffc050403286:	030010ef          	jal	ra,ffffffc0504042b6 <get_ticks>
ffffffc05040328a:	872a                	mv	a4,a0
ffffffc05040328c:	fe043783          	ld	a5,-32(s0)
ffffffc050403290:	67dc                	ld	a5,136(a5)
ffffffc050403292:	00f76e63          	bltu	a4,a5,ffffffc0504032ae <time_check+0x4c>
ffffffc050403296:	fe843783          	ld	a5,-24(s0)
ffffffc05040329a:	679c                	ld	a5,8(a5)
ffffffc05040329c:	fef43423          	sd	a5,-24(s0)
ffffffc0504032a0:	fe043783          	ld	a5,-32(s0)
ffffffc0504032a4:	07e1                	addi	a5,a5,24
ffffffc0504032a6:	853e                	mv	a0,a5
ffffffc0504032a8:	09c000ef          	jal	ra,ffffffc050403344 <do_unblock>
ffffffc0504032ac:	a031                	j	ffffffc0504032b8 <time_check+0x56>
ffffffc0504032ae:	fe843783          	ld	a5,-24(s0)
ffffffc0504032b2:	679c                	ld	a5,8(a5)
ffffffc0504032b4:	fef43423          	sd	a5,-24(s0)
ffffffc0504032b8:	fe843703          	ld	a4,-24(s0)
ffffffc0504032bc:	00004797          	auipc	a5,0x4
ffffffc0504032c0:	a8c78793          	addi	a5,a5,-1396 # ffffffc050406d48 <sleep_queue>
ffffffc0504032c4:	faf71be3          	bne	a4,a5,ffffffc05040327a <time_check+0x18>
ffffffc0504032c8:	0001                	nop
ffffffc0504032ca:	0001                	nop
ffffffc0504032cc:	60e2                	ld	ra,24(sp)
ffffffc0504032ce:	6442                	ld	s0,16(sp)
ffffffc0504032d0:	6105                	addi	sp,sp,32
ffffffc0504032d2:	8082                	ret

ffffffc0504032d4 <do_block>:
ffffffc0504032d4:	7179                	addi	sp,sp,-48
ffffffc0504032d6:	f406                	sd	ra,40(sp)
ffffffc0504032d8:	f022                	sd	s0,32(sp)
ffffffc0504032da:	1800                	addi	s0,sp,48
ffffffc0504032dc:	fca43c23          	sd	a0,-40(s0)
ffffffc0504032e0:	fcb43823          	sd	a1,-48(s0)
ffffffc0504032e4:	fe5fc0ef          	jal	ra,ffffffc0504002c8 <get_current_cpu_id>
ffffffc0504032e8:	87aa                	mv	a5,a0
ffffffc0504032ea:	fef43423          	sd	a5,-24(s0)
ffffffc0504032ee:	00064717          	auipc	a4,0x64
ffffffc0504032f2:	eb270713          	addi	a4,a4,-334 # ffffffc0504671a0 <current_running>
ffffffc0504032f6:	fe843783          	ld	a5,-24(s0)
ffffffc0504032fa:	078e                	slli	a5,a5,0x3
ffffffc0504032fc:	97ba                	add	a5,a5,a4
ffffffc0504032fe:	639c                	ld	a5,0(a5)
ffffffc050403300:	0807a783          	lw	a5,128(a5)
ffffffc050403304:	873e                	mv	a4,a5
ffffffc050403306:	4785                	li	a5,1
ffffffc050403308:	00f71663          	bne	a4,a5,ffffffc050403314 <do_block+0x40>
ffffffc05040330c:	fd843503          	ld	a0,-40(s0)
ffffffc050403310:	927ff0ef          	jal	ra,ffffffc050402c36 <out_queue>
ffffffc050403314:	00064717          	auipc	a4,0x64
ffffffc050403318:	e8c70713          	addi	a4,a4,-372 # ffffffc0504671a0 <current_running>
ffffffc05040331c:	fe843783          	ld	a5,-24(s0)
ffffffc050403320:	078e                	slli	a5,a5,0x3
ffffffc050403322:	97ba                	add	a5,a5,a4
ffffffc050403324:	639c                	ld	a5,0(a5)
ffffffc050403326:	0807a023          	sw	zero,128(a5)
ffffffc05040332a:	fd843583          	ld	a1,-40(s0)
ffffffc05040332e:	fd043503          	ld	a0,-48(s0)
ffffffc050403332:	8dbff0ef          	jal	ra,ffffffc050402c0c <in_queue>
ffffffc050403336:	a37ff0ef          	jal	ra,ffffffc050402d6c <do_scheduler>
ffffffc05040333a:	0001                	nop
ffffffc05040333c:	70a2                	ld	ra,40(sp)
ffffffc05040333e:	7402                	ld	s0,32(sp)
ffffffc050403340:	6145                	addi	sp,sp,48
ffffffc050403342:	8082                	ret

ffffffc050403344 <do_unblock>:
ffffffc050403344:	7179                	addi	sp,sp,-48
ffffffc050403346:	f406                	sd	ra,40(sp)
ffffffc050403348:	f022                	sd	s0,32(sp)
ffffffc05040334a:	1800                	addi	s0,sp,48
ffffffc05040334c:	fca43c23          	sd	a0,-40(s0)
ffffffc050403350:	fd843503          	ld	a0,-40(s0)
ffffffc050403354:	905ff0ef          	jal	ra,ffffffc050402c58 <pcb_addr>
ffffffc050403358:	fea43423          	sd	a0,-24(s0)
ffffffc05040335c:	fe843783          	ld	a5,-24(s0)
ffffffc050403360:	4709                	li	a4,2
ffffffc050403362:	08e7a023          	sw	a4,128(a5)
ffffffc050403366:	fe843503          	ld	a0,-24(s0)
ffffffc05040336a:	8cdff0ef          	jal	ra,ffffffc050402c36 <out_queue>
ffffffc05040336e:	fe843583          	ld	a1,-24(s0)
ffffffc050403372:	00064517          	auipc	a0,0x64
ffffffc050403376:	e1e50513          	addi	a0,a0,-482 # ffffffc050467190 <ready_queue>
ffffffc05040337a:	893ff0ef          	jal	ra,ffffffc050402c0c <in_queue>
ffffffc05040337e:	0001                	nop
ffffffc050403380:	70a2                	ld	ra,40(sp)
ffffffc050403382:	7402                	ld	s0,32(sp)
ffffffc050403384:	6145                	addi	sp,sp,48
ffffffc050403386:	8082                	ret

ffffffc050403388 <do_fork>:
ffffffc050403388:	715d                	addi	sp,sp,-80
ffffffc05040338a:	e486                	sd	ra,72(sp)
ffffffc05040338c:	e0a2                	sd	s0,64(sp)
ffffffc05040338e:	0880                	addi	s0,sp,80
ffffffc050403390:	f39fc0ef          	jal	ra,ffffffc0504002c8 <get_current_cpu_id>
ffffffc050403394:	87aa                	mv	a5,a0
ffffffc050403396:	fef43023          	sd	a5,-32(s0)
ffffffc05040339a:	fe042623          	sw	zero,-20(s0)
ffffffc05040339e:	a01d                	j	ffffffc0504033c4 <do_fork+0x3c>
ffffffc0504033a0:	00064717          	auipc	a4,0x64
ffffffc0504033a4:	f0070713          	addi	a4,a4,-256 # ffffffc0504672a0 <pcb>
ffffffc0504033a8:	fec42683          	lw	a3,-20(s0)
ffffffc0504033ac:	09800793          	li	a5,152
ffffffc0504033b0:	02f687b3          	mul	a5,a3,a5
ffffffc0504033b4:	97ba                	add	a5,a5,a4
ffffffc0504033b6:	47bc                	lw	a5,72(a5)
ffffffc0504033b8:	cf91                	beqz	a5,ffffffc0504033d4 <do_fork+0x4c>
ffffffc0504033ba:	fec42783          	lw	a5,-20(s0)
ffffffc0504033be:	2785                	addiw	a5,a5,1
ffffffc0504033c0:	fef42623          	sw	a5,-20(s0)
ffffffc0504033c4:	fec42783          	lw	a5,-20(s0)
ffffffc0504033c8:	0007871b          	sext.w	a4,a5
ffffffc0504033cc:	47bd                	li	a5,15
ffffffc0504033ce:	fce7d9e3          	bge	a5,a4,ffffffc0504033a0 <do_fork+0x18>
ffffffc0504033d2:	a011                	j	ffffffc0504033d6 <do_fork+0x4e>
ffffffc0504033d4:	0001                	nop
ffffffc0504033d6:	fec42783          	lw	a5,-20(s0)
ffffffc0504033da:	0007871b          	sext.w	a4,a5
ffffffc0504033de:	47bd                	li	a5,15
ffffffc0504033e0:	00e7de63          	bge	a5,a4,ffffffc0504033fc <do_fork+0x74>
ffffffc0504033e4:	00062617          	auipc	a2,0x62
ffffffc0504033e8:	8ac60613          	addi	a2,a2,-1876 # ffffffc050464c90 <__FUNCTION__.1633>
ffffffc0504033ec:	14000593          	li	a1,320
ffffffc0504033f0:	00003517          	auipc	a0,0x3
ffffffc0504033f4:	5c050513          	addi	a0,a0,1472 # ffffffc0504069b0 <get_elf_file+0x244>
ffffffc0504033f8:	f32ff0ef          	jal	ra,ffffffc050402b2a <_panic>
ffffffc0504033fc:	00064717          	auipc	a4,0x64
ffffffc050403400:	da470713          	addi	a4,a4,-604 # ffffffc0504671a0 <current_running>
ffffffc050403404:	fe043783          	ld	a5,-32(s0)
ffffffc050403408:	078e                	slli	a5,a5,0x3
ffffffc05040340a:	97ba                	add	a5,a5,a4
ffffffc05040340c:	6390                	ld	a2,0(a5)
ffffffc05040340e:	00064717          	auipc	a4,0x64
ffffffc050403412:	e9270713          	addi	a4,a4,-366 # ffffffc0504672a0 <pcb>
ffffffc050403416:	fec42683          	lw	a3,-20(s0)
ffffffc05040341a:	09800793          	li	a5,152
ffffffc05040341e:	02f687b3          	mul	a5,a3,a5
ffffffc050403422:	97ba                	add	a5,a5,a4
ffffffc050403424:	873e                	mv	a4,a5
ffffffc050403426:	86b2                	mv	a3,a2
ffffffc050403428:	09800793          	li	a5,152
ffffffc05040342c:	863e                	mv	a2,a5
ffffffc05040342e:	85b6                	mv	a1,a3
ffffffc050403430:	853a                	mv	a0,a4
ffffffc050403432:	04f020ef          	jal	ra,ffffffc050405c80 <memcpy>
ffffffc050403436:	6b6020ef          	jal	ra,ffffffc050405aec <create_pt>
ffffffc05040343a:	fca43c23          	sd	a0,-40(s0)
ffffffc05040343e:	5e0005b7          	lui	a1,0x5e000
ffffffc050403442:	fd843503          	ld	a0,-40(s0)
ffffffc050403446:	2cc020ef          	jal	ra,ffffffc050405712 <share_pgtable>
ffffffc05040344a:	00064717          	auipc	a4,0x64
ffffffc05040344e:	d5670713          	addi	a4,a4,-682 # ffffffc0504671a0 <current_running>
ffffffc050403452:	fe043783          	ld	a5,-32(s0)
ffffffc050403456:	078e                	slli	a5,a5,0x3
ffffffc050403458:	97ba                	add	a5,a5,a4
ffffffc05040345a:	639c                	ld	a5,0(a5)
ffffffc05040345c:	6b9c                	ld	a5,16(a5)
ffffffc05040345e:	fcf43823          	sd	a5,-48(s0)
ffffffc050403462:	fd043783          	ld	a5,-48(s0)
ffffffc050403466:	00c79713          	slli	a4,a5,0xc
ffffffc05040346a:	fff007b7          	lui	a5,0xfff00
ffffffc05040346e:	83a1                	srli	a5,a5,0x8
ffffffc050403470:	8ff9                	and	a5,a5,a4
ffffffc050403472:	fcf43423          	sd	a5,-56(s0)
ffffffc050403476:	fc843583          	ld	a1,-56(s0)
ffffffc05040347a:	fd843503          	ld	a0,-40(s0)
ffffffc05040347e:	053010ef          	jal	ra,ffffffc050404cd0 <fork_mem>
ffffffc050403482:	4581                	li	a1,0
ffffffc050403484:	4505                	li	a0,1
ffffffc050403486:	36e010ef          	jal	ra,ffffffc0504047f4 <allocPage>
ffffffc05040348a:	87aa                	mv	a5,a0
ffffffc05040348c:	853e                	mv	a0,a5
ffffffc05040348e:	e80ff0ef          	jal	ra,ffffffc050402b0e <pa2kva>
ffffffc050403492:	fca43023          	sd	a0,-64(s0)
ffffffc050403496:	fc043703          	ld	a4,-64(s0)
ffffffc05040349a:	6785                	lui	a5,0x1
ffffffc05040349c:	973e                	add	a4,a4,a5
ffffffc05040349e:	00064697          	auipc	a3,0x64
ffffffc0504034a2:	e0268693          	addi	a3,a3,-510 # ffffffc0504672a0 <pcb>
ffffffc0504034a6:	fec42603          	lw	a2,-20(s0)
ffffffc0504034aa:	09800793          	li	a5,152
ffffffc0504034ae:	02f607b3          	mul	a5,a2,a5
ffffffc0504034b2:	97b6                	add	a5,a5,a3
ffffffc0504034b4:	e398                	sd	a4,0(a5)
ffffffc0504034b6:	00064717          	auipc	a4,0x64
ffffffc0504034ba:	dea70713          	addi	a4,a4,-534 # ffffffc0504672a0 <pcb>
ffffffc0504034be:	fec42683          	lw	a3,-20(s0)
ffffffc0504034c2:	09800793          	li	a5,152
ffffffc0504034c6:	02f687b3          	mul	a5,a3,a5
ffffffc0504034ca:	97ba                	add	a5,a5,a4
ffffffc0504034cc:	4709                	li	a4,2
ffffffc0504034ce:	08e7a023          	sw	a4,128(a5) # 1080 <_start-0xffffffc0503fef80>
ffffffc0504034d2:	fec42783          	lw	a5,-20(s0)
ffffffc0504034d6:	2785                	addiw	a5,a5,1
ffffffc0504034d8:	0007871b          	sext.w	a4,a5
ffffffc0504034dc:	00064697          	auipc	a3,0x64
ffffffc0504034e0:	dc468693          	addi	a3,a3,-572 # ffffffc0504672a0 <pcb>
ffffffc0504034e4:	fec42603          	lw	a2,-20(s0)
ffffffc0504034e8:	09800793          	li	a5,152
ffffffc0504034ec:	02f607b3          	mul	a5,a2,a5
ffffffc0504034f0:	97b6                	add	a5,a5,a3
ffffffc0504034f2:	c7b8                	sw	a4,72(a5)
ffffffc0504034f4:	00064717          	auipc	a4,0x64
ffffffc0504034f8:	dac70713          	addi	a4,a4,-596 # ffffffc0504672a0 <pcb>
ffffffc0504034fc:	fec42683          	lw	a3,-20(s0)
ffffffc050403500:	09800793          	li	a5,152
ffffffc050403504:	02f687b3          	mul	a5,a3,a5
ffffffc050403508:	97ba                	add	a5,a5,a4
ffffffc05040350a:	47bc                	lw	a5,72(a5)
ffffffc05040350c:	02c79713          	slli	a4,a5,0x2c
ffffffc050403510:	fd843783          	ld	a5,-40(s0)
ffffffc050403514:	83b1                	srli	a5,a5,0xc
ffffffc050403516:	8f5d                	or	a4,a4,a5
ffffffc050403518:	57fd                	li	a5,-1
ffffffc05040351a:	17fe                	slli	a5,a5,0x3f
ffffffc05040351c:	8f5d                	or	a4,a4,a5
ffffffc05040351e:	00064697          	auipc	a3,0x64
ffffffc050403522:	d8268693          	addi	a3,a3,-638 # ffffffc0504672a0 <pcb>
ffffffc050403526:	fec42603          	lw	a2,-20(s0)
ffffffc05040352a:	09800793          	li	a5,152
ffffffc05040352e:	02f607b3          	mul	a5,a2,a5
ffffffc050403532:	97b6                	add	a5,a5,a3
ffffffc050403534:	eb98                	sd	a4,16(a5)
ffffffc050403536:	fec42703          	lw	a4,-20(s0)
ffffffc05040353a:	09800793          	li	a5,152
ffffffc05040353e:	02f707b3          	mul	a5,a4,a5
ffffffc050403542:	02078713          	addi	a4,a5,32
ffffffc050403546:	00064797          	auipc	a5,0x64
ffffffc05040354a:	d5a78793          	addi	a5,a5,-678 # ffffffc0504672a0 <pcb>
ffffffc05040354e:	97ba                	add	a5,a5,a4
ffffffc050403550:	07a1                	addi	a5,a5,8
ffffffc050403552:	853e                	mv	a0,a5
ffffffc050403554:	e08ff0ef          	jal	ra,ffffffc050402b5c <list_init>
ffffffc050403558:	00064717          	auipc	a4,0x64
ffffffc05040355c:	d4870713          	addi	a4,a4,-696 # ffffffc0504672a0 <pcb>
ffffffc050403560:	fec42683          	lw	a3,-20(s0)
ffffffc050403564:	09800793          	li	a5,152
ffffffc050403568:	02f687b3          	mul	a5,a3,a5
ffffffc05040356c:	97ba                	add	a5,a5,a4
ffffffc05040356e:	6398                	ld	a4,0(a5)
ffffffc050403570:	77fd                	lui	a5,0xfffff
ffffffc050403572:	97ba                	add	a5,a5,a4
ffffffc050403574:	86be                	mv	a3,a5
ffffffc050403576:	00064717          	auipc	a4,0x64
ffffffc05040357a:	c2a70713          	addi	a4,a4,-982 # ffffffc0504671a0 <current_running>
ffffffc05040357e:	fe043783          	ld	a5,-32(s0)
ffffffc050403582:	078e                	slli	a5,a5,0x3
ffffffc050403584:	97ba                	add	a5,a5,a4
ffffffc050403586:	639c                	ld	a5,0(a5)
ffffffc050403588:	6398                	ld	a4,0(a5)
ffffffc05040358a:	77fd                	lui	a5,0xfffff
ffffffc05040358c:	19078793          	addi	a5,a5,400 # fffffffffffff190 <__BSS_END__+0x3fafb95fe8>
ffffffc050403590:	97ba                	add	a5,a5,a4
ffffffc050403592:	6605                	lui	a2,0x1
ffffffc050403594:	85be                	mv	a1,a5
ffffffc050403596:	8536                	mv	a0,a3
ffffffc050403598:	6e8020ef          	jal	ra,ffffffc050405c80 <memcpy>
ffffffc05040359c:	00064717          	auipc	a4,0x64
ffffffc0504035a0:	d0470713          	addi	a4,a4,-764 # ffffffc0504672a0 <pcb>
ffffffc0504035a4:	fec42683          	lw	a3,-20(s0)
ffffffc0504035a8:	09800793          	li	a5,152
ffffffc0504035ac:	02f687b3          	mul	a5,a3,a5
ffffffc0504035b0:	97ba                	add	a5,a5,a4
ffffffc0504035b2:	639c                	ld	a5,0(a5)
ffffffc0504035b4:	ee078793          	addi	a5,a5,-288
ffffffc0504035b8:	faf43c23          	sd	a5,-72(s0)
ffffffc0504035bc:	fec42703          	lw	a4,-20(s0)
ffffffc0504035c0:	09800793          	li	a5,152
ffffffc0504035c4:	02f70733          	mul	a4,a4,a5
ffffffc0504035c8:	00064797          	auipc	a5,0x64
ffffffc0504035cc:	cd878793          	addi	a5,a5,-808 # ffffffc0504672a0 <pcb>
ffffffc0504035d0:	97ba                	add	a5,a5,a4
ffffffc0504035d2:	873e                	mv	a4,a5
ffffffc0504035d4:	fb843783          	ld	a5,-72(s0)
ffffffc0504035d8:	f398                	sd	a4,32(a5)
ffffffc0504035da:	fb843783          	ld	a5,-72(s0)
ffffffc0504035de:	0407b823          	sd	zero,80(a5)
ffffffc0504035e2:	00064717          	auipc	a4,0x64
ffffffc0504035e6:	cbe70713          	addi	a4,a4,-834 # ffffffc0504672a0 <pcb>
ffffffc0504035ea:	fec42683          	lw	a3,-20(s0)
ffffffc0504035ee:	09800793          	li	a5,152
ffffffc0504035f2:	02f687b3          	mul	a5,a3,a5
ffffffc0504035f6:	97ba                	add	a5,a5,a4
ffffffc0504035f8:	639c                	ld	a5,0(a5)
ffffffc0504035fa:	e7078713          	addi	a4,a5,-400
ffffffc0504035fe:	00064697          	auipc	a3,0x64
ffffffc050403602:	ca268693          	addi	a3,a3,-862 # ffffffc0504672a0 <pcb>
ffffffc050403606:	fec42603          	lw	a2,-20(s0)
ffffffc05040360a:	09800793          	li	a5,152
ffffffc05040360e:	02f607b3          	mul	a5,a2,a5
ffffffc050403612:	97b6                	add	a5,a5,a3
ffffffc050403614:	e398                	sd	a4,0(a5)
ffffffc050403616:	00064717          	auipc	a4,0x64
ffffffc05040361a:	c8a70713          	addi	a4,a4,-886 # ffffffc0504672a0 <pcb>
ffffffc05040361e:	fec42683          	lw	a3,-20(s0)
ffffffc050403622:	09800793          	li	a5,152
ffffffc050403626:	02f687b3          	mul	a5,a3,a5
ffffffc05040362a:	97ba                	add	a5,a5,a4
ffffffc05040362c:	639c                	ld	a5,0(a5)
ffffffc05040362e:	faf43823          	sd	a5,-80(s0)
ffffffc050403632:	ffffd717          	auipc	a4,0xffffd
ffffffc050403636:	b0a70713          	addi	a4,a4,-1270 # ffffffc05040013c <ret_from_exception>
ffffffc05040363a:	fb043783          	ld	a5,-80(s0)
ffffffc05040363e:	e398                	sd	a4,0(a5)
ffffffc050403640:	00064717          	auipc	a4,0x64
ffffffc050403644:	c6070713          	addi	a4,a4,-928 # ffffffc0504672a0 <pcb>
ffffffc050403648:	fec42683          	lw	a3,-20(s0)
ffffffc05040364c:	09800793          	li	a5,152
ffffffc050403650:	02f687b3          	mul	a5,a3,a5
ffffffc050403654:	97ba                	add	a5,a5,a4
ffffffc050403656:	6398                	ld	a4,0(a5)
ffffffc050403658:	fb043783          	ld	a5,-80(s0)
ffffffc05040365c:	e798                	sd	a4,8(a5)
ffffffc05040365e:	fec42703          	lw	a4,-20(s0)
ffffffc050403662:	09800793          	li	a5,152
ffffffc050403666:	02f70733          	mul	a4,a4,a5
ffffffc05040366a:	00064797          	auipc	a5,0x64
ffffffc05040366e:	c3678793          	addi	a5,a5,-970 # ffffffc0504672a0 <pcb>
ffffffc050403672:	97ba                	add	a5,a5,a4
ffffffc050403674:	85be                	mv	a1,a5
ffffffc050403676:	00064517          	auipc	a0,0x64
ffffffc05040367a:	b1a50513          	addi	a0,a0,-1254 # ffffffc050467190 <ready_queue>
ffffffc05040367e:	d8eff0ef          	jal	ra,ffffffc050402c0c <in_queue>
ffffffc050403682:	00064717          	auipc	a4,0x64
ffffffc050403686:	c1e70713          	addi	a4,a4,-994 # ffffffc0504672a0 <pcb>
ffffffc05040368a:	fec42683          	lw	a3,-20(s0)
ffffffc05040368e:	09800793          	li	a5,152
ffffffc050403692:	02f687b3          	mul	a5,a3,a5
ffffffc050403696:	97ba                	add	a5,a5,a4
ffffffc050403698:	47bc                	lw	a5,72(a5)
ffffffc05040369a:	853e                	mv	a0,a5
ffffffc05040369c:	60a6                	ld	ra,72(sp)
ffffffc05040369e:	6406                	ld	s0,64(sp)
ffffffc0504036a0:	6161                	addi	sp,sp,80
ffffffc0504036a2:	8082                	ret

ffffffc0504036a4 <trans>:
ffffffc0504036a4:	1101                	addi	sp,sp,-32
ffffffc0504036a6:	ec22                	sd	s0,24(sp)
ffffffc0504036a8:	1000                	addi	s0,sp,32
ffffffc0504036aa:	87aa                	mv	a5,a0
ffffffc0504036ac:	fef42623          	sw	a5,-20(s0)
ffffffc0504036b0:	fec42783          	lw	a5,-20(s0)
ffffffc0504036b4:	0007871b          	sext.w	a4,a5
ffffffc0504036b8:	4791                	li	a5,4
ffffffc0504036ba:	04e7ed63          	bltu	a5,a4,ffffffc050403714 <trans+0x70>
ffffffc0504036be:	fec46783          	lwu	a5,-20(s0)
ffffffc0504036c2:	00279713          	slli	a4,a5,0x2
ffffffc0504036c6:	00003797          	auipc	a5,0x3
ffffffc0504036ca:	36278793          	addi	a5,a5,866 # ffffffc050406a28 <get_elf_file+0x2bc>
ffffffc0504036ce:	97ba                	add	a5,a5,a4
ffffffc0504036d0:	439c                	lw	a5,0(a5)
ffffffc0504036d2:	0007871b          	sext.w	a4,a5
ffffffc0504036d6:	00003797          	auipc	a5,0x3
ffffffc0504036da:	35278793          	addi	a5,a5,850 # ffffffc050406a28 <get_elf_file+0x2bc>
ffffffc0504036de:	97ba                	add	a5,a5,a4
ffffffc0504036e0:	8782                	jr	a5
ffffffc0504036e2:	00003797          	auipc	a5,0x3
ffffffc0504036e6:	2e678793          	addi	a5,a5,742 # ffffffc0504069c8 <get_elf_file+0x25c>
ffffffc0504036ea:	a80d                	j	ffffffc05040371c <trans+0x78>
ffffffc0504036ec:	00003797          	auipc	a5,0x3
ffffffc0504036f0:	2ec78793          	addi	a5,a5,748 # ffffffc0504069d8 <get_elf_file+0x26c>
ffffffc0504036f4:	a025                	j	ffffffc05040371c <trans+0x78>
ffffffc0504036f6:	00003797          	auipc	a5,0x3
ffffffc0504036fa:	2f278793          	addi	a5,a5,754 # ffffffc0504069e8 <get_elf_file+0x27c>
ffffffc0504036fe:	a839                	j	ffffffc05040371c <trans+0x78>
ffffffc050403700:	00003797          	auipc	a5,0x3
ffffffc050403704:	2f878793          	addi	a5,a5,760 # ffffffc0504069f8 <get_elf_file+0x28c>
ffffffc050403708:	a811                	j	ffffffc05040371c <trans+0x78>
ffffffc05040370a:	00003797          	auipc	a5,0x3
ffffffc05040370e:	2fe78793          	addi	a5,a5,766 # ffffffc050406a08 <get_elf_file+0x29c>
ffffffc050403712:	a029                	j	ffffffc05040371c <trans+0x78>
ffffffc050403714:	00003797          	auipc	a5,0x3
ffffffc050403718:	30478793          	addi	a5,a5,772 # ffffffc050406a18 <get_elf_file+0x2ac>
ffffffc05040371c:	853e                	mv	a0,a5
ffffffc05040371e:	6462                	ld	s0,24(sp)
ffffffc050403720:	6105                	addi	sp,sp,32
ffffffc050403722:	8082                	ret

ffffffc050403724 <do_process_show>:
ffffffc050403724:	7179                	addi	sp,sp,-48
ffffffc050403726:	f406                	sd	ra,40(sp)
ffffffc050403728:	f022                	sd	s0,32(sp)
ffffffc05040372a:	ec26                	sd	s1,24(sp)
ffffffc05040372c:	e84a                	sd	s2,16(sp)
ffffffc05040372e:	1800                	addi	s0,sp,48
ffffffc050403730:	00003517          	auipc	a0,0x3
ffffffc050403734:	31050513          	addi	a0,a0,784 # ffffffc050406a40 <get_elf_file+0x2d4>
ffffffc050403738:	7dd020ef          	jal	ra,ffffffc050406714 <prints>
ffffffc05040373c:	fc042e23          	sw	zero,-36(s0)
ffffffc050403740:	a0fd                	j	ffffffc05040382e <do_process_show+0x10a>
ffffffc050403742:	00064717          	auipc	a4,0x64
ffffffc050403746:	b5e70713          	addi	a4,a4,-1186 # ffffffc0504672a0 <pcb>
ffffffc05040374a:	fdc42683          	lw	a3,-36(s0)
ffffffc05040374e:	09800793          	li	a5,152
ffffffc050403752:	02f687b3          	mul	a5,a3,a5
ffffffc050403756:	97ba                	add	a5,a5,a4
ffffffc050403758:	47bc                	lw	a5,72(a5)
ffffffc05040375a:	c7e9                	beqz	a5,ffffffc050403824 <do_process_show+0x100>
ffffffc05040375c:	fdc42783          	lw	a5,-36(s0)
ffffffc050403760:	2785                	addiw	a5,a5,1
ffffffc050403762:	0007849b          	sext.w	s1,a5
ffffffc050403766:	00064717          	auipc	a4,0x64
ffffffc05040376a:	b3a70713          	addi	a4,a4,-1222 # ffffffc0504672a0 <pcb>
ffffffc05040376e:	fdc42683          	lw	a3,-36(s0)
ffffffc050403772:	09800793          	li	a5,152
ffffffc050403776:	02f687b3          	mul	a5,a3,a5
ffffffc05040377a:	97ba                	add	a5,a5,a4
ffffffc05040377c:	0487a903          	lw	s2,72(a5)
ffffffc050403780:	00064717          	auipc	a4,0x64
ffffffc050403784:	b2070713          	addi	a4,a4,-1248 # ffffffc0504672a0 <pcb>
ffffffc050403788:	fdc42683          	lw	a3,-36(s0)
ffffffc05040378c:	09800793          	li	a5,152
ffffffc050403790:	02f687b3          	mul	a5,a3,a5
ffffffc050403794:	97ba                	add	a5,a5,a4
ffffffc050403796:	0807a783          	lw	a5,128(a5)
ffffffc05040379a:	853e                	mv	a0,a5
ffffffc05040379c:	f09ff0ef          	jal	ra,ffffffc0504036a4 <trans>
ffffffc0504037a0:	862a                	mv	a2,a0
ffffffc0504037a2:	00064717          	auipc	a4,0x64
ffffffc0504037a6:	afe70713          	addi	a4,a4,-1282 # ffffffc0504672a0 <pcb>
ffffffc0504037aa:	fdc42683          	lw	a3,-36(s0)
ffffffc0504037ae:	09800793          	li	a5,152
ffffffc0504037b2:	02f687b3          	mul	a5,a3,a5
ffffffc0504037b6:	97ba                	add	a5,a5,a4
ffffffc0504037b8:	4fbc                	lw	a5,88(a5)
ffffffc0504037ba:	873e                	mv	a4,a5
ffffffc0504037bc:	86b2                	mv	a3,a2
ffffffc0504037be:	864a                	mv	a2,s2
ffffffc0504037c0:	85a6                	mv	a1,s1
ffffffc0504037c2:	00003517          	auipc	a0,0x3
ffffffc0504037c6:	29650513          	addi	a0,a0,662 # ffffffc050406a58 <get_elf_file+0x2ec>
ffffffc0504037ca:	74b020ef          	jal	ra,ffffffc050406714 <prints>
ffffffc0504037ce:	00064717          	auipc	a4,0x64
ffffffc0504037d2:	ad270713          	addi	a4,a4,-1326 # ffffffc0504672a0 <pcb>
ffffffc0504037d6:	fdc42683          	lw	a3,-36(s0)
ffffffc0504037da:	09800793          	li	a5,152
ffffffc0504037de:	02f687b3          	mul	a5,a3,a5
ffffffc0504037e2:	97ba                	add	a5,a5,a4
ffffffc0504037e4:	0807a783          	lw	a5,128(a5)
ffffffc0504037e8:	873e                	mv	a4,a5
ffffffc0504037ea:	4785                	li	a5,1
ffffffc0504037ec:	02f71663          	bne	a4,a5,ffffffc050403818 <do_process_show+0xf4>
ffffffc0504037f0:	00064717          	auipc	a4,0x64
ffffffc0504037f4:	ab070713          	addi	a4,a4,-1360 # ffffffc0504672a0 <pcb>
ffffffc0504037f8:	fdc42683          	lw	a3,-36(s0)
ffffffc0504037fc:	09800793          	li	a5,152
ffffffc050403800:	02f687b3          	mul	a5,a3,a5
ffffffc050403804:	97ba                	add	a5,a5,a4
ffffffc050403806:	6bbc                	ld	a5,80(a5)
ffffffc050403808:	85be                	mv	a1,a5
ffffffc05040380a:	00003517          	auipc	a0,0x3
ffffffc05040380e:	27650513          	addi	a0,a0,630 # ffffffc050406a80 <get_elf_file+0x314>
ffffffc050403812:	703020ef          	jal	ra,ffffffc050406714 <prints>
ffffffc050403816:	a039                	j	ffffffc050403824 <do_process_show+0x100>
ffffffc050403818:	00003517          	auipc	a0,0x3
ffffffc05040381c:	27850513          	addi	a0,a0,632 # ffffffc050406a90 <get_elf_file+0x324>
ffffffc050403820:	6f5020ef          	jal	ra,ffffffc050406714 <prints>
ffffffc050403824:	fdc42783          	lw	a5,-36(s0)
ffffffc050403828:	2785                	addiw	a5,a5,1
ffffffc05040382a:	fcf42e23          	sw	a5,-36(s0)
ffffffc05040382e:	fdc42783          	lw	a5,-36(s0)
ffffffc050403832:	0007871b          	sext.w	a4,a5
ffffffc050403836:	47bd                	li	a5,15
ffffffc050403838:	f0e7d5e3          	bge	a5,a4,ffffffc050403742 <do_process_show+0x1e>
ffffffc05040383c:	0001                	nop
ffffffc05040383e:	0001                	nop
ffffffc050403840:	70a2                	ld	ra,40(sp)
ffffffc050403842:	7402                	ld	s0,32(sp)
ffffffc050403844:	64e2                	ld	s1,24(sp)
ffffffc050403846:	6942                	ld	s2,16(sp)
ffffffc050403848:	6145                	addi	sp,sp,48
ffffffc05040384a:	8082                	ret

ffffffc05040384c <free>:
ffffffc05040384c:	7179                	addi	sp,sp,-48
ffffffc05040384e:	f422                	sd	s0,40(sp)
ffffffc050403850:	1800                	addi	s0,sp,48
ffffffc050403852:	fca43c23          	sd	a0,-40(s0)
ffffffc050403856:	fe042623          	sw	zero,-20(s0)
ffffffc05040385a:	a825                	j	ffffffc050403892 <free+0x46>
ffffffc05040385c:	00064717          	auipc	a4,0x64
ffffffc050403860:	95470713          	addi	a4,a4,-1708 # ffffffc0504671b0 <free_space>
ffffffc050403864:	fec42783          	lw	a5,-20(s0)
ffffffc050403868:	078e                	slli	a5,a5,0x3
ffffffc05040386a:	97ba                	add	a5,a5,a4
ffffffc05040386c:	639c                	ld	a5,0(a5)
ffffffc05040386e:	ef89                	bnez	a5,ffffffc050403888 <free+0x3c>
ffffffc050403870:	00064717          	auipc	a4,0x64
ffffffc050403874:	94070713          	addi	a4,a4,-1728 # ffffffc0504671b0 <free_space>
ffffffc050403878:	fec42783          	lw	a5,-20(s0)
ffffffc05040387c:	078e                	slli	a5,a5,0x3
ffffffc05040387e:	97ba                	add	a5,a5,a4
ffffffc050403880:	fd843703          	ld	a4,-40(s0)
ffffffc050403884:	e398                	sd	a4,0(a5)
ffffffc050403886:	a831                	j	ffffffc0504038a2 <free+0x56>
ffffffc050403888:	fec42783          	lw	a5,-20(s0)
ffffffc05040388c:	2785                	addiw	a5,a5,1
ffffffc05040388e:	fef42623          	sw	a5,-20(s0)
ffffffc050403892:	fec42783          	lw	a5,-20(s0)
ffffffc050403896:	0007871b          	sext.w	a4,a5
ffffffc05040389a:	47f5                	li	a5,29
ffffffc05040389c:	fce7d0e3          	bge	a5,a4,ffffffc05040385c <free+0x10>
ffffffc0504038a0:	0001                	nop
ffffffc0504038a2:	0001                	nop
ffffffc0504038a4:	7422                	ld	s0,40(sp)
ffffffc0504038a6:	6145                	addi	sp,sp,48
ffffffc0504038a8:	8082                	ret

ffffffc0504038aa <release_queue>:
ffffffc0504038aa:	7179                	addi	sp,sp,-48
ffffffc0504038ac:	f406                	sd	ra,40(sp)
ffffffc0504038ae:	f022                	sd	s0,32(sp)
ffffffc0504038b0:	1800                	addi	s0,sp,48
ffffffc0504038b2:	fca43c23          	sd	a0,-40(s0)
ffffffc0504038b6:	fd843783          	ld	a5,-40(s0)
ffffffc0504038ba:	679c                	ld	a5,8(a5)
ffffffc0504038bc:	fef43423          	sd	a5,-24(s0)
ffffffc0504038c0:	a811                	j	ffffffc0504038d4 <release_queue+0x2a>
ffffffc0504038c2:	fe843503          	ld	a0,-24(s0)
ffffffc0504038c6:	a7fff0ef          	jal	ra,ffffffc050403344 <do_unblock>
ffffffc0504038ca:	fd843783          	ld	a5,-40(s0)
ffffffc0504038ce:	679c                	ld	a5,8(a5)
ffffffc0504038d0:	fef43423          	sd	a5,-24(s0)
ffffffc0504038d4:	fe843703          	ld	a4,-24(s0)
ffffffc0504038d8:	fd843783          	ld	a5,-40(s0)
ffffffc0504038dc:	fef713e3          	bne	a4,a5,ffffffc0504038c2 <release_queue+0x18>
ffffffc0504038e0:	0001                	nop
ffffffc0504038e2:	0001                	nop
ffffffc0504038e4:	70a2                	ld	ra,40(sp)
ffffffc0504038e6:	7402                	ld	s0,32(sp)
ffffffc0504038e8:	6145                	addi	sp,sp,48
ffffffc0504038ea:	8082                	ret

ffffffc0504038ec <do_exit>:
ffffffc0504038ec:	1101                	addi	sp,sp,-32
ffffffc0504038ee:	ec06                	sd	ra,24(sp)
ffffffc0504038f0:	e822                	sd	s0,16(sp)
ffffffc0504038f2:	1000                	addi	s0,sp,32
ffffffc0504038f4:	9d5fc0ef          	jal	ra,ffffffc0504002c8 <get_current_cpu_id>
ffffffc0504038f8:	87aa                	mv	a5,a0
ffffffc0504038fa:	fef43023          	sd	a5,-32(s0)
ffffffc0504038fe:	00064717          	auipc	a4,0x64
ffffffc050403902:	8a270713          	addi	a4,a4,-1886 # ffffffc0504671a0 <current_running>
ffffffc050403906:	fe043783          	ld	a5,-32(s0)
ffffffc05040390a:	078e                	slli	a5,a5,0x3
ffffffc05040390c:	97ba                	add	a5,a5,a4
ffffffc05040390e:	639c                	ld	a5,0(a5)
ffffffc050403910:	0847a783          	lw	a5,132(a5)
ffffffc050403914:	873e                	mv	a4,a5
ffffffc050403916:	4785                	li	a5,1
ffffffc050403918:	0ef71863          	bne	a4,a5,ffffffc050403a08 <do_exit+0x11c>
ffffffc05040391c:	00064717          	auipc	a4,0x64
ffffffc050403920:	88470713          	addi	a4,a4,-1916 # ffffffc0504671a0 <current_running>
ffffffc050403924:	fe043783          	ld	a5,-32(s0)
ffffffc050403928:	078e                	slli	a5,a5,0x3
ffffffc05040392a:	97ba                	add	a5,a5,a4
ffffffc05040392c:	639c                	ld	a5,0(a5)
ffffffc05040392e:	4711                	li	a4,4
ffffffc050403930:	08e7a023          	sw	a4,128(a5)
ffffffc050403934:	00064717          	auipc	a4,0x64
ffffffc050403938:	86c70713          	addi	a4,a4,-1940 # ffffffc0504671a0 <current_running>
ffffffc05040393c:	fe043783          	ld	a5,-32(s0)
ffffffc050403940:	078e                	slli	a5,a5,0x3
ffffffc050403942:	97ba                	add	a5,a5,a4
ffffffc050403944:	639c                	ld	a5,0(a5)
ffffffc050403946:	853e                	mv	a0,a5
ffffffc050403948:	aeeff0ef          	jal	ra,ffffffc050402c36 <out_queue>
ffffffc05040394c:	fe042623          	sw	zero,-20(s0)
ffffffc050403950:	a8b1                	j	ffffffc0504039ac <do_exit+0xc0>
ffffffc050403952:	00064717          	auipc	a4,0x64
ffffffc050403956:	84e70713          	addi	a4,a4,-1970 # ffffffc0504671a0 <current_running>
ffffffc05040395a:	fe043783          	ld	a5,-32(s0)
ffffffc05040395e:	078e                	slli	a5,a5,0x3
ffffffc050403960:	97ba                	add	a5,a5,a4
ffffffc050403962:	6398                	ld	a4,0(a5)
ffffffc050403964:	fec42783          	lw	a5,-20(s0)
ffffffc050403968:	07d1                	addi	a5,a5,20
ffffffc05040396a:	078a                	slli	a5,a5,0x2
ffffffc05040396c:	97ba                	add	a5,a5,a4
ffffffc05040396e:	47dc                	lw	a5,12(a5)
ffffffc050403970:	873e                	mv	a4,a5
ffffffc050403972:	4785                	li	a5,1
ffffffc050403974:	02f71763          	bne	a4,a5,ffffffc0504039a2 <do_exit+0xb6>
ffffffc050403978:	fec42783          	lw	a5,-20(s0)
ffffffc05040397c:	853e                	mv	a0,a5
ffffffc05040397e:	8c6fe0ef          	jal	ra,ffffffc050401a44 <mutex_unlock>
ffffffc050403982:	00064717          	auipc	a4,0x64
ffffffc050403986:	81e70713          	addi	a4,a4,-2018 # ffffffc0504671a0 <current_running>
ffffffc05040398a:	fe043783          	ld	a5,-32(s0)
ffffffc05040398e:	078e                	slli	a5,a5,0x3
ffffffc050403990:	97ba                	add	a5,a5,a4
ffffffc050403992:	6398                	ld	a4,0(a5)
ffffffc050403994:	fec42783          	lw	a5,-20(s0)
ffffffc050403998:	07d1                	addi	a5,a5,20
ffffffc05040399a:	078a                	slli	a5,a5,0x2
ffffffc05040399c:	97ba                	add	a5,a5,a4
ffffffc05040399e:	0007a623          	sw	zero,12(a5)
ffffffc0504039a2:	fec42783          	lw	a5,-20(s0)
ffffffc0504039a6:	2785                	addiw	a5,a5,1
ffffffc0504039a8:	fef42623          	sw	a5,-20(s0)
ffffffc0504039ac:	fec42783          	lw	a5,-20(s0)
ffffffc0504039b0:	0007871b          	sext.w	a4,a5
ffffffc0504039b4:	4791                	li	a5,4
ffffffc0504039b6:	f8e7dee3          	bge	a5,a4,ffffffc050403952 <do_exit+0x66>
ffffffc0504039ba:	00063717          	auipc	a4,0x63
ffffffc0504039be:	7e670713          	addi	a4,a4,2022 # ffffffc0504671a0 <current_running>
ffffffc0504039c2:	fe043783          	ld	a5,-32(s0)
ffffffc0504039c6:	078e                	slli	a5,a5,0x3
ffffffc0504039c8:	97ba                	add	a5,a5,a4
ffffffc0504039ca:	639c                	ld	a5,0(a5)
ffffffc0504039cc:	02878793          	addi	a5,a5,40
ffffffc0504039d0:	853e                	mv	a0,a5
ffffffc0504039d2:	ed9ff0ef          	jal	ra,ffffffc0504038aa <release_queue>
ffffffc0504039d6:	00063717          	auipc	a4,0x63
ffffffc0504039da:	7ca70713          	addi	a4,a4,1994 # ffffffc0504671a0 <current_running>
ffffffc0504039de:	fe043783          	ld	a5,-32(s0)
ffffffc0504039e2:	078e                	slli	a5,a5,0x3
ffffffc0504039e4:	97ba                	add	a5,a5,a4
ffffffc0504039e6:	639c                	ld	a5,0(a5)
ffffffc0504039e8:	5fbc                	lw	a5,120(a5)
ffffffc0504039ea:	ef81                	bnez	a5,ffffffc050403a02 <do_exit+0x116>
ffffffc0504039ec:	00063717          	auipc	a4,0x63
ffffffc0504039f0:	7b470713          	addi	a4,a4,1972 # ffffffc0504671a0 <current_running>
ffffffc0504039f4:	fe043783          	ld	a5,-32(s0)
ffffffc0504039f8:	078e                	slli	a5,a5,0x3
ffffffc0504039fa:	97ba                	add	a5,a5,a4
ffffffc0504039fc:	639c                	ld	a5,0(a5)
ffffffc0504039fe:	4705                	li	a4,1
ffffffc050403a00:	dbf8                	sw	a4,116(a5)
ffffffc050403a02:	b6aff0ef          	jal	ra,ffffffc050402d6c <do_scheduler>
ffffffc050403a06:	a8e1                	j	ffffffc050403ade <do_exit+0x1f2>
ffffffc050403a08:	00063717          	auipc	a4,0x63
ffffffc050403a0c:	79870713          	addi	a4,a4,1944 # ffffffc0504671a0 <current_running>
ffffffc050403a10:	fe043783          	ld	a5,-32(s0)
ffffffc050403a14:	078e                	slli	a5,a5,0x3
ffffffc050403a16:	97ba                	add	a5,a5,a4
ffffffc050403a18:	639c                	ld	a5,0(a5)
ffffffc050403a1a:	0847a783          	lw	a5,132(a5)
ffffffc050403a1e:	e3e1                	bnez	a5,ffffffc050403ade <do_exit+0x1f2>
ffffffc050403a20:	00063717          	auipc	a4,0x63
ffffffc050403a24:	78070713          	addi	a4,a4,1920 # ffffffc0504671a0 <current_running>
ffffffc050403a28:	fe043783          	ld	a5,-32(s0)
ffffffc050403a2c:	078e                	slli	a5,a5,0x3
ffffffc050403a2e:	97ba                	add	a5,a5,a4
ffffffc050403a30:	639c                	ld	a5,0(a5)
ffffffc050403a32:	470d                	li	a4,3
ffffffc050403a34:	08e7a023          	sw	a4,128(a5)
ffffffc050403a38:	00063717          	auipc	a4,0x63
ffffffc050403a3c:	76870713          	addi	a4,a4,1896 # ffffffc0504671a0 <current_running>
ffffffc050403a40:	fe043783          	ld	a5,-32(s0)
ffffffc050403a44:	078e                	slli	a5,a5,0x3
ffffffc050403a46:	97ba                	add	a5,a5,a4
ffffffc050403a48:	639c                	ld	a5,0(a5)
ffffffc050403a4a:	853e                	mv	a0,a5
ffffffc050403a4c:	9eaff0ef          	jal	ra,ffffffc050402c36 <out_queue>
ffffffc050403a50:	fe042623          	sw	zero,-20(s0)
ffffffc050403a54:	a8b1                	j	ffffffc050403ab0 <do_exit+0x1c4>
ffffffc050403a56:	00063717          	auipc	a4,0x63
ffffffc050403a5a:	74a70713          	addi	a4,a4,1866 # ffffffc0504671a0 <current_running>
ffffffc050403a5e:	fe043783          	ld	a5,-32(s0)
ffffffc050403a62:	078e                	slli	a5,a5,0x3
ffffffc050403a64:	97ba                	add	a5,a5,a4
ffffffc050403a66:	6398                	ld	a4,0(a5)
ffffffc050403a68:	fec42783          	lw	a5,-20(s0)
ffffffc050403a6c:	07d1                	addi	a5,a5,20
ffffffc050403a6e:	078a                	slli	a5,a5,0x2
ffffffc050403a70:	97ba                	add	a5,a5,a4
ffffffc050403a72:	47dc                	lw	a5,12(a5)
ffffffc050403a74:	873e                	mv	a4,a5
ffffffc050403a76:	4785                	li	a5,1
ffffffc050403a78:	02f71763          	bne	a4,a5,ffffffc050403aa6 <do_exit+0x1ba>
ffffffc050403a7c:	fec42783          	lw	a5,-20(s0)
ffffffc050403a80:	853e                	mv	a0,a5
ffffffc050403a82:	fc3fd0ef          	jal	ra,ffffffc050401a44 <mutex_unlock>
ffffffc050403a86:	00063717          	auipc	a4,0x63
ffffffc050403a8a:	71a70713          	addi	a4,a4,1818 # ffffffc0504671a0 <current_running>
ffffffc050403a8e:	fe043783          	ld	a5,-32(s0)
ffffffc050403a92:	078e                	slli	a5,a5,0x3
ffffffc050403a94:	97ba                	add	a5,a5,a4
ffffffc050403a96:	6398                	ld	a4,0(a5)
ffffffc050403a98:	fec42783          	lw	a5,-20(s0)
ffffffc050403a9c:	07d1                	addi	a5,a5,20
ffffffc050403a9e:	078a                	slli	a5,a5,0x2
ffffffc050403aa0:	97ba                	add	a5,a5,a4
ffffffc050403aa2:	0007a623          	sw	zero,12(a5)
ffffffc050403aa6:	fec42783          	lw	a5,-20(s0)
ffffffc050403aaa:	2785                	addiw	a5,a5,1
ffffffc050403aac:	fef42623          	sw	a5,-20(s0)
ffffffc050403ab0:	fec42783          	lw	a5,-20(s0)
ffffffc050403ab4:	0007871b          	sext.w	a4,a5
ffffffc050403ab8:	4791                	li	a5,4
ffffffc050403aba:	f8e7dee3          	bge	a5,a4,ffffffc050403a56 <do_exit+0x16a>
ffffffc050403abe:	00063717          	auipc	a4,0x63
ffffffc050403ac2:	6e270713          	addi	a4,a4,1762 # ffffffc0504671a0 <current_running>
ffffffc050403ac6:	fe043783          	ld	a5,-32(s0)
ffffffc050403aca:	078e                	slli	a5,a5,0x3
ffffffc050403acc:	97ba                	add	a5,a5,a4
ffffffc050403ace:	639c                	ld	a5,0(a5)
ffffffc050403ad0:	02878793          	addi	a5,a5,40
ffffffc050403ad4:	853e                	mv	a0,a5
ffffffc050403ad6:	dd5ff0ef          	jal	ra,ffffffc0504038aa <release_queue>
ffffffc050403ada:	a92ff0ef          	jal	ra,ffffffc050402d6c <do_scheduler>
ffffffc050403ade:	0001                	nop
ffffffc050403ae0:	60e2                	ld	ra,24(sp)
ffffffc050403ae2:	6442                	ld	s0,16(sp)
ffffffc050403ae4:	6105                	addi	sp,sp,32
ffffffc050403ae6:	8082                	ret

ffffffc050403ae8 <do_kill>:
ffffffc050403ae8:	7179                	addi	sp,sp,-48
ffffffc050403aea:	f406                	sd	ra,40(sp)
ffffffc050403aec:	f022                	sd	s0,32(sp)
ffffffc050403aee:	1800                	addi	s0,sp,48
ffffffc050403af0:	87aa                	mv	a5,a0
ffffffc050403af2:	fcf42e23          	sw	a5,-36(s0)
ffffffc050403af6:	fd2fc0ef          	jal	ra,ffffffc0504002c8 <get_current_cpu_id>
ffffffc050403afa:	87aa                	mv	a5,a0
ffffffc050403afc:	fef43023          	sd	a5,-32(s0)
ffffffc050403b00:	fe042623          	sw	zero,-20(s0)
ffffffc050403b04:	a031                	j	ffffffc050403b10 <do_kill+0x28>
ffffffc050403b06:	fec42783          	lw	a5,-20(s0)
ffffffc050403b0a:	2785                	addiw	a5,a5,1
ffffffc050403b0c:	fef42623          	sw	a5,-20(s0)
ffffffc050403b10:	00063717          	auipc	a4,0x63
ffffffc050403b14:	79070713          	addi	a4,a4,1936 # ffffffc0504672a0 <pcb>
ffffffc050403b18:	fec42683          	lw	a3,-20(s0)
ffffffc050403b1c:	09800793          	li	a5,152
ffffffc050403b20:	02f687b3          	mul	a5,a3,a5
ffffffc050403b24:	97ba                	add	a5,a5,a4
ffffffc050403b26:	47b8                	lw	a4,72(a5)
ffffffc050403b28:	fdc42783          	lw	a5,-36(s0)
ffffffc050403b2c:	2781                	sext.w	a5,a5
ffffffc050403b2e:	00e78963          	beq	a5,a4,ffffffc050403b40 <do_kill+0x58>
ffffffc050403b32:	fec42783          	lw	a5,-20(s0)
ffffffc050403b36:	0007871b          	sext.w	a4,a5
ffffffc050403b3a:	47bd                	li	a5,15
ffffffc050403b3c:	fce7d5e3          	bge	a5,a4,ffffffc050403b06 <do_kill+0x1e>
ffffffc050403b40:	fec42783          	lw	a5,-20(s0)
ffffffc050403b44:	0007871b          	sext.w	a4,a5
ffffffc050403b48:	47c1                	li	a5,16
ffffffc050403b4a:	00f71463          	bne	a4,a5,ffffffc050403b52 <do_kill+0x6a>
ffffffc050403b4e:	4781                	li	a5,0
ffffffc050403b50:	a299                	j	ffffffc050403c96 <do_kill+0x1ae>
ffffffc050403b52:	00063717          	auipc	a4,0x63
ffffffc050403b56:	74e70713          	addi	a4,a4,1870 # ffffffc0504672a0 <pcb>
ffffffc050403b5a:	fec42683          	lw	a3,-20(s0)
ffffffc050403b5e:	09800793          	li	a5,152
ffffffc050403b62:	02f687b3          	mul	a5,a3,a5
ffffffc050403b66:	97ba                	add	a5,a5,a4
ffffffc050403b68:	0807a783          	lw	a5,128(a5)
ffffffc050403b6c:	873e                	mv	a4,a5
ffffffc050403b6e:	4785                	li	a5,1
ffffffc050403b70:	02f71063          	bne	a4,a5,ffffffc050403b90 <do_kill+0xa8>
ffffffc050403b74:	00063717          	auipc	a4,0x63
ffffffc050403b78:	72c70713          	addi	a4,a4,1836 # ffffffc0504672a0 <pcb>
ffffffc050403b7c:	fec42683          	lw	a3,-20(s0)
ffffffc050403b80:	09800793          	li	a5,152
ffffffc050403b84:	02f687b3          	mul	a5,a3,a5
ffffffc050403b88:	97ba                	add	a5,a5,a4
ffffffc050403b8a:	4705                	li	a4,1
ffffffc050403b8c:	dbb8                	sw	a4,112(a5)
ffffffc050403b8e:	a219                	j	ffffffc050403c94 <do_kill+0x1ac>
ffffffc050403b90:	00063717          	auipc	a4,0x63
ffffffc050403b94:	71070713          	addi	a4,a4,1808 # ffffffc0504672a0 <pcb>
ffffffc050403b98:	fec42683          	lw	a3,-20(s0)
ffffffc050403b9c:	09800793          	li	a5,152
ffffffc050403ba0:	02f687b3          	mul	a5,a3,a5
ffffffc050403ba4:	97ba                	add	a5,a5,a4
ffffffc050403ba6:	4711                	li	a4,4
ffffffc050403ba8:	08e7a023          	sw	a4,128(a5)
ffffffc050403bac:	fec42703          	lw	a4,-20(s0)
ffffffc050403bb0:	09800793          	li	a5,152
ffffffc050403bb4:	02f70733          	mul	a4,a4,a5
ffffffc050403bb8:	00063797          	auipc	a5,0x63
ffffffc050403bbc:	6e878793          	addi	a5,a5,1768 # ffffffc0504672a0 <pcb>
ffffffc050403bc0:	97ba                	add	a5,a5,a4
ffffffc050403bc2:	853e                	mv	a0,a5
ffffffc050403bc4:	872ff0ef          	jal	ra,ffffffc050402c36 <out_queue>
ffffffc050403bc8:	fe042423          	sw	zero,-24(s0)
ffffffc050403bcc:	a095                	j	ffffffc050403c30 <do_kill+0x148>
ffffffc050403bce:	00063717          	auipc	a4,0x63
ffffffc050403bd2:	6d270713          	addi	a4,a4,1746 # ffffffc0504672a0 <pcb>
ffffffc050403bd6:	fe842783          	lw	a5,-24(s0)
ffffffc050403bda:	fec42603          	lw	a2,-20(s0)
ffffffc050403bde:	02600693          	li	a3,38
ffffffc050403be2:	02d606b3          	mul	a3,a2,a3
ffffffc050403be6:	97b6                	add	a5,a5,a3
ffffffc050403be8:	07d1                	addi	a5,a5,20
ffffffc050403bea:	078a                	slli	a5,a5,0x2
ffffffc050403bec:	97ba                	add	a5,a5,a4
ffffffc050403bee:	47dc                	lw	a5,12(a5)
ffffffc050403bf0:	873e                	mv	a4,a5
ffffffc050403bf2:	4785                	li	a5,1
ffffffc050403bf4:	02f71963          	bne	a4,a5,ffffffc050403c26 <do_kill+0x13e>
ffffffc050403bf8:	fe842783          	lw	a5,-24(s0)
ffffffc050403bfc:	853e                	mv	a0,a5
ffffffc050403bfe:	e47fd0ef          	jal	ra,ffffffc050401a44 <mutex_unlock>
ffffffc050403c02:	00063717          	auipc	a4,0x63
ffffffc050403c06:	69e70713          	addi	a4,a4,1694 # ffffffc0504672a0 <pcb>
ffffffc050403c0a:	fe842783          	lw	a5,-24(s0)
ffffffc050403c0e:	fec42603          	lw	a2,-20(s0)
ffffffc050403c12:	02600693          	li	a3,38
ffffffc050403c16:	02d606b3          	mul	a3,a2,a3
ffffffc050403c1a:	97b6                	add	a5,a5,a3
ffffffc050403c1c:	07d1                	addi	a5,a5,20
ffffffc050403c1e:	078a                	slli	a5,a5,0x2
ffffffc050403c20:	97ba                	add	a5,a5,a4
ffffffc050403c22:	0007a623          	sw	zero,12(a5)
ffffffc050403c26:	fe842783          	lw	a5,-24(s0)
ffffffc050403c2a:	2785                	addiw	a5,a5,1
ffffffc050403c2c:	fef42423          	sw	a5,-24(s0)
ffffffc050403c30:	fe842783          	lw	a5,-24(s0)
ffffffc050403c34:	0007871b          	sext.w	a4,a5
ffffffc050403c38:	4791                	li	a5,4
ffffffc050403c3a:	f8e7dae3          	bge	a5,a4,ffffffc050403bce <do_kill+0xe6>
ffffffc050403c3e:	00063717          	auipc	a4,0x63
ffffffc050403c42:	66270713          	addi	a4,a4,1634 # ffffffc0504672a0 <pcb>
ffffffc050403c46:	fec42683          	lw	a3,-20(s0)
ffffffc050403c4a:	09800793          	li	a5,152
ffffffc050403c4e:	02f687b3          	mul	a5,a3,a5
ffffffc050403c52:	97ba                	add	a5,a5,a4
ffffffc050403c54:	5fbc                	lw	a5,120(a5)
ffffffc050403c56:	ef91                	bnez	a5,ffffffc050403c72 <do_kill+0x18a>
ffffffc050403c58:	00063717          	auipc	a4,0x63
ffffffc050403c5c:	64870713          	addi	a4,a4,1608 # ffffffc0504672a0 <pcb>
ffffffc050403c60:	fec42683          	lw	a3,-20(s0)
ffffffc050403c64:	09800793          	li	a5,152
ffffffc050403c68:	02f687b3          	mul	a5,a3,a5
ffffffc050403c6c:	97ba                	add	a5,a5,a4
ffffffc050403c6e:	4705                	li	a4,1
ffffffc050403c70:	dbf8                	sw	a4,116(a5)
ffffffc050403c72:	fec42703          	lw	a4,-20(s0)
ffffffc050403c76:	09800793          	li	a5,152
ffffffc050403c7a:	02f707b3          	mul	a5,a4,a5
ffffffc050403c7e:	02078713          	addi	a4,a5,32
ffffffc050403c82:	00063797          	auipc	a5,0x63
ffffffc050403c86:	61e78793          	addi	a5,a5,1566 # ffffffc0504672a0 <pcb>
ffffffc050403c8a:	97ba                	add	a5,a5,a4
ffffffc050403c8c:	07a1                	addi	a5,a5,8
ffffffc050403c8e:	853e                	mv	a0,a5
ffffffc050403c90:	c1bff0ef          	jal	ra,ffffffc0504038aa <release_queue>
ffffffc050403c94:	4785                	li	a5,1
ffffffc050403c96:	853e                	mv	a0,a5
ffffffc050403c98:	70a2                	ld	ra,40(sp)
ffffffc050403c9a:	7402                	ld	s0,32(sp)
ffffffc050403c9c:	6145                	addi	sp,sp,48
ffffffc050403c9e:	8082                	ret

ffffffc050403ca0 <do_waitpid>:
ffffffc050403ca0:	7179                	addi	sp,sp,-48
ffffffc050403ca2:	f406                	sd	ra,40(sp)
ffffffc050403ca4:	f022                	sd	s0,32(sp)
ffffffc050403ca6:	1800                	addi	s0,sp,48
ffffffc050403ca8:	87aa                	mv	a5,a0
ffffffc050403caa:	fcf42e23          	sw	a5,-36(s0)
ffffffc050403cae:	e1afc0ef          	jal	ra,ffffffc0504002c8 <get_current_cpu_id>
ffffffc050403cb2:	87aa                	mv	a5,a0
ffffffc050403cb4:	fef43023          	sd	a5,-32(s0)
ffffffc050403cb8:	fe042623          	sw	zero,-20(s0)
ffffffc050403cbc:	a031                	j	ffffffc050403cc8 <do_waitpid+0x28>
ffffffc050403cbe:	fec42783          	lw	a5,-20(s0)
ffffffc050403cc2:	2785                	addiw	a5,a5,1
ffffffc050403cc4:	fef42623          	sw	a5,-20(s0)
ffffffc050403cc8:	00063717          	auipc	a4,0x63
ffffffc050403ccc:	5d870713          	addi	a4,a4,1496 # ffffffc0504672a0 <pcb>
ffffffc050403cd0:	fec42683          	lw	a3,-20(s0)
ffffffc050403cd4:	09800793          	li	a5,152
ffffffc050403cd8:	02f687b3          	mul	a5,a3,a5
ffffffc050403cdc:	97ba                	add	a5,a5,a4
ffffffc050403cde:	47b8                	lw	a4,72(a5)
ffffffc050403ce0:	fdc42783          	lw	a5,-36(s0)
ffffffc050403ce4:	2781                	sext.w	a5,a5
ffffffc050403ce6:	00e78963          	beq	a5,a4,ffffffc050403cf8 <do_waitpid+0x58>
ffffffc050403cea:	fec42783          	lw	a5,-20(s0)
ffffffc050403cee:	0007871b          	sext.w	a4,a5
ffffffc050403cf2:	47bd                	li	a5,15
ffffffc050403cf4:	fce7d5e3          	bge	a5,a4,ffffffc050403cbe <do_waitpid+0x1e>
ffffffc050403cf8:	fec42783          	lw	a5,-20(s0)
ffffffc050403cfc:	0007871b          	sext.w	a4,a5
ffffffc050403d00:	47c1                	li	a5,16
ffffffc050403d02:	00f71463          	bne	a4,a5,ffffffc050403d0a <do_waitpid+0x6a>
ffffffc050403d06:	4781                	li	a5,0
ffffffc050403d08:	a8d1                	j	ffffffc050403ddc <do_waitpid+0x13c>
ffffffc050403d0a:	00063717          	auipc	a4,0x63
ffffffc050403d0e:	59670713          	addi	a4,a4,1430 # ffffffc0504672a0 <pcb>
ffffffc050403d12:	fec42683          	lw	a3,-20(s0)
ffffffc050403d16:	09800793          	li	a5,152
ffffffc050403d1a:	02f687b3          	mul	a5,a3,a5
ffffffc050403d1e:	97ba                	add	a5,a5,a4
ffffffc050403d20:	0807a783          	lw	a5,128(a5)
ffffffc050403d24:	873e                	mv	a4,a5
ffffffc050403d26:	478d                	li	a5,3
ffffffc050403d28:	02f71163          	bne	a4,a5,ffffffc050403d4a <do_waitpid+0xaa>
ffffffc050403d2c:	00063717          	auipc	a4,0x63
ffffffc050403d30:	57470713          	addi	a4,a4,1396 # ffffffc0504672a0 <pcb>
ffffffc050403d34:	fec42683          	lw	a3,-20(s0)
ffffffc050403d38:	09800793          	li	a5,152
ffffffc050403d3c:	02f687b3          	mul	a5,a3,a5
ffffffc050403d40:	97ba                	add	a5,a5,a4
ffffffc050403d42:	4705                	li	a4,1
ffffffc050403d44:	dbf8                	sw	a4,116(a5)
ffffffc050403d46:	4781                	li	a5,0
ffffffc050403d48:	a851                	j	ffffffc050403ddc <do_waitpid+0x13c>
ffffffc050403d4a:	00063717          	auipc	a4,0x63
ffffffc050403d4e:	55670713          	addi	a4,a4,1366 # ffffffc0504672a0 <pcb>
ffffffc050403d52:	fec42683          	lw	a3,-20(s0)
ffffffc050403d56:	09800793          	li	a5,152
ffffffc050403d5a:	02f687b3          	mul	a5,a3,a5
ffffffc050403d5e:	97ba                	add	a5,a5,a4
ffffffc050403d60:	0807a783          	lw	a5,128(a5)
ffffffc050403d64:	873e                	mv	a4,a5
ffffffc050403d66:	4791                	li	a5,4
ffffffc050403d68:	00f71463          	bne	a4,a5,ffffffc050403d70 <do_waitpid+0xd0>
ffffffc050403d6c:	4781                	li	a5,0
ffffffc050403d6e:	a0bd                	j	ffffffc050403ddc <do_waitpid+0x13c>
ffffffc050403d70:	00063717          	auipc	a4,0x63
ffffffc050403d74:	43070713          	addi	a4,a4,1072 # ffffffc0504671a0 <current_running>
ffffffc050403d78:	fe043783          	ld	a5,-32(s0)
ffffffc050403d7c:	078e                	slli	a5,a5,0x3
ffffffc050403d7e:	97ba                	add	a5,a5,a4
ffffffc050403d80:	6394                	ld	a3,0(a5)
ffffffc050403d82:	fec42703          	lw	a4,-20(s0)
ffffffc050403d86:	09800793          	li	a5,152
ffffffc050403d8a:	02f707b3          	mul	a5,a4,a5
ffffffc050403d8e:	02078713          	addi	a4,a5,32
ffffffc050403d92:	00063797          	auipc	a5,0x63
ffffffc050403d96:	50e78793          	addi	a5,a5,1294 # ffffffc0504672a0 <pcb>
ffffffc050403d9a:	97ba                	add	a5,a5,a4
ffffffc050403d9c:	07a1                	addi	a5,a5,8
ffffffc050403d9e:	85be                	mv	a1,a5
ffffffc050403da0:	8536                	mv	a0,a3
ffffffc050403da2:	d32ff0ef          	jal	ra,ffffffc0504032d4 <do_block>
ffffffc050403da6:	00063717          	auipc	a4,0x63
ffffffc050403daa:	4fa70713          	addi	a4,a4,1274 # ffffffc0504672a0 <pcb>
ffffffc050403dae:	fec42683          	lw	a3,-20(s0)
ffffffc050403db2:	09800793          	li	a5,152
ffffffc050403db6:	02f687b3          	mul	a5,a3,a5
ffffffc050403dba:	97ba                	add	a5,a5,a4
ffffffc050403dbc:	47bc                	lw	a5,72(a5)
ffffffc050403dbe:	cf91                	beqz	a5,ffffffc050403dda <do_waitpid+0x13a>
ffffffc050403dc0:	00063717          	auipc	a4,0x63
ffffffc050403dc4:	4e070713          	addi	a4,a4,1248 # ffffffc0504672a0 <pcb>
ffffffc050403dc8:	fec42683          	lw	a3,-20(s0)
ffffffc050403dcc:	09800793          	li	a5,152
ffffffc050403dd0:	02f687b3          	mul	a5,a3,a5
ffffffc050403dd4:	97ba                	add	a5,a5,a4
ffffffc050403dd6:	4705                	li	a4,1
ffffffc050403dd8:	dbf8                	sw	a4,116(a5)
ffffffc050403dda:	4785                	li	a5,1
ffffffc050403ddc:	853e                	mv	a0,a5
ffffffc050403dde:	70a2                	ld	ra,40(sp)
ffffffc050403de0:	7402                	ld	s0,32(sp)
ffffffc050403de2:	6145                	addi	sp,sp,48
ffffffc050403de4:	8082                	ret

ffffffc050403de6 <do_getpid>:
ffffffc050403de6:	1101                	addi	sp,sp,-32
ffffffc050403de8:	ec06                	sd	ra,24(sp)
ffffffc050403dea:	e822                	sd	s0,16(sp)
ffffffc050403dec:	1000                	addi	s0,sp,32
ffffffc050403dee:	cdafc0ef          	jal	ra,ffffffc0504002c8 <get_current_cpu_id>
ffffffc050403df2:	87aa                	mv	a5,a0
ffffffc050403df4:	fef43423          	sd	a5,-24(s0)
ffffffc050403df8:	00063717          	auipc	a4,0x63
ffffffc050403dfc:	3a870713          	addi	a4,a4,936 # ffffffc0504671a0 <current_running>
ffffffc050403e00:	fe843783          	ld	a5,-24(s0)
ffffffc050403e04:	078e                	slli	a5,a5,0x3
ffffffc050403e06:	97ba                	add	a5,a5,a4
ffffffc050403e08:	639c                	ld	a5,0(a5)
ffffffc050403e0a:	47bc                	lw	a5,72(a5)
ffffffc050403e0c:	853e                	mv	a0,a5
ffffffc050403e0e:	60e2                	ld	ra,24(sp)
ffffffc050403e10:	6442                	ld	s0,16(sp)
ffffffc050403e12:	6105                	addi	sp,sp,32
ffffffc050403e14:	8082                	ret

ffffffc050403e16 <do_mthread_create>:
ffffffc050403e16:	7159                	addi	sp,sp,-112
ffffffc050403e18:	f486                	sd	ra,104(sp)
ffffffc050403e1a:	f0a2                	sd	s0,96(sp)
ffffffc050403e1c:	1880                	addi	s0,sp,112
ffffffc050403e1e:	f8a43c23          	sd	a0,-104(s0)
ffffffc050403e22:	f8b43823          	sd	a1,-112(s0)
ffffffc050403e26:	ca2fc0ef          	jal	ra,ffffffc0504002c8 <get_current_cpu_id>
ffffffc050403e2a:	87aa                	mv	a5,a0
ffffffc050403e2c:	fef43023          	sd	a5,-32(s0)
ffffffc050403e30:	fe042623          	sw	zero,-20(s0)
ffffffc050403e34:	a01d                	j	ffffffc050403e5a <do_mthread_create+0x44>
ffffffc050403e36:	00063717          	auipc	a4,0x63
ffffffc050403e3a:	46a70713          	addi	a4,a4,1130 # ffffffc0504672a0 <pcb>
ffffffc050403e3e:	fec42683          	lw	a3,-20(s0)
ffffffc050403e42:	09800793          	li	a5,152
ffffffc050403e46:	02f687b3          	mul	a5,a3,a5
ffffffc050403e4a:	97ba                	add	a5,a5,a4
ffffffc050403e4c:	47bc                	lw	a5,72(a5)
ffffffc050403e4e:	cf91                	beqz	a5,ffffffc050403e6a <do_mthread_create+0x54>
ffffffc050403e50:	fec42783          	lw	a5,-20(s0)
ffffffc050403e54:	2785                	addiw	a5,a5,1
ffffffc050403e56:	fef42623          	sw	a5,-20(s0)
ffffffc050403e5a:	fec42783          	lw	a5,-20(s0)
ffffffc050403e5e:	0007871b          	sext.w	a4,a5
ffffffc050403e62:	47bd                	li	a5,15
ffffffc050403e64:	fce7d9e3          	bge	a5,a4,ffffffc050403e36 <do_mthread_create+0x20>
ffffffc050403e68:	a011                	j	ffffffc050403e6c <do_mthread_create+0x56>
ffffffc050403e6a:	0001                	nop
ffffffc050403e6c:	fec42783          	lw	a5,-20(s0)
ffffffc050403e70:	0007871b          	sext.w	a4,a5
ffffffc050403e74:	47bd                	li	a5,15
ffffffc050403e76:	00e7de63          	bge	a5,a4,ffffffc050403e92 <do_mthread_create+0x7c>
ffffffc050403e7a:	00003617          	auipc	a2,0x3
ffffffc050403e7e:	c1e60613          	addi	a2,a2,-994 # ffffffc050406a98 <__FUNCTION__.1727>
ffffffc050403e82:	22200593          	li	a1,546
ffffffc050403e86:	00003517          	auipc	a0,0x3
ffffffc050403e8a:	b2a50513          	addi	a0,a0,-1238 # ffffffc0504069b0 <get_elf_file+0x244>
ffffffc050403e8e:	c9dfe0ef          	jal	ra,ffffffc050402b2a <_panic>
ffffffc050403e92:	00063717          	auipc	a4,0x63
ffffffc050403e96:	30e70713          	addi	a4,a4,782 # ffffffc0504671a0 <current_running>
ffffffc050403e9a:	fe043783          	ld	a5,-32(s0)
ffffffc050403e9e:	078e                	slli	a5,a5,0x3
ffffffc050403ea0:	97ba                	add	a5,a5,a4
ffffffc050403ea2:	639c                	ld	a5,0(a5)
ffffffc050403ea4:	6b9c                	ld	a5,16(a5)
ffffffc050403ea6:	fcf43c23          	sd	a5,-40(s0)
ffffffc050403eaa:	fd843783          	ld	a5,-40(s0)
ffffffc050403eae:	00c79713          	slli	a4,a5,0xc
ffffffc050403eb2:	fff007b7          	lui	a5,0xfff00
ffffffc050403eb6:	83a1                	srli	a5,a5,0x8
ffffffc050403eb8:	8ff9                	and	a5,a5,a4
ffffffc050403eba:	fcf43823          	sd	a5,-48(s0)
ffffffc050403ebe:	82818793          	addi	a5,gp,-2008 # ffffffc050464ca8 <thread_stack_index>
ffffffc050403ec2:	439c                	lw	a5,0(a5)
ffffffc050403ec4:	0107979b          	slliw	a5,a5,0x10
ffffffc050403ec8:	2781                	sext.w	a5,a5
ffffffc050403eca:	873e                	mv	a4,a5
ffffffc050403ecc:	00f007b7          	lui	a5,0xf00
ffffffc050403ed0:	07bd                	addi	a5,a5,15
ffffffc050403ed2:	07b2                	slli	a5,a5,0xc
ffffffc050403ed4:	97ba                	add	a5,a5,a4
ffffffc050403ed6:	4601                	li	a2,0
ffffffc050403ed8:	fd043583          	ld	a1,-48(s0)
ffffffc050403edc:	853e                	mv	a0,a5
ffffffc050403ede:	36b010ef          	jal	ra,ffffffc050405a48 <alloc_page_helper>
ffffffc050403ee2:	fca43423          	sd	a0,-56(s0)
ffffffc050403ee6:	4581                	li	a1,0
ffffffc050403ee8:	4505                	li	a0,1
ffffffc050403eea:	10b000ef          	jal	ra,ffffffc0504047f4 <allocPage>
ffffffc050403eee:	87aa                	mv	a5,a0
ffffffc050403ef0:	853e                	mv	a0,a5
ffffffc050403ef2:	c1dfe0ef          	jal	ra,ffffffc050402b0e <pa2kva>
ffffffc050403ef6:	fca43023          	sd	a0,-64(s0)
ffffffc050403efa:	00063717          	auipc	a4,0x63
ffffffc050403efe:	2a670713          	addi	a4,a4,678 # ffffffc0504671a0 <current_running>
ffffffc050403f02:	fe043783          	ld	a5,-32(s0)
ffffffc050403f06:	078e                	slli	a5,a5,0x3
ffffffc050403f08:	97ba                	add	a5,a5,a4
ffffffc050403f0a:	639c                	ld	a5,0(a5)
ffffffc050403f0c:	4fb8                	lw	a4,88(a5)
ffffffc050403f0e:	00063697          	auipc	a3,0x63
ffffffc050403f12:	39268693          	addi	a3,a3,914 # ffffffc0504672a0 <pcb>
ffffffc050403f16:	fec42603          	lw	a2,-20(s0)
ffffffc050403f1a:	09800793          	li	a5,152
ffffffc050403f1e:	02f607b3          	mul	a5,a2,a5
ffffffc050403f22:	97b6                	add	a5,a5,a3
ffffffc050403f24:	cfb8                	sw	a4,88(a5)
ffffffc050403f26:	fc043703          	ld	a4,-64(s0)
ffffffc050403f2a:	6785                	lui	a5,0x1
ffffffc050403f2c:	973e                	add	a4,a4,a5
ffffffc050403f2e:	00063697          	auipc	a3,0x63
ffffffc050403f32:	37268693          	addi	a3,a3,882 # ffffffc0504672a0 <pcb>
ffffffc050403f36:	fec42603          	lw	a2,-20(s0)
ffffffc050403f3a:	09800793          	li	a5,152
ffffffc050403f3e:	02f607b3          	mul	a5,a2,a5
ffffffc050403f42:	97b6                	add	a5,a5,a3
ffffffc050403f44:	e398                	sd	a4,0(a5)
ffffffc050403f46:	82818793          	addi	a5,gp,-2008 # ffffffc050464ca8 <thread_stack_index>
ffffffc050403f4a:	439c                	lw	a5,0(a5)
ffffffc050403f4c:	0107979b          	slliw	a5,a5,0x10
ffffffc050403f50:	2781                	sext.w	a5,a5
ffffffc050403f52:	873e                	mv	a4,a5
ffffffc050403f54:	000f07b7          	lui	a5,0xf0
ffffffc050403f58:	0785                	addi	a5,a5,1
ffffffc050403f5a:	07c2                	slli	a5,a5,0x10
ffffffc050403f5c:	973e                	add	a4,a4,a5
ffffffc050403f5e:	00063697          	auipc	a3,0x63
ffffffc050403f62:	34268693          	addi	a3,a3,834 # ffffffc0504672a0 <pcb>
ffffffc050403f66:	fec42603          	lw	a2,-20(s0)
ffffffc050403f6a:	09800793          	li	a5,152
ffffffc050403f6e:	02f607b3          	mul	a5,a2,a5
ffffffc050403f72:	97b6                	add	a5,a5,a3
ffffffc050403f74:	e798                	sd	a4,8(a5)
ffffffc050403f76:	82818793          	addi	a5,gp,-2008 # ffffffc050464ca8 <thread_stack_index>
ffffffc050403f7a:	439c                	lw	a5,0(a5)
ffffffc050403f7c:	2785                	addiw	a5,a5,1
ffffffc050403f7e:	0007871b          	sext.w	a4,a5
ffffffc050403f82:	82818793          	addi	a5,gp,-2008 # ffffffc050464ca8 <thread_stack_index>
ffffffc050403f86:	c398                	sw	a4,0(a5)
ffffffc050403f88:	00063717          	auipc	a4,0x63
ffffffc050403f8c:	31870713          	addi	a4,a4,792 # ffffffc0504672a0 <pcb>
ffffffc050403f90:	fec42683          	lw	a3,-20(s0)
ffffffc050403f94:	09800793          	li	a5,152
ffffffc050403f98:	02f687b3          	mul	a5,a3,a5
ffffffc050403f9c:	97ba                	add	a5,a5,a4
ffffffc050403f9e:	6398                	ld	a4,0(a5)
ffffffc050403fa0:	00063697          	auipc	a3,0x63
ffffffc050403fa4:	30068693          	addi	a3,a3,768 # ffffffc0504672a0 <pcb>
ffffffc050403fa8:	fec42603          	lw	a2,-20(s0)
ffffffc050403fac:	09800793          	li	a5,152
ffffffc050403fb0:	02f607b3          	mul	a5,a2,a5
ffffffc050403fb4:	97b6                	add	a5,a5,a3
ffffffc050403fb6:	ff98                	sd	a4,56(a5)
ffffffc050403fb8:	00063717          	auipc	a4,0x63
ffffffc050403fbc:	2e870713          	addi	a4,a4,744 # ffffffc0504672a0 <pcb>
ffffffc050403fc0:	fec42683          	lw	a3,-20(s0)
ffffffc050403fc4:	09800793          	li	a5,152
ffffffc050403fc8:	02f687b3          	mul	a5,a3,a5
ffffffc050403fcc:	97ba                	add	a5,a5,a4
ffffffc050403fce:	6798                	ld	a4,8(a5)
ffffffc050403fd0:	00063697          	auipc	a3,0x63
ffffffc050403fd4:	2d068693          	addi	a3,a3,720 # ffffffc0504672a0 <pcb>
ffffffc050403fd8:	fec42603          	lw	a2,-20(s0)
ffffffc050403fdc:	09800793          	li	a5,152
ffffffc050403fe0:	02f607b3          	mul	a5,a2,a5
ffffffc050403fe4:	97b6                	add	a5,a5,a3
ffffffc050403fe6:	e3b8                	sd	a4,64(a5)
ffffffc050403fe8:	fec42783          	lw	a5,-20(s0)
ffffffc050403fec:	2785                	addiw	a5,a5,1
ffffffc050403fee:	0007871b          	sext.w	a4,a5
ffffffc050403ff2:	00063697          	auipc	a3,0x63
ffffffc050403ff6:	2ae68693          	addi	a3,a3,686 # ffffffc0504672a0 <pcb>
ffffffc050403ffa:	fec42603          	lw	a2,-20(s0)
ffffffc050403ffe:	09800793          	li	a5,152
ffffffc050404002:	02f607b3          	mul	a5,a2,a5
ffffffc050404006:	97b6                	add	a5,a5,a3
ffffffc050404008:	c7b8                	sw	a4,72(a5)
ffffffc05040400a:	00063717          	auipc	a4,0x63
ffffffc05040400e:	29670713          	addi	a4,a4,662 # ffffffc0504672a0 <pcb>
ffffffc050404012:	fec42683          	lw	a3,-20(s0)
ffffffc050404016:	09800793          	li	a5,152
ffffffc05040401a:	02f687b3          	mul	a5,a3,a5
ffffffc05040401e:	97ba                	add	a5,a5,a4
ffffffc050404020:	0607aa23          	sw	zero,116(a5) # f0074 <_start-0xffffffc05030ff8c>
ffffffc050404024:	00063717          	auipc	a4,0x63
ffffffc050404028:	27c70713          	addi	a4,a4,636 # ffffffc0504672a0 <pcb>
ffffffc05040402c:	fec42683          	lw	a3,-20(s0)
ffffffc050404030:	09800793          	li	a5,152
ffffffc050404034:	02f687b3          	mul	a5,a3,a5
ffffffc050404038:	97ba                	add	a5,a5,a4
ffffffc05040403a:	4709                	li	a4,2
ffffffc05040403c:	dff8                	sw	a4,124(a5)
ffffffc05040403e:	00063717          	auipc	a4,0x63
ffffffc050404042:	26270713          	addi	a4,a4,610 # ffffffc0504672a0 <pcb>
ffffffc050404046:	fec42683          	lw	a3,-20(s0)
ffffffc05040404a:	09800793          	li	a5,152
ffffffc05040404e:	02f687b3          	mul	a5,a3,a5
ffffffc050404052:	97ba                	add	a5,a5,a4
ffffffc050404054:	4709                	li	a4,2
ffffffc050404056:	08e7a023          	sw	a4,128(a5)
ffffffc05040405a:	00063717          	auipc	a4,0x63
ffffffc05040405e:	14670713          	addi	a4,a4,326 # ffffffc0504671a0 <current_running>
ffffffc050404062:	fe043783          	ld	a5,-32(s0)
ffffffc050404066:	078e                	slli	a5,a5,0x3
ffffffc050404068:	97ba                	add	a5,a5,a4
ffffffc05040406a:	639c                	ld	a5,0(a5)
ffffffc05040406c:	0847a703          	lw	a4,132(a5)
ffffffc050404070:	00063697          	auipc	a3,0x63
ffffffc050404074:	23068693          	addi	a3,a3,560 # ffffffc0504672a0 <pcb>
ffffffc050404078:	fec42603          	lw	a2,-20(s0)
ffffffc05040407c:	09800793          	li	a5,152
ffffffc050404080:	02f607b3          	mul	a5,a2,a5
ffffffc050404084:	97b6                	add	a5,a5,a3
ffffffc050404086:	08e7a223          	sw	a4,132(a5)
ffffffc05040408a:	00063717          	auipc	a4,0x63
ffffffc05040408e:	11670713          	addi	a4,a4,278 # ffffffc0504671a0 <current_running>
ffffffc050404092:	fe043783          	ld	a5,-32(s0)
ffffffc050404096:	078e                	slli	a5,a5,0x3
ffffffc050404098:	97ba                	add	a5,a5,a4
ffffffc05040409a:	639c                	ld	a5,0(a5)
ffffffc05040409c:	6b98                	ld	a4,16(a5)
ffffffc05040409e:	00063697          	auipc	a3,0x63
ffffffc0504040a2:	20268693          	addi	a3,a3,514 # ffffffc0504672a0 <pcb>
ffffffc0504040a6:	fec42603          	lw	a2,-20(s0)
ffffffc0504040aa:	09800793          	li	a5,152
ffffffc0504040ae:	02f607b3          	mul	a5,a2,a5
ffffffc0504040b2:	97b6                	add	a5,a5,a3
ffffffc0504040b4:	eb98                	sd	a4,16(a5)
ffffffc0504040b6:	00063717          	auipc	a4,0x63
ffffffc0504040ba:	1ea70713          	addi	a4,a4,490 # ffffffc0504672a0 <pcb>
ffffffc0504040be:	fec42683          	lw	a3,-20(s0)
ffffffc0504040c2:	09800793          	li	a5,152
ffffffc0504040c6:	02f687b3          	mul	a5,a3,a5
ffffffc0504040ca:	97ba                	add	a5,a5,a4
ffffffc0504040cc:	4705                	li	a4,1
ffffffc0504040ce:	dfb8                	sw	a4,120(a5)
ffffffc0504040d0:	fec42703          	lw	a4,-20(s0)
ffffffc0504040d4:	09800793          	li	a5,152
ffffffc0504040d8:	02f707b3          	mul	a5,a4,a5
ffffffc0504040dc:	02078713          	addi	a4,a5,32
ffffffc0504040e0:	00063797          	auipc	a5,0x63
ffffffc0504040e4:	1c078793          	addi	a5,a5,448 # ffffffc0504672a0 <pcb>
ffffffc0504040e8:	97ba                	add	a5,a5,a4
ffffffc0504040ea:	07a1                	addi	a5,a5,8
ffffffc0504040ec:	853e                	mv	a0,a5
ffffffc0504040ee:	a6ffe0ef          	jal	ra,ffffffc050402b5c <list_init>
ffffffc0504040f2:	00063717          	auipc	a4,0x63
ffffffc0504040f6:	1ae70713          	addi	a4,a4,430 # ffffffc0504672a0 <pcb>
ffffffc0504040fa:	fec42683          	lw	a3,-20(s0)
ffffffc0504040fe:	09800793          	li	a5,152
ffffffc050404102:	02f687b3          	mul	a5,a3,a5
ffffffc050404106:	97ba                	add	a5,a5,a4
ffffffc050404108:	639c                	ld	a5,0(a5)
ffffffc05040410a:	ee078793          	addi	a5,a5,-288
ffffffc05040410e:	faf43c23          	sd	a5,-72(s0)
ffffffc050404112:	00063717          	auipc	a4,0x63
ffffffc050404116:	08e70713          	addi	a4,a4,142 # ffffffc0504671a0 <current_running>
ffffffc05040411a:	fe043783          	ld	a5,-32(s0)
ffffffc05040411e:	078e                	slli	a5,a5,0x3
ffffffc050404120:	97ba                	add	a5,a5,a4
ffffffc050404122:	639c                	ld	a5,0(a5)
ffffffc050404124:	639c                	ld	a5,0(a5)
ffffffc050404126:	07078793          	addi	a5,a5,112
ffffffc05040412a:	faf43823          	sd	a5,-80(s0)
ffffffc05040412e:	fb043783          	ld	a5,-80(s0)
ffffffc050404132:	6f9c                	ld	a5,24(a5)
ffffffc050404134:	faf43423          	sd	a5,-88(s0)
ffffffc050404138:	00063717          	auipc	a4,0x63
ffffffc05040413c:	16870713          	addi	a4,a4,360 # ffffffc0504672a0 <pcb>
ffffffc050404140:	fec42683          	lw	a3,-20(s0)
ffffffc050404144:	09800793          	li	a5,152
ffffffc050404148:	02f687b3          	mul	a5,a3,a5
ffffffc05040414c:	97ba                	add	a5,a5,a4
ffffffc05040414e:	6798                	ld	a4,8(a5)
ffffffc050404150:	fb843783          	ld	a5,-72(s0)
ffffffc050404154:	eb98                	sd	a4,16(a5)
ffffffc050404156:	fb843783          	ld	a5,-72(s0)
ffffffc05040415a:	fa843703          	ld	a4,-88(s0)
ffffffc05040415e:	ef98                	sd	a4,24(a5)
ffffffc050404160:	fec42703          	lw	a4,-20(s0)
ffffffc050404164:	09800793          	li	a5,152
ffffffc050404168:	02f70733          	mul	a4,a4,a5
ffffffc05040416c:	00063797          	auipc	a5,0x63
ffffffc050404170:	13478793          	addi	a5,a5,308 # ffffffc0504672a0 <pcb>
ffffffc050404174:	97ba                	add	a5,a5,a4
ffffffc050404176:	873e                	mv	a4,a5
ffffffc050404178:	fb843783          	ld	a5,-72(s0)
ffffffc05040417c:	f398                	sd	a4,32(a5)
ffffffc05040417e:	f9043703          	ld	a4,-112(s0)
ffffffc050404182:	fb843783          	ld	a5,-72(s0)
ffffffc050404186:	ebb8                	sd	a4,80(a5)
ffffffc050404188:	f9843703          	ld	a4,-104(s0)
ffffffc05040418c:	fb843783          	ld	a5,-72(s0)
ffffffc050404190:	10e7b423          	sd	a4,264(a5)
ffffffc050404194:	fb843783          	ld	a5,-72(s0)
ffffffc050404198:	00040737          	lui	a4,0x40
ffffffc05040419c:	10e7b023          	sd	a4,256(a5)
ffffffc0504041a0:	00063717          	auipc	a4,0x63
ffffffc0504041a4:	10070713          	addi	a4,a4,256 # ffffffc0504672a0 <pcb>
ffffffc0504041a8:	fec42683          	lw	a3,-20(s0)
ffffffc0504041ac:	09800793          	li	a5,152
ffffffc0504041b0:	02f687b3          	mul	a5,a3,a5
ffffffc0504041b4:	97ba                	add	a5,a5,a4
ffffffc0504041b6:	639c                	ld	a5,0(a5)
ffffffc0504041b8:	e7078713          	addi	a4,a5,-400
ffffffc0504041bc:	00063697          	auipc	a3,0x63
ffffffc0504041c0:	0e468693          	addi	a3,a3,228 # ffffffc0504672a0 <pcb>
ffffffc0504041c4:	fec42603          	lw	a2,-20(s0)
ffffffc0504041c8:	09800793          	li	a5,152
ffffffc0504041cc:	02f607b3          	mul	a5,a2,a5
ffffffc0504041d0:	97b6                	add	a5,a5,a3
ffffffc0504041d2:	e398                	sd	a4,0(a5)
ffffffc0504041d4:	00063717          	auipc	a4,0x63
ffffffc0504041d8:	0cc70713          	addi	a4,a4,204 # ffffffc0504672a0 <pcb>
ffffffc0504041dc:	fec42683          	lw	a3,-20(s0)
ffffffc0504041e0:	09800793          	li	a5,152
ffffffc0504041e4:	02f687b3          	mul	a5,a3,a5
ffffffc0504041e8:	97ba                	add	a5,a5,a4
ffffffc0504041ea:	639c                	ld	a5,0(a5)
ffffffc0504041ec:	faf43023          	sd	a5,-96(s0)
ffffffc0504041f0:	ffffc717          	auipc	a4,0xffffc
ffffffc0504041f4:	f4c70713          	addi	a4,a4,-180 # ffffffc05040013c <ret_from_exception>
ffffffc0504041f8:	fa043783          	ld	a5,-96(s0)
ffffffc0504041fc:	e398                	sd	a4,0(a5)
ffffffc0504041fe:	00063717          	auipc	a4,0x63
ffffffc050404202:	0a270713          	addi	a4,a4,162 # ffffffc0504672a0 <pcb>
ffffffc050404206:	fec42683          	lw	a3,-20(s0)
ffffffc05040420a:	09800793          	li	a5,152
ffffffc05040420e:	02f687b3          	mul	a5,a3,a5
ffffffc050404212:	97ba                	add	a5,a5,a4
ffffffc050404214:	6398                	ld	a4,0(a5)
ffffffc050404216:	fa043783          	ld	a5,-96(s0)
ffffffc05040421a:	e798                	sd	a4,8(a5)
ffffffc05040421c:	4789                	li	a5,2
ffffffc05040421e:	fef42423          	sw	a5,-24(s0)
ffffffc050404222:	a831                	j	ffffffc05040423e <do_mthread_create+0x428>
ffffffc050404224:	fa043703          	ld	a4,-96(s0)
ffffffc050404228:	fe842783          	lw	a5,-24(s0)
ffffffc05040422c:	078e                	slli	a5,a5,0x3
ffffffc05040422e:	97ba                	add	a5,a5,a4
ffffffc050404230:	0007b023          	sd	zero,0(a5)
ffffffc050404234:	fe842783          	lw	a5,-24(s0)
ffffffc050404238:	2785                	addiw	a5,a5,1
ffffffc05040423a:	fef42423          	sw	a5,-24(s0)
ffffffc05040423e:	fe842783          	lw	a5,-24(s0)
ffffffc050404242:	0007871b          	sext.w	a4,a5
ffffffc050404246:	47b5                	li	a5,13
ffffffc050404248:	fce7dee3          	bge	a5,a4,ffffffc050404224 <do_mthread_create+0x40e>
ffffffc05040424c:	fec42703          	lw	a4,-20(s0)
ffffffc050404250:	09800793          	li	a5,152
ffffffc050404254:	02f70733          	mul	a4,a4,a5
ffffffc050404258:	00063797          	auipc	a5,0x63
ffffffc05040425c:	04878793          	addi	a5,a5,72 # ffffffc0504672a0 <pcb>
ffffffc050404260:	97ba                	add	a5,a5,a4
ffffffc050404262:	85be                	mv	a1,a5
ffffffc050404264:	00063517          	auipc	a0,0x63
ffffffc050404268:	f2c50513          	addi	a0,a0,-212 # ffffffc050467190 <ready_queue>
ffffffc05040426c:	9a1fe0ef          	jal	ra,ffffffc050402c0c <in_queue>
ffffffc050404270:	00063717          	auipc	a4,0x63
ffffffc050404274:	03070713          	addi	a4,a4,48 # ffffffc0504672a0 <pcb>
ffffffc050404278:	fec42683          	lw	a3,-20(s0)
ffffffc05040427c:	09800793          	li	a5,152
ffffffc050404280:	02f687b3          	mul	a5,a3,a5
ffffffc050404284:	97ba                	add	a5,a5,a4
ffffffc050404286:	47bc                	lw	a5,72(a5)
ffffffc050404288:	853e                	mv	a0,a5
ffffffc05040428a:	70a6                	ld	ra,104(sp)
ffffffc05040428c:	7406                	ld	s0,96(sp)
ffffffc05040428e:	6165                	addi	sp,sp,112
ffffffc050404290:	8082                	ret

ffffffc050404292 <do_mthread_join>:
ffffffc050404292:	1101                	addi	sp,sp,-32
ffffffc050404294:	ec06                	sd	ra,24(sp)
ffffffc050404296:	e822                	sd	s0,16(sp)
ffffffc050404298:	1000                	addi	s0,sp,32
ffffffc05040429a:	87aa                	mv	a5,a0
ffffffc05040429c:	fef42623          	sw	a5,-20(s0)
ffffffc0504042a0:	fec42783          	lw	a5,-20(s0)
ffffffc0504042a4:	853e                	mv	a0,a5
ffffffc0504042a6:	9fbff0ef          	jal	ra,ffffffc050403ca0 <do_waitpid>
ffffffc0504042aa:	0001                	nop
ffffffc0504042ac:	853e                	mv	a0,a5
ffffffc0504042ae:	60e2                	ld	ra,24(sp)
ffffffc0504042b0:	6442                	ld	s0,16(sp)
ffffffc0504042b2:	6105                	addi	sp,sp,32
ffffffc0504042b4:	8082                	ret

ffffffc0504042b6 <get_ticks>:
ffffffc0504042b6:	1141                	addi	sp,sp,-16
ffffffc0504042b8:	e422                	sd	s0,8(sp)
ffffffc0504042ba:	0800                	addi	s0,sp,16
ffffffc0504042bc:	c0102773          	rdtime	a4
ffffffc0504042c0:	87818793          	addi	a5,gp,-1928 # ffffffc050464cf8 <time_elapsed>
ffffffc0504042c4:	e398                	sd	a4,0(a5)
ffffffc0504042c6:	87818793          	addi	a5,gp,-1928 # ffffffc050464cf8 <time_elapsed>
ffffffc0504042ca:	639c                	ld	a5,0(a5)
ffffffc0504042cc:	853e                	mv	a0,a5
ffffffc0504042ce:	6422                	ld	s0,8(sp)
ffffffc0504042d0:	0141                	addi	sp,sp,16
ffffffc0504042d2:	8082                	ret

ffffffc0504042d4 <get_timer>:
ffffffc0504042d4:	1141                	addi	sp,sp,-16
ffffffc0504042d6:	e406                	sd	ra,8(sp)
ffffffc0504042d8:	e022                	sd	s0,0(sp)
ffffffc0504042da:	0800                	addi	s0,sp,16
ffffffc0504042dc:	fdbff0ef          	jal	ra,ffffffc0504042b6 <get_ticks>
ffffffc0504042e0:	872a                	mv	a4,a0
ffffffc0504042e2:	88018793          	addi	a5,gp,-1920 # ffffffc050464d00 <time_base>
ffffffc0504042e6:	439c                	lw	a5,0(a5)
ffffffc0504042e8:	1782                	slli	a5,a5,0x20
ffffffc0504042ea:	9381                	srli	a5,a5,0x20
ffffffc0504042ec:	02f757b3          	divu	a5,a4,a5
ffffffc0504042f0:	853e                	mv	a0,a5
ffffffc0504042f2:	60a2                	ld	ra,8(sp)
ffffffc0504042f4:	6402                	ld	s0,0(sp)
ffffffc0504042f6:	0141                	addi	sp,sp,16
ffffffc0504042f8:	8082                	ret

ffffffc0504042fa <get_time_base>:
ffffffc0504042fa:	1141                	addi	sp,sp,-16
ffffffc0504042fc:	e422                	sd	s0,8(sp)
ffffffc0504042fe:	0800                	addi	s0,sp,16
ffffffc050404300:	88018793          	addi	a5,gp,-1920 # ffffffc050464d00 <time_base>
ffffffc050404304:	439c                	lw	a5,0(a5)
ffffffc050404306:	1782                	slli	a5,a5,0x20
ffffffc050404308:	9381                	srli	a5,a5,0x20
ffffffc05040430a:	853e                	mv	a0,a5
ffffffc05040430c:	6422                	ld	s0,8(sp)
ffffffc05040430e:	0141                	addi	sp,sp,16
ffffffc050404310:	8082                	ret

ffffffc050404312 <latency>:
ffffffc050404312:	7179                	addi	sp,sp,-48
ffffffc050404314:	f406                	sd	ra,40(sp)
ffffffc050404316:	f022                	sd	s0,32(sp)
ffffffc050404318:	1800                	addi	s0,sp,48
ffffffc05040431a:	fca43c23          	sd	a0,-40(s0)
ffffffc05040431e:	fb7ff0ef          	jal	ra,ffffffc0504042d4 <get_timer>
ffffffc050404322:	fea43423          	sd	a0,-24(s0)
ffffffc050404326:	0001                	nop
ffffffc050404328:	fadff0ef          	jal	ra,ffffffc0504042d4 <get_timer>
ffffffc05040432c:	872a                	mv	a4,a0
ffffffc05040432e:	fe843783          	ld	a5,-24(s0)
ffffffc050404332:	40f707b3          	sub	a5,a4,a5
ffffffc050404336:	fd843703          	ld	a4,-40(s0)
ffffffc05040433a:	fee7e7e3          	bltu	a5,a4,ffffffc050404328 <latency+0x16>
ffffffc05040433e:	0001                	nop
ffffffc050404340:	70a2                	ld	ra,40(sp)
ffffffc050404342:	7402                	ld	s0,32(sp)
ffffffc050404344:	6145                	addi	sp,sp,48
ffffffc050404346:	8082                	ret

ffffffc050404348 <sbi_send_ipi>:
ffffffc050404348:	1101                	addi	sp,sp,-32
ffffffc05040434a:	ec22                	sd	s0,24(sp)
ffffffc05040434c:	1000                	addi	s0,sp,32
ffffffc05040434e:	fea43423          	sd	a0,-24(s0)
ffffffc050404352:	fe843783          	ld	a5,-24(s0)
ffffffc050404356:	853e                	mv	a0,a5
ffffffc050404358:	4581                	li	a1,0
ffffffc05040435a:	4601                	li	a2,0
ffffffc05040435c:	4891                	li	a7,4
ffffffc05040435e:	00000073          	ecall
ffffffc050404362:	0001                	nop
ffffffc050404364:	6462                	ld	s0,24(sp)
ffffffc050404366:	6105                	addi	sp,sp,32
ffffffc050404368:	8082                	ret

ffffffc05040436a <atomic_cmpxchg>:
ffffffc05040436a:	7179                	addi	sp,sp,-48
ffffffc05040436c:	f422                	sd	s0,40(sp)
ffffffc05040436e:	1800                	addi	s0,sp,48
ffffffc050404370:	87aa                	mv	a5,a0
ffffffc050404372:	872e                	mv	a4,a1
ffffffc050404374:	fcc43823          	sd	a2,-48(s0)
ffffffc050404378:	fcf42e23          	sw	a5,-36(s0)
ffffffc05040437c:	87ba                	mv	a5,a4
ffffffc05040437e:	fcf42c23          	sw	a5,-40(s0)
ffffffc050404382:	fd043783          	ld	a5,-48(s0)
ffffffc050404386:	fdc42703          	lw	a4,-36(s0)
ffffffc05040438a:	fd842683          	lw	a3,-40(s0)
ffffffc05040438e:	1007a62f          	lr.w	a2,(a5)
ffffffc050404392:	00e61763          	bne	a2,a4,ffffffc0504043a0 <atomic_cmpxchg+0x36>
ffffffc050404396:	1ad7a5af          	sc.w.rl	a1,a3,(a5)
ffffffc05040439a:	f9f5                	bnez	a1,ffffffc05040438e <atomic_cmpxchg+0x24>
ffffffc05040439c:	0330000f          	fence	rw,rw
ffffffc0504043a0:	fec42623          	sw	a2,-20(s0)
ffffffc0504043a4:	fec42783          	lw	a5,-20(s0)
ffffffc0504043a8:	853e                	mv	a0,a5
ffffffc0504043aa:	7422                	ld	s0,40(sp)
ffffffc0504043ac:	6145                	addi	sp,sp,48
ffffffc0504043ae:	8082                	ret

ffffffc0504043b0 <smp_init>:
ffffffc0504043b0:	1141                	addi	sp,sp,-16
ffffffc0504043b2:	e422                	sd	s0,8(sp)
ffffffc0504043b4:	0800                	addi	s0,sp,16
ffffffc0504043b6:	00064797          	auipc	a5,0x64
ffffffc0504043ba:	86a78793          	addi	a5,a5,-1942 # ffffffc050467c20 <kernel_lock>
ffffffc0504043be:	0007a023          	sw	zero,0(a5)
ffffffc0504043c2:	0001                	nop
ffffffc0504043c4:	6422                	ld	s0,8(sp)
ffffffc0504043c6:	0141                	addi	sp,sp,16
ffffffc0504043c8:	8082                	ret

ffffffc0504043ca <wakeup_other_hart>:
ffffffc0504043ca:	1141                	addi	sp,sp,-16
ffffffc0504043cc:	e406                	sd	ra,8(sp)
ffffffc0504043ce:	e022                	sd	s0,0(sp)
ffffffc0504043d0:	0800                	addi	s0,sp,16
ffffffc0504043d2:	4501                	li	a0,0
ffffffc0504043d4:	f75ff0ef          	jal	ra,ffffffc050404348 <sbi_send_ipi>
ffffffc0504043d8:	14401073          	csrw	sip,zero
ffffffc0504043dc:	0001                	nop
ffffffc0504043de:	60a2                	ld	ra,8(sp)
ffffffc0504043e0:	6402                	ld	s0,0(sp)
ffffffc0504043e2:	0141                	addi	sp,sp,16
ffffffc0504043e4:	8082                	ret

ffffffc0504043e6 <lock_kernel>:
ffffffc0504043e6:	1141                	addi	sp,sp,-16
ffffffc0504043e8:	e406                	sd	ra,8(sp)
ffffffc0504043ea:	e022                	sd	s0,0(sp)
ffffffc0504043ec:	0800                	addi	s0,sp,16
ffffffc0504043ee:	0001                	nop
ffffffc0504043f0:	00064797          	auipc	a5,0x64
ffffffc0504043f4:	83078793          	addi	a5,a5,-2000 # ffffffc050467c20 <kernel_lock>
ffffffc0504043f8:	863e                	mv	a2,a5
ffffffc0504043fa:	4585                	li	a1,1
ffffffc0504043fc:	4501                	li	a0,0
ffffffc0504043fe:	f6dff0ef          	jal	ra,ffffffc05040436a <atomic_cmpxchg>
ffffffc050404402:	87aa                	mv	a5,a0
ffffffc050404404:	2781                	sext.w	a5,a5
ffffffc050404406:	f7ed                	bnez	a5,ffffffc0504043f0 <lock_kernel+0xa>
ffffffc050404408:	0001                	nop
ffffffc05040440a:	0001                	nop
ffffffc05040440c:	60a2                	ld	ra,8(sp)
ffffffc05040440e:	6402                	ld	s0,0(sp)
ffffffc050404410:	0141                	addi	sp,sp,16
ffffffc050404412:	8082                	ret

ffffffc050404414 <unlock_kernel>:
ffffffc050404414:	1141                	addi	sp,sp,-16
ffffffc050404416:	e422                	sd	s0,8(sp)
ffffffc050404418:	0800                	addi	s0,sp,16
ffffffc05040441a:	00064797          	auipc	a5,0x64
ffffffc05040441e:	80678793          	addi	a5,a5,-2042 # ffffffc050467c20 <kernel_lock>
ffffffc050404422:	0007a023          	sw	zero,0(a5)
ffffffc050404426:	0001                	nop
ffffffc050404428:	6422                	ld	s0,8(sp)
ffffffc05040442a:	0141                	addi	sp,sp,16
ffffffc05040442c:	8082                	ret

ffffffc05040442e <sbi_sd_write>:
ffffffc05040442e:	1101                	addi	sp,sp,-32
ffffffc050404430:	ec22                	sd	s0,24(sp)
ffffffc050404432:	1000                	addi	s0,sp,32
ffffffc050404434:	87aa                	mv	a5,a0
ffffffc050404436:	86ae                	mv	a3,a1
ffffffc050404438:	8732                	mv	a4,a2
ffffffc05040443a:	fef42623          	sw	a5,-20(s0)
ffffffc05040443e:	87b6                	mv	a5,a3
ffffffc050404440:	fef42423          	sw	a5,-24(s0)
ffffffc050404444:	87ba                	mv	a5,a4
ffffffc050404446:	fef42223          	sw	a5,-28(s0)
ffffffc05040444a:	fec46783          	lwu	a5,-20(s0)
ffffffc05040444e:	853e                	mv	a0,a5
ffffffc050404450:	fe846783          	lwu	a5,-24(s0)
ffffffc050404454:	85be                	mv	a1,a5
ffffffc050404456:	fe446783          	lwu	a5,-28(s0)
ffffffc05040445a:	863e                	mv	a2,a5
ffffffc05040445c:	48a9                	li	a7,10
ffffffc05040445e:	00000073          	ecall
ffffffc050404462:	87aa                	mv	a5,a0
ffffffc050404464:	853e                	mv	a0,a5
ffffffc050404466:	6462                	ld	s0,24(sp)
ffffffc050404468:	6105                	addi	sp,sp,32
ffffffc05040446a:	8082                	ret

ffffffc05040446c <sbi_sd_read>:
ffffffc05040446c:	1101                	addi	sp,sp,-32
ffffffc05040446e:	ec22                	sd	s0,24(sp)
ffffffc050404470:	1000                	addi	s0,sp,32
ffffffc050404472:	87aa                	mv	a5,a0
ffffffc050404474:	86ae                	mv	a3,a1
ffffffc050404476:	8732                	mv	a4,a2
ffffffc050404478:	fef42623          	sw	a5,-20(s0)
ffffffc05040447c:	87b6                	mv	a5,a3
ffffffc05040447e:	fef42423          	sw	a5,-24(s0)
ffffffc050404482:	87ba                	mv	a5,a4
ffffffc050404484:	fef42223          	sw	a5,-28(s0)
ffffffc050404488:	fec46783          	lwu	a5,-20(s0)
ffffffc05040448c:	853e                	mv	a0,a5
ffffffc05040448e:	fe846783          	lwu	a5,-24(s0)
ffffffc050404492:	85be                	mv	a1,a5
ffffffc050404494:	fe446783          	lwu	a5,-28(s0)
ffffffc050404498:	863e                	mv	a2,a5
ffffffc05040449a:	48ad                	li	a7,11
ffffffc05040449c:	00000073          	ecall
ffffffc0504044a0:	87aa                	mv	a5,a0
ffffffc0504044a2:	853e                	mv	a0,a5
ffffffc0504044a4:	6462                	ld	s0,24(sp)
ffffffc0504044a6:	6105                	addi	sp,sp,32
ffffffc0504044a8:	8082                	ret

ffffffc0504044aa <local_flush_tlb_all>:
ffffffc0504044aa:	1141                	addi	sp,sp,-16
ffffffc0504044ac:	e422                	sd	s0,8(sp)
ffffffc0504044ae:	0800                	addi	s0,sp,16
ffffffc0504044b0:	12000073          	sfence.vma
ffffffc0504044b4:	0001                	nop
ffffffc0504044b6:	6422                	ld	s0,8(sp)
ffffffc0504044b8:	0141                	addi	sp,sp,16
ffffffc0504044ba:	8082                	ret

ffffffc0504044bc <kva2pa>:
ffffffc0504044bc:	1101                	addi	sp,sp,-32
ffffffc0504044be:	ec22                	sd	s0,24(sp)
ffffffc0504044c0:	1000                	addi	s0,sp,32
ffffffc0504044c2:	fea43423          	sd	a0,-24(s0)
ffffffc0504044c6:	fe843703          	ld	a4,-24(s0)
ffffffc0504044ca:	4785                	li	a5,1
ffffffc0504044cc:	179a                	slli	a5,a5,0x26
ffffffc0504044ce:	97ba                	add	a5,a5,a4
ffffffc0504044d0:	853e                	mv	a0,a5
ffffffc0504044d2:	6462                	ld	s0,24(sp)
ffffffc0504044d4:	6105                	addi	sp,sp,32
ffffffc0504044d6:	8082                	ret

ffffffc0504044d8 <pa2kva>:
ffffffc0504044d8:	1101                	addi	sp,sp,-32
ffffffc0504044da:	ec22                	sd	s0,24(sp)
ffffffc0504044dc:	1000                	addi	s0,sp,32
ffffffc0504044de:	fea43423          	sd	a0,-24(s0)
ffffffc0504044e2:	fe843703          	ld	a4,-24(s0)
ffffffc0504044e6:	57fd                	li	a5,-1
ffffffc0504044e8:	179a                	slli	a5,a5,0x26
ffffffc0504044ea:	97ba                	add	a5,a5,a4
ffffffc0504044ec:	853e                	mv	a0,a5
ffffffc0504044ee:	6462                	ld	s0,24(sp)
ffffffc0504044f0:	6105                	addi	sp,sp,32
ffffffc0504044f2:	8082                	ret

ffffffc0504044f4 <get_pa>:
ffffffc0504044f4:	1101                	addi	sp,sp,-32
ffffffc0504044f6:	ec22                	sd	s0,24(sp)
ffffffc0504044f8:	1000                	addi	s0,sp,32
ffffffc0504044fa:	fea43423          	sd	a0,-24(s0)
ffffffc0504044fe:	fe843783          	ld	a5,-24(s0)
ffffffc050404502:	83a9                	srli	a5,a5,0xa
ffffffc050404504:	07b2                	slli	a5,a5,0xc
ffffffc050404506:	853e                	mv	a0,a5
ffffffc050404508:	6462                	ld	s0,24(sp)
ffffffc05040450a:	6105                	addi	sp,sp,32
ffffffc05040450c:	8082                	ret

ffffffc05040450e <set_pfn>:
ffffffc05040450e:	1101                	addi	sp,sp,-32
ffffffc050404510:	ec22                	sd	s0,24(sp)
ffffffc050404512:	1000                	addi	s0,sp,32
ffffffc050404514:	fea43423          	sd	a0,-24(s0)
ffffffc050404518:	feb43023          	sd	a1,-32(s0)
ffffffc05040451c:	fe843783          	ld	a5,-24(s0)
ffffffc050404520:	639c                	ld	a5,0(a5)
ffffffc050404522:	3ff7f713          	andi	a4,a5,1023
ffffffc050404526:	fe843783          	ld	a5,-24(s0)
ffffffc05040452a:	e398                	sd	a4,0(a5)
ffffffc05040452c:	fe843783          	ld	a5,-24(s0)
ffffffc050404530:	6398                	ld	a4,0(a5)
ffffffc050404532:	fe043783          	ld	a5,-32(s0)
ffffffc050404536:	07aa                	slli	a5,a5,0xa
ffffffc050404538:	8f5d                	or	a4,a4,a5
ffffffc05040453a:	fe843783          	ld	a5,-24(s0)
ffffffc05040453e:	e398                	sd	a4,0(a5)
ffffffc050404540:	0001                	nop
ffffffc050404542:	6462                	ld	s0,24(sp)
ffffffc050404544:	6105                	addi	sp,sp,32
ffffffc050404546:	8082                	ret

ffffffc050404548 <set_attribute>:
ffffffc050404548:	1101                	addi	sp,sp,-32
ffffffc05040454a:	ec22                	sd	s0,24(sp)
ffffffc05040454c:	1000                	addi	s0,sp,32
ffffffc05040454e:	fea43423          	sd	a0,-24(s0)
ffffffc050404552:	feb43023          	sd	a1,-32(s0)
ffffffc050404556:	fe843783          	ld	a5,-24(s0)
ffffffc05040455a:	639c                	ld	a5,0(a5)
ffffffc05040455c:	c007f713          	andi	a4,a5,-1024
ffffffc050404560:	fe843783          	ld	a5,-24(s0)
ffffffc050404564:	e398                	sd	a4,0(a5)
ffffffc050404566:	fe843783          	ld	a5,-24(s0)
ffffffc05040456a:	6398                	ld	a4,0(a5)
ffffffc05040456c:	fe043783          	ld	a5,-32(s0)
ffffffc050404570:	8f5d                	or	a4,a4,a5
ffffffc050404572:	fe843783          	ld	a5,-24(s0)
ffffffc050404576:	e398                	sd	a4,0(a5)
ffffffc050404578:	0001                	nop
ffffffc05040457a:	6462                	ld	s0,24(sp)
ffffffc05040457c:	6105                	addi	sp,sp,32
ffffffc05040457e:	8082                	ret

ffffffc050404580 <clear_pgdir>:
ffffffc050404580:	7179                	addi	sp,sp,-48
ffffffc050404582:	f422                	sd	s0,40(sp)
ffffffc050404584:	1800                	addi	s0,sp,48
ffffffc050404586:	fca43c23          	sd	a0,-40(s0)
ffffffc05040458a:	fd843783          	ld	a5,-40(s0)
ffffffc05040458e:	fef43023          	sd	a5,-32(s0)
ffffffc050404592:	fe042623          	sw	zero,-20(s0)
ffffffc050404596:	a831                	j	ffffffc0504045b2 <clear_pgdir+0x32>
ffffffc050404598:	fe043783          	ld	a5,-32(s0)
ffffffc05040459c:	00878713          	addi	a4,a5,8
ffffffc0504045a0:	fee43023          	sd	a4,-32(s0)
ffffffc0504045a4:	0007b023          	sd	zero,0(a5)
ffffffc0504045a8:	fec42783          	lw	a5,-20(s0)
ffffffc0504045ac:	2785                	addiw	a5,a5,1
ffffffc0504045ae:	fef42623          	sw	a5,-20(s0)
ffffffc0504045b2:	fec42783          	lw	a5,-20(s0)
ffffffc0504045b6:	0007871b          	sext.w	a4,a5
ffffffc0504045ba:	1ff00793          	li	a5,511
ffffffc0504045be:	fce7dde3          	bge	a5,a4,ffffffc050404598 <clear_pgdir+0x18>
ffffffc0504045c2:	0001                	nop
ffffffc0504045c4:	0001                	nop
ffffffc0504045c6:	7422                	ld	s0,40(sp)
ffffffc0504045c8:	6145                	addi	sp,sp,48
ffffffc0504045ca:	8082                	ret

ffffffc0504045cc <_panic>:
ffffffc0504045cc:	7179                	addi	sp,sp,-48
ffffffc0504045ce:	f406                	sd	ra,40(sp)
ffffffc0504045d0:	f022                	sd	s0,32(sp)
ffffffc0504045d2:	1800                	addi	s0,sp,48
ffffffc0504045d4:	fea43423          	sd	a0,-24(s0)
ffffffc0504045d8:	87ae                	mv	a5,a1
ffffffc0504045da:	fcc43c23          	sd	a2,-40(s0)
ffffffc0504045de:	fef42223          	sw	a5,-28(s0)
ffffffc0504045e2:	fe442783          	lw	a5,-28(s0)
ffffffc0504045e6:	86be                	mv	a3,a5
ffffffc0504045e8:	fe843603          	ld	a2,-24(s0)
ffffffc0504045ec:	fd843583          	ld	a1,-40(s0)
ffffffc0504045f0:	00002517          	auipc	a0,0x2
ffffffc0504045f4:	4c050513          	addi	a0,a0,1216 # ffffffc050406ab0 <__FUNCTION__.1727+0x18>
ffffffc0504045f8:	094020ef          	jal	ra,ffffffc05040668c <printk>
ffffffc0504045fc:	a001                	j	ffffffc0504045fc <_panic+0x30>

ffffffc0504045fe <swap>:
ffffffc0504045fe:	711d                	addi	sp,sp,-96
ffffffc050404600:	ec86                	sd	ra,88(sp)
ffffffc050404602:	e8a2                	sd	s0,80(sp)
ffffffc050404604:	1080                	addi	s0,sp,96
ffffffc050404606:	faa43c23          	sd	a0,-72(s0)
ffffffc05040460a:	87ae                	mv	a5,a1
ffffffc05040460c:	fac43423          	sd	a2,-88(s0)
ffffffc050404610:	faf42a23          	sw	a5,-76(s0)
ffffffc050404614:	fb843783          	ld	a5,-72(s0)
ffffffc050404618:	07b2                	slli	a5,a5,0xc
ffffffc05040461a:	853e                	mv	a0,a5
ffffffc05040461c:	ebdff0ef          	jal	ra,ffffffc0504044d8 <pa2kva>
ffffffc050404620:	87aa                	mv	a5,a0
ffffffc050404622:	fcf43c23          	sd	a5,-40(s0)
ffffffc050404626:	fe042623          	sw	zero,-20(s0)
ffffffc05040462a:	a27d                	j	ffffffc0504047d8 <swap+0x1da>
ffffffc05040462c:	fec42783          	lw	a5,-20(s0)
ffffffc050404630:	078e                	slli	a5,a5,0x3
ffffffc050404632:	fd843703          	ld	a4,-40(s0)
ffffffc050404636:	97ba                	add	a5,a5,a4
ffffffc050404638:	639c                	ld	a5,0(a5)
ffffffc05040463a:	18078a63          	beqz	a5,ffffffc0504047ce <swap+0x1d0>
ffffffc05040463e:	fec42783          	lw	a5,-20(s0)
ffffffc050404642:	078e                	slli	a5,a5,0x3
ffffffc050404644:	fd843703          	ld	a4,-40(s0)
ffffffc050404648:	97ba                	add	a5,a5,a4
ffffffc05040464a:	639c                	ld	a5,0(a5)
ffffffc05040464c:	853e                	mv	a0,a5
ffffffc05040464e:	ea7ff0ef          	jal	ra,ffffffc0504044f4 <get_pa>
ffffffc050404652:	87aa                	mv	a5,a0
ffffffc050404654:	853e                	mv	a0,a5
ffffffc050404656:	e83ff0ef          	jal	ra,ffffffc0504044d8 <pa2kva>
ffffffc05040465a:	87aa                	mv	a5,a0
ffffffc05040465c:	fcf43823          	sd	a5,-48(s0)
ffffffc050404660:	fe042423          	sw	zero,-24(s0)
ffffffc050404664:	aaa9                	j	ffffffc0504047be <swap+0x1c0>
ffffffc050404666:	fe842783          	lw	a5,-24(s0)
ffffffc05040466a:	078e                	slli	a5,a5,0x3
ffffffc05040466c:	fd043703          	ld	a4,-48(s0)
ffffffc050404670:	97ba                	add	a5,a5,a4
ffffffc050404672:	639c                	ld	a5,0(a5)
ffffffc050404674:	14078063          	beqz	a5,ffffffc0504047b4 <swap+0x1b6>
ffffffc050404678:	fe842783          	lw	a5,-24(s0)
ffffffc05040467c:	078e                	slli	a5,a5,0x3
ffffffc05040467e:	fd043703          	ld	a4,-48(s0)
ffffffc050404682:	97ba                	add	a5,a5,a4
ffffffc050404684:	639c                	ld	a5,0(a5)
ffffffc050404686:	8ba9                	andi	a5,a5,10
ffffffc050404688:	12079663          	bnez	a5,ffffffc0504047b4 <swap+0x1b6>
ffffffc05040468c:	fe842783          	lw	a5,-24(s0)
ffffffc050404690:	078e                	slli	a5,a5,0x3
ffffffc050404692:	fd043703          	ld	a4,-48(s0)
ffffffc050404696:	97ba                	add	a5,a5,a4
ffffffc050404698:	639c                	ld	a5,0(a5)
ffffffc05040469a:	853e                	mv	a0,a5
ffffffc05040469c:	e59ff0ef          	jal	ra,ffffffc0504044f4 <get_pa>
ffffffc0504046a0:	87aa                	mv	a5,a0
ffffffc0504046a2:	853e                	mv	a0,a5
ffffffc0504046a4:	e35ff0ef          	jal	ra,ffffffc0504044d8 <pa2kva>
ffffffc0504046a8:	87aa                	mv	a5,a0
ffffffc0504046aa:	fcf43423          	sd	a5,-56(s0)
ffffffc0504046ae:	fe042223          	sw	zero,-28(s0)
ffffffc0504046b2:	a8cd                	j	ffffffc0504047a4 <swap+0x1a6>
ffffffc0504046b4:	fe442783          	lw	a5,-28(s0)
ffffffc0504046b8:	078e                	slli	a5,a5,0x3
ffffffc0504046ba:	fc843703          	ld	a4,-56(s0)
ffffffc0504046be:	97ba                	add	a5,a5,a4
ffffffc0504046c0:	639c                	ld	a5,0(a5)
ffffffc0504046c2:	cfe1                	beqz	a5,ffffffc05040479a <swap+0x19c>
ffffffc0504046c4:	fe442783          	lw	a5,-28(s0)
ffffffc0504046c8:	078e                	slli	a5,a5,0x3
ffffffc0504046ca:	fc843703          	ld	a4,-56(s0)
ffffffc0504046ce:	97ba                	add	a5,a5,a4
ffffffc0504046d0:	639c                	ld	a5,0(a5)
ffffffc0504046d2:	853e                	mv	a0,a5
ffffffc0504046d4:	e21ff0ef          	jal	ra,ffffffc0504044f4 <get_pa>
ffffffc0504046d8:	872a                	mv	a4,a0
ffffffc0504046da:	fa843783          	ld	a5,-88(s0)
ffffffc0504046de:	0ae79e63          	bne	a5,a4,ffffffc05040479a <swap+0x19c>
ffffffc0504046e2:	fec42783          	lw	a5,-20(s0)
ffffffc0504046e6:	01e79713          	slli	a4,a5,0x1e
ffffffc0504046ea:	fe842783          	lw	a5,-24(s0)
ffffffc0504046ee:	07d6                	slli	a5,a5,0x15
ffffffc0504046f0:	8f5d                	or	a4,a4,a5
ffffffc0504046f2:	fe442783          	lw	a5,-28(s0)
ffffffc0504046f6:	07b2                	slli	a5,a5,0xc
ffffffc0504046f8:	8fd9                	or	a5,a5,a4
ffffffc0504046fa:	fcf43023          	sd	a5,-64(s0)
ffffffc0504046fe:	fb442783          	lw	a5,-76(s0)
ffffffc050404702:	fc043703          	ld	a4,-64(s0)
ffffffc050404706:	8fd9                	or	a5,a5,a4
ffffffc050404708:	fcf43023          	sd	a5,-64(s0)
ffffffc05040470c:	4785                	li	a5,1
ffffffc05040470e:	fef42023          	sw	a5,-32(s0)
ffffffc050404712:	a005                	j	ffffffc050404732 <swap+0x134>
ffffffc050404714:	00064717          	auipc	a4,0x64
ffffffc050404718:	25470713          	addi	a4,a4,596 # ffffffc050468968 <sd_va>
ffffffc05040471c:	fe042783          	lw	a5,-32(s0)
ffffffc050404720:	078e                	slli	a5,a5,0x3
ffffffc050404722:	97ba                	add	a5,a5,a4
ffffffc050404724:	639c                	ld	a5,0(a5)
ffffffc050404726:	cf99                	beqz	a5,ffffffc050404744 <swap+0x146>
ffffffc050404728:	fe042783          	lw	a5,-32(s0)
ffffffc05040472c:	2785                	addiw	a5,a5,1
ffffffc05040472e:	fef42023          	sw	a5,-32(s0)
ffffffc050404732:	fe042783          	lw	a5,-32(s0)
ffffffc050404736:	0007871b          	sext.w	a4,a5
ffffffc05040473a:	0c700793          	li	a5,199
ffffffc05040473e:	fce7dbe3          	bge	a5,a4,ffffffc050404714 <swap+0x116>
ffffffc050404742:	a011                	j	ffffffc050404746 <swap+0x148>
ffffffc050404744:	0001                	nop
ffffffc050404746:	fe042783          	lw	a5,-32(s0)
ffffffc05040474a:	0007871b          	sext.w	a4,a5
ffffffc05040474e:	0c700793          	li	a5,199
ffffffc050404752:	00e7dc63          	bge	a5,a4,ffffffc05040476a <swap+0x16c>
ffffffc050404756:	81818613          	addi	a2,gp,-2024 # ffffffc050464c98 <__FUNCTION__.1390>
ffffffc05040475a:	04200593          	li	a1,66
ffffffc05040475e:	00002517          	auipc	a0,0x2
ffffffc050404762:	37a50513          	addi	a0,a0,890 # ffffffc050406ad8 <__FUNCTION__.1727+0x40>
ffffffc050404766:	e67ff0ef          	jal	ra,ffffffc0504045cc <_panic>
ffffffc05040476a:	00064717          	auipc	a4,0x64
ffffffc05040476e:	1fe70713          	addi	a4,a4,510 # ffffffc050468968 <sd_va>
ffffffc050404772:	fe042783          	lw	a5,-32(s0)
ffffffc050404776:	078e                	slli	a5,a5,0x3
ffffffc050404778:	97ba                	add	a5,a5,a4
ffffffc05040477a:	fc043703          	ld	a4,-64(s0)
ffffffc05040477e:	e398                	sd	a4,0(a5)
ffffffc050404780:	fe442783          	lw	a5,-28(s0)
ffffffc050404784:	078e                	slli	a5,a5,0x3
ffffffc050404786:	fc843703          	ld	a4,-56(s0)
ffffffc05040478a:	97ba                	add	a5,a5,a4
ffffffc05040478c:	0007b023          	sd	zero,0(a5)
ffffffc050404790:	d1bff0ef          	jal	ra,ffffffc0504044aa <local_flush_tlb_all>
ffffffc050404794:	fe042783          	lw	a5,-32(s0)
ffffffc050404798:	a889                	j	ffffffc0504047ea <swap+0x1ec>
ffffffc05040479a:	fe442783          	lw	a5,-28(s0)
ffffffc05040479e:	2785                	addiw	a5,a5,1
ffffffc0504047a0:	fef42223          	sw	a5,-28(s0)
ffffffc0504047a4:	fe442783          	lw	a5,-28(s0)
ffffffc0504047a8:	0007871b          	sext.w	a4,a5
ffffffc0504047ac:	1ff00793          	li	a5,511
ffffffc0504047b0:	f0e7d2e3          	bge	a5,a4,ffffffc0504046b4 <swap+0xb6>
ffffffc0504047b4:	fe842783          	lw	a5,-24(s0)
ffffffc0504047b8:	2785                	addiw	a5,a5,1
ffffffc0504047ba:	fef42423          	sw	a5,-24(s0)
ffffffc0504047be:	fe842783          	lw	a5,-24(s0)
ffffffc0504047c2:	0007871b          	sext.w	a4,a5
ffffffc0504047c6:	1ff00793          	li	a5,511
ffffffc0504047ca:	e8e7dee3          	bge	a5,a4,ffffffc050404666 <swap+0x68>
ffffffc0504047ce:	fec42783          	lw	a5,-20(s0)
ffffffc0504047d2:	2785                	addiw	a5,a5,1
ffffffc0504047d4:	fef42623          	sw	a5,-20(s0)
ffffffc0504047d8:	fec42783          	lw	a5,-20(s0)
ffffffc0504047dc:	0007871b          	sext.w	a4,a5
ffffffc0504047e0:	1ff00793          	li	a5,511
ffffffc0504047e4:	e4e7d4e3          	bge	a5,a4,ffffffc05040462c <swap+0x2e>
ffffffc0504047e8:	4781                	li	a5,0
ffffffc0504047ea:	853e                	mv	a0,a5
ffffffc0504047ec:	60e6                	ld	ra,88(sp)
ffffffc0504047ee:	6446                	ld	s0,80(sp)
ffffffc0504047f0:	6125                	addi	sp,sp,96
ffffffc0504047f2:	8082                	ret

ffffffc0504047f4 <allocPage>:
ffffffc0504047f4:	7159                	addi	sp,sp,-112
ffffffc0504047f6:	f486                	sd	ra,104(sp)
ffffffc0504047f8:	f0a2                	sd	s0,96(sp)
ffffffc0504047fa:	1880                	addi	s0,sp,112
ffffffc0504047fc:	87aa                	mv	a5,a0
ffffffc0504047fe:	872e                	mv	a4,a1
ffffffc050404800:	f8f42e23          	sw	a5,-100(s0)
ffffffc050404804:	87ba                	mv	a5,a4
ffffffc050404806:	f8f42c23          	sw	a5,-104(s0)
ffffffc05040480a:	83018793          	addi	a5,gp,-2000 # ffffffc050464cb0 <memCurr>
ffffffc05040480e:	6398                	ld	a4,0(a5)
ffffffc050404810:	6785                	lui	a5,0x1
ffffffc050404812:	17fd                	addi	a5,a5,-1
ffffffc050404814:	973e                	add	a4,a4,a5
ffffffc050404816:	77fd                	lui	a5,0xfffff
ffffffc050404818:	8ff9                	and	a5,a5,a4
ffffffc05040481a:	fcf43823          	sd	a5,-48(s0)
ffffffc05040481e:	fe042623          	sw	zero,-20(s0)
ffffffc050404822:	aa7fb0ef          	jal	ra,ffffffc0504002c8 <get_current_cpu_id>
ffffffc050404826:	87aa                	mv	a5,a0
ffffffc050404828:	fcf43423          	sd	a5,-56(s0)
ffffffc05040482c:	a09d                	j	ffffffc050404892 <allocPage+0x9e>
ffffffc05040482e:	00063717          	auipc	a4,0x63
ffffffc050404832:	3fa70713          	addi	a4,a4,1018 # ffffffc050467c28 <mem_occupied>
ffffffc050404836:	fec42783          	lw	a5,-20(s0)
ffffffc05040483a:	078a                	slli	a5,a5,0x2
ffffffc05040483c:	97ba                	add	a5,a5,a4
ffffffc05040483e:	439c                	lw	a5,0(a5)
ffffffc050404840:	e7a1                	bnez	a5,ffffffc050404888 <allocPage+0x94>
ffffffc050404842:	f9842783          	lw	a5,-104(s0)
ffffffc050404846:	2781                	sext.w	a5,a5
ffffffc050404848:	c78d                	beqz	a5,ffffffc050404872 <allocPage+0x7e>
ffffffc05040484a:	00063717          	auipc	a4,0x63
ffffffc05040484e:	95670713          	addi	a4,a4,-1706 # ffffffc0504671a0 <current_running>
ffffffc050404852:	fc843783          	ld	a5,-56(s0)
ffffffc050404856:	078e                	slli	a5,a5,0x3
ffffffc050404858:	97ba                	add	a5,a5,a4
ffffffc05040485a:	639c                	ld	a5,0(a5)
ffffffc05040485c:	47b8                	lw	a4,72(a5)
ffffffc05040485e:	00063697          	auipc	a3,0x63
ffffffc050404862:	3ca68693          	addi	a3,a3,970 # ffffffc050467c28 <mem_occupied>
ffffffc050404866:	fec42783          	lw	a5,-20(s0)
ffffffc05040486a:	078a                	slli	a5,a5,0x2
ffffffc05040486c:	97b6                	add	a5,a5,a3
ffffffc05040486e:	c398                	sw	a4,0(a5)
ffffffc050404870:	a80d                	j	ffffffc0504048a2 <allocPage+0xae>
ffffffc050404872:	00063717          	auipc	a4,0x63
ffffffc050404876:	3b670713          	addi	a4,a4,950 # ffffffc050467c28 <mem_occupied>
ffffffc05040487a:	fec42783          	lw	a5,-20(s0)
ffffffc05040487e:	078a                	slli	a5,a5,0x2
ffffffc050404880:	97ba                	add	a5,a5,a4
ffffffc050404882:	4705                	li	a4,1
ffffffc050404884:	c398                	sw	a4,0(a5)
ffffffc050404886:	a831                	j	ffffffc0504048a2 <allocPage+0xae>
ffffffc050404888:	fec42783          	lw	a5,-20(s0)
ffffffc05040488c:	2785                	addiw	a5,a5,1
ffffffc05040488e:	fef42623          	sw	a5,-20(s0)
ffffffc050404892:	fec42783          	lw	a5,-20(s0)
ffffffc050404896:	0007871b          	sext.w	a4,a5
ffffffc05040489a:	0ff00793          	li	a5,255
ffffffc05040489e:	f8e7d8e3          	bge	a5,a4,ffffffc05040482e <allocPage+0x3a>
ffffffc0504048a2:	fec42783          	lw	a5,-20(s0)
ffffffc0504048a6:	0007871b          	sext.w	a4,a5
ffffffc0504048aa:	0ff00793          	li	a5,255
ffffffc0504048ae:	00e7cd63          	blt	a5,a4,ffffffc0504048c8 <allocPage+0xd4>
ffffffc0504048b2:	fec42783          	lw	a5,-20(s0)
ffffffc0504048b6:	00c7979b          	slliw	a5,a5,0xc
ffffffc0504048ba:	2781                	sext.w	a5,a5
ffffffc0504048bc:	873e                	mv	a4,a5
ffffffc0504048be:	83018793          	addi	a5,gp,-2000 # ffffffc050464cb0 <memCurr>
ffffffc0504048c2:	639c                	ld	a5,0(a5)
ffffffc0504048c4:	97ba                	add	a5,a5,a4
ffffffc0504048c6:	a2d9                	j	ffffffc050404a8c <allocPage+0x298>
ffffffc0504048c8:	fe042223          	sw	zero,-28(s0)
ffffffc0504048cc:	fe042423          	sw	zero,-24(s0)
ffffffc0504048d0:	a235                	j	ffffffc0504049fc <allocPage+0x208>
ffffffc0504048d2:	00063717          	auipc	a4,0x63
ffffffc0504048d6:	35670713          	addi	a4,a4,854 # ffffffc050467c28 <mem_occupied>
ffffffc0504048da:	fe842783          	lw	a5,-24(s0)
ffffffc0504048de:	078a                	slli	a5,a5,0x2
ffffffc0504048e0:	97ba                	add	a5,a5,a4
ffffffc0504048e2:	439c                	lw	a5,0(a5)
ffffffc0504048e4:	873e                	mv	a4,a5
ffffffc0504048e6:	4785                	li	a5,1
ffffffc0504048e8:	10e7d563          	bge	a5,a4,ffffffc0504049f2 <allocPage+0x1fe>
ffffffc0504048ec:	00063717          	auipc	a4,0x63
ffffffc0504048f0:	33c70713          	addi	a4,a4,828 # ffffffc050467c28 <mem_occupied>
ffffffc0504048f4:	fe842783          	lw	a5,-24(s0)
ffffffc0504048f8:	078a                	slli	a5,a5,0x2
ffffffc0504048fa:	97ba                	add	a5,a5,a4
ffffffc0504048fc:	439c                	lw	a5,0(a5)
ffffffc0504048fe:	fcf42223          	sw	a5,-60(s0)
ffffffc050404902:	fe042223          	sw	zero,-28(s0)
ffffffc050404906:	a031                	j	ffffffc050404912 <allocPage+0x11e>
ffffffc050404908:	fe442783          	lw	a5,-28(s0)
ffffffc05040490c:	2785                	addiw	a5,a5,1
ffffffc05040490e:	fef42223          	sw	a5,-28(s0)
ffffffc050404912:	00063717          	auipc	a4,0x63
ffffffc050404916:	98e70713          	addi	a4,a4,-1650 # ffffffc0504672a0 <pcb>
ffffffc05040491a:	fe442683          	lw	a3,-28(s0)
ffffffc05040491e:	09800793          	li	a5,152
ffffffc050404922:	02f687b3          	mul	a5,a3,a5
ffffffc050404926:	97ba                	add	a5,a5,a4
ffffffc050404928:	47b8                	lw	a4,72(a5)
ffffffc05040492a:	fc442783          	lw	a5,-60(s0)
ffffffc05040492e:	2781                	sext.w	a5,a5
ffffffc050404930:	00e78963          	beq	a5,a4,ffffffc050404942 <allocPage+0x14e>
ffffffc050404934:	fe442783          	lw	a5,-28(s0)
ffffffc050404938:	0007871b          	sext.w	a4,a5
ffffffc05040493c:	47bd                	li	a5,15
ffffffc05040493e:	fce7d5e3          	bge	a5,a4,ffffffc050404908 <allocPage+0x114>
ffffffc050404942:	fe442783          	lw	a5,-28(s0)
ffffffc050404946:	0007871b          	sext.w	a4,a5
ffffffc05040494a:	47c1                	li	a5,16
ffffffc05040494c:	00f70f63          	beq	a4,a5,ffffffc05040496a <allocPage+0x176>
ffffffc050404950:	fe442703          	lw	a4,-28(s0)
ffffffc050404954:	09800793          	li	a5,152
ffffffc050404958:	02f70733          	mul	a4,a4,a5
ffffffc05040495c:	00063797          	auipc	a5,0x63
ffffffc050404960:	94478793          	addi	a5,a5,-1724 # ffffffc0504672a0 <pcb>
ffffffc050404964:	97ba                	add	a5,a5,a4
ffffffc050404966:	fcf43c23          	sd	a5,-40(s0)
ffffffc05040496a:	fd843783          	ld	a5,-40(s0)
ffffffc05040496e:	6b9c                	ld	a5,16(a5)
ffffffc050404970:	faf43c23          	sd	a5,-72(s0)
ffffffc050404974:	fb843703          	ld	a4,-72(s0)
ffffffc050404978:	57fd                	li	a5,-1
ffffffc05040497a:	83d1                	srli	a5,a5,0x14
ffffffc05040497c:	8ff9                	and	a5,a5,a4
ffffffc05040497e:	faf43823          	sd	a5,-80(s0)
ffffffc050404982:	fe842783          	lw	a5,-24(s0)
ffffffc050404986:	00c7979b          	slliw	a5,a5,0xc
ffffffc05040498a:	2781                	sext.w	a5,a5
ffffffc05040498c:	873e                	mv	a4,a5
ffffffc05040498e:	83018793          	addi	a5,gp,-2000 # ffffffc050464cb0 <memCurr>
ffffffc050404992:	639c                	ld	a5,0(a5)
ffffffc050404994:	97ba                	add	a5,a5,a4
ffffffc050404996:	faf43423          	sd	a5,-88(s0)
ffffffc05040499a:	fc442783          	lw	a5,-60(s0)
ffffffc05040499e:	fa843603          	ld	a2,-88(s0)
ffffffc0504049a2:	85be                	mv	a1,a5
ffffffc0504049a4:	fb043503          	ld	a0,-80(s0)
ffffffc0504049a8:	c57ff0ef          	jal	ra,ffffffc0504045fe <swap>
ffffffc0504049ac:	87aa                	mv	a5,a0
ffffffc0504049ae:	faf42223          	sw	a5,-92(s0)
ffffffc0504049b2:	fa442783          	lw	a5,-92(s0)
ffffffc0504049b6:	2781                	sext.w	a5,a5
ffffffc0504049b8:	eb89                	bnez	a5,ffffffc0504049ca <allocPage+0x1d6>
ffffffc0504049ba:	fb043583          	ld	a1,-80(s0)
ffffffc0504049be:	00002517          	auipc	a0,0x2
ffffffc0504049c2:	13250513          	addi	a0,a0,306 # ffffffc050406af0 <__FUNCTION__.1727+0x58>
ffffffc0504049c6:	54f010ef          	jal	ra,ffffffc050406714 <prints>
ffffffc0504049ca:	fa843783          	ld	a5,-88(s0)
ffffffc0504049ce:	0007871b          	sext.w	a4,a5
ffffffc0504049d2:	fa442783          	lw	a5,-92(s0)
ffffffc0504049d6:	37fd                	addiw	a5,a5,-1
ffffffc0504049d8:	2781                	sext.w	a5,a5
ffffffc0504049da:	0037979b          	slliw	a5,a5,0x3
ffffffc0504049de:	2781                	sext.w	a5,a5
ffffffc0504049e0:	2785                	addiw	a5,a5,1
ffffffc0504049e2:	2781                	sext.w	a5,a5
ffffffc0504049e4:	2781                	sext.w	a5,a5
ffffffc0504049e6:	863e                	mv	a2,a5
ffffffc0504049e8:	45a1                	li	a1,8
ffffffc0504049ea:	853a                	mv	a0,a4
ffffffc0504049ec:	a43ff0ef          	jal	ra,ffffffc05040442e <sbi_sd_write>
ffffffc0504049f0:	a831                	j	ffffffc050404a0c <allocPage+0x218>
ffffffc0504049f2:	fe842783          	lw	a5,-24(s0)
ffffffc0504049f6:	2785                	addiw	a5,a5,1
ffffffc0504049f8:	fef42423          	sw	a5,-24(s0)
ffffffc0504049fc:	fe842783          	lw	a5,-24(s0)
ffffffc050404a00:	0007871b          	sext.w	a4,a5
ffffffc050404a04:	0ff00793          	li	a5,255
ffffffc050404a08:	ece7d5e3          	bge	a5,a4,ffffffc0504048d2 <allocPage+0xde>
ffffffc050404a0c:	fe842783          	lw	a5,-24(s0)
ffffffc050404a10:	0007871b          	sext.w	a4,a5
ffffffc050404a14:	0ff00793          	li	a5,255
ffffffc050404a18:	00e7de63          	bge	a5,a4,ffffffc050404a34 <allocPage+0x240>
ffffffc050404a1c:	00002617          	auipc	a2,0x2
ffffffc050404a20:	10460613          	addi	a2,a2,260 # ffffffc050406b20 <__FUNCTION__.1425>
ffffffc050404a24:	08000593          	li	a1,128
ffffffc050404a28:	00002517          	auipc	a0,0x2
ffffffc050404a2c:	0b050513          	addi	a0,a0,176 # ffffffc050406ad8 <__FUNCTION__.1727+0x40>
ffffffc050404a30:	b9dff0ef          	jal	ra,ffffffc0504045cc <_panic>
ffffffc050404a34:	f9842783          	lw	a5,-104(s0)
ffffffc050404a38:	2781                	sext.w	a5,a5
ffffffc050404a3a:	c78d                	beqz	a5,ffffffc050404a64 <allocPage+0x270>
ffffffc050404a3c:	00062717          	auipc	a4,0x62
ffffffc050404a40:	76470713          	addi	a4,a4,1892 # ffffffc0504671a0 <current_running>
ffffffc050404a44:	fc843783          	ld	a5,-56(s0)
ffffffc050404a48:	078e                	slli	a5,a5,0x3
ffffffc050404a4a:	97ba                	add	a5,a5,a4
ffffffc050404a4c:	639c                	ld	a5,0(a5)
ffffffc050404a4e:	47b8                	lw	a4,72(a5)
ffffffc050404a50:	00063697          	auipc	a3,0x63
ffffffc050404a54:	1d868693          	addi	a3,a3,472 # ffffffc050467c28 <mem_occupied>
ffffffc050404a58:	fe842783          	lw	a5,-24(s0)
ffffffc050404a5c:	078a                	slli	a5,a5,0x2
ffffffc050404a5e:	97b6                	add	a5,a5,a3
ffffffc050404a60:	c398                	sw	a4,0(a5)
ffffffc050404a62:	a819                	j	ffffffc050404a78 <allocPage+0x284>
ffffffc050404a64:	00063717          	auipc	a4,0x63
ffffffc050404a68:	1c470713          	addi	a4,a4,452 # ffffffc050467c28 <mem_occupied>
ffffffc050404a6c:	fe842783          	lw	a5,-24(s0)
ffffffc050404a70:	078a                	slli	a5,a5,0x2
ffffffc050404a72:	97ba                	add	a5,a5,a4
ffffffc050404a74:	4705                	li	a4,1
ffffffc050404a76:	c398                	sw	a4,0(a5)
ffffffc050404a78:	fe842783          	lw	a5,-24(s0)
ffffffc050404a7c:	00c7979b          	slliw	a5,a5,0xc
ffffffc050404a80:	2781                	sext.w	a5,a5
ffffffc050404a82:	873e                	mv	a4,a5
ffffffc050404a84:	83018793          	addi	a5,gp,-2000 # ffffffc050464cb0 <memCurr>
ffffffc050404a88:	639c                	ld	a5,0(a5)
ffffffc050404a8a:	97ba                	add	a5,a5,a4
ffffffc050404a8c:	853e                	mv	a0,a5
ffffffc050404a8e:	70a6                	ld	ra,104(sp)
ffffffc050404a90:	7406                	ld	s0,96(sp)
ffffffc050404a92:	6165                	addi	sp,sp,112
ffffffc050404a94:	8082                	ret

ffffffc050404a96 <freePage>:
ffffffc050404a96:	711d                	addi	sp,sp,-96
ffffffc050404a98:	ec86                	sd	ra,88(sp)
ffffffc050404a9a:	e8a2                	sd	s0,80(sp)
ffffffc050404a9c:	e4a6                	sd	s1,72(sp)
ffffffc050404a9e:	1080                	addi	s0,sp,96
ffffffc050404aa0:	faa43423          	sd	a0,-88(s0)
ffffffc050404aa4:	fa843783          	ld	a5,-88(s0)
ffffffc050404aa8:	07b2                	slli	a5,a5,0xc
ffffffc050404aaa:	853e                	mv	a0,a5
ffffffc050404aac:	a2dff0ef          	jal	ra,ffffffc0504044d8 <pa2kva>
ffffffc050404ab0:	87aa                	mv	a5,a0
ffffffc050404ab2:	fcf43423          	sd	a5,-56(s0)
ffffffc050404ab6:	fc042e23          	sw	zero,-36(s0)
ffffffc050404aba:	aad9                	j	ffffffc050404c90 <freePage+0x1fa>
ffffffc050404abc:	fdc42783          	lw	a5,-36(s0)
ffffffc050404ac0:	078e                	slli	a5,a5,0x3
ffffffc050404ac2:	fc843703          	ld	a4,-56(s0)
ffffffc050404ac6:	97ba                	add	a5,a5,a4
ffffffc050404ac8:	639c                	ld	a5,0(a5)
ffffffc050404aca:	1a078e63          	beqz	a5,ffffffc050404c86 <freePage+0x1f0>
ffffffc050404ace:	fdc42783          	lw	a5,-36(s0)
ffffffc050404ad2:	078e                	slli	a5,a5,0x3
ffffffc050404ad4:	fc843703          	ld	a4,-56(s0)
ffffffc050404ad8:	97ba                	add	a5,a5,a4
ffffffc050404ada:	639c                	ld	a5,0(a5)
ffffffc050404adc:	853e                	mv	a0,a5
ffffffc050404ade:	a17ff0ef          	jal	ra,ffffffc0504044f4 <get_pa>
ffffffc050404ae2:	87aa                	mv	a5,a0
ffffffc050404ae4:	853e                	mv	a0,a5
ffffffc050404ae6:	9f3ff0ef          	jal	ra,ffffffc0504044d8 <pa2kva>
ffffffc050404aea:	87aa                	mv	a5,a0
ffffffc050404aec:	fcf43023          	sd	a5,-64(s0)
ffffffc050404af0:	fc042c23          	sw	zero,-40(s0)
ffffffc050404af4:	a249                	j	ffffffc050404c76 <freePage+0x1e0>
ffffffc050404af6:	fd842783          	lw	a5,-40(s0)
ffffffc050404afa:	078e                	slli	a5,a5,0x3
ffffffc050404afc:	fc043703          	ld	a4,-64(s0)
ffffffc050404b00:	97ba                	add	a5,a5,a4
ffffffc050404b02:	639c                	ld	a5,0(a5)
ffffffc050404b04:	16078463          	beqz	a5,ffffffc050404c6c <freePage+0x1d6>
ffffffc050404b08:	fd842783          	lw	a5,-40(s0)
ffffffc050404b0c:	078e                	slli	a5,a5,0x3
ffffffc050404b0e:	fc043703          	ld	a4,-64(s0)
ffffffc050404b12:	97ba                	add	a5,a5,a4
ffffffc050404b14:	639c                	ld	a5,0(a5)
ffffffc050404b16:	8ba9                	andi	a5,a5,10
ffffffc050404b18:	14079a63          	bnez	a5,ffffffc050404c6c <freePage+0x1d6>
ffffffc050404b1c:	fd842783          	lw	a5,-40(s0)
ffffffc050404b20:	078e                	slli	a5,a5,0x3
ffffffc050404b22:	fc043703          	ld	a4,-64(s0)
ffffffc050404b26:	97ba                	add	a5,a5,a4
ffffffc050404b28:	639c                	ld	a5,0(a5)
ffffffc050404b2a:	853e                	mv	a0,a5
ffffffc050404b2c:	9c9ff0ef          	jal	ra,ffffffc0504044f4 <get_pa>
ffffffc050404b30:	87aa                	mv	a5,a0
ffffffc050404b32:	853e                	mv	a0,a5
ffffffc050404b34:	9a5ff0ef          	jal	ra,ffffffc0504044d8 <pa2kva>
ffffffc050404b38:	87aa                	mv	a5,a0
ffffffc050404b3a:	faf43c23          	sd	a5,-72(s0)
ffffffc050404b3e:	fc042a23          	sw	zero,-44(s0)
ffffffc050404b42:	a0dd                	j	ffffffc050404c28 <freePage+0x192>
ffffffc050404b44:	fd442783          	lw	a5,-44(s0)
ffffffc050404b48:	078e                	slli	a5,a5,0x3
ffffffc050404b4a:	fb843703          	ld	a4,-72(s0)
ffffffc050404b4e:	97ba                	add	a5,a5,a4
ffffffc050404b50:	639c                	ld	a5,0(a5)
ffffffc050404b52:	8b85                	andi	a5,a5,1
ffffffc050404b54:	c7e9                	beqz	a5,ffffffc050404c1e <freePage+0x188>
ffffffc050404b56:	fd442783          	lw	a5,-44(s0)
ffffffc050404b5a:	078e                	slli	a5,a5,0x3
ffffffc050404b5c:	fb843703          	ld	a4,-72(s0)
ffffffc050404b60:	97ba                	add	a5,a5,a4
ffffffc050404b62:	639c                	ld	a5,0(a5)
ffffffc050404b64:	853e                	mv	a0,a5
ffffffc050404b66:	98fff0ef          	jal	ra,ffffffc0504044f4 <get_pa>
ffffffc050404b6a:	872a                	mv	a4,a0
ffffffc050404b6c:	ae0007b7          	lui	a5,0xae000
ffffffc050404b70:	97ba                	add	a5,a5,a4
ffffffc050404b72:	83b1                	srli	a5,a5,0xc
ffffffc050404b74:	00063717          	auipc	a4,0x63
ffffffc050404b78:	4b470713          	addi	a4,a4,1204 # ffffffc050468028 <fork_mem_shared>
ffffffc050404b7c:	078a                	slli	a5,a5,0x2
ffffffc050404b7e:	97ba                	add	a5,a5,a4
ffffffc050404b80:	439c                	lw	a5,0(a5)
ffffffc050404b82:	efd1                	bnez	a5,ffffffc050404c1e <freePage+0x188>
ffffffc050404b84:	fc042823          	sw	zero,-48(s0)
ffffffc050404b88:	a825                	j	ffffffc050404bc0 <freePage+0x12a>
ffffffc050404b8a:	00064717          	auipc	a4,0x64
ffffffc050404b8e:	89e70713          	addi	a4,a4,-1890 # ffffffc050468428 <share_page>
ffffffc050404b92:	fd042783          	lw	a5,-48(s0)
ffffffc050404b96:	0792                	slli	a5,a5,0x4
ffffffc050404b98:	97ba                	add	a5,a5,a4
ffffffc050404b9a:	6784                	ld	s1,8(a5)
ffffffc050404b9c:	fd442783          	lw	a5,-44(s0)
ffffffc050404ba0:	078e                	slli	a5,a5,0x3
ffffffc050404ba2:	fb843703          	ld	a4,-72(s0)
ffffffc050404ba6:	97ba                	add	a5,a5,a4
ffffffc050404ba8:	639c                	ld	a5,0(a5)
ffffffc050404baa:	853e                	mv	a0,a5
ffffffc050404bac:	949ff0ef          	jal	ra,ffffffc0504044f4 <get_pa>
ffffffc050404bb0:	87aa                	mv	a5,a0
ffffffc050404bb2:	00f48f63          	beq	s1,a5,ffffffc050404bd0 <freePage+0x13a>
ffffffc050404bb6:	fd042783          	lw	a5,-48(s0)
ffffffc050404bba:	2785                	addiw	a5,a5,1
ffffffc050404bbc:	fcf42823          	sw	a5,-48(s0)
ffffffc050404bc0:	fd042783          	lw	a5,-48(s0)
ffffffc050404bc4:	0007871b          	sext.w	a4,a5
ffffffc050404bc8:	47cd                	li	a5,19
ffffffc050404bca:	fce7d0e3          	bge	a5,a4,ffffffc050404b8a <freePage+0xf4>
ffffffc050404bce:	a011                	j	ffffffc050404bd2 <freePage+0x13c>
ffffffc050404bd0:	0001                	nop
ffffffc050404bd2:	fd042783          	lw	a5,-48(s0)
ffffffc050404bd6:	0007871b          	sext.w	a4,a5
ffffffc050404bda:	47d1                	li	a5,20
ffffffc050404bdc:	04f71163          	bne	a4,a5,ffffffc050404c1e <freePage+0x188>
ffffffc050404be0:	fd442783          	lw	a5,-44(s0)
ffffffc050404be4:	078e                	slli	a5,a5,0x3
ffffffc050404be6:	fb843703          	ld	a4,-72(s0)
ffffffc050404bea:	97ba                	add	a5,a5,a4
ffffffc050404bec:	639c                	ld	a5,0(a5)
ffffffc050404bee:	853e                	mv	a0,a5
ffffffc050404bf0:	905ff0ef          	jal	ra,ffffffc0504044f4 <get_pa>
ffffffc050404bf4:	87aa                	mv	a5,a0
ffffffc050404bf6:	853e                	mv	a0,a5
ffffffc050404bf8:	8e1ff0ef          	jal	ra,ffffffc0504044d8 <pa2kva>
ffffffc050404bfc:	84aa                	mv	s1,a0
ffffffc050404bfe:	52000537          	lui	a0,0x52000
ffffffc050404c02:	8d7ff0ef          	jal	ra,ffffffc0504044d8 <pa2kva>
ffffffc050404c06:	87aa                	mv	a5,a0
ffffffc050404c08:	40f487b3          	sub	a5,s1,a5
ffffffc050404c0c:	83b1                	srli	a5,a5,0xc
ffffffc050404c0e:	00063717          	auipc	a4,0x63
ffffffc050404c12:	01a70713          	addi	a4,a4,26 # ffffffc050467c28 <mem_occupied>
ffffffc050404c16:	078a                	slli	a5,a5,0x2
ffffffc050404c18:	97ba                	add	a5,a5,a4
ffffffc050404c1a:	0007a023          	sw	zero,0(a5) # ffffffffae000000 <__BSS_END__+0x3f5db96e58>
ffffffc050404c1e:	fd442783          	lw	a5,-44(s0)
ffffffc050404c22:	2785                	addiw	a5,a5,1
ffffffc050404c24:	fcf42a23          	sw	a5,-44(s0)
ffffffc050404c28:	fd442783          	lw	a5,-44(s0)
ffffffc050404c2c:	0007871b          	sext.w	a4,a5
ffffffc050404c30:	1ff00793          	li	a5,511
ffffffc050404c34:	f0e7d8e3          	bge	a5,a4,ffffffc050404b44 <freePage+0xae>
ffffffc050404c38:	fb843483          	ld	s1,-72(s0)
ffffffc050404c3c:	56000537          	lui	a0,0x56000
ffffffc050404c40:	899ff0ef          	jal	ra,ffffffc0504044d8 <pa2kva>
ffffffc050404c44:	87aa                	mv	a5,a0
ffffffc050404c46:	40f487b3          	sub	a5,s1,a5
ffffffc050404c4a:	83b1                	srli	a5,a5,0xc
ffffffc050404c4c:	00064717          	auipc	a4,0x64
ffffffc050404c50:	91c70713          	addi	a4,a4,-1764 # ffffffc050468568 <pt_mem_occupied>
ffffffc050404c54:	078a                	slli	a5,a5,0x2
ffffffc050404c56:	97ba                	add	a5,a5,a4
ffffffc050404c58:	0007a023          	sw	zero,0(a5)
ffffffc050404c5c:	fd842783          	lw	a5,-40(s0)
ffffffc050404c60:	078e                	slli	a5,a5,0x3
ffffffc050404c62:	fc043703          	ld	a4,-64(s0)
ffffffc050404c66:	97ba                	add	a5,a5,a4
ffffffc050404c68:	0007b023          	sd	zero,0(a5)
ffffffc050404c6c:	fd842783          	lw	a5,-40(s0)
ffffffc050404c70:	2785                	addiw	a5,a5,1
ffffffc050404c72:	fcf42c23          	sw	a5,-40(s0)
ffffffc050404c76:	fd842783          	lw	a5,-40(s0)
ffffffc050404c7a:	0007871b          	sext.w	a4,a5
ffffffc050404c7e:	1ff00793          	li	a5,511
ffffffc050404c82:	e6e7dae3          	bge	a5,a4,ffffffc050404af6 <freePage+0x60>
ffffffc050404c86:	fdc42783          	lw	a5,-36(s0)
ffffffc050404c8a:	2785                	addiw	a5,a5,1
ffffffc050404c8c:	fcf42e23          	sw	a5,-36(s0)
ffffffc050404c90:	fdc42783          	lw	a5,-36(s0)
ffffffc050404c94:	0007871b          	sext.w	a4,a5
ffffffc050404c98:	1ff00793          	li	a5,511
ffffffc050404c9c:	e2e7d0e3          	bge	a5,a4,ffffffc050404abc <freePage+0x26>
ffffffc050404ca0:	fc843483          	ld	s1,-56(s0)
ffffffc050404ca4:	56000537          	lui	a0,0x56000
ffffffc050404ca8:	831ff0ef          	jal	ra,ffffffc0504044d8 <pa2kva>
ffffffc050404cac:	87aa                	mv	a5,a0
ffffffc050404cae:	40f487b3          	sub	a5,s1,a5
ffffffc050404cb2:	83b1                	srli	a5,a5,0xc
ffffffc050404cb4:	00064717          	auipc	a4,0x64
ffffffc050404cb8:	8b470713          	addi	a4,a4,-1868 # ffffffc050468568 <pt_mem_occupied>
ffffffc050404cbc:	078a                	slli	a5,a5,0x2
ffffffc050404cbe:	97ba                	add	a5,a5,a4
ffffffc050404cc0:	0007a023          	sw	zero,0(a5)
ffffffc050404cc4:	0001                	nop
ffffffc050404cc6:	60e6                	ld	ra,88(sp)
ffffffc050404cc8:	6446                	ld	s0,80(sp)
ffffffc050404cca:	64a6                	ld	s1,72(sp)
ffffffc050404ccc:	6125                	addi	sp,sp,96
ffffffc050404cce:	8082                	ret

ffffffc050404cd0 <fork_mem>:
ffffffc050404cd0:	711d                	addi	sp,sp,-96
ffffffc050404cd2:	ec86                	sd	ra,88(sp)
ffffffc050404cd4:	e8a2                	sd	s0,80(sp)
ffffffc050404cd6:	1080                	addi	s0,sp,96
ffffffc050404cd8:	faa43423          	sd	a0,-88(s0)
ffffffc050404cdc:	fab43023          	sd	a1,-96(s0)
ffffffc050404ce0:	fa043503          	ld	a0,-96(s0)
ffffffc050404ce4:	ff4ff0ef          	jal	ra,ffffffc0504044d8 <pa2kva>
ffffffc050404ce8:	87aa                	mv	a5,a0
ffffffc050404cea:	fcf43c23          	sd	a5,-40(s0)
ffffffc050404cee:	fe042623          	sw	zero,-20(s0)
ffffffc050404cf2:	a29d                	j	ffffffc050404e58 <fork_mem+0x188>
ffffffc050404cf4:	fec42783          	lw	a5,-20(s0)
ffffffc050404cf8:	078e                	slli	a5,a5,0x3
ffffffc050404cfa:	fd843703          	ld	a4,-40(s0)
ffffffc050404cfe:	97ba                	add	a5,a5,a4
ffffffc050404d00:	639c                	ld	a5,0(a5)
ffffffc050404d02:	14078663          	beqz	a5,ffffffc050404e4e <fork_mem+0x17e>
ffffffc050404d06:	fec42783          	lw	a5,-20(s0)
ffffffc050404d0a:	078e                	slli	a5,a5,0x3
ffffffc050404d0c:	fd843703          	ld	a4,-40(s0)
ffffffc050404d10:	97ba                	add	a5,a5,a4
ffffffc050404d12:	639c                	ld	a5,0(a5)
ffffffc050404d14:	853e                	mv	a0,a5
ffffffc050404d16:	fdeff0ef          	jal	ra,ffffffc0504044f4 <get_pa>
ffffffc050404d1a:	87aa                	mv	a5,a0
ffffffc050404d1c:	853e                	mv	a0,a5
ffffffc050404d1e:	fbaff0ef          	jal	ra,ffffffc0504044d8 <pa2kva>
ffffffc050404d22:	87aa                	mv	a5,a0
ffffffc050404d24:	fcf43823          	sd	a5,-48(s0)
ffffffc050404d28:	fe042423          	sw	zero,-24(s0)
ffffffc050404d2c:	aa09                	j	ffffffc050404e3e <fork_mem+0x16e>
ffffffc050404d2e:	fe842783          	lw	a5,-24(s0)
ffffffc050404d32:	078e                	slli	a5,a5,0x3
ffffffc050404d34:	fd043703          	ld	a4,-48(s0)
ffffffc050404d38:	97ba                	add	a5,a5,a4
ffffffc050404d3a:	639c                	ld	a5,0(a5)
ffffffc050404d3c:	0e078c63          	beqz	a5,ffffffc050404e34 <fork_mem+0x164>
ffffffc050404d40:	fe842783          	lw	a5,-24(s0)
ffffffc050404d44:	078e                	slli	a5,a5,0x3
ffffffc050404d46:	fd043703          	ld	a4,-48(s0)
ffffffc050404d4a:	97ba                	add	a5,a5,a4
ffffffc050404d4c:	639c                	ld	a5,0(a5)
ffffffc050404d4e:	8ba9                	andi	a5,a5,10
ffffffc050404d50:	e3f5                	bnez	a5,ffffffc050404e34 <fork_mem+0x164>
ffffffc050404d52:	fe842783          	lw	a5,-24(s0)
ffffffc050404d56:	078e                	slli	a5,a5,0x3
ffffffc050404d58:	fd043703          	ld	a4,-48(s0)
ffffffc050404d5c:	97ba                	add	a5,a5,a4
ffffffc050404d5e:	639c                	ld	a5,0(a5)
ffffffc050404d60:	853e                	mv	a0,a5
ffffffc050404d62:	f92ff0ef          	jal	ra,ffffffc0504044f4 <get_pa>
ffffffc050404d66:	87aa                	mv	a5,a0
ffffffc050404d68:	853e                	mv	a0,a5
ffffffc050404d6a:	f6eff0ef          	jal	ra,ffffffc0504044d8 <pa2kva>
ffffffc050404d6e:	87aa                	mv	a5,a0
ffffffc050404d70:	fcf43423          	sd	a5,-56(s0)
ffffffc050404d74:	fe042223          	sw	zero,-28(s0)
ffffffc050404d78:	a075                	j	ffffffc050404e24 <fork_mem+0x154>
ffffffc050404d7a:	fe442783          	lw	a5,-28(s0)
ffffffc050404d7e:	078e                	slli	a5,a5,0x3
ffffffc050404d80:	fc843703          	ld	a4,-56(s0)
ffffffc050404d84:	97ba                	add	a5,a5,a4
ffffffc050404d86:	639c                	ld	a5,0(a5)
ffffffc050404d88:	cbc9                	beqz	a5,ffffffc050404e1a <fork_mem+0x14a>
ffffffc050404d8a:	fec42783          	lw	a5,-20(s0)
ffffffc050404d8e:	01e79713          	slli	a4,a5,0x1e
ffffffc050404d92:	fe842783          	lw	a5,-24(s0)
ffffffc050404d96:	07d6                	slli	a5,a5,0x15
ffffffc050404d98:	8f5d                	or	a4,a4,a5
ffffffc050404d9a:	fe442783          	lw	a5,-28(s0)
ffffffc050404d9e:	07b2                	slli	a5,a5,0xc
ffffffc050404da0:	8fd9                	or	a5,a5,a4
ffffffc050404da2:	fcf43023          	sd	a5,-64(s0)
ffffffc050404da6:	fe442783          	lw	a5,-28(s0)
ffffffc050404daa:	078e                	slli	a5,a5,0x3
ffffffc050404dac:	fc843703          	ld	a4,-56(s0)
ffffffc050404db0:	97ba                	add	a5,a5,a4
ffffffc050404db2:	639c                	ld	a5,0(a5)
ffffffc050404db4:	853e                	mv	a0,a5
ffffffc050404db6:	f3eff0ef          	jal	ra,ffffffc0504044f4 <get_pa>
ffffffc050404dba:	faa43c23          	sd	a0,-72(s0)
ffffffc050404dbe:	fb843703          	ld	a4,-72(s0)
ffffffc050404dc2:	ae0007b7          	lui	a5,0xae000
ffffffc050404dc6:	97ba                	add	a5,a5,a4
ffffffc050404dc8:	83b1                	srli	a5,a5,0xc
ffffffc050404dca:	00063697          	auipc	a3,0x63
ffffffc050404dce:	25e68693          	addi	a3,a3,606 # ffffffc050468028 <fork_mem_shared>
ffffffc050404dd2:	00279713          	slli	a4,a5,0x2
ffffffc050404dd6:	9736                	add	a4,a4,a3
ffffffc050404dd8:	4318                	lw	a4,0(a4)
ffffffc050404dda:	2705                	addiw	a4,a4,1
ffffffc050404ddc:	2701                	sext.w	a4,a4
ffffffc050404dde:	00063697          	auipc	a3,0x63
ffffffc050404de2:	24a68693          	addi	a3,a3,586 # ffffffc050468028 <fork_mem_shared>
ffffffc050404de6:	078a                	slli	a5,a5,0x2
ffffffc050404de8:	97b6                	add	a5,a5,a3
ffffffc050404dea:	c398                	sw	a4,0(a5)
ffffffc050404dec:	fa843503          	ld	a0,-88(s0)
ffffffc050404df0:	ee8ff0ef          	jal	ra,ffffffc0504044d8 <pa2kva>
ffffffc050404df4:	87aa                	mv	a5,a0
ffffffc050404df6:	863e                	mv	a2,a5
ffffffc050404df8:	fb843583          	ld	a1,-72(s0)
ffffffc050404dfc:	fc043503          	ld	a0,-64(s0)
ffffffc050404e00:	7b0000ef          	jal	ra,ffffffc0504055b0 <map_page>
ffffffc050404e04:	fe442783          	lw	a5,-28(s0)
ffffffc050404e08:	078e                	slli	a5,a5,0x3
ffffffc050404e0a:	fc843703          	ld	a4,-56(s0)
ffffffc050404e0e:	97ba                	add	a5,a5,a4
ffffffc050404e10:	0db00593          	li	a1,219
ffffffc050404e14:	853e                	mv	a0,a5
ffffffc050404e16:	f32ff0ef          	jal	ra,ffffffc050404548 <set_attribute>
ffffffc050404e1a:	fe442783          	lw	a5,-28(s0)
ffffffc050404e1e:	2785                	addiw	a5,a5,1
ffffffc050404e20:	fef42223          	sw	a5,-28(s0)
ffffffc050404e24:	fe442783          	lw	a5,-28(s0)
ffffffc050404e28:	0007871b          	sext.w	a4,a5
ffffffc050404e2c:	1ff00793          	li	a5,511
ffffffc050404e30:	f4e7d5e3          	bge	a5,a4,ffffffc050404d7a <fork_mem+0xaa>
ffffffc050404e34:	fe842783          	lw	a5,-24(s0)
ffffffc050404e38:	2785                	addiw	a5,a5,1
ffffffc050404e3a:	fef42423          	sw	a5,-24(s0)
ffffffc050404e3e:	fe842783          	lw	a5,-24(s0)
ffffffc050404e42:	0007871b          	sext.w	a4,a5
ffffffc050404e46:	1ff00793          	li	a5,511
ffffffc050404e4a:	eee7d2e3          	bge	a5,a4,ffffffc050404d2e <fork_mem+0x5e>
ffffffc050404e4e:	fec42783          	lw	a5,-20(s0)
ffffffc050404e52:	2785                	addiw	a5,a5,1
ffffffc050404e54:	fef42623          	sw	a5,-20(s0)
ffffffc050404e58:	fec42783          	lw	a5,-20(s0)
ffffffc050404e5c:	0007871b          	sext.w	a4,a5
ffffffc050404e60:	1ff00793          	li	a5,511
ffffffc050404e64:	e8e7d8e3          	bge	a5,a4,ffffffc050404cf4 <fork_mem+0x24>
ffffffc050404e68:	fa843503          	ld	a0,-88(s0)
ffffffc050404e6c:	e6cff0ef          	jal	ra,ffffffc0504044d8 <pa2kva>
ffffffc050404e70:	87aa                	mv	a5,a0
ffffffc050404e72:	fcf43c23          	sd	a5,-40(s0)
ffffffc050404e76:	fe042623          	sw	zero,-20(s0)
ffffffc050404e7a:	a0e5                	j	ffffffc050404f62 <fork_mem+0x292>
ffffffc050404e7c:	fec42783          	lw	a5,-20(s0)
ffffffc050404e80:	078e                	slli	a5,a5,0x3
ffffffc050404e82:	fd843703          	ld	a4,-40(s0)
ffffffc050404e86:	97ba                	add	a5,a5,a4
ffffffc050404e88:	639c                	ld	a5,0(a5)
ffffffc050404e8a:	c7f9                	beqz	a5,ffffffc050404f58 <fork_mem+0x288>
ffffffc050404e8c:	fec42783          	lw	a5,-20(s0)
ffffffc050404e90:	078e                	slli	a5,a5,0x3
ffffffc050404e92:	fd843703          	ld	a4,-40(s0)
ffffffc050404e96:	97ba                	add	a5,a5,a4
ffffffc050404e98:	639c                	ld	a5,0(a5)
ffffffc050404e9a:	853e                	mv	a0,a5
ffffffc050404e9c:	e58ff0ef          	jal	ra,ffffffc0504044f4 <get_pa>
ffffffc050404ea0:	87aa                	mv	a5,a0
ffffffc050404ea2:	853e                	mv	a0,a5
ffffffc050404ea4:	e34ff0ef          	jal	ra,ffffffc0504044d8 <pa2kva>
ffffffc050404ea8:	87aa                	mv	a5,a0
ffffffc050404eaa:	fcf43823          	sd	a5,-48(s0)
ffffffc050404eae:	fe042423          	sw	zero,-24(s0)
ffffffc050404eb2:	a859                	j	ffffffc050404f48 <fork_mem+0x278>
ffffffc050404eb4:	fe842783          	lw	a5,-24(s0)
ffffffc050404eb8:	078e                	slli	a5,a5,0x3
ffffffc050404eba:	fd043703          	ld	a4,-48(s0)
ffffffc050404ebe:	97ba                	add	a5,a5,a4
ffffffc050404ec0:	639c                	ld	a5,0(a5)
ffffffc050404ec2:	cfb5                	beqz	a5,ffffffc050404f3e <fork_mem+0x26e>
ffffffc050404ec4:	fe842783          	lw	a5,-24(s0)
ffffffc050404ec8:	078e                	slli	a5,a5,0x3
ffffffc050404eca:	fd043703          	ld	a4,-48(s0)
ffffffc050404ece:	97ba                	add	a5,a5,a4
ffffffc050404ed0:	639c                	ld	a5,0(a5)
ffffffc050404ed2:	8ba9                	andi	a5,a5,10
ffffffc050404ed4:	e7ad                	bnez	a5,ffffffc050404f3e <fork_mem+0x26e>
ffffffc050404ed6:	fe842783          	lw	a5,-24(s0)
ffffffc050404eda:	078e                	slli	a5,a5,0x3
ffffffc050404edc:	fd043703          	ld	a4,-48(s0)
ffffffc050404ee0:	97ba                	add	a5,a5,a4
ffffffc050404ee2:	639c                	ld	a5,0(a5)
ffffffc050404ee4:	853e                	mv	a0,a5
ffffffc050404ee6:	e0eff0ef          	jal	ra,ffffffc0504044f4 <get_pa>
ffffffc050404eea:	87aa                	mv	a5,a0
ffffffc050404eec:	853e                	mv	a0,a5
ffffffc050404eee:	deaff0ef          	jal	ra,ffffffc0504044d8 <pa2kva>
ffffffc050404ef2:	87aa                	mv	a5,a0
ffffffc050404ef4:	fcf43423          	sd	a5,-56(s0)
ffffffc050404ef8:	fe042223          	sw	zero,-28(s0)
ffffffc050404efc:	a80d                	j	ffffffc050404f2e <fork_mem+0x25e>
ffffffc050404efe:	fe442783          	lw	a5,-28(s0)
ffffffc050404f02:	078e                	slli	a5,a5,0x3
ffffffc050404f04:	fc843703          	ld	a4,-56(s0)
ffffffc050404f08:	97ba                	add	a5,a5,a4
ffffffc050404f0a:	639c                	ld	a5,0(a5)
ffffffc050404f0c:	cf81                	beqz	a5,ffffffc050404f24 <fork_mem+0x254>
ffffffc050404f0e:	fe442783          	lw	a5,-28(s0)
ffffffc050404f12:	078e                	slli	a5,a5,0x3
ffffffc050404f14:	fc843703          	ld	a4,-56(s0)
ffffffc050404f18:	97ba                	add	a5,a5,a4
ffffffc050404f1a:	0db00593          	li	a1,219
ffffffc050404f1e:	853e                	mv	a0,a5
ffffffc050404f20:	e28ff0ef          	jal	ra,ffffffc050404548 <set_attribute>
ffffffc050404f24:	fe442783          	lw	a5,-28(s0)
ffffffc050404f28:	2785                	addiw	a5,a5,1
ffffffc050404f2a:	fef42223          	sw	a5,-28(s0)
ffffffc050404f2e:	fe442783          	lw	a5,-28(s0)
ffffffc050404f32:	0007871b          	sext.w	a4,a5
ffffffc050404f36:	1ff00793          	li	a5,511
ffffffc050404f3a:	fce7d2e3          	bge	a5,a4,ffffffc050404efe <fork_mem+0x22e>
ffffffc050404f3e:	fe842783          	lw	a5,-24(s0)
ffffffc050404f42:	2785                	addiw	a5,a5,1
ffffffc050404f44:	fef42423          	sw	a5,-24(s0)
ffffffc050404f48:	fe842783          	lw	a5,-24(s0)
ffffffc050404f4c:	0007871b          	sext.w	a4,a5
ffffffc050404f50:	1ff00793          	li	a5,511
ffffffc050404f54:	f6e7d0e3          	bge	a5,a4,ffffffc050404eb4 <fork_mem+0x1e4>
ffffffc050404f58:	fec42783          	lw	a5,-20(s0)
ffffffc050404f5c:	2785                	addiw	a5,a5,1
ffffffc050404f5e:	fef42623          	sw	a5,-20(s0)
ffffffc050404f62:	fec42783          	lw	a5,-20(s0)
ffffffc050404f66:	0007871b          	sext.w	a4,a5
ffffffc050404f6a:	1ff00793          	li	a5,511
ffffffc050404f6e:	f0e7d7e3          	bge	a5,a4,ffffffc050404e7c <fork_mem+0x1ac>
ffffffc050404f72:	d38ff0ef          	jal	ra,ffffffc0504044aa <local_flush_tlb_all>
ffffffc050404f76:	0001                	nop
ffffffc050404f78:	60e6                	ld	ra,88(sp)
ffffffc050404f7a:	6446                	ld	s0,80(sp)
ffffffc050404f7c:	6125                	addi	sp,sp,96
ffffffc050404f7e:	8082                	ret

ffffffc050404f80 <kmalloc>:
ffffffc050404f80:	7179                	addi	sp,sp,-48
ffffffc050404f82:	f422                	sd	s0,40(sp)
ffffffc050404f84:	1800                	addi	s0,sp,48
ffffffc050404f86:	fca43c23          	sd	a0,-40(s0)
ffffffc050404f8a:	83018793          	addi	a5,gp,-2000 # ffffffc050464cb0 <memCurr>
ffffffc050404f8e:	639c                	ld	a5,0(a5)
ffffffc050404f90:	078d                	addi	a5,a5,3
ffffffc050404f92:	9bf1                	andi	a5,a5,-4
ffffffc050404f94:	fef43423          	sd	a5,-24(s0)
ffffffc050404f98:	fe843703          	ld	a4,-24(s0)
ffffffc050404f9c:	fd843783          	ld	a5,-40(s0)
ffffffc050404fa0:	973e                	add	a4,a4,a5
ffffffc050404fa2:	83018793          	addi	a5,gp,-2000 # ffffffc050464cb0 <memCurr>
ffffffc050404fa6:	e398                	sd	a4,0(a5)
ffffffc050404fa8:	83018793          	addi	a5,gp,-2000 # ffffffc050464cb0 <memCurr>
ffffffc050404fac:	639c                	ld	a5,0(a5)
ffffffc050404fae:	853e                	mv	a0,a5
ffffffc050404fb0:	7422                	ld	s0,40(sp)
ffffffc050404fb2:	6145                	addi	sp,sp,48
ffffffc050404fb4:	8082                	ret

ffffffc050404fb6 <search_va>:
ffffffc050404fb6:	715d                	addi	sp,sp,-80
ffffffc050404fb8:	e486                	sd	ra,72(sp)
ffffffc050404fba:	e0a2                	sd	s0,64(sp)
ffffffc050404fbc:	0880                	addi	s0,sp,80
ffffffc050404fbe:	faa43c23          	sd	a0,-72(s0)
ffffffc050404fc2:	fb843503          	ld	a0,-72(s0)
ffffffc050404fc6:	d12ff0ef          	jal	ra,ffffffc0504044d8 <pa2kva>
ffffffc050404fca:	87aa                	mv	a5,a0
ffffffc050404fcc:	fcf43c23          	sd	a5,-40(s0)
ffffffc050404fd0:	fe042623          	sw	zero,-20(s0)
ffffffc050404fd4:	a295                	j	ffffffc050405138 <search_va+0x182>
ffffffc050404fd6:	fec42783          	lw	a5,-20(s0)
ffffffc050404fda:	078e                	slli	a5,a5,0x3
ffffffc050404fdc:	fd843703          	ld	a4,-40(s0)
ffffffc050404fe0:	97ba                	add	a5,a5,a4
ffffffc050404fe2:	639c                	ld	a5,0(a5)
ffffffc050404fe4:	14078563          	beqz	a5,ffffffc05040512e <search_va+0x178>
ffffffc050404fe8:	fec42783          	lw	a5,-20(s0)
ffffffc050404fec:	078e                	slli	a5,a5,0x3
ffffffc050404fee:	fd843703          	ld	a4,-40(s0)
ffffffc050404ff2:	97ba                	add	a5,a5,a4
ffffffc050404ff4:	639c                	ld	a5,0(a5)
ffffffc050404ff6:	853e                	mv	a0,a5
ffffffc050404ff8:	cfcff0ef          	jal	ra,ffffffc0504044f4 <get_pa>
ffffffc050404ffc:	87aa                	mv	a5,a0
ffffffc050404ffe:	853e                	mv	a0,a5
ffffffc050405000:	cd8ff0ef          	jal	ra,ffffffc0504044d8 <pa2kva>
ffffffc050405004:	87aa                	mv	a5,a0
ffffffc050405006:	fcf43423          	sd	a5,-56(s0)
ffffffc05040500a:	fe042423          	sw	zero,-24(s0)
ffffffc05040500e:	a865                	j	ffffffc0504050c6 <search_va+0x110>
ffffffc050405010:	fe842783          	lw	a5,-24(s0)
ffffffc050405014:	078e                	slli	a5,a5,0x3
ffffffc050405016:	fc843703          	ld	a4,-56(s0)
ffffffc05040501a:	97ba                	add	a5,a5,a4
ffffffc05040501c:	639c                	ld	a5,0(a5)
ffffffc05040501e:	cfd9                	beqz	a5,ffffffc0504050bc <search_va+0x106>
ffffffc050405020:	fe842783          	lw	a5,-24(s0)
ffffffc050405024:	078e                	slli	a5,a5,0x3
ffffffc050405026:	fc843703          	ld	a4,-56(s0)
ffffffc05040502a:	97ba                	add	a5,a5,a4
ffffffc05040502c:	639c                	ld	a5,0(a5)
ffffffc05040502e:	8ba9                	andi	a5,a5,10
ffffffc050405030:	e7d1                	bnez	a5,ffffffc0504050bc <search_va+0x106>
ffffffc050405032:	fe842783          	lw	a5,-24(s0)
ffffffc050405036:	078e                	slli	a5,a5,0x3
ffffffc050405038:	fc843703          	ld	a4,-56(s0)
ffffffc05040503c:	97ba                	add	a5,a5,a4
ffffffc05040503e:	639c                	ld	a5,0(a5)
ffffffc050405040:	853e                	mv	a0,a5
ffffffc050405042:	cb2ff0ef          	jal	ra,ffffffc0504044f4 <get_pa>
ffffffc050405046:	87aa                	mv	a5,a0
ffffffc050405048:	853e                	mv	a0,a5
ffffffc05040504a:	c8eff0ef          	jal	ra,ffffffc0504044d8 <pa2kva>
ffffffc05040504e:	87aa                	mv	a5,a0
ffffffc050405050:	fcf43023          	sd	a5,-64(s0)
ffffffc050405054:	fec42783          	lw	a5,-20(s0)
ffffffc050405058:	2781                	sext.w	a5,a5
ffffffc05040505a:	e799                	bnez	a5,ffffffc050405068 <search_va+0xb2>
ffffffc05040505c:	fe842783          	lw	a5,-24(s0)
ffffffc050405060:	2781                	sext.w	a5,a5
ffffffc050405062:	e399                	bnez	a5,ffffffc050405068 <search_va+0xb2>
ffffffc050405064:	4785                	li	a5,1
ffffffc050405066:	a011                	j	ffffffc05040506a <search_va+0xb4>
ffffffc050405068:	4781                	li	a5,0
ffffffc05040506a:	fef42223          	sw	a5,-28(s0)
ffffffc05040506e:	a83d                	j	ffffffc0504050ac <search_va+0xf6>
ffffffc050405070:	fe442783          	lw	a5,-28(s0)
ffffffc050405074:	078e                	slli	a5,a5,0x3
ffffffc050405076:	fc043703          	ld	a4,-64(s0)
ffffffc05040507a:	97ba                	add	a5,a5,a4
ffffffc05040507c:	639c                	ld	a5,0(a5)
ffffffc05040507e:	e395                	bnez	a5,ffffffc0504050a2 <search_va+0xec>
ffffffc050405080:	fec42783          	lw	a5,-20(s0)
ffffffc050405084:	01e79713          	slli	a4,a5,0x1e
ffffffc050405088:	fe842783          	lw	a5,-24(s0)
ffffffc05040508c:	07d6                	slli	a5,a5,0x15
ffffffc05040508e:	8f5d                	or	a4,a4,a5
ffffffc050405090:	fe442783          	lw	a5,-28(s0)
ffffffc050405094:	07b2                	slli	a5,a5,0xc
ffffffc050405096:	8fd9                	or	a5,a5,a4
ffffffc050405098:	fcf43823          	sd	a5,-48(s0)
ffffffc05040509c:	fd043783          	ld	a5,-48(s0)
ffffffc0504050a0:	a0f5                	j	ffffffc05040518c <search_va+0x1d6>
ffffffc0504050a2:	fe442783          	lw	a5,-28(s0)
ffffffc0504050a6:	2785                	addiw	a5,a5,1
ffffffc0504050a8:	fef42223          	sw	a5,-28(s0)
ffffffc0504050ac:	fe442783          	lw	a5,-28(s0)
ffffffc0504050b0:	0007871b          	sext.w	a4,a5
ffffffc0504050b4:	1ff00793          	li	a5,511
ffffffc0504050b8:	fae7dce3          	bge	a5,a4,ffffffc050405070 <search_va+0xba>
ffffffc0504050bc:	fe842783          	lw	a5,-24(s0)
ffffffc0504050c0:	2785                	addiw	a5,a5,1
ffffffc0504050c2:	fef42423          	sw	a5,-24(s0)
ffffffc0504050c6:	fe842783          	lw	a5,-24(s0)
ffffffc0504050ca:	0007871b          	sext.w	a4,a5
ffffffc0504050ce:	1ff00793          	li	a5,511
ffffffc0504050d2:	f2e7dfe3          	bge	a5,a4,ffffffc050405010 <search_va+0x5a>
ffffffc0504050d6:	fec42783          	lw	a5,-20(s0)
ffffffc0504050da:	2781                	sext.w	a5,a5
ffffffc0504050dc:	0017b793          	seqz	a5,a5
ffffffc0504050e0:	0ff7f793          	andi	a5,a5,255
ffffffc0504050e4:	fef42423          	sw	a5,-24(s0)
ffffffc0504050e8:	a81d                	j	ffffffc05040511e <search_va+0x168>
ffffffc0504050ea:	fe842783          	lw	a5,-24(s0)
ffffffc0504050ee:	078e                	slli	a5,a5,0x3
ffffffc0504050f0:	fc843703          	ld	a4,-56(s0)
ffffffc0504050f4:	97ba                	add	a5,a5,a4
ffffffc0504050f6:	639c                	ld	a5,0(a5)
ffffffc0504050f8:	ef91                	bnez	a5,ffffffc050405114 <search_va+0x15e>
ffffffc0504050fa:	fec42783          	lw	a5,-20(s0)
ffffffc0504050fe:	01e79713          	slli	a4,a5,0x1e
ffffffc050405102:	fe842783          	lw	a5,-24(s0)
ffffffc050405106:	07d6                	slli	a5,a5,0x15
ffffffc050405108:	8fd9                	or	a5,a5,a4
ffffffc05040510a:	fcf43823          	sd	a5,-48(s0)
ffffffc05040510e:	fd043783          	ld	a5,-48(s0)
ffffffc050405112:	a8ad                	j	ffffffc05040518c <search_va+0x1d6>
ffffffc050405114:	fe842783          	lw	a5,-24(s0)
ffffffc050405118:	2785                	addiw	a5,a5,1
ffffffc05040511a:	fef42423          	sw	a5,-24(s0)
ffffffc05040511e:	fe842783          	lw	a5,-24(s0)
ffffffc050405122:	0007871b          	sext.w	a4,a5
ffffffc050405126:	1ff00793          	li	a5,511
ffffffc05040512a:	fce7d0e3          	bge	a5,a4,ffffffc0504050ea <search_va+0x134>
ffffffc05040512e:	fec42783          	lw	a5,-20(s0)
ffffffc050405132:	2785                	addiw	a5,a5,1
ffffffc050405134:	fef42623          	sw	a5,-20(s0)
ffffffc050405138:	fec42783          	lw	a5,-20(s0)
ffffffc05040513c:	0007871b          	sext.w	a4,a5
ffffffc050405140:	1ff00793          	li	a5,511
ffffffc050405144:	e8e7d9e3          	bge	a5,a4,ffffffc050404fd6 <search_va+0x20>
ffffffc050405148:	4785                	li	a5,1
ffffffc05040514a:	fef42623          	sw	a5,-20(s0)
ffffffc05040514e:	a035                	j	ffffffc05040517a <search_va+0x1c4>
ffffffc050405150:	fec42783          	lw	a5,-20(s0)
ffffffc050405154:	078e                	slli	a5,a5,0x3
ffffffc050405156:	fd843703          	ld	a4,-40(s0)
ffffffc05040515a:	97ba                	add	a5,a5,a4
ffffffc05040515c:	639c                	ld	a5,0(a5)
ffffffc05040515e:	eb89                	bnez	a5,ffffffc050405170 <search_va+0x1ba>
ffffffc050405160:	fec42783          	lw	a5,-20(s0)
ffffffc050405164:	07fa                	slli	a5,a5,0x1e
ffffffc050405166:	fcf43823          	sd	a5,-48(s0)
ffffffc05040516a:	fd043783          	ld	a5,-48(s0)
ffffffc05040516e:	a839                	j	ffffffc05040518c <search_va+0x1d6>
ffffffc050405170:	fec42783          	lw	a5,-20(s0)
ffffffc050405174:	2785                	addiw	a5,a5,1
ffffffc050405176:	fef42623          	sw	a5,-20(s0)
ffffffc05040517a:	fec42783          	lw	a5,-20(s0)
ffffffc05040517e:	0007871b          	sext.w	a4,a5
ffffffc050405182:	1ff00793          	li	a5,511
ffffffc050405186:	fce7d5e3          	bge	a5,a4,ffffffc050405150 <search_va+0x19a>
ffffffc05040518a:	4781                	li	a5,0
ffffffc05040518c:	853e                	mv	a0,a5
ffffffc05040518e:	60a6                	ld	ra,72(sp)
ffffffc050405190:	6406                	ld	s0,64(sp)
ffffffc050405192:	6161                	addi	sp,sp,80
ffffffc050405194:	8082                	ret

ffffffc050405196 <search_share_pa>:
ffffffc050405196:	711d                	addi	sp,sp,-96
ffffffc050405198:	ec86                	sd	ra,88(sp)
ffffffc05040519a:	e8a2                	sd	s0,80(sp)
ffffffc05040519c:	1080                	addi	s0,sp,96
ffffffc05040519e:	faa43423          	sd	a0,-88(s0)
ffffffc0504051a2:	fab43023          	sd	a1,-96(s0)
ffffffc0504051a6:	fa043703          	ld	a4,-96(s0)
ffffffc0504051aa:	57fd                	li	a5,-1
ffffffc0504051ac:	83e5                	srli	a5,a5,0x19
ffffffc0504051ae:	8ff9                	and	a5,a5,a4
ffffffc0504051b0:	faf43023          	sd	a5,-96(s0)
ffffffc0504051b4:	fa043783          	ld	a5,-96(s0)
ffffffc0504051b8:	83f9                	srli	a5,a5,0x1e
ffffffc0504051ba:	fef43423          	sd	a5,-24(s0)
ffffffc0504051be:	fe843783          	ld	a5,-24(s0)
ffffffc0504051c2:	00979713          	slli	a4,a5,0x9
ffffffc0504051c6:	fa043783          	ld	a5,-96(s0)
ffffffc0504051ca:	83d5                	srli	a5,a5,0x15
ffffffc0504051cc:	8fb9                	xor	a5,a5,a4
ffffffc0504051ce:	fef43023          	sd	a5,-32(s0)
ffffffc0504051d2:	fe043783          	ld	a5,-32(s0)
ffffffc0504051d6:	00979713          	slli	a4,a5,0x9
ffffffc0504051da:	fe843783          	ld	a5,-24(s0)
ffffffc0504051de:	07ca                	slli	a5,a5,0x12
ffffffc0504051e0:	8f3d                	xor	a4,a4,a5
ffffffc0504051e2:	fa043783          	ld	a5,-96(s0)
ffffffc0504051e6:	83b1                	srli	a5,a5,0xc
ffffffc0504051e8:	8fb9                	xor	a5,a5,a4
ffffffc0504051ea:	fcf43c23          	sd	a5,-40(s0)
ffffffc0504051ee:	fa843503          	ld	a0,-88(s0)
ffffffc0504051f2:	ae6ff0ef          	jal	ra,ffffffc0504044d8 <pa2kva>
ffffffc0504051f6:	87aa                	mv	a5,a0
ffffffc0504051f8:	fcf43823          	sd	a5,-48(s0)
ffffffc0504051fc:	fe843783          	ld	a5,-24(s0)
ffffffc050405200:	078e                	slli	a5,a5,0x3
ffffffc050405202:	fd043703          	ld	a4,-48(s0)
ffffffc050405206:	97ba                	add	a5,a5,a4
ffffffc050405208:	639c                	ld	a5,0(a5)
ffffffc05040520a:	cbd9                	beqz	a5,ffffffc0504052a0 <search_share_pa+0x10a>
ffffffc05040520c:	fe843783          	ld	a5,-24(s0)
ffffffc050405210:	078e                	slli	a5,a5,0x3
ffffffc050405212:	fd043703          	ld	a4,-48(s0)
ffffffc050405216:	97ba                	add	a5,a5,a4
ffffffc050405218:	639c                	ld	a5,0(a5)
ffffffc05040521a:	853e                	mv	a0,a5
ffffffc05040521c:	ad8ff0ef          	jal	ra,ffffffc0504044f4 <get_pa>
ffffffc050405220:	87aa                	mv	a5,a0
ffffffc050405222:	853e                	mv	a0,a5
ffffffc050405224:	ab4ff0ef          	jal	ra,ffffffc0504044d8 <pa2kva>
ffffffc050405228:	87aa                	mv	a5,a0
ffffffc05040522a:	fcf43423          	sd	a5,-56(s0)
ffffffc05040522e:	fe043783          	ld	a5,-32(s0)
ffffffc050405232:	078e                	slli	a5,a5,0x3
ffffffc050405234:	fc843703          	ld	a4,-56(s0)
ffffffc050405238:	97ba                	add	a5,a5,a4
ffffffc05040523a:	639c                	ld	a5,0(a5)
ffffffc05040523c:	c3b5                	beqz	a5,ffffffc0504052a0 <search_share_pa+0x10a>
ffffffc05040523e:	fe043783          	ld	a5,-32(s0)
ffffffc050405242:	078e                	slli	a5,a5,0x3
ffffffc050405244:	fc843703          	ld	a4,-56(s0)
ffffffc050405248:	97ba                	add	a5,a5,a4
ffffffc05040524a:	639c                	ld	a5,0(a5)
ffffffc05040524c:	853e                	mv	a0,a5
ffffffc05040524e:	aa6ff0ef          	jal	ra,ffffffc0504044f4 <get_pa>
ffffffc050405252:	87aa                	mv	a5,a0
ffffffc050405254:	853e                	mv	a0,a5
ffffffc050405256:	a82ff0ef          	jal	ra,ffffffc0504044d8 <pa2kva>
ffffffc05040525a:	87aa                	mv	a5,a0
ffffffc05040525c:	fcf43023          	sd	a5,-64(s0)
ffffffc050405260:	fd843783          	ld	a5,-40(s0)
ffffffc050405264:	078e                	slli	a5,a5,0x3
ffffffc050405266:	fc043703          	ld	a4,-64(s0)
ffffffc05040526a:	97ba                	add	a5,a5,a4
ffffffc05040526c:	639c                	ld	a5,0(a5)
ffffffc05040526e:	8b85                	andi	a5,a5,1
ffffffc050405270:	cb85                	beqz	a5,ffffffc0504052a0 <search_share_pa+0x10a>
ffffffc050405272:	fd843783          	ld	a5,-40(s0)
ffffffc050405276:	078e                	slli	a5,a5,0x3
ffffffc050405278:	fc043703          	ld	a4,-64(s0)
ffffffc05040527c:	97ba                	add	a5,a5,a4
ffffffc05040527e:	639c                	ld	a5,0(a5)
ffffffc050405280:	853e                	mv	a0,a5
ffffffc050405282:	a72ff0ef          	jal	ra,ffffffc0504044f4 <get_pa>
ffffffc050405286:	faa43c23          	sd	a0,-72(s0)
ffffffc05040528a:	fd843783          	ld	a5,-40(s0)
ffffffc05040528e:	078e                	slli	a5,a5,0x3
ffffffc050405290:	fc043703          	ld	a4,-64(s0)
ffffffc050405294:	97ba                	add	a5,a5,a4
ffffffc050405296:	0007b023          	sd	zero,0(a5) # ffffffffae000000 <__BSS_END__+0x3f5db96e58>
ffffffc05040529a:	fb843783          	ld	a5,-72(s0)
ffffffc05040529e:	a021                	j	ffffffc0504052a6 <search_share_pa+0x110>
ffffffc0504052a0:	a0aff0ef          	jal	ra,ffffffc0504044aa <local_flush_tlb_all>
ffffffc0504052a4:	4781                	li	a5,0
ffffffc0504052a6:	853e                	mv	a0,a5
ffffffc0504052a8:	60e6                	ld	ra,88(sp)
ffffffc0504052aa:	6446                	ld	s0,80(sp)
ffffffc0504052ac:	6125                	addi	sp,sp,96
ffffffc0504052ae:	8082                	ret

ffffffc0504052b0 <shm_page_get>:
ffffffc0504052b0:	7159                	addi	sp,sp,-112
ffffffc0504052b2:	f486                	sd	ra,104(sp)
ffffffc0504052b4:	f0a2                	sd	s0,96(sp)
ffffffc0504052b6:	eca6                	sd	s1,88(sp)
ffffffc0504052b8:	1880                	addi	s0,sp,112
ffffffc0504052ba:	87aa                	mv	a5,a0
ffffffc0504052bc:	f8f42e23          	sw	a5,-100(s0)
ffffffc0504052c0:	808fb0ef          	jal	ra,ffffffc0504002c8 <get_current_cpu_id>
ffffffc0504052c4:	87aa                	mv	a5,a0
ffffffc0504052c6:	fcf43823          	sd	a5,-48(s0)
ffffffc0504052ca:	00062717          	auipc	a4,0x62
ffffffc0504052ce:	ed670713          	addi	a4,a4,-298 # ffffffc0504671a0 <current_running>
ffffffc0504052d2:	fd043783          	ld	a5,-48(s0)
ffffffc0504052d6:	078e                	slli	a5,a5,0x3
ffffffc0504052d8:	97ba                	add	a5,a5,a4
ffffffc0504052da:	639c                	ld	a5,0(a5)
ffffffc0504052dc:	fcf43423          	sd	a5,-56(s0)
ffffffc0504052e0:	fc843783          	ld	a5,-56(s0)
ffffffc0504052e4:	6b9c                	ld	a5,16(a5)
ffffffc0504052e6:	fcf43023          	sd	a5,-64(s0)
ffffffc0504052ea:	fc043783          	ld	a5,-64(s0)
ffffffc0504052ee:	00c79713          	slli	a4,a5,0xc
ffffffc0504052f2:	fff007b7          	lui	a5,0xfff00
ffffffc0504052f6:	83a1                	srli	a5,a5,0x8
ffffffc0504052f8:	8ff9                	and	a5,a5,a4
ffffffc0504052fa:	faf43c23          	sd	a5,-72(s0)
ffffffc0504052fe:	fc042e23          	sw	zero,-36(s0)
ffffffc050405302:	a071                	j	ffffffc05040538e <shm_page_get+0xde>
ffffffc050405304:	00063717          	auipc	a4,0x63
ffffffc050405308:	12470713          	addi	a4,a4,292 # ffffffc050468428 <share_page>
ffffffc05040530c:	fdc42783          	lw	a5,-36(s0)
ffffffc050405310:	0792                	slli	a5,a5,0x4
ffffffc050405312:	97ba                	add	a5,a5,a4
ffffffc050405314:	4398                	lw	a4,0(a5)
ffffffc050405316:	f9c42783          	lw	a5,-100(s0)
ffffffc05040531a:	2781                	sext.w	a5,a5
ffffffc05040531c:	06e79463          	bne	a5,a4,ffffffc050405384 <shm_page_get+0xd4>
ffffffc050405320:	fb843503          	ld	a0,-72(s0)
ffffffc050405324:	c93ff0ef          	jal	ra,ffffffc050404fb6 <search_va>
ffffffc050405328:	faa43823          	sd	a0,-80(s0)
ffffffc05040532c:	00063717          	auipc	a4,0x63
ffffffc050405330:	0fc70713          	addi	a4,a4,252 # ffffffc050468428 <share_page>
ffffffc050405334:	fdc42783          	lw	a5,-36(s0)
ffffffc050405338:	0792                	slli	a5,a5,0x4
ffffffc05040533a:	97ba                	add	a5,a5,a4
ffffffc05040533c:	43dc                	lw	a5,4(a5)
ffffffc05040533e:	2785                	addiw	a5,a5,1
ffffffc050405340:	0007871b          	sext.w	a4,a5
ffffffc050405344:	00063697          	auipc	a3,0x63
ffffffc050405348:	0e468693          	addi	a3,a3,228 # ffffffc050468428 <share_page>
ffffffc05040534c:	fdc42783          	lw	a5,-36(s0)
ffffffc050405350:	0792                	slli	a5,a5,0x4
ffffffc050405352:	97b6                	add	a5,a5,a3
ffffffc050405354:	c3d8                	sw	a4,4(a5)
ffffffc050405356:	00063717          	auipc	a4,0x63
ffffffc05040535a:	0d270713          	addi	a4,a4,210 # ffffffc050468428 <share_page>
ffffffc05040535e:	fdc42783          	lw	a5,-36(s0)
ffffffc050405362:	0792                	slli	a5,a5,0x4
ffffffc050405364:	97ba                	add	a5,a5,a4
ffffffc050405366:	6784                	ld	s1,8(a5)
ffffffc050405368:	fb843503          	ld	a0,-72(s0)
ffffffc05040536c:	96cff0ef          	jal	ra,ffffffc0504044d8 <pa2kva>
ffffffc050405370:	87aa                	mv	a5,a0
ffffffc050405372:	863e                	mv	a2,a5
ffffffc050405374:	85a6                	mv	a1,s1
ffffffc050405376:	fb043503          	ld	a0,-80(s0)
ffffffc05040537a:	236000ef          	jal	ra,ffffffc0504055b0 <map_page>
ffffffc05040537e:	fb043783          	ld	a5,-80(s0)
ffffffc050405382:	a8d5                	j	ffffffc050405476 <shm_page_get+0x1c6>
ffffffc050405384:	fdc42783          	lw	a5,-36(s0)
ffffffc050405388:	2785                	addiw	a5,a5,1
ffffffc05040538a:	fcf42e23          	sw	a5,-36(s0)
ffffffc05040538e:	fdc42783          	lw	a5,-36(s0)
ffffffc050405392:	0007871b          	sext.w	a4,a5
ffffffc050405396:	47cd                	li	a5,19
ffffffc050405398:	f6e7d6e3          	bge	a5,a4,ffffffc050405304 <shm_page_get+0x54>
ffffffc05040539c:	fc042e23          	sw	zero,-36(s0)
ffffffc0504053a0:	a005                	j	ffffffc0504053c0 <shm_page_get+0x110>
ffffffc0504053a2:	00063717          	auipc	a4,0x63
ffffffc0504053a6:	08670713          	addi	a4,a4,134 # ffffffc050468428 <share_page>
ffffffc0504053aa:	fdc42783          	lw	a5,-36(s0)
ffffffc0504053ae:	0792                	slli	a5,a5,0x4
ffffffc0504053b0:	97ba                	add	a5,a5,a4
ffffffc0504053b2:	439c                	lw	a5,0(a5)
ffffffc0504053b4:	cf91                	beqz	a5,ffffffc0504053d0 <shm_page_get+0x120>
ffffffc0504053b6:	fdc42783          	lw	a5,-36(s0)
ffffffc0504053ba:	2785                	addiw	a5,a5,1
ffffffc0504053bc:	fcf42e23          	sw	a5,-36(s0)
ffffffc0504053c0:	fdc42783          	lw	a5,-36(s0)
ffffffc0504053c4:	0007871b          	sext.w	a4,a5
ffffffc0504053c8:	47cd                	li	a5,19
ffffffc0504053ca:	fce7dce3          	bge	a5,a4,ffffffc0504053a2 <shm_page_get+0xf2>
ffffffc0504053ce:	a011                	j	ffffffc0504053d2 <shm_page_get+0x122>
ffffffc0504053d0:	0001                	nop
ffffffc0504053d2:	fdc42783          	lw	a5,-36(s0)
ffffffc0504053d6:	0007871b          	sext.w	a4,a5
ffffffc0504053da:	47cd                	li	a5,19
ffffffc0504053dc:	00e7de63          	bge	a5,a4,ffffffc0504053f8 <shm_page_get+0x148>
ffffffc0504053e0:	00001617          	auipc	a2,0x1
ffffffc0504053e4:	75060613          	addi	a2,a2,1872 # ffffffc050406b30 <__FUNCTION__.1540>
ffffffc0504053e8:	15400593          	li	a1,340
ffffffc0504053ec:	00001517          	auipc	a0,0x1
ffffffc0504053f0:	6ec50513          	addi	a0,a0,1772 # ffffffc050406ad8 <__FUNCTION__.1727+0x40>
ffffffc0504053f4:	9d8ff0ef          	jal	ra,ffffffc0504045cc <_panic>
ffffffc0504053f8:	00063717          	auipc	a4,0x63
ffffffc0504053fc:	03070713          	addi	a4,a4,48 # ffffffc050468428 <share_page>
ffffffc050405400:	fdc42783          	lw	a5,-36(s0)
ffffffc050405404:	0792                	slli	a5,a5,0x4
ffffffc050405406:	97ba                	add	a5,a5,a4
ffffffc050405408:	f9c42703          	lw	a4,-100(s0)
ffffffc05040540c:	c398                	sw	a4,0(a5)
ffffffc05040540e:	00063717          	auipc	a4,0x63
ffffffc050405412:	01a70713          	addi	a4,a4,26 # ffffffc050468428 <share_page>
ffffffc050405416:	fdc42783          	lw	a5,-36(s0)
ffffffc05040541a:	0792                	slli	a5,a5,0x4
ffffffc05040541c:	97ba                	add	a5,a5,a4
ffffffc05040541e:	43dc                	lw	a5,4(a5)
ffffffc050405420:	2785                	addiw	a5,a5,1
ffffffc050405422:	0007871b          	sext.w	a4,a5
ffffffc050405426:	00063697          	auipc	a3,0x63
ffffffc05040542a:	00268693          	addi	a3,a3,2 # ffffffc050468428 <share_page>
ffffffc05040542e:	fdc42783          	lw	a5,-36(s0)
ffffffc050405432:	0792                	slli	a5,a5,0x4
ffffffc050405434:	97b6                	add	a5,a5,a3
ffffffc050405436:	c3d8                	sw	a4,4(a5)
ffffffc050405438:	fb843503          	ld	a0,-72(s0)
ffffffc05040543c:	b7bff0ef          	jal	ra,ffffffc050404fb6 <search_va>
ffffffc050405440:	faa43823          	sd	a0,-80(s0)
ffffffc050405444:	4601                	li	a2,0
ffffffc050405446:	fb843583          	ld	a1,-72(s0)
ffffffc05040544a:	fb043503          	ld	a0,-80(s0)
ffffffc05040544e:	5fa000ef          	jal	ra,ffffffc050405a48 <alloc_page_helper>
ffffffc050405452:	faa43423          	sd	a0,-88(s0)
ffffffc050405456:	fa843503          	ld	a0,-88(s0)
ffffffc05040545a:	862ff0ef          	jal	ra,ffffffc0504044bc <kva2pa>
ffffffc05040545e:	86aa                	mv	a3,a0
ffffffc050405460:	00063717          	auipc	a4,0x63
ffffffc050405464:	fc870713          	addi	a4,a4,-56 # ffffffc050468428 <share_page>
ffffffc050405468:	fdc42783          	lw	a5,-36(s0)
ffffffc05040546c:	0792                	slli	a5,a5,0x4
ffffffc05040546e:	97ba                	add	a5,a5,a4
ffffffc050405470:	e794                	sd	a3,8(a5)
ffffffc050405472:	fb043783          	ld	a5,-80(s0)
ffffffc050405476:	853e                	mv	a0,a5
ffffffc050405478:	70a6                	ld	ra,104(sp)
ffffffc05040547a:	7406                	ld	s0,96(sp)
ffffffc05040547c:	64e6                	ld	s1,88(sp)
ffffffc05040547e:	6165                	addi	sp,sp,112
ffffffc050405480:	8082                	ret

ffffffc050405482 <shm_page_dt>:
ffffffc050405482:	715d                	addi	sp,sp,-80
ffffffc050405484:	e486                	sd	ra,72(sp)
ffffffc050405486:	e0a2                	sd	s0,64(sp)
ffffffc050405488:	0880                	addi	s0,sp,80
ffffffc05040548a:	faa43c23          	sd	a0,-72(s0)
ffffffc05040548e:	e3bfa0ef          	jal	ra,ffffffc0504002c8 <get_current_cpu_id>
ffffffc050405492:	87aa                	mv	a5,a0
ffffffc050405494:	fef43023          	sd	a5,-32(s0)
ffffffc050405498:	00062717          	auipc	a4,0x62
ffffffc05040549c:	d0870713          	addi	a4,a4,-760 # ffffffc0504671a0 <current_running>
ffffffc0504054a0:	fe043783          	ld	a5,-32(s0)
ffffffc0504054a4:	078e                	slli	a5,a5,0x3
ffffffc0504054a6:	97ba                	add	a5,a5,a4
ffffffc0504054a8:	639c                	ld	a5,0(a5)
ffffffc0504054aa:	fcf43c23          	sd	a5,-40(s0)
ffffffc0504054ae:	fd843783          	ld	a5,-40(s0)
ffffffc0504054b2:	6b9c                	ld	a5,16(a5)
ffffffc0504054b4:	fcf43823          	sd	a5,-48(s0)
ffffffc0504054b8:	fd043783          	ld	a5,-48(s0)
ffffffc0504054bc:	00c79713          	slli	a4,a5,0xc
ffffffc0504054c0:	fff007b7          	lui	a5,0xfff00
ffffffc0504054c4:	83a1                	srli	a5,a5,0x8
ffffffc0504054c6:	8ff9                	and	a5,a5,a4
ffffffc0504054c8:	fcf43423          	sd	a5,-56(s0)
ffffffc0504054cc:	fb843583          	ld	a1,-72(s0)
ffffffc0504054d0:	fc843503          	ld	a0,-56(s0)
ffffffc0504054d4:	cc3ff0ef          	jal	ra,ffffffc050405196 <search_share_pa>
ffffffc0504054d8:	fca43023          	sd	a0,-64(s0)
ffffffc0504054dc:	a865                	j	ffffffc050405594 <shm_page_dt+0x112>
ffffffc0504054de:	00063717          	auipc	a4,0x63
ffffffc0504054e2:	f4a70713          	addi	a4,a4,-182 # ffffffc050468428 <share_page>
ffffffc0504054e6:	fec42783          	lw	a5,-20(s0)
ffffffc0504054ea:	0792                	slli	a5,a5,0x4
ffffffc0504054ec:	97ba                	add	a5,a5,a4
ffffffc0504054ee:	679c                	ld	a5,8(a5)
ffffffc0504054f0:	fc043703          	ld	a4,-64(s0)
ffffffc0504054f4:	08f71b63          	bne	a4,a5,ffffffc05040558a <shm_page_dt+0x108>
ffffffc0504054f8:	00063717          	auipc	a4,0x63
ffffffc0504054fc:	f3070713          	addi	a4,a4,-208 # ffffffc050468428 <share_page>
ffffffc050405500:	fec42783          	lw	a5,-20(s0)
ffffffc050405504:	0792                	slli	a5,a5,0x4
ffffffc050405506:	97ba                	add	a5,a5,a4
ffffffc050405508:	43dc                	lw	a5,4(a5)
ffffffc05040550a:	37fd                	addiw	a5,a5,-1
ffffffc05040550c:	0007871b          	sext.w	a4,a5
ffffffc050405510:	00063697          	auipc	a3,0x63
ffffffc050405514:	f1868693          	addi	a3,a3,-232 # ffffffc050468428 <share_page>
ffffffc050405518:	fec42783          	lw	a5,-20(s0)
ffffffc05040551c:	0792                	slli	a5,a5,0x4
ffffffc05040551e:	97b6                	add	a5,a5,a3
ffffffc050405520:	c3d8                	sw	a4,4(a5)
ffffffc050405522:	00063717          	auipc	a4,0x63
ffffffc050405526:	f0670713          	addi	a4,a4,-250 # ffffffc050468428 <share_page>
ffffffc05040552a:	fec42783          	lw	a5,-20(s0)
ffffffc05040552e:	0792                	slli	a5,a5,0x4
ffffffc050405530:	97ba                	add	a5,a5,a4
ffffffc050405532:	43dc                	lw	a5,4(a5)
ffffffc050405534:	eba5                	bnez	a5,ffffffc0504055a4 <shm_page_dt+0x122>
ffffffc050405536:	00063717          	auipc	a4,0x63
ffffffc05040553a:	ef270713          	addi	a4,a4,-270 # ffffffc050468428 <share_page>
ffffffc05040553e:	fec42783          	lw	a5,-20(s0)
ffffffc050405542:	0792                	slli	a5,a5,0x4
ffffffc050405544:	97ba                	add	a5,a5,a4
ffffffc050405546:	6798                	ld	a4,8(a5)
ffffffc050405548:	ae0007b7          	lui	a5,0xae000
ffffffc05040554c:	97ba                	add	a5,a5,a4
ffffffc05040554e:	83b1                	srli	a5,a5,0xc
ffffffc050405550:	00062717          	auipc	a4,0x62
ffffffc050405554:	6d870713          	addi	a4,a4,1752 # ffffffc050467c28 <mem_occupied>
ffffffc050405558:	078a                	slli	a5,a5,0x2
ffffffc05040555a:	97ba                	add	a5,a5,a4
ffffffc05040555c:	0007a023          	sw	zero,0(a5) # ffffffffae000000 <__BSS_END__+0x3f5db96e58>
ffffffc050405560:	00063717          	auipc	a4,0x63
ffffffc050405564:	ec870713          	addi	a4,a4,-312 # ffffffc050468428 <share_page>
ffffffc050405568:	fec42783          	lw	a5,-20(s0)
ffffffc05040556c:	0792                	slli	a5,a5,0x4
ffffffc05040556e:	97ba                	add	a5,a5,a4
ffffffc050405570:	0007b423          	sd	zero,8(a5)
ffffffc050405574:	00063717          	auipc	a4,0x63
ffffffc050405578:	eb470713          	addi	a4,a4,-332 # ffffffc050468428 <share_page>
ffffffc05040557c:	fec42783          	lw	a5,-20(s0)
ffffffc050405580:	0792                	slli	a5,a5,0x4
ffffffc050405582:	97ba                	add	a5,a5,a4
ffffffc050405584:	0007a023          	sw	zero,0(a5)
ffffffc050405588:	a831                	j	ffffffc0504055a4 <shm_page_dt+0x122>
ffffffc05040558a:	fec42783          	lw	a5,-20(s0)
ffffffc05040558e:	2785                	addiw	a5,a5,1
ffffffc050405590:	fef42623          	sw	a5,-20(s0)
ffffffc050405594:	fec42783          	lw	a5,-20(s0)
ffffffc050405598:	0007871b          	sext.w	a4,a5
ffffffc05040559c:	47cd                	li	a5,19
ffffffc05040559e:	f4e7d0e3          	bge	a5,a4,ffffffc0504054de <shm_page_dt+0x5c>
ffffffc0504055a2:	a011                	j	ffffffc0504055a6 <shm_page_dt+0x124>
ffffffc0504055a4:	0001                	nop
ffffffc0504055a6:	0001                	nop
ffffffc0504055a8:	60a6                	ld	ra,72(sp)
ffffffc0504055aa:	6406                	ld	s0,64(sp)
ffffffc0504055ac:	6161                	addi	sp,sp,80
ffffffc0504055ae:	8082                	ret

ffffffc0504055b0 <map_page>:
ffffffc0504055b0:	7159                	addi	sp,sp,-112
ffffffc0504055b2:	f486                	sd	ra,104(sp)
ffffffc0504055b4:	f0a2                	sd	s0,96(sp)
ffffffc0504055b6:	eca6                	sd	s1,88(sp)
ffffffc0504055b8:	1880                	addi	s0,sp,112
ffffffc0504055ba:	faa43423          	sd	a0,-88(s0)
ffffffc0504055be:	fab43023          	sd	a1,-96(s0)
ffffffc0504055c2:	f8c43c23          	sd	a2,-104(s0)
ffffffc0504055c6:	fa843703          	ld	a4,-88(s0)
ffffffc0504055ca:	57fd                	li	a5,-1
ffffffc0504055cc:	83e5                	srli	a5,a5,0x19
ffffffc0504055ce:	8ff9                	and	a5,a5,a4
ffffffc0504055d0:	faf43423          	sd	a5,-88(s0)
ffffffc0504055d4:	fa843783          	ld	a5,-88(s0)
ffffffc0504055d8:	83f9                	srli	a5,a5,0x1e
ffffffc0504055da:	fcf43c23          	sd	a5,-40(s0)
ffffffc0504055de:	fd843783          	ld	a5,-40(s0)
ffffffc0504055e2:	00979713          	slli	a4,a5,0x9
ffffffc0504055e6:	fa843783          	ld	a5,-88(s0)
ffffffc0504055ea:	83d5                	srli	a5,a5,0x15
ffffffc0504055ec:	8fb9                	xor	a5,a5,a4
ffffffc0504055ee:	fcf43823          	sd	a5,-48(s0)
ffffffc0504055f2:	fd043783          	ld	a5,-48(s0)
ffffffc0504055f6:	00979713          	slli	a4,a5,0x9
ffffffc0504055fa:	fd843783          	ld	a5,-40(s0)
ffffffc0504055fe:	07ca                	slli	a5,a5,0x12
ffffffc050405600:	8f3d                	xor	a4,a4,a5
ffffffc050405602:	fa843783          	ld	a5,-88(s0)
ffffffc050405606:	83b1                	srli	a5,a5,0xc
ffffffc050405608:	8fb9                	xor	a5,a5,a4
ffffffc05040560a:	fcf43423          	sd	a5,-56(s0)
ffffffc05040560e:	fd843783          	ld	a5,-40(s0)
ffffffc050405612:	078e                	slli	a5,a5,0x3
ffffffc050405614:	f9843703          	ld	a4,-104(s0)
ffffffc050405618:	97ba                	add	a5,a5,a4
ffffffc05040561a:	639c                	ld	a5,0(a5)
ffffffc05040561c:	eb95                	bnez	a5,ffffffc050405650 <map_page+0xa0>
ffffffc05040561e:	fd843783          	ld	a5,-40(s0)
ffffffc050405622:	078e                	slli	a5,a5,0x3
ffffffc050405624:	f9843703          	ld	a4,-104(s0)
ffffffc050405628:	00f704b3          	add	s1,a4,a5
ffffffc05040562c:	4c0000ef          	jal	ra,ffffffc050405aec <create_pt>
ffffffc050405630:	87aa                	mv	a5,a0
ffffffc050405632:	83b1                	srli	a5,a5,0xc
ffffffc050405634:	85be                	mv	a1,a5
ffffffc050405636:	8526                	mv	a0,s1
ffffffc050405638:	ed7fe0ef          	jal	ra,ffffffc05040450e <set_pfn>
ffffffc05040563c:	fd843783          	ld	a5,-40(s0)
ffffffc050405640:	078e                	slli	a5,a5,0x3
ffffffc050405642:	f9843703          	ld	a4,-104(s0)
ffffffc050405646:	97ba                	add	a5,a5,a4
ffffffc050405648:	4585                	li	a1,1
ffffffc05040564a:	853e                	mv	a0,a5
ffffffc05040564c:	efdfe0ef          	jal	ra,ffffffc050404548 <set_attribute>
ffffffc050405650:	fd843783          	ld	a5,-40(s0)
ffffffc050405654:	078e                	slli	a5,a5,0x3
ffffffc050405656:	f9843703          	ld	a4,-104(s0)
ffffffc05040565a:	97ba                	add	a5,a5,a4
ffffffc05040565c:	639c                	ld	a5,0(a5)
ffffffc05040565e:	853e                	mv	a0,a5
ffffffc050405660:	e95fe0ef          	jal	ra,ffffffc0504044f4 <get_pa>
ffffffc050405664:	87aa                	mv	a5,a0
ffffffc050405666:	853e                	mv	a0,a5
ffffffc050405668:	e71fe0ef          	jal	ra,ffffffc0504044d8 <pa2kva>
ffffffc05040566c:	87aa                	mv	a5,a0
ffffffc05040566e:	fcf43023          	sd	a5,-64(s0)
ffffffc050405672:	fd043783          	ld	a5,-48(s0)
ffffffc050405676:	078e                	slli	a5,a5,0x3
ffffffc050405678:	fc043703          	ld	a4,-64(s0)
ffffffc05040567c:	97ba                	add	a5,a5,a4
ffffffc05040567e:	639c                	ld	a5,0(a5)
ffffffc050405680:	eb95                	bnez	a5,ffffffc0504056b4 <map_page+0x104>
ffffffc050405682:	fd043783          	ld	a5,-48(s0)
ffffffc050405686:	078e                	slli	a5,a5,0x3
ffffffc050405688:	fc043703          	ld	a4,-64(s0)
ffffffc05040568c:	00f704b3          	add	s1,a4,a5
ffffffc050405690:	45c000ef          	jal	ra,ffffffc050405aec <create_pt>
ffffffc050405694:	87aa                	mv	a5,a0
ffffffc050405696:	83b1                	srli	a5,a5,0xc
ffffffc050405698:	85be                	mv	a1,a5
ffffffc05040569a:	8526                	mv	a0,s1
ffffffc05040569c:	e73fe0ef          	jal	ra,ffffffc05040450e <set_pfn>
ffffffc0504056a0:	fd043783          	ld	a5,-48(s0)
ffffffc0504056a4:	078e                	slli	a5,a5,0x3
ffffffc0504056a6:	fc043703          	ld	a4,-64(s0)
ffffffc0504056aa:	97ba                	add	a5,a5,a4
ffffffc0504056ac:	4585                	li	a1,1
ffffffc0504056ae:	853e                	mv	a0,a5
ffffffc0504056b0:	e99fe0ef          	jal	ra,ffffffc050404548 <set_attribute>
ffffffc0504056b4:	fd043783          	ld	a5,-48(s0)
ffffffc0504056b8:	078e                	slli	a5,a5,0x3
ffffffc0504056ba:	fc043703          	ld	a4,-64(s0)
ffffffc0504056be:	97ba                	add	a5,a5,a4
ffffffc0504056c0:	639c                	ld	a5,0(a5)
ffffffc0504056c2:	853e                	mv	a0,a5
ffffffc0504056c4:	e31fe0ef          	jal	ra,ffffffc0504044f4 <get_pa>
ffffffc0504056c8:	87aa                	mv	a5,a0
ffffffc0504056ca:	853e                	mv	a0,a5
ffffffc0504056cc:	e0dfe0ef          	jal	ra,ffffffc0504044d8 <pa2kva>
ffffffc0504056d0:	87aa                	mv	a5,a0
ffffffc0504056d2:	faf43c23          	sd	a5,-72(s0)
ffffffc0504056d6:	fc843783          	ld	a5,-56(s0)
ffffffc0504056da:	078e                	slli	a5,a5,0x3
ffffffc0504056dc:	fb843703          	ld	a4,-72(s0)
ffffffc0504056e0:	973e                	add	a4,a4,a5
ffffffc0504056e2:	fa043783          	ld	a5,-96(s0)
ffffffc0504056e6:	83b1                	srli	a5,a5,0xc
ffffffc0504056e8:	85be                	mv	a1,a5
ffffffc0504056ea:	853a                	mv	a0,a4
ffffffc0504056ec:	e23fe0ef          	jal	ra,ffffffc05040450e <set_pfn>
ffffffc0504056f0:	fc843783          	ld	a5,-56(s0)
ffffffc0504056f4:	078e                	slli	a5,a5,0x3
ffffffc0504056f6:	fb843703          	ld	a4,-72(s0)
ffffffc0504056fa:	97ba                	add	a5,a5,a4
ffffffc0504056fc:	0df00593          	li	a1,223
ffffffc050405700:	853e                	mv	a0,a5
ffffffc050405702:	e47fe0ef          	jal	ra,ffffffc050404548 <set_attribute>
ffffffc050405706:	0001                	nop
ffffffc050405708:	70a6                	ld	ra,104(sp)
ffffffc05040570a:	7406                	ld	s0,96(sp)
ffffffc05040570c:	64e6                	ld	s1,88(sp)
ffffffc05040570e:	6165                	addi	sp,sp,112
ffffffc050405710:	8082                	ret

ffffffc050405712 <share_pgtable>:
ffffffc050405712:	7139                	addi	sp,sp,-64
ffffffc050405714:	fc06                	sd	ra,56(sp)
ffffffc050405716:	f822                	sd	s0,48(sp)
ffffffc050405718:	0080                	addi	s0,sp,64
ffffffc05040571a:	fca43423          	sd	a0,-56(s0)
ffffffc05040571e:	fcb43023          	sd	a1,-64(s0)
ffffffc050405722:	fc843503          	ld	a0,-56(s0)
ffffffc050405726:	db3fe0ef          	jal	ra,ffffffc0504044d8 <pa2kva>
ffffffc05040572a:	87aa                	mv	a5,a0
ffffffc05040572c:	fef43423          	sd	a5,-24(s0)
ffffffc050405730:	fc043503          	ld	a0,-64(s0)
ffffffc050405734:	da5fe0ef          	jal	ra,ffffffc0504044d8 <pa2kva>
ffffffc050405738:	87aa                	mv	a5,a0
ffffffc05040573a:	fef43023          	sd	a5,-32(s0)
ffffffc05040573e:	fc042e23          	sw	zero,-36(s0)
ffffffc050405742:	a815                	j	ffffffc050405776 <share_pgtable+0x64>
ffffffc050405744:	fe043783          	ld	a5,-32(s0)
ffffffc050405748:	639c                	ld	a5,0(a5)
ffffffc05040574a:	c799                	beqz	a5,ffffffc050405758 <share_pgtable+0x46>
ffffffc05040574c:	fe043783          	ld	a5,-32(s0)
ffffffc050405750:	6398                	ld	a4,0(a5)
ffffffc050405752:	fe843783          	ld	a5,-24(s0)
ffffffc050405756:	e398                	sd	a4,0(a5)
ffffffc050405758:	fe043783          	ld	a5,-32(s0)
ffffffc05040575c:	07a1                	addi	a5,a5,8
ffffffc05040575e:	fef43023          	sd	a5,-32(s0)
ffffffc050405762:	fe843783          	ld	a5,-24(s0)
ffffffc050405766:	07a1                	addi	a5,a5,8
ffffffc050405768:	fef43423          	sd	a5,-24(s0)
ffffffc05040576c:	fdc42783          	lw	a5,-36(s0)
ffffffc050405770:	2785                	addiw	a5,a5,1
ffffffc050405772:	fcf42e23          	sw	a5,-36(s0)
ffffffc050405776:	fdc42783          	lw	a5,-36(s0)
ffffffc05040577a:	0007871b          	sext.w	a4,a5
ffffffc05040577e:	1ff00793          	li	a5,511
ffffffc050405782:	fce7d1e3          	bge	a5,a4,ffffffc050405744 <share_pgtable+0x32>
ffffffc050405786:	0001                	nop
ffffffc050405788:	0001                	nop
ffffffc05040578a:	70e2                	ld	ra,56(sp)
ffffffc05040578c:	7442                	ld	s0,48(sp)
ffffffc05040578e:	6121                	addi	sp,sp,64
ffffffc050405790:	8082                	ret

ffffffc050405792 <check_replaced>:
ffffffc050405792:	711d                	addi	sp,sp,-96
ffffffc050405794:	ec86                	sd	ra,88(sp)
ffffffc050405796:	e8a2                	sd	s0,80(sp)
ffffffc050405798:	1080                	addi	s0,sp,96
ffffffc05040579a:	faa43423          	sd	a0,-88(s0)
ffffffc05040579e:	b2bfa0ef          	jal	ra,ffffffc0504002c8 <get_current_cpu_id>
ffffffc0504057a2:	87aa                	mv	a5,a0
ffffffc0504057a4:	fef43023          	sd	a5,-32(s0)
ffffffc0504057a8:	00062717          	auipc	a4,0x62
ffffffc0504057ac:	9f870713          	addi	a4,a4,-1544 # ffffffc0504671a0 <current_running>
ffffffc0504057b0:	fe043783          	ld	a5,-32(s0)
ffffffc0504057b4:	078e                	slli	a5,a5,0x3
ffffffc0504057b6:	97ba                	add	a5,a5,a4
ffffffc0504057b8:	639c                	ld	a5,0(a5)
ffffffc0504057ba:	fcf43c23          	sd	a5,-40(s0)
ffffffc0504057be:	fd843783          	ld	a5,-40(s0)
ffffffc0504057c2:	47bc                	lw	a5,72(a5)
ffffffc0504057c4:	fcf42a23          	sw	a5,-44(s0)
ffffffc0504057c8:	fd843783          	ld	a5,-40(s0)
ffffffc0504057cc:	6b9c                	ld	a5,16(a5)
ffffffc0504057ce:	fcf43423          	sd	a5,-56(s0)
ffffffc0504057d2:	fc843703          	ld	a4,-56(s0)
ffffffc0504057d6:	57fd                	li	a5,-1
ffffffc0504057d8:	83d1                	srli	a5,a5,0x14
ffffffc0504057da:	8ff9                	and	a5,a5,a4
ffffffc0504057dc:	fcf43023          	sd	a5,-64(s0)
ffffffc0504057e0:	fa843703          	ld	a4,-88(s0)
ffffffc0504057e4:	77fd                	lui	a5,0xfffff
ffffffc0504057e6:	8ff9                	and	a5,a5,a4
ffffffc0504057e8:	faf43c23          	sd	a5,-72(s0)
ffffffc0504057ec:	fd442783          	lw	a5,-44(s0)
ffffffc0504057f0:	fb843703          	ld	a4,-72(s0)
ffffffc0504057f4:	8fd9                	or	a5,a5,a4
ffffffc0504057f6:	faf43c23          	sd	a5,-72(s0)
ffffffc0504057fa:	fe042623          	sw	zero,-20(s0)
ffffffc0504057fe:	a841                	j	ffffffc05040588e <check_replaced+0xfc>
ffffffc050405800:	00063717          	auipc	a4,0x63
ffffffc050405804:	16870713          	addi	a4,a4,360 # ffffffc050468968 <sd_va>
ffffffc050405808:	fec42783          	lw	a5,-20(s0)
ffffffc05040580c:	078e                	slli	a5,a5,0x3
ffffffc05040580e:	97ba                	add	a5,a5,a4
ffffffc050405810:	639c                	ld	a5,0(a5)
ffffffc050405812:	fb843703          	ld	a4,-72(s0)
ffffffc050405816:	06f71763          	bne	a4,a5,ffffffc050405884 <check_replaced+0xf2>
ffffffc05040581a:	4585                	li	a1,1
ffffffc05040581c:	4505                	li	a0,1
ffffffc05040581e:	fd7fe0ef          	jal	ra,ffffffc0504047f4 <allocPage>
ffffffc050405822:	faa43823          	sd	a0,-80(s0)
ffffffc050405826:	fc043783          	ld	a5,-64(s0)
ffffffc05040582a:	07b2                	slli	a5,a5,0xc
ffffffc05040582c:	853e                	mv	a0,a5
ffffffc05040582e:	cabfe0ef          	jal	ra,ffffffc0504044d8 <pa2kva>
ffffffc050405832:	87aa                	mv	a5,a0
ffffffc050405834:	863e                	mv	a2,a5
ffffffc050405836:	fb043583          	ld	a1,-80(s0)
ffffffc05040583a:	fa843503          	ld	a0,-88(s0)
ffffffc05040583e:	d73ff0ef          	jal	ra,ffffffc0504055b0 <map_page>
ffffffc050405842:	00063717          	auipc	a4,0x63
ffffffc050405846:	12670713          	addi	a4,a4,294 # ffffffc050468968 <sd_va>
ffffffc05040584a:	fec42783          	lw	a5,-20(s0)
ffffffc05040584e:	078e                	slli	a5,a5,0x3
ffffffc050405850:	97ba                	add	a5,a5,a4
ffffffc050405852:	0007b023          	sd	zero,0(a5) # fffffffffffff000 <__BSS_END__+0x3fafb95e58>
ffffffc050405856:	fb043783          	ld	a5,-80(s0)
ffffffc05040585a:	0007871b          	sext.w	a4,a5
ffffffc05040585e:	fec42783          	lw	a5,-20(s0)
ffffffc050405862:	37fd                	addiw	a5,a5,-1
ffffffc050405864:	2781                	sext.w	a5,a5
ffffffc050405866:	0037979b          	slliw	a5,a5,0x3
ffffffc05040586a:	2781                	sext.w	a5,a5
ffffffc05040586c:	2785                	addiw	a5,a5,1
ffffffc05040586e:	2781                	sext.w	a5,a5
ffffffc050405870:	2781                	sext.w	a5,a5
ffffffc050405872:	863e                	mv	a2,a5
ffffffc050405874:	45a1                	li	a1,8
ffffffc050405876:	853a                	mv	a0,a4
ffffffc050405878:	bf5fe0ef          	jal	ra,ffffffc05040446c <sbi_sd_read>
ffffffc05040587c:	fb043783          	ld	a5,-80(s0)
ffffffc050405880:	2781                	sext.w	a5,a5
ffffffc050405882:	a839                	j	ffffffc0504058a0 <check_replaced+0x10e>
ffffffc050405884:	fec42783          	lw	a5,-20(s0)
ffffffc050405888:	2785                	addiw	a5,a5,1
ffffffc05040588a:	fef42623          	sw	a5,-20(s0)
ffffffc05040588e:	fec42783          	lw	a5,-20(s0)
ffffffc050405892:	0007871b          	sext.w	a4,a5
ffffffc050405896:	0c700793          	li	a5,199
ffffffc05040589a:	f6e7d3e3          	bge	a5,a4,ffffffc050405800 <check_replaced+0x6e>
ffffffc05040589e:	4781                	li	a5,0
ffffffc0504058a0:	853e                	mv	a0,a5
ffffffc0504058a2:	60e6                	ld	ra,88(sp)
ffffffc0504058a4:	6446                	ld	s0,80(sp)
ffffffc0504058a6:	6125                	addi	sp,sp,96
ffffffc0504058a8:	8082                	ret

ffffffc0504058aa <check_fork>:
ffffffc0504058aa:	711d                	addi	sp,sp,-96
ffffffc0504058ac:	ec86                	sd	ra,88(sp)
ffffffc0504058ae:	e8a2                	sd	s0,80(sp)
ffffffc0504058b0:	1080                	addi	s0,sp,96
ffffffc0504058b2:	faa43423          	sd	a0,-88(s0)
ffffffc0504058b6:	fab43023          	sd	a1,-96(s0)
ffffffc0504058ba:	fa843703          	ld	a4,-88(s0)
ffffffc0504058be:	57fd                	li	a5,-1
ffffffc0504058c0:	83e5                	srli	a5,a5,0x19
ffffffc0504058c2:	8ff9                	and	a5,a5,a4
ffffffc0504058c4:	faf43423          	sd	a5,-88(s0)
ffffffc0504058c8:	fa843783          	ld	a5,-88(s0)
ffffffc0504058cc:	83f9                	srli	a5,a5,0x1e
ffffffc0504058ce:	fef43423          	sd	a5,-24(s0)
ffffffc0504058d2:	fe843783          	ld	a5,-24(s0)
ffffffc0504058d6:	00979713          	slli	a4,a5,0x9
ffffffc0504058da:	fa843783          	ld	a5,-88(s0)
ffffffc0504058de:	83d5                	srli	a5,a5,0x15
ffffffc0504058e0:	8fb9                	xor	a5,a5,a4
ffffffc0504058e2:	fef43023          	sd	a5,-32(s0)
ffffffc0504058e6:	fe043783          	ld	a5,-32(s0)
ffffffc0504058ea:	00979713          	slli	a4,a5,0x9
ffffffc0504058ee:	fe843783          	ld	a5,-24(s0)
ffffffc0504058f2:	07ca                	slli	a5,a5,0x12
ffffffc0504058f4:	8f3d                	xor	a4,a4,a5
ffffffc0504058f6:	fa843783          	ld	a5,-88(s0)
ffffffc0504058fa:	83b1                	srli	a5,a5,0xc
ffffffc0504058fc:	8fb9                	xor	a5,a5,a4
ffffffc0504058fe:	fcf43c23          	sd	a5,-40(s0)
ffffffc050405902:	fa043503          	ld	a0,-96(s0)
ffffffc050405906:	bd3fe0ef          	jal	ra,ffffffc0504044d8 <pa2kva>
ffffffc05040590a:	87aa                	mv	a5,a0
ffffffc05040590c:	fcf43823          	sd	a5,-48(s0)
ffffffc050405910:	fe843783          	ld	a5,-24(s0)
ffffffc050405914:	078e                	slli	a5,a5,0x3
ffffffc050405916:	fd043703          	ld	a4,-48(s0)
ffffffc05040591a:	97ba                	add	a5,a5,a4
ffffffc05040591c:	639c                	ld	a5,0(a5)
ffffffc05040591e:	10078f63          	beqz	a5,ffffffc050405a3c <check_fork+0x192>
ffffffc050405922:	fe843783          	ld	a5,-24(s0)
ffffffc050405926:	078e                	slli	a5,a5,0x3
ffffffc050405928:	fd043703          	ld	a4,-48(s0)
ffffffc05040592c:	97ba                	add	a5,a5,a4
ffffffc05040592e:	639c                	ld	a5,0(a5)
ffffffc050405930:	853e                	mv	a0,a5
ffffffc050405932:	bc3fe0ef          	jal	ra,ffffffc0504044f4 <get_pa>
ffffffc050405936:	87aa                	mv	a5,a0
ffffffc050405938:	853e                	mv	a0,a5
ffffffc05040593a:	b9ffe0ef          	jal	ra,ffffffc0504044d8 <pa2kva>
ffffffc05040593e:	87aa                	mv	a5,a0
ffffffc050405940:	fcf43423          	sd	a5,-56(s0)
ffffffc050405944:	fe043783          	ld	a5,-32(s0)
ffffffc050405948:	078e                	slli	a5,a5,0x3
ffffffc05040594a:	fc843703          	ld	a4,-56(s0)
ffffffc05040594e:	97ba                	add	a5,a5,a4
ffffffc050405950:	639c                	ld	a5,0(a5)
ffffffc050405952:	0e078563          	beqz	a5,ffffffc050405a3c <check_fork+0x192>
ffffffc050405956:	fe043783          	ld	a5,-32(s0)
ffffffc05040595a:	078e                	slli	a5,a5,0x3
ffffffc05040595c:	fc843703          	ld	a4,-56(s0)
ffffffc050405960:	97ba                	add	a5,a5,a4
ffffffc050405962:	639c                	ld	a5,0(a5)
ffffffc050405964:	853e                	mv	a0,a5
ffffffc050405966:	b8ffe0ef          	jal	ra,ffffffc0504044f4 <get_pa>
ffffffc05040596a:	87aa                	mv	a5,a0
ffffffc05040596c:	853e                	mv	a0,a5
ffffffc05040596e:	b6bfe0ef          	jal	ra,ffffffc0504044d8 <pa2kva>
ffffffc050405972:	87aa                	mv	a5,a0
ffffffc050405974:	fcf43023          	sd	a5,-64(s0)
ffffffc050405978:	fd843783          	ld	a5,-40(s0)
ffffffc05040597c:	078e                	slli	a5,a5,0x3
ffffffc05040597e:	fc043703          	ld	a4,-64(s0)
ffffffc050405982:	97ba                	add	a5,a5,a4
ffffffc050405984:	639c                	ld	a5,0(a5)
ffffffc050405986:	8b85                	andi	a5,a5,1
ffffffc050405988:	cbd5                	beqz	a5,ffffffc050405a3c <check_fork+0x192>
ffffffc05040598a:	fd843783          	ld	a5,-40(s0)
ffffffc05040598e:	078e                	slli	a5,a5,0x3
ffffffc050405990:	fc043703          	ld	a4,-64(s0)
ffffffc050405994:	97ba                	add	a5,a5,a4
ffffffc050405996:	639c                	ld	a5,0(a5)
ffffffc050405998:	853e                	mv	a0,a5
ffffffc05040599a:	b5bfe0ef          	jal	ra,ffffffc0504044f4 <get_pa>
ffffffc05040599e:	faa43c23          	sd	a0,-72(s0)
ffffffc0504059a2:	fb843703          	ld	a4,-72(s0)
ffffffc0504059a6:	ae0007b7          	lui	a5,0xae000
ffffffc0504059aa:	97ba                	add	a5,a5,a4
ffffffc0504059ac:	83b1                	srli	a5,a5,0xc
ffffffc0504059ae:	00062717          	auipc	a4,0x62
ffffffc0504059b2:	67a70713          	addi	a4,a4,1658 # ffffffc050468028 <fork_mem_shared>
ffffffc0504059b6:	078a                	slli	a5,a5,0x2
ffffffc0504059b8:	97ba                	add	a5,a5,a4
ffffffc0504059ba:	439c                	lw	a5,0(a5)
ffffffc0504059bc:	c3b5                	beqz	a5,ffffffc050405a20 <check_fork+0x176>
ffffffc0504059be:	fb843703          	ld	a4,-72(s0)
ffffffc0504059c2:	ae0007b7          	lui	a5,0xae000
ffffffc0504059c6:	97ba                	add	a5,a5,a4
ffffffc0504059c8:	83b1                	srli	a5,a5,0xc
ffffffc0504059ca:	00062697          	auipc	a3,0x62
ffffffc0504059ce:	65e68693          	addi	a3,a3,1630 # ffffffc050468028 <fork_mem_shared>
ffffffc0504059d2:	00279713          	slli	a4,a5,0x2
ffffffc0504059d6:	9736                	add	a4,a4,a3
ffffffc0504059d8:	4318                	lw	a4,0(a4)
ffffffc0504059da:	377d                	addiw	a4,a4,-1
ffffffc0504059dc:	2701                	sext.w	a4,a4
ffffffc0504059de:	00062697          	auipc	a3,0x62
ffffffc0504059e2:	64a68693          	addi	a3,a3,1610 # ffffffc050468028 <fork_mem_shared>
ffffffc0504059e6:	078a                	slli	a5,a5,0x2
ffffffc0504059e8:	97b6                	add	a5,a5,a3
ffffffc0504059ea:	c398                	sw	a4,0(a5)
ffffffc0504059ec:	4601                	li	a2,0
ffffffc0504059ee:	fa043583          	ld	a1,-96(s0)
ffffffc0504059f2:	fa843503          	ld	a0,-88(s0)
ffffffc0504059f6:	052000ef          	jal	ra,ffffffc050405a48 <alloc_page_helper>
ffffffc0504059fa:	faa43823          	sd	a0,-80(s0)
ffffffc0504059fe:	fb843503          	ld	a0,-72(s0)
ffffffc050405a02:	ad7fe0ef          	jal	ra,ffffffc0504044d8 <pa2kva>
ffffffc050405a06:	87aa                	mv	a5,a0
ffffffc050405a08:	6605                	lui	a2,0x1
ffffffc050405a0a:	85be                	mv	a1,a5
ffffffc050405a0c:	fb043503          	ld	a0,-80(s0)
ffffffc050405a10:	21e000ef          	jal	ra,ffffffc050405c2e <kmemcpy>
ffffffc050405a14:	fb043503          	ld	a0,-80(s0)
ffffffc050405a18:	aa5fe0ef          	jal	ra,ffffffc0504044bc <kva2pa>
ffffffc050405a1c:	87aa                	mv	a5,a0
ffffffc050405a1e:	a005                	j	ffffffc050405a3e <check_fork+0x194>
ffffffc050405a20:	fd843783          	ld	a5,-40(s0)
ffffffc050405a24:	078e                	slli	a5,a5,0x3
ffffffc050405a26:	fc043703          	ld	a4,-64(s0)
ffffffc050405a2a:	97ba                	add	a5,a5,a4
ffffffc050405a2c:	0df00593          	li	a1,223
ffffffc050405a30:	853e                	mv	a0,a5
ffffffc050405a32:	b17fe0ef          	jal	ra,ffffffc050404548 <set_attribute>
ffffffc050405a36:	fb843783          	ld	a5,-72(s0)
ffffffc050405a3a:	a011                	j	ffffffc050405a3e <check_fork+0x194>
ffffffc050405a3c:	4781                	li	a5,0
ffffffc050405a3e:	853e                	mv	a0,a5
ffffffc050405a40:	60e6                	ld	ra,88(sp)
ffffffc050405a42:	6446                	ld	s0,80(sp)
ffffffc050405a44:	6125                	addi	sp,sp,96
ffffffc050405a46:	8082                	ret

ffffffc050405a48 <alloc_page_helper>:
ffffffc050405a48:	715d                	addi	sp,sp,-80
ffffffc050405a4a:	e486                	sd	ra,72(sp)
ffffffc050405a4c:	e0a2                	sd	s0,64(sp)
ffffffc050405a4e:	0880                	addi	s0,sp,80
ffffffc050405a50:	fca43423          	sd	a0,-56(s0)
ffffffc050405a54:	fcb43023          	sd	a1,-64(s0)
ffffffc050405a58:	87b2                	mv	a5,a2
ffffffc050405a5a:	faf42e23          	sw	a5,-68(s0)
ffffffc050405a5e:	fbc42783          	lw	a5,-68(s0)
ffffffc050405a62:	2781                	sext.w	a5,a5
ffffffc050405a64:	c395                	beqz	a5,ffffffc050405a88 <alloc_page_helper+0x40>
ffffffc050405a66:	fc043583          	ld	a1,-64(s0)
ffffffc050405a6a:	fc843503          	ld	a0,-56(s0)
ffffffc050405a6e:	e3dff0ef          	jal	ra,ffffffc0504058aa <check_fork>
ffffffc050405a72:	fea43423          	sd	a0,-24(s0)
ffffffc050405a76:	fe843783          	ld	a5,-24(s0)
ffffffc050405a7a:	c799                	beqz	a5,ffffffc050405a88 <alloc_page_helper+0x40>
ffffffc050405a7c:	fe843503          	ld	a0,-24(s0)
ffffffc050405a80:	a59fe0ef          	jal	ra,ffffffc0504044d8 <pa2kva>
ffffffc050405a84:	87aa                	mv	a5,a0
ffffffc050405a86:	a8b1                	j	ffffffc050405ae2 <alloc_page_helper+0x9a>
ffffffc050405a88:	fbc42783          	lw	a5,-68(s0)
ffffffc050405a8c:	2781                	sext.w	a5,a5
ffffffc050405a8e:	c38d                	beqz	a5,ffffffc050405ab0 <alloc_page_helper+0x68>
ffffffc050405a90:	fc843503          	ld	a0,-56(s0)
ffffffc050405a94:	cffff0ef          	jal	ra,ffffffc050405792 <check_replaced>
ffffffc050405a98:	87aa                	mv	a5,a0
ffffffc050405a9a:	fef43023          	sd	a5,-32(s0)
ffffffc050405a9e:	fe043783          	ld	a5,-32(s0)
ffffffc050405aa2:	c799                	beqz	a5,ffffffc050405ab0 <alloc_page_helper+0x68>
ffffffc050405aa4:	fe043503          	ld	a0,-32(s0)
ffffffc050405aa8:	a31fe0ef          	jal	ra,ffffffc0504044d8 <pa2kva>
ffffffc050405aac:	87aa                	mv	a5,a0
ffffffc050405aae:	a815                	j	ffffffc050405ae2 <alloc_page_helper+0x9a>
ffffffc050405ab0:	fbc42783          	lw	a5,-68(s0)
ffffffc050405ab4:	85be                	mv	a1,a5
ffffffc050405ab6:	4505                	li	a0,1
ffffffc050405ab8:	d3dfe0ef          	jal	ra,ffffffc0504047f4 <allocPage>
ffffffc050405abc:	fca43c23          	sd	a0,-40(s0)
ffffffc050405ac0:	fc043503          	ld	a0,-64(s0)
ffffffc050405ac4:	a15fe0ef          	jal	ra,ffffffc0504044d8 <pa2kva>
ffffffc050405ac8:	87aa                	mv	a5,a0
ffffffc050405aca:	863e                	mv	a2,a5
ffffffc050405acc:	fd843583          	ld	a1,-40(s0)
ffffffc050405ad0:	fc843503          	ld	a0,-56(s0)
ffffffc050405ad4:	addff0ef          	jal	ra,ffffffc0504055b0 <map_page>
ffffffc050405ad8:	fd843503          	ld	a0,-40(s0)
ffffffc050405adc:	9fdfe0ef          	jal	ra,ffffffc0504044d8 <pa2kva>
ffffffc050405ae0:	87aa                	mv	a5,a0
ffffffc050405ae2:	853e                	mv	a0,a5
ffffffc050405ae4:	60a6                	ld	ra,72(sp)
ffffffc050405ae6:	6406                	ld	s0,64(sp)
ffffffc050405ae8:	6161                	addi	sp,sp,80
ffffffc050405aea:	8082                	ret

ffffffc050405aec <create_pt>:
ffffffc050405aec:	1101                	addi	sp,sp,-32
ffffffc050405aee:	ec06                	sd	ra,24(sp)
ffffffc050405af0:	e822                	sd	s0,16(sp)
ffffffc050405af2:	1000                	addi	s0,sp,32
ffffffc050405af4:	83818793          	addi	a5,gp,-1992 # ffffffc050464cb8 <ptCurr>
ffffffc050405af8:	6398                	ld	a4,0(a5)
ffffffc050405afa:	6785                	lui	a5,0x1
ffffffc050405afc:	17fd                	addi	a5,a5,-1
ffffffc050405afe:	973e                	add	a4,a4,a5
ffffffc050405b00:	77fd                	lui	a5,0xfffff
ffffffc050405b02:	8ff9                	and	a5,a5,a4
ffffffc050405b04:	fef43023          	sd	a5,-32(s0)
ffffffc050405b08:	fe042623          	sw	zero,-20(s0)
ffffffc050405b0c:	a08d                	j	ffffffc050405b6e <create_pt+0x82>
ffffffc050405b0e:	00063717          	auipc	a4,0x63
ffffffc050405b12:	a5a70713          	addi	a4,a4,-1446 # ffffffc050468568 <pt_mem_occupied>
ffffffc050405b16:	fec42783          	lw	a5,-20(s0)
ffffffc050405b1a:	078a                	slli	a5,a5,0x2
ffffffc050405b1c:	97ba                	add	a5,a5,a4
ffffffc050405b1e:	439c                	lw	a5,0(a5)
ffffffc050405b20:	e3b1                	bnez	a5,ffffffc050405b64 <create_pt+0x78>
ffffffc050405b22:	00063717          	auipc	a4,0x63
ffffffc050405b26:	a4670713          	addi	a4,a4,-1466 # ffffffc050468568 <pt_mem_occupied>
ffffffc050405b2a:	fec42783          	lw	a5,-20(s0)
ffffffc050405b2e:	078a                	slli	a5,a5,0x2
ffffffc050405b30:	97ba                	add	a5,a5,a4
ffffffc050405b32:	4705                	li	a4,1
ffffffc050405b34:	c398                	sw	a4,0(a5)
ffffffc050405b36:	fec42783          	lw	a5,-20(s0)
ffffffc050405b3a:	00c7979b          	slliw	a5,a5,0xc
ffffffc050405b3e:	2781                	sext.w	a5,a5
ffffffc050405b40:	873e                	mv	a4,a5
ffffffc050405b42:	83818793          	addi	a5,gp,-1992 # ffffffc050464cb8 <ptCurr>
ffffffc050405b46:	639c                	ld	a5,0(a5)
ffffffc050405b48:	97ba                	add	a5,a5,a4
ffffffc050405b4a:	fef43023          	sd	a5,-32(s0)
ffffffc050405b4e:	fe043503          	ld	a0,-32(s0)
ffffffc050405b52:	987fe0ef          	jal	ra,ffffffc0504044d8 <pa2kva>
ffffffc050405b56:	87aa                	mv	a5,a0
ffffffc050405b58:	853e                	mv	a0,a5
ffffffc050405b5a:	a27fe0ef          	jal	ra,ffffffc050404580 <clear_pgdir>
ffffffc050405b5e:	fe043783          	ld	a5,-32(s0)
ffffffc050405b62:	a831                	j	ffffffc050405b7e <create_pt+0x92>
ffffffc050405b64:	fec42783          	lw	a5,-20(s0)
ffffffc050405b68:	2785                	addiw	a5,a5,1
ffffffc050405b6a:	fef42623          	sw	a5,-20(s0)
ffffffc050405b6e:	fec42783          	lw	a5,-20(s0)
ffffffc050405b72:	0007871b          	sext.w	a4,a5
ffffffc050405b76:	0ff00793          	li	a5,255
ffffffc050405b7a:	f8e7dae3          	bge	a5,a4,ffffffc050405b0e <create_pt+0x22>
ffffffc050405b7e:	853e                	mv	a0,a5
ffffffc050405b80:	60e2                	ld	ra,24(sp)
ffffffc050405b82:	6442                	ld	s0,16(sp)
ffffffc050405b84:	6105                	addi	sp,sp,32
ffffffc050405b86:	8082                	ret

ffffffc050405b88 <handle_syscall>:
ffffffc050405b88:	7179                	addi	sp,sp,-48
ffffffc050405b8a:	f406                	sd	ra,40(sp)
ffffffc050405b8c:	f022                	sd	s0,32(sp)
ffffffc050405b8e:	1800                	addi	s0,sp,48
ffffffc050405b90:	fea43423          	sd	a0,-24(s0)
ffffffc050405b94:	feb43023          	sd	a1,-32(s0)
ffffffc050405b98:	fcc43c23          	sd	a2,-40(s0)
ffffffc050405b9c:	fe843783          	ld	a5,-24(s0)
ffffffc050405ba0:	1087b783          	ld	a5,264(a5) # fffffffffffff108 <__BSS_END__+0x3fafb95f60>
ffffffc050405ba4:	00478713          	addi	a4,a5,4
ffffffc050405ba8:	fe843783          	ld	a5,-24(s0)
ffffffc050405bac:	10e7b423          	sd	a4,264(a5)
ffffffc050405bb0:	fe843783          	ld	a5,-24(s0)
ffffffc050405bb4:	67dc                	ld	a5,136(a5)
ffffffc050405bb6:	00063717          	auipc	a4,0x63
ffffffc050405bba:	3f270713          	addi	a4,a4,1010 # ffffffc050468fa8 <syscall>
ffffffc050405bbe:	078e                	slli	a5,a5,0x3
ffffffc050405bc0:	97ba                	add	a5,a5,a4
ffffffc050405bc2:	0007b803          	ld	a6,0(a5)
ffffffc050405bc6:	fe843783          	ld	a5,-24(s0)
ffffffc050405bca:	6bb8                	ld	a4,80(a5)
ffffffc050405bcc:	fe843783          	ld	a5,-24(s0)
ffffffc050405bd0:	6fac                	ld	a1,88(a5)
ffffffc050405bd2:	fe843783          	ld	a5,-24(s0)
ffffffc050405bd6:	73b0                	ld	a2,96(a5)
ffffffc050405bd8:	fe843783          	ld	a5,-24(s0)
ffffffc050405bdc:	77bc                	ld	a5,104(a5)
ffffffc050405bde:	86be                	mv	a3,a5
ffffffc050405be0:	853a                	mv	a0,a4
ffffffc050405be2:	9802                	jalr	a6
ffffffc050405be4:	87aa                	mv	a5,a0
ffffffc050405be6:	873e                	mv	a4,a5
ffffffc050405be8:	fe843783          	ld	a5,-24(s0)
ffffffc050405bec:	ebb8                	sd	a4,80(a5)
ffffffc050405bee:	0001                	nop
ffffffc050405bf0:	70a2                	ld	ra,40(sp)
ffffffc050405bf2:	7402                	ld	s0,32(sp)
ffffffc050405bf4:	6145                	addi	sp,sp,48
ffffffc050405bf6:	8082                	ret

ffffffc050405bf8 <kstrlen>:
ffffffc050405bf8:	7179                	addi	sp,sp,-48
ffffffc050405bfa:	f422                	sd	s0,40(sp)
ffffffc050405bfc:	1800                	addi	s0,sp,48
ffffffc050405bfe:	fca43c23          	sd	a0,-40(s0)
ffffffc050405c02:	fe042623          	sw	zero,-20(s0)
ffffffc050405c06:	a031                	j	ffffffc050405c12 <kstrlen+0x1a>
ffffffc050405c08:	fec42783          	lw	a5,-20(s0)
ffffffc050405c0c:	2785                	addiw	a5,a5,1
ffffffc050405c0e:	fef42623          	sw	a5,-20(s0)
ffffffc050405c12:	fec42783          	lw	a5,-20(s0)
ffffffc050405c16:	fd843703          	ld	a4,-40(s0)
ffffffc050405c1a:	97ba                	add	a5,a5,a4
ffffffc050405c1c:	0007c783          	lbu	a5,0(a5)
ffffffc050405c20:	f7e5                	bnez	a5,ffffffc050405c08 <kstrlen+0x10>
ffffffc050405c22:	fec42783          	lw	a5,-20(s0)
ffffffc050405c26:	853e                	mv	a0,a5
ffffffc050405c28:	7422                	ld	s0,40(sp)
ffffffc050405c2a:	6145                	addi	sp,sp,48
ffffffc050405c2c:	8082                	ret

ffffffc050405c2e <kmemcpy>:
ffffffc050405c2e:	7179                	addi	sp,sp,-48
ffffffc050405c30:	f422                	sd	s0,40(sp)
ffffffc050405c32:	1800                	addi	s0,sp,48
ffffffc050405c34:	fea43423          	sd	a0,-24(s0)
ffffffc050405c38:	feb43023          	sd	a1,-32(s0)
ffffffc050405c3c:	87b2                	mv	a5,a2
ffffffc050405c3e:	fcf42e23          	sw	a5,-36(s0)
ffffffc050405c42:	a035                	j	ffffffc050405c6e <kmemcpy+0x40>
ffffffc050405c44:	fe043703          	ld	a4,-32(s0)
ffffffc050405c48:	00170793          	addi	a5,a4,1
ffffffc050405c4c:	fef43023          	sd	a5,-32(s0)
ffffffc050405c50:	fe843783          	ld	a5,-24(s0)
ffffffc050405c54:	00178693          	addi	a3,a5,1
ffffffc050405c58:	fed43423          	sd	a3,-24(s0)
ffffffc050405c5c:	00074703          	lbu	a4,0(a4)
ffffffc050405c60:	00e78023          	sb	a4,0(a5)
ffffffc050405c64:	fdc42783          	lw	a5,-36(s0)
ffffffc050405c68:	37fd                	addiw	a5,a5,-1
ffffffc050405c6a:	fcf42e23          	sw	a5,-36(s0)
ffffffc050405c6e:	fdc42783          	lw	a5,-36(s0)
ffffffc050405c72:	2781                	sext.w	a5,a5
ffffffc050405c74:	fbe1                	bnez	a5,ffffffc050405c44 <kmemcpy+0x16>
ffffffc050405c76:	0001                	nop
ffffffc050405c78:	0001                	nop
ffffffc050405c7a:	7422                	ld	s0,40(sp)
ffffffc050405c7c:	6145                	addi	sp,sp,48
ffffffc050405c7e:	8082                	ret

ffffffc050405c80 <memcpy>:
ffffffc050405c80:	7179                	addi	sp,sp,-48
ffffffc050405c82:	f422                	sd	s0,40(sp)
ffffffc050405c84:	1800                	addi	s0,sp,48
ffffffc050405c86:	fea43423          	sd	a0,-24(s0)
ffffffc050405c8a:	feb43023          	sd	a1,-32(s0)
ffffffc050405c8e:	87b2                	mv	a5,a2
ffffffc050405c90:	fcf42e23          	sw	a5,-36(s0)
ffffffc050405c94:	a035                	j	ffffffc050405cc0 <memcpy+0x40>
ffffffc050405c96:	fe043703          	ld	a4,-32(s0)
ffffffc050405c9a:	00170793          	addi	a5,a4,1
ffffffc050405c9e:	fef43023          	sd	a5,-32(s0)
ffffffc050405ca2:	fe843783          	ld	a5,-24(s0)
ffffffc050405ca6:	00178693          	addi	a3,a5,1
ffffffc050405caa:	fed43423          	sd	a3,-24(s0)
ffffffc050405cae:	00074703          	lbu	a4,0(a4)
ffffffc050405cb2:	00e78023          	sb	a4,0(a5)
ffffffc050405cb6:	fdc42783          	lw	a5,-36(s0)
ffffffc050405cba:	37fd                	addiw	a5,a5,-1
ffffffc050405cbc:	fcf42e23          	sw	a5,-36(s0)
ffffffc050405cc0:	fdc42783          	lw	a5,-36(s0)
ffffffc050405cc4:	2781                	sext.w	a5,a5
ffffffc050405cc6:	fbe1                	bnez	a5,ffffffc050405c96 <memcpy+0x16>
ffffffc050405cc8:	0001                	nop
ffffffc050405cca:	0001                	nop
ffffffc050405ccc:	7422                	ld	s0,40(sp)
ffffffc050405cce:	6145                	addi	sp,sp,48
ffffffc050405cd0:	8082                	ret

ffffffc050405cd2 <kmemset>:
ffffffc050405cd2:	7179                	addi	sp,sp,-48
ffffffc050405cd4:	f422                	sd	s0,40(sp)
ffffffc050405cd6:	1800                	addi	s0,sp,48
ffffffc050405cd8:	fca43c23          	sd	a0,-40(s0)
ffffffc050405cdc:	87ae                	mv	a5,a1
ffffffc050405cde:	8732                	mv	a4,a2
ffffffc050405ce0:	fcf40ba3          	sb	a5,-41(s0)
ffffffc050405ce4:	87ba                	mv	a5,a4
ffffffc050405ce6:	fcf42823          	sw	a5,-48(s0)
ffffffc050405cea:	fd843783          	ld	a5,-40(s0)
ffffffc050405cee:	fef43423          	sd	a5,-24(s0)
ffffffc050405cf2:	a005                	j	ffffffc050405d12 <kmemset+0x40>
ffffffc050405cf4:	fe843783          	ld	a5,-24(s0)
ffffffc050405cf8:	00178713          	addi	a4,a5,1
ffffffc050405cfc:	fee43423          	sd	a4,-24(s0)
ffffffc050405d00:	fd744703          	lbu	a4,-41(s0)
ffffffc050405d04:	00e78023          	sb	a4,0(a5)
ffffffc050405d08:	fd042783          	lw	a5,-48(s0)
ffffffc050405d0c:	37fd                	addiw	a5,a5,-1
ffffffc050405d0e:	fcf42823          	sw	a5,-48(s0)
ffffffc050405d12:	fd042783          	lw	a5,-48(s0)
ffffffc050405d16:	2781                	sext.w	a5,a5
ffffffc050405d18:	fff1                	bnez	a5,ffffffc050405cf4 <kmemset+0x22>
ffffffc050405d1a:	0001                	nop
ffffffc050405d1c:	0001                	nop
ffffffc050405d1e:	7422                	ld	s0,40(sp)
ffffffc050405d20:	6145                	addi	sp,sp,48
ffffffc050405d22:	8082                	ret

ffffffc050405d24 <kbzero>:
ffffffc050405d24:	1101                	addi	sp,sp,-32
ffffffc050405d26:	ec06                	sd	ra,24(sp)
ffffffc050405d28:	e822                	sd	s0,16(sp)
ffffffc050405d2a:	1000                	addi	s0,sp,32
ffffffc050405d2c:	fea43423          	sd	a0,-24(s0)
ffffffc050405d30:	87ae                	mv	a5,a1
ffffffc050405d32:	fef42223          	sw	a5,-28(s0)
ffffffc050405d36:	fe442783          	lw	a5,-28(s0)
ffffffc050405d3a:	863e                	mv	a2,a5
ffffffc050405d3c:	4581                	li	a1,0
ffffffc050405d3e:	fe843503          	ld	a0,-24(s0)
ffffffc050405d42:	f91ff0ef          	jal	ra,ffffffc050405cd2 <kmemset>
ffffffc050405d46:	0001                	nop
ffffffc050405d48:	60e2                	ld	ra,24(sp)
ffffffc050405d4a:	6442                	ld	s0,16(sp)
ffffffc050405d4c:	6105                	addi	sp,sp,32
ffffffc050405d4e:	8082                	ret

ffffffc050405d50 <kstrcmp>:
ffffffc050405d50:	1101                	addi	sp,sp,-32
ffffffc050405d52:	ec22                	sd	s0,24(sp)
ffffffc050405d54:	1000                	addi	s0,sp,32
ffffffc050405d56:	fea43423          	sd	a0,-24(s0)
ffffffc050405d5a:	feb43023          	sd	a1,-32(s0)
ffffffc050405d5e:	a0a1                	j	ffffffc050405da6 <kstrcmp+0x56>
ffffffc050405d60:	fe843783          	ld	a5,-24(s0)
ffffffc050405d64:	0007c703          	lbu	a4,0(a5)
ffffffc050405d68:	fe043783          	ld	a5,-32(s0)
ffffffc050405d6c:	0007c783          	lbu	a5,0(a5)
ffffffc050405d70:	02f70163          	beq	a4,a5,ffffffc050405d92 <kstrcmp+0x42>
ffffffc050405d74:	fe843783          	ld	a5,-24(s0)
ffffffc050405d78:	0007c783          	lbu	a5,0(a5)
ffffffc050405d7c:	0007871b          	sext.w	a4,a5
ffffffc050405d80:	fe043783          	ld	a5,-32(s0)
ffffffc050405d84:	0007c783          	lbu	a5,0(a5)
ffffffc050405d88:	2781                	sext.w	a5,a5
ffffffc050405d8a:	40f707bb          	subw	a5,a4,a5
ffffffc050405d8e:	2781                	sext.w	a5,a5
ffffffc050405d90:	a099                	j	ffffffc050405dd6 <kstrcmp+0x86>
ffffffc050405d92:	fe843783          	ld	a5,-24(s0)
ffffffc050405d96:	0785                	addi	a5,a5,1
ffffffc050405d98:	fef43423          	sd	a5,-24(s0)
ffffffc050405d9c:	fe043783          	ld	a5,-32(s0)
ffffffc050405da0:	0785                	addi	a5,a5,1
ffffffc050405da2:	fef43023          	sd	a5,-32(s0)
ffffffc050405da6:	fe843783          	ld	a5,-24(s0)
ffffffc050405daa:	0007c783          	lbu	a5,0(a5)
ffffffc050405dae:	c791                	beqz	a5,ffffffc050405dba <kstrcmp+0x6a>
ffffffc050405db0:	fe043783          	ld	a5,-32(s0)
ffffffc050405db4:	0007c783          	lbu	a5,0(a5)
ffffffc050405db8:	f7c5                	bnez	a5,ffffffc050405d60 <kstrcmp+0x10>
ffffffc050405dba:	fe843783          	ld	a5,-24(s0)
ffffffc050405dbe:	0007c783          	lbu	a5,0(a5)
ffffffc050405dc2:	0007871b          	sext.w	a4,a5
ffffffc050405dc6:	fe043783          	ld	a5,-32(s0)
ffffffc050405dca:	0007c783          	lbu	a5,0(a5)
ffffffc050405dce:	2781                	sext.w	a5,a5
ffffffc050405dd0:	40f707bb          	subw	a5,a4,a5
ffffffc050405dd4:	2781                	sext.w	a5,a5
ffffffc050405dd6:	853e                	mv	a0,a5
ffffffc050405dd8:	6462                	ld	s0,24(sp)
ffffffc050405dda:	6105                	addi	sp,sp,32
ffffffc050405ddc:	8082                	ret

ffffffc050405dde <strcmp>:
ffffffc050405dde:	1101                	addi	sp,sp,-32
ffffffc050405de0:	ec22                	sd	s0,24(sp)
ffffffc050405de2:	1000                	addi	s0,sp,32
ffffffc050405de4:	fea43423          	sd	a0,-24(s0)
ffffffc050405de8:	feb43023          	sd	a1,-32(s0)
ffffffc050405dec:	a0a1                	j	ffffffc050405e34 <strcmp+0x56>
ffffffc050405dee:	fe843783          	ld	a5,-24(s0)
ffffffc050405df2:	0007c703          	lbu	a4,0(a5)
ffffffc050405df6:	fe043783          	ld	a5,-32(s0)
ffffffc050405dfa:	0007c783          	lbu	a5,0(a5)
ffffffc050405dfe:	02f70163          	beq	a4,a5,ffffffc050405e20 <strcmp+0x42>
ffffffc050405e02:	fe843783          	ld	a5,-24(s0)
ffffffc050405e06:	0007c783          	lbu	a5,0(a5)
ffffffc050405e0a:	0007871b          	sext.w	a4,a5
ffffffc050405e0e:	fe043783          	ld	a5,-32(s0)
ffffffc050405e12:	0007c783          	lbu	a5,0(a5)
ffffffc050405e16:	2781                	sext.w	a5,a5
ffffffc050405e18:	40f707bb          	subw	a5,a4,a5
ffffffc050405e1c:	2781                	sext.w	a5,a5
ffffffc050405e1e:	a099                	j	ffffffc050405e64 <strcmp+0x86>
ffffffc050405e20:	fe843783          	ld	a5,-24(s0)
ffffffc050405e24:	0785                	addi	a5,a5,1
ffffffc050405e26:	fef43423          	sd	a5,-24(s0)
ffffffc050405e2a:	fe043783          	ld	a5,-32(s0)
ffffffc050405e2e:	0785                	addi	a5,a5,1
ffffffc050405e30:	fef43023          	sd	a5,-32(s0)
ffffffc050405e34:	fe843783          	ld	a5,-24(s0)
ffffffc050405e38:	0007c783          	lbu	a5,0(a5)
ffffffc050405e3c:	c791                	beqz	a5,ffffffc050405e48 <strcmp+0x6a>
ffffffc050405e3e:	fe043783          	ld	a5,-32(s0)
ffffffc050405e42:	0007c783          	lbu	a5,0(a5)
ffffffc050405e46:	f7c5                	bnez	a5,ffffffc050405dee <strcmp+0x10>
ffffffc050405e48:	fe843783          	ld	a5,-24(s0)
ffffffc050405e4c:	0007c783          	lbu	a5,0(a5)
ffffffc050405e50:	0007871b          	sext.w	a4,a5
ffffffc050405e54:	fe043783          	ld	a5,-32(s0)
ffffffc050405e58:	0007c783          	lbu	a5,0(a5)
ffffffc050405e5c:	2781                	sext.w	a5,a5
ffffffc050405e5e:	40f707bb          	subw	a5,a4,a5
ffffffc050405e62:	2781                	sext.w	a5,a5
ffffffc050405e64:	853e                	mv	a0,a5
ffffffc050405e66:	6462                	ld	s0,24(sp)
ffffffc050405e68:	6105                	addi	sp,sp,32
ffffffc050405e6a:	8082                	ret

ffffffc050405e6c <kstrcpy>:
ffffffc050405e6c:	7179                	addi	sp,sp,-48
ffffffc050405e6e:	f422                	sd	s0,40(sp)
ffffffc050405e70:	1800                	addi	s0,sp,48
ffffffc050405e72:	fca43c23          	sd	a0,-40(s0)
ffffffc050405e76:	fcb43823          	sd	a1,-48(s0)
ffffffc050405e7a:	fd843783          	ld	a5,-40(s0)
ffffffc050405e7e:	fef43423          	sd	a5,-24(s0)
ffffffc050405e82:	a00d                	j	ffffffc050405ea4 <kstrcpy+0x38>
ffffffc050405e84:	fd043703          	ld	a4,-48(s0)
ffffffc050405e88:	00170793          	addi	a5,a4,1
ffffffc050405e8c:	fcf43823          	sd	a5,-48(s0)
ffffffc050405e90:	fd843783          	ld	a5,-40(s0)
ffffffc050405e94:	00178693          	addi	a3,a5,1
ffffffc050405e98:	fcd43c23          	sd	a3,-40(s0)
ffffffc050405e9c:	00074703          	lbu	a4,0(a4)
ffffffc050405ea0:	00e78023          	sb	a4,0(a5)
ffffffc050405ea4:	fd043783          	ld	a5,-48(s0)
ffffffc050405ea8:	0007c783          	lbu	a5,0(a5)
ffffffc050405eac:	ffe1                	bnez	a5,ffffffc050405e84 <kstrcpy+0x18>
ffffffc050405eae:	fd843783          	ld	a5,-40(s0)
ffffffc050405eb2:	00078023          	sb	zero,0(a5)
ffffffc050405eb6:	fe843783          	ld	a5,-24(s0)
ffffffc050405eba:	853e                	mv	a0,a5
ffffffc050405ebc:	7422                	ld	s0,40(sp)
ffffffc050405ebe:	6145                	addi	sp,sp,48
ffffffc050405ec0:	8082                	ret

ffffffc050405ec2 <kstrcat>:
ffffffc050405ec2:	7179                	addi	sp,sp,-48
ffffffc050405ec4:	f422                	sd	s0,40(sp)
ffffffc050405ec6:	1800                	addi	s0,sp,48
ffffffc050405ec8:	fca43c23          	sd	a0,-40(s0)
ffffffc050405ecc:	fcb43823          	sd	a1,-48(s0)
ffffffc050405ed0:	fd843783          	ld	a5,-40(s0)
ffffffc050405ed4:	fef43423          	sd	a5,-24(s0)
ffffffc050405ed8:	a031                	j	ffffffc050405ee4 <kstrcat+0x22>
ffffffc050405eda:	fd843783          	ld	a5,-40(s0)
ffffffc050405ede:	0785                	addi	a5,a5,1
ffffffc050405ee0:	fcf43c23          	sd	a5,-40(s0)
ffffffc050405ee4:	fd843783          	ld	a5,-40(s0)
ffffffc050405ee8:	0007c783          	lbu	a5,0(a5)
ffffffc050405eec:	f7fd                	bnez	a5,ffffffc050405eda <kstrcat+0x18>
ffffffc050405eee:	a00d                	j	ffffffc050405f10 <kstrcat+0x4e>
ffffffc050405ef0:	fd043703          	ld	a4,-48(s0)
ffffffc050405ef4:	00170793          	addi	a5,a4,1
ffffffc050405ef8:	fcf43823          	sd	a5,-48(s0)
ffffffc050405efc:	fd843783          	ld	a5,-40(s0)
ffffffc050405f00:	00178693          	addi	a3,a5,1
ffffffc050405f04:	fcd43c23          	sd	a3,-40(s0)
ffffffc050405f08:	00074703          	lbu	a4,0(a4)
ffffffc050405f0c:	00e78023          	sb	a4,0(a5)
ffffffc050405f10:	fd043783          	ld	a5,-48(s0)
ffffffc050405f14:	0007c783          	lbu	a5,0(a5)
ffffffc050405f18:	ffe1                	bnez	a5,ffffffc050405ef0 <kstrcat+0x2e>
ffffffc050405f1a:	fd843783          	ld	a5,-40(s0)
ffffffc050405f1e:	00078023          	sb	zero,0(a5)
ffffffc050405f22:	fe843783          	ld	a5,-24(s0)
ffffffc050405f26:	853e                	mv	a0,a5
ffffffc050405f28:	7422                	ld	s0,40(sp)
ffffffc050405f2a:	6145                	addi	sp,sp,48
ffffffc050405f2c:	8082                	ret

ffffffc050405f2e <mini_strlen>:
ffffffc050405f2e:	7179                	addi	sp,sp,-48
ffffffc050405f30:	f422                	sd	s0,40(sp)
ffffffc050405f32:	1800                	addi	s0,sp,48
ffffffc050405f34:	fca43c23          	sd	a0,-40(s0)
ffffffc050405f38:	fe042623          	sw	zero,-20(s0)
ffffffc050405f3c:	a031                	j	ffffffc050405f48 <mini_strlen+0x1a>
ffffffc050405f3e:	fec42783          	lw	a5,-20(s0)
ffffffc050405f42:	2785                	addiw	a5,a5,1
ffffffc050405f44:	fef42623          	sw	a5,-20(s0)
ffffffc050405f48:	fec46783          	lwu	a5,-20(s0)
ffffffc050405f4c:	fd843703          	ld	a4,-40(s0)
ffffffc050405f50:	97ba                	add	a5,a5,a4
ffffffc050405f52:	0007c783          	lbu	a5,0(a5)
ffffffc050405f56:	f7e5                	bnez	a5,ffffffc050405f3e <mini_strlen+0x10>
ffffffc050405f58:	fec42783          	lw	a5,-20(s0)
ffffffc050405f5c:	853e                	mv	a0,a5
ffffffc050405f5e:	7422                	ld	s0,40(sp)
ffffffc050405f60:	6145                	addi	sp,sp,48
ffffffc050405f62:	8082                	ret

ffffffc050405f64 <mini_itoa>:
ffffffc050405f64:	715d                	addi	sp,sp,-80
ffffffc050405f66:	e4a2                	sd	s0,72(sp)
ffffffc050405f68:	0880                	addi	s0,sp,80
ffffffc050405f6a:	fca43423          	sd	a0,-56(s0)
ffffffc050405f6e:	fae43823          	sd	a4,-80(s0)
ffffffc050405f72:	873e                	mv	a4,a5
ffffffc050405f74:	87ae                	mv	a5,a1
ffffffc050405f76:	fcf42223          	sw	a5,-60(s0)
ffffffc050405f7a:	87b2                	mv	a5,a2
ffffffc050405f7c:	fcf42023          	sw	a5,-64(s0)
ffffffc050405f80:	87b6                	mv	a5,a3
ffffffc050405f82:	faf42e23          	sw	a5,-68(s0)
ffffffc050405f86:	87ba                	mv	a5,a4
ffffffc050405f88:	faf42c23          	sw	a5,-72(s0)
ffffffc050405f8c:	fb043783          	ld	a5,-80(s0)
ffffffc050405f90:	fef43423          	sd	a5,-24(s0)
ffffffc050405f94:	fe042223          	sw	zero,-28(s0)
ffffffc050405f98:	fc442783          	lw	a5,-60(s0)
ffffffc050405f9c:	0007871b          	sext.w	a4,a5
ffffffc050405fa0:	47c1                	li	a5,16
ffffffc050405fa2:	00e7f463          	bgeu	a5,a4,ffffffc050405faa <mini_itoa+0x46>
ffffffc050405fa6:	4781                	li	a5,0
ffffffc050405fa8:	aae9                	j	ffffffc050406182 <mini_itoa+0x21e>
ffffffc050405faa:	fc843783          	ld	a5,-56(s0)
ffffffc050405fae:	0007df63          	bgez	a5,ffffffc050405fcc <mini_itoa+0x68>
ffffffc050405fb2:	fbc42783          	lw	a5,-68(s0)
ffffffc050405fb6:	2781                	sext.w	a5,a5
ffffffc050405fb8:	eb91                	bnez	a5,ffffffc050405fcc <mini_itoa+0x68>
ffffffc050405fba:	4785                	li	a5,1
ffffffc050405fbc:	fef42223          	sw	a5,-28(s0)
ffffffc050405fc0:	fc843783          	ld	a5,-56(s0)
ffffffc050405fc4:	40f007b3          	neg	a5,a5
ffffffc050405fc8:	fcf43423          	sd	a5,-56(s0)
ffffffc050405fcc:	fc042e23          	sw	zero,-36(s0)
ffffffc050405fd0:	fbc42783          	lw	a5,-68(s0)
ffffffc050405fd4:	2781                	sext.w	a5,a5
ffffffc050405fd6:	cb91                	beqz	a5,ffffffc050405fea <mini_itoa+0x86>
ffffffc050405fd8:	fc843703          	ld	a4,-56(s0)
ffffffc050405fdc:	fc446783          	lwu	a5,-60(s0)
ffffffc050405fe0:	02f777b3          	remu	a5,a4,a5
ffffffc050405fe4:	fcf42e23          	sw	a5,-36(s0)
ffffffc050405fe8:	a809                	j	ffffffc050405ffa <mini_itoa+0x96>
ffffffc050405fea:	fc446783          	lwu	a5,-60(s0)
ffffffc050405fee:	fc843703          	ld	a4,-56(s0)
ffffffc050405ff2:	02f767b3          	rem	a5,a4,a5
ffffffc050405ff6:	fcf42e23          	sw	a5,-36(s0)
ffffffc050405ffa:	fdc42783          	lw	a5,-36(s0)
ffffffc050405ffe:	0007871b          	sext.w	a4,a5
ffffffc050406002:	47a5                	li	a5,9
ffffffc050406004:	00e7cb63          	blt	a5,a4,ffffffc05040601a <mini_itoa+0xb6>
ffffffc050406008:	fdc42783          	lw	a5,-36(s0)
ffffffc05040600c:	0ff7f793          	andi	a5,a5,255
ffffffc050406010:	0307879b          	addiw	a5,a5,48
ffffffc050406014:	0ff7f713          	andi	a4,a5,255
ffffffc050406018:	a025                	j	ffffffc050406040 <mini_itoa+0xdc>
ffffffc05040601a:	fc042783          	lw	a5,-64(s0)
ffffffc05040601e:	2781                	sext.w	a5,a5
ffffffc050406020:	c781                	beqz	a5,ffffffc050406028 <mini_itoa+0xc4>
ffffffc050406022:	04100793          	li	a5,65
ffffffc050406026:	a019                	j	ffffffc05040602c <mini_itoa+0xc8>
ffffffc050406028:	06100793          	li	a5,97
ffffffc05040602c:	fdc42703          	lw	a4,-36(s0)
ffffffc050406030:	0ff77713          	andi	a4,a4,255
ffffffc050406034:	9fb9                	addw	a5,a5,a4
ffffffc050406036:	0ff7f793          	andi	a5,a5,255
ffffffc05040603a:	37d9                	addiw	a5,a5,-10
ffffffc05040603c:	0ff7f713          	andi	a4,a5,255
ffffffc050406040:	fe843783          	ld	a5,-24(s0)
ffffffc050406044:	00178693          	addi	a3,a5,1
ffffffc050406048:	fed43423          	sd	a3,-24(s0)
ffffffc05040604c:	00e78023          	sb	a4,0(a5)
ffffffc050406050:	fbc42783          	lw	a5,-68(s0)
ffffffc050406054:	2781                	sext.w	a5,a5
ffffffc050406056:	cb91                	beqz	a5,ffffffc05040606a <mini_itoa+0x106>
ffffffc050406058:	fc843703          	ld	a4,-56(s0)
ffffffc05040605c:	fc446783          	lwu	a5,-60(s0)
ffffffc050406060:	02f757b3          	divu	a5,a4,a5
ffffffc050406064:	fcf43423          	sd	a5,-56(s0)
ffffffc050406068:	a809                	j	ffffffc05040607a <mini_itoa+0x116>
ffffffc05040606a:	fc446783          	lwu	a5,-60(s0)
ffffffc05040606e:	fc843703          	ld	a4,-56(s0)
ffffffc050406072:	02f747b3          	div	a5,a4,a5
ffffffc050406076:	fcf43423          	sd	a5,-56(s0)
ffffffc05040607a:	fc843783          	ld	a5,-56(s0)
ffffffc05040607e:	f7b9                	bnez	a5,ffffffc050405fcc <mini_itoa+0x68>
ffffffc050406080:	fe843703          	ld	a4,-24(s0)
ffffffc050406084:	fb043783          	ld	a5,-80(s0)
ffffffc050406088:	40f707b3          	sub	a5,a4,a5
ffffffc05040608c:	fef42023          	sw	a5,-32(s0)
ffffffc050406090:	a005                	j	ffffffc0504060b0 <mini_itoa+0x14c>
ffffffc050406092:	fe843783          	ld	a5,-24(s0)
ffffffc050406096:	00178713          	addi	a4,a5,1
ffffffc05040609a:	fee43423          	sd	a4,-24(s0)
ffffffc05040609e:	03000713          	li	a4,48
ffffffc0504060a2:	00e78023          	sb	a4,0(a5)
ffffffc0504060a6:	fe042783          	lw	a5,-32(s0)
ffffffc0504060aa:	2785                	addiw	a5,a5,1
ffffffc0504060ac:	fef42023          	sw	a5,-32(s0)
ffffffc0504060b0:	fe042703          	lw	a4,-32(s0)
ffffffc0504060b4:	fb842783          	lw	a5,-72(s0)
ffffffc0504060b8:	2701                	sext.w	a4,a4
ffffffc0504060ba:	2781                	sext.w	a5,a5
ffffffc0504060bc:	fcf76be3          	bltu	a4,a5,ffffffc050406092 <mini_itoa+0x12e>
ffffffc0504060c0:	fe442783          	lw	a5,-28(s0)
ffffffc0504060c4:	2781                	sext.w	a5,a5
ffffffc0504060c6:	cb99                	beqz	a5,ffffffc0504060dc <mini_itoa+0x178>
ffffffc0504060c8:	fe843783          	ld	a5,-24(s0)
ffffffc0504060cc:	00178713          	addi	a4,a5,1
ffffffc0504060d0:	fee43423          	sd	a4,-24(s0)
ffffffc0504060d4:	02d00713          	li	a4,45
ffffffc0504060d8:	00e78023          	sb	a4,0(a5)
ffffffc0504060dc:	fe843783          	ld	a5,-24(s0)
ffffffc0504060e0:	00078023          	sb	zero,0(a5)
ffffffc0504060e4:	fe843703          	ld	a4,-24(s0)
ffffffc0504060e8:	fb043783          	ld	a5,-80(s0)
ffffffc0504060ec:	40f707b3          	sub	a5,a4,a5
ffffffc0504060f0:	fcf42c23          	sw	a5,-40(s0)
ffffffc0504060f4:	fe042023          	sw	zero,-32(s0)
ffffffc0504060f8:	a885                	j	ffffffc050406168 <mini_itoa+0x204>
ffffffc0504060fa:	fe046783          	lwu	a5,-32(s0)
ffffffc0504060fe:	fb043703          	ld	a4,-80(s0)
ffffffc050406102:	97ba                	add	a5,a5,a4
ffffffc050406104:	0007c783          	lbu	a5,0(a5)
ffffffc050406108:	fcf40ba3          	sb	a5,-41(s0)
ffffffc05040610c:	fd842703          	lw	a4,-40(s0)
ffffffc050406110:	fe042783          	lw	a5,-32(s0)
ffffffc050406114:	40f707bb          	subw	a5,a4,a5
ffffffc050406118:	2781                	sext.w	a5,a5
ffffffc05040611a:	37fd                	addiw	a5,a5,-1
ffffffc05040611c:	2781                	sext.w	a5,a5
ffffffc05040611e:	1782                	slli	a5,a5,0x20
ffffffc050406120:	9381                	srli	a5,a5,0x20
ffffffc050406122:	fb043703          	ld	a4,-80(s0)
ffffffc050406126:	973e                	add	a4,a4,a5
ffffffc050406128:	fe046783          	lwu	a5,-32(s0)
ffffffc05040612c:	fb043683          	ld	a3,-80(s0)
ffffffc050406130:	97b6                	add	a5,a5,a3
ffffffc050406132:	00074703          	lbu	a4,0(a4)
ffffffc050406136:	00e78023          	sb	a4,0(a5)
ffffffc05040613a:	fd842703          	lw	a4,-40(s0)
ffffffc05040613e:	fe042783          	lw	a5,-32(s0)
ffffffc050406142:	40f707bb          	subw	a5,a4,a5
ffffffc050406146:	2781                	sext.w	a5,a5
ffffffc050406148:	37fd                	addiw	a5,a5,-1
ffffffc05040614a:	2781                	sext.w	a5,a5
ffffffc05040614c:	1782                	slli	a5,a5,0x20
ffffffc05040614e:	9381                	srli	a5,a5,0x20
ffffffc050406150:	fb043703          	ld	a4,-80(s0)
ffffffc050406154:	97ba                	add	a5,a5,a4
ffffffc050406156:	fd744703          	lbu	a4,-41(s0)
ffffffc05040615a:	00e78023          	sb	a4,0(a5)
ffffffc05040615e:	fe042783          	lw	a5,-32(s0)
ffffffc050406162:	2785                	addiw	a5,a5,1
ffffffc050406164:	fef42023          	sw	a5,-32(s0)
ffffffc050406168:	fd842783          	lw	a5,-40(s0)
ffffffc05040616c:	0017d79b          	srliw	a5,a5,0x1
ffffffc050406170:	0007871b          	sext.w	a4,a5
ffffffc050406174:	fe042783          	lw	a5,-32(s0)
ffffffc050406178:	2781                	sext.w	a5,a5
ffffffc05040617a:	f8e7e0e3          	bltu	a5,a4,ffffffc0504060fa <mini_itoa+0x196>
ffffffc05040617e:	fd842783          	lw	a5,-40(s0)
ffffffc050406182:	853e                	mv	a0,a5
ffffffc050406184:	6426                	ld	s0,72(sp)
ffffffc050406186:	6161                	addi	sp,sp,80
ffffffc050406188:	8082                	ret

ffffffc05040618a <_putc>:
ffffffc05040618a:	1101                	addi	sp,sp,-32
ffffffc05040618c:	ec22                	sd	s0,24(sp)
ffffffc05040618e:	1000                	addi	s0,sp,32
ffffffc050406190:	87aa                	mv	a5,a0
ffffffc050406192:	feb43023          	sd	a1,-32(s0)
ffffffc050406196:	fef42623          	sw	a5,-20(s0)
ffffffc05040619a:	fe043783          	ld	a5,-32(s0)
ffffffc05040619e:	6798                	ld	a4,8(a5)
ffffffc0504061a0:	fe043783          	ld	a5,-32(s0)
ffffffc0504061a4:	639c                	ld	a5,0(a5)
ffffffc0504061a6:	40f707b3          	sub	a5,a4,a5
ffffffc0504061aa:	2781                	sext.w	a5,a5
ffffffc0504061ac:	2785                	addiw	a5,a5,1
ffffffc0504061ae:	0007871b          	sext.w	a4,a5
ffffffc0504061b2:	fe043783          	ld	a5,-32(s0)
ffffffc0504061b6:	4b9c                	lw	a5,16(a5)
ffffffc0504061b8:	00f76463          	bltu	a4,a5,ffffffc0504061c0 <_putc+0x36>
ffffffc0504061bc:	4781                	li	a5,0
ffffffc0504061be:	a02d                	j	ffffffc0504061e8 <_putc+0x5e>
ffffffc0504061c0:	fe043783          	ld	a5,-32(s0)
ffffffc0504061c4:	679c                	ld	a5,8(a5)
ffffffc0504061c6:	00178693          	addi	a3,a5,1
ffffffc0504061ca:	fe043703          	ld	a4,-32(s0)
ffffffc0504061ce:	e714                	sd	a3,8(a4)
ffffffc0504061d0:	fec42703          	lw	a4,-20(s0)
ffffffc0504061d4:	0ff77713          	andi	a4,a4,255
ffffffc0504061d8:	00e78023          	sb	a4,0(a5)
ffffffc0504061dc:	fe043783          	ld	a5,-32(s0)
ffffffc0504061e0:	679c                	ld	a5,8(a5)
ffffffc0504061e2:	00078023          	sb	zero,0(a5)
ffffffc0504061e6:	4785                	li	a5,1
ffffffc0504061e8:	853e                	mv	a0,a5
ffffffc0504061ea:	6462                	ld	s0,24(sp)
ffffffc0504061ec:	6105                	addi	sp,sp,32
ffffffc0504061ee:	8082                	ret

ffffffc0504061f0 <_puts>:
ffffffc0504061f0:	7139                	addi	sp,sp,-64
ffffffc0504061f2:	fc22                	sd	s0,56(sp)
ffffffc0504061f4:	0080                	addi	s0,sp,64
ffffffc0504061f6:	fca43c23          	sd	a0,-40(s0)
ffffffc0504061fa:	87ae                	mv	a5,a1
ffffffc0504061fc:	fcc43423          	sd	a2,-56(s0)
ffffffc050406200:	fcf42a23          	sw	a5,-44(s0)
ffffffc050406204:	fc843783          	ld	a5,-56(s0)
ffffffc050406208:	4b9c                	lw	a5,16(a5)
ffffffc05040620a:	02079713          	slli	a4,a5,0x20
ffffffc05040620e:	9301                	srli	a4,a4,0x20
ffffffc050406210:	fc843783          	ld	a5,-56(s0)
ffffffc050406214:	6794                	ld	a3,8(a5)
ffffffc050406216:	fc843783          	ld	a5,-56(s0)
ffffffc05040621a:	639c                	ld	a5,0(a5)
ffffffc05040621c:	40f687b3          	sub	a5,a3,a5
ffffffc050406220:	8f1d                	sub	a4,a4,a5
ffffffc050406222:	fd446783          	lwu	a5,-44(s0)
ffffffc050406226:	02e7c463          	blt	a5,a4,ffffffc05040624e <_puts+0x5e>
ffffffc05040622a:	fc843783          	ld	a5,-56(s0)
ffffffc05040622e:	4b98                	lw	a4,16(a5)
ffffffc050406230:	fc843783          	ld	a5,-56(s0)
ffffffc050406234:	6794                	ld	a3,8(a5)
ffffffc050406236:	fc843783          	ld	a5,-56(s0)
ffffffc05040623a:	639c                	ld	a5,0(a5)
ffffffc05040623c:	40f687b3          	sub	a5,a3,a5
ffffffc050406240:	2781                	sext.w	a5,a5
ffffffc050406242:	40f707bb          	subw	a5,a4,a5
ffffffc050406246:	2781                	sext.w	a5,a5
ffffffc050406248:	37fd                	addiw	a5,a5,-1
ffffffc05040624a:	fcf42a23          	sw	a5,-44(s0)
ffffffc05040624e:	fe042623          	sw	zero,-20(s0)
ffffffc050406252:	a03d                	j	ffffffc050406280 <_puts+0x90>
ffffffc050406254:	fec46783          	lwu	a5,-20(s0)
ffffffc050406258:	fd843703          	ld	a4,-40(s0)
ffffffc05040625c:	973e                	add	a4,a4,a5
ffffffc05040625e:	fc843783          	ld	a5,-56(s0)
ffffffc050406262:	679c                	ld	a5,8(a5)
ffffffc050406264:	00178613          	addi	a2,a5,1
ffffffc050406268:	fc843683          	ld	a3,-56(s0)
ffffffc05040626c:	e690                	sd	a2,8(a3)
ffffffc05040626e:	00074703          	lbu	a4,0(a4)
ffffffc050406272:	00e78023          	sb	a4,0(a5)
ffffffc050406276:	fec42783          	lw	a5,-20(s0)
ffffffc05040627a:	2785                	addiw	a5,a5,1
ffffffc05040627c:	fef42623          	sw	a5,-20(s0)
ffffffc050406280:	fec42703          	lw	a4,-20(s0)
ffffffc050406284:	fd442783          	lw	a5,-44(s0)
ffffffc050406288:	2701                	sext.w	a4,a4
ffffffc05040628a:	2781                	sext.w	a5,a5
ffffffc05040628c:	fcf764e3          	bltu	a4,a5,ffffffc050406254 <_puts+0x64>
ffffffc050406290:	fc843783          	ld	a5,-56(s0)
ffffffc050406294:	679c                	ld	a5,8(a5)
ffffffc050406296:	00078023          	sb	zero,0(a5)
ffffffc05040629a:	fd442783          	lw	a5,-44(s0)
ffffffc05040629e:	853e                	mv	a0,a5
ffffffc0504062a0:	7462                	ld	s0,56(sp)
ffffffc0504062a2:	6121                	addi	sp,sp,64
ffffffc0504062a4:	8082                	ret

ffffffc0504062a6 <mini_vsnprintf>:
ffffffc0504062a6:	7119                	addi	sp,sp,-128
ffffffc0504062a8:	fc86                	sd	ra,120(sp)
ffffffc0504062aa:	f8a2                	sd	s0,112(sp)
ffffffc0504062ac:	0100                	addi	s0,sp,128
ffffffc0504062ae:	f8a43c23          	sd	a0,-104(s0)
ffffffc0504062b2:	87ae                	mv	a5,a1
ffffffc0504062b4:	f8c43423          	sd	a2,-120(s0)
ffffffc0504062b8:	f8d43023          	sd	a3,-128(s0)
ffffffc0504062bc:	f8f42a23          	sw	a5,-108(s0)
ffffffc0504062c0:	f9843783          	ld	a5,-104(s0)
ffffffc0504062c4:	fcf43023          	sd	a5,-64(s0)
ffffffc0504062c8:	f9843783          	ld	a5,-104(s0)
ffffffc0504062cc:	fcf43423          	sd	a5,-56(s0)
ffffffc0504062d0:	f9442783          	lw	a5,-108(s0)
ffffffc0504062d4:	fcf42823          	sw	a5,-48(s0)
ffffffc0504062d8:	a4f9                	j	ffffffc0504065a6 <mini_vsnprintf+0x300>
ffffffc0504062da:	fc843703          	ld	a4,-56(s0)
ffffffc0504062de:	fc043783          	ld	a5,-64(s0)
ffffffc0504062e2:	40f707b3          	sub	a5,a4,a5
ffffffc0504062e6:	2781                	sext.w	a5,a5
ffffffc0504062e8:	2785                	addiw	a5,a5,1
ffffffc0504062ea:	0007871b          	sext.w	a4,a5
ffffffc0504062ee:	fd042783          	lw	a5,-48(s0)
ffffffc0504062f2:	2cf77b63          	bgeu	a4,a5,ffffffc0504065c8 <mini_vsnprintf+0x322>
ffffffc0504062f6:	fef44783          	lbu	a5,-17(s0)
ffffffc0504062fa:	0ff7f713          	andi	a4,a5,255
ffffffc0504062fe:	02500793          	li	a5,37
ffffffc050406302:	00f70c63          	beq	a4,a5,ffffffc05040631a <mini_vsnprintf+0x74>
ffffffc050406306:	fef44783          	lbu	a5,-17(s0)
ffffffc05040630a:	2781                	sext.w	a5,a5
ffffffc05040630c:	fc040713          	addi	a4,s0,-64
ffffffc050406310:	85ba                	mv	a1,a4
ffffffc050406312:	853e                	mv	a0,a5
ffffffc050406314:	e77ff0ef          	jal	ra,ffffffc05040618a <_putc>
ffffffc050406318:	a479                	j	ffffffc0504065a6 <mini_vsnprintf+0x300>
ffffffc05040631a:	fe040723          	sb	zero,-18(s0)
ffffffc05040631e:	fe042423          	sw	zero,-24(s0)
ffffffc050406322:	f8843783          	ld	a5,-120(s0)
ffffffc050406326:	00178713          	addi	a4,a5,1
ffffffc05040632a:	f8e43423          	sd	a4,-120(s0)
ffffffc05040632e:	0007c783          	lbu	a5,0(a5)
ffffffc050406332:	fef407a3          	sb	a5,-17(s0)
ffffffc050406336:	fef44783          	lbu	a5,-17(s0)
ffffffc05040633a:	0ff7f713          	andi	a4,a5,255
ffffffc05040633e:	03000793          	li	a5,48
ffffffc050406342:	06f71b63          	bne	a4,a5,ffffffc0504063b8 <mini_vsnprintf+0x112>
ffffffc050406346:	a891                	j	ffffffc05040639a <mini_vsnprintf+0xf4>
ffffffc050406348:	fef44783          	lbu	a5,-17(s0)
ffffffc05040634c:	0ff7f793          	andi	a5,a5,255
ffffffc050406350:	26078e63          	beqz	a5,ffffffc0504065cc <mini_vsnprintf+0x326>
ffffffc050406354:	fef44783          	lbu	a5,-17(s0)
ffffffc050406358:	0ff7f713          	andi	a4,a5,255
ffffffc05040635c:	02f00793          	li	a5,47
ffffffc050406360:	04e7fc63          	bgeu	a5,a4,ffffffc0504063b8 <mini_vsnprintf+0x112>
ffffffc050406364:	fef44783          	lbu	a5,-17(s0)
ffffffc050406368:	0ff7f713          	andi	a4,a5,255
ffffffc05040636c:	03900793          	li	a5,57
ffffffc050406370:	04e7e463          	bltu	a5,a4,ffffffc0504063b8 <mini_vsnprintf+0x112>
ffffffc050406374:	fee44703          	lbu	a4,-18(s0)
ffffffc050406378:	87ba                	mv	a5,a4
ffffffc05040637a:	0027979b          	slliw	a5,a5,0x2
ffffffc05040637e:	9fb9                	addw	a5,a5,a4
ffffffc050406380:	0017979b          	slliw	a5,a5,0x1
ffffffc050406384:	0ff7f793          	andi	a5,a5,255
ffffffc050406388:	fef44703          	lbu	a4,-17(s0)
ffffffc05040638c:	9fb9                	addw	a5,a5,a4
ffffffc05040638e:	0ff7f793          	andi	a5,a5,255
ffffffc050406392:	fd07879b          	addiw	a5,a5,-48
ffffffc050406396:	fef40723          	sb	a5,-18(s0)
ffffffc05040639a:	f8843783          	ld	a5,-120(s0)
ffffffc05040639e:	00178713          	addi	a4,a5,1
ffffffc0504063a2:	f8e43423          	sd	a4,-120(s0)
ffffffc0504063a6:	0007c783          	lbu	a5,0(a5)
ffffffc0504063aa:	fef407a3          	sb	a5,-17(s0)
ffffffc0504063ae:	fef44783          	lbu	a5,-17(s0)
ffffffc0504063b2:	0ff7f793          	andi	a5,a5,255
ffffffc0504063b6:	fbc9                	bnez	a5,ffffffc050406348 <mini_vsnprintf+0xa2>
ffffffc0504063b8:	fef44783          	lbu	a5,-17(s0)
ffffffc0504063bc:	0ff7f713          	andi	a4,a5,255
ffffffc0504063c0:	06c00793          	li	a5,108
ffffffc0504063c4:	00f71f63          	bne	a4,a5,ffffffc0504063e2 <mini_vsnprintf+0x13c>
ffffffc0504063c8:	4785                	li	a5,1
ffffffc0504063ca:	fef42423          	sw	a5,-24(s0)
ffffffc0504063ce:	f8843783          	ld	a5,-120(s0)
ffffffc0504063d2:	00178713          	addi	a4,a5,1
ffffffc0504063d6:	f8e43423          	sd	a4,-120(s0)
ffffffc0504063da:	0007c783          	lbu	a5,0(a5)
ffffffc0504063de:	fef407a3          	sb	a5,-17(s0)
ffffffc0504063e2:	fef44783          	lbu	a5,-17(s0)
ffffffc0504063e6:	2781                	sext.w	a5,a5
ffffffc0504063e8:	1e078463          	beqz	a5,ffffffc0504065d0 <mini_vsnprintf+0x32a>
ffffffc0504063ec:	873e                	mv	a4,a5
ffffffc0504063ee:	1a074263          	bltz	a4,ffffffc050406592 <mini_vsnprintf+0x2ec>
ffffffc0504063f2:	86be                	mv	a3,a5
ffffffc0504063f4:	07800713          	li	a4,120
ffffffc0504063f8:	18d74d63          	blt	a4,a3,ffffffc050406592 <mini_vsnprintf+0x2ec>
ffffffc0504063fc:	86be                	mv	a3,a5
ffffffc0504063fe:	05800713          	li	a4,88
ffffffc050406402:	18e6c863          	blt	a3,a4,ffffffc050406592 <mini_vsnprintf+0x2ec>
ffffffc050406406:	fa87869b          	addiw	a3,a5,-88
ffffffc05040640a:	0006871b          	sext.w	a4,a3
ffffffc05040640e:	02000793          	li	a5,32
ffffffc050406412:	18e7e063          	bltu	a5,a4,ffffffc050406592 <mini_vsnprintf+0x2ec>
ffffffc050406416:	02069793          	slli	a5,a3,0x20
ffffffc05040641a:	9381                	srli	a5,a5,0x20
ffffffc05040641c:	00279713          	slli	a4,a5,0x2
ffffffc050406420:	00000797          	auipc	a5,0x0
ffffffc050406424:	72078793          	addi	a5,a5,1824 # ffffffc050406b40 <__FUNCTION__.1540+0x10>
ffffffc050406428:	97ba                	add	a5,a5,a4
ffffffc05040642a:	439c                	lw	a5,0(a5)
ffffffc05040642c:	0007871b          	sext.w	a4,a5
ffffffc050406430:	00000797          	auipc	a5,0x0
ffffffc050406434:	71078793          	addi	a5,a5,1808 # ffffffc050406b40 <__FUNCTION__.1540+0x10>
ffffffc050406438:	97ba                	add	a5,a5,a4
ffffffc05040643a:	8782                	jr	a5
ffffffc05040643c:	4785                	li	a5,1
ffffffc05040643e:	fef42423          	sw	a5,-24(s0)
ffffffc050406442:	a295                	j	ffffffc0504065a6 <mini_vsnprintf+0x300>
ffffffc050406444:	fe842783          	lw	a5,-24(s0)
ffffffc050406448:	2781                	sext.w	a5,a5
ffffffc05040644a:	ef81                	bnez	a5,ffffffc050406462 <mini_vsnprintf+0x1bc>
ffffffc05040644c:	f8043783          	ld	a5,-128(s0)
ffffffc050406450:	00878713          	addi	a4,a5,8
ffffffc050406454:	f8e43023          	sd	a4,-128(s0)
ffffffc050406458:	439c                	lw	a5,0(a5)
ffffffc05040645a:	02079513          	slli	a0,a5,0x20
ffffffc05040645e:	9101                	srli	a0,a0,0x20
ffffffc050406460:	a809                	j	ffffffc050406472 <mini_vsnprintf+0x1cc>
ffffffc050406462:	f8043783          	ld	a5,-128(s0)
ffffffc050406466:	00878713          	addi	a4,a5,8
ffffffc05040646a:	f8e43023          	sd	a4,-128(s0)
ffffffc05040646e:	639c                	ld	a5,0(a5)
ffffffc050406470:	853e                	mv	a0,a5
ffffffc050406472:	fef44783          	lbu	a5,-17(s0)
ffffffc050406476:	0007871b          	sext.w	a4,a5
ffffffc05040647a:	07500793          	li	a5,117
ffffffc05040647e:	40f707b3          	sub	a5,a4,a5
ffffffc050406482:	0017b793          	seqz	a5,a5
ffffffc050406486:	0ff7f793          	andi	a5,a5,255
ffffffc05040648a:	0007869b          	sext.w	a3,a5
ffffffc05040648e:	fee44783          	lbu	a5,-18(s0)
ffffffc050406492:	2781                	sext.w	a5,a5
ffffffc050406494:	fa840713          	addi	a4,s0,-88
ffffffc050406498:	4601                	li	a2,0
ffffffc05040649a:	45a9                	li	a1,10
ffffffc05040649c:	ac9ff0ef          	jal	ra,ffffffc050405f64 <mini_itoa>
ffffffc0504064a0:	87aa                	mv	a5,a0
ffffffc0504064a2:	fcf42e23          	sw	a5,-36(s0)
ffffffc0504064a6:	fc040693          	addi	a3,s0,-64
ffffffc0504064aa:	fdc42703          	lw	a4,-36(s0)
ffffffc0504064ae:	fa840793          	addi	a5,s0,-88
ffffffc0504064b2:	8636                	mv	a2,a3
ffffffc0504064b4:	85ba                	mv	a1,a4
ffffffc0504064b6:	853e                	mv	a0,a5
ffffffc0504064b8:	d39ff0ef          	jal	ra,ffffffc0504061f0 <_puts>
ffffffc0504064bc:	fe042423          	sw	zero,-24(s0)
ffffffc0504064c0:	a0dd                	j	ffffffc0504065a6 <mini_vsnprintf+0x300>
ffffffc0504064c2:	fe842783          	lw	a5,-24(s0)
ffffffc0504064c6:	2781                	sext.w	a5,a5
ffffffc0504064c8:	ef81                	bnez	a5,ffffffc0504064e0 <mini_vsnprintf+0x23a>
ffffffc0504064ca:	f8043783          	ld	a5,-128(s0)
ffffffc0504064ce:	00878713          	addi	a4,a5,8
ffffffc0504064d2:	f8e43023          	sd	a4,-128(s0)
ffffffc0504064d6:	439c                	lw	a5,0(a5)
ffffffc0504064d8:	02079513          	slli	a0,a5,0x20
ffffffc0504064dc:	9101                	srli	a0,a0,0x20
ffffffc0504064de:	a809                	j	ffffffc0504064f0 <mini_vsnprintf+0x24a>
ffffffc0504064e0:	f8043783          	ld	a5,-128(s0)
ffffffc0504064e4:	00878713          	addi	a4,a5,8
ffffffc0504064e8:	f8e43023          	sd	a4,-128(s0)
ffffffc0504064ec:	639c                	ld	a5,0(a5)
ffffffc0504064ee:	853e                	mv	a0,a5
ffffffc0504064f0:	fef44783          	lbu	a5,-17(s0)
ffffffc0504064f4:	0007871b          	sext.w	a4,a5
ffffffc0504064f8:	05800793          	li	a5,88
ffffffc0504064fc:	40f707b3          	sub	a5,a4,a5
ffffffc050406500:	0017b793          	seqz	a5,a5
ffffffc050406504:	0ff7f793          	andi	a5,a5,255
ffffffc050406508:	0007861b          	sext.w	a2,a5
ffffffc05040650c:	fee44783          	lbu	a5,-18(s0)
ffffffc050406510:	2781                	sext.w	a5,a5
ffffffc050406512:	fa840713          	addi	a4,s0,-88
ffffffc050406516:	4685                	li	a3,1
ffffffc050406518:	45c1                	li	a1,16
ffffffc05040651a:	a4bff0ef          	jal	ra,ffffffc050405f64 <mini_itoa>
ffffffc05040651e:	87aa                	mv	a5,a0
ffffffc050406520:	fcf42e23          	sw	a5,-36(s0)
ffffffc050406524:	fc040693          	addi	a3,s0,-64
ffffffc050406528:	fdc42703          	lw	a4,-36(s0)
ffffffc05040652c:	fa840793          	addi	a5,s0,-88
ffffffc050406530:	8636                	mv	a2,a3
ffffffc050406532:	85ba                	mv	a1,a4
ffffffc050406534:	853e                	mv	a0,a5
ffffffc050406536:	cbbff0ef          	jal	ra,ffffffc0504061f0 <_puts>
ffffffc05040653a:	fe042423          	sw	zero,-24(s0)
ffffffc05040653e:	a0a5                	j	ffffffc0504065a6 <mini_vsnprintf+0x300>
ffffffc050406540:	f8043783          	ld	a5,-128(s0)
ffffffc050406544:	00878713          	addi	a4,a5,8
ffffffc050406548:	f8e43023          	sd	a4,-128(s0)
ffffffc05040654c:	439c                	lw	a5,0(a5)
ffffffc05040654e:	0ff7f793          	andi	a5,a5,255
ffffffc050406552:	2781                	sext.w	a5,a5
ffffffc050406554:	fc040713          	addi	a4,s0,-64
ffffffc050406558:	85ba                	mv	a1,a4
ffffffc05040655a:	853e                	mv	a0,a5
ffffffc05040655c:	c2fff0ef          	jal	ra,ffffffc05040618a <_putc>
ffffffc050406560:	a099                	j	ffffffc0504065a6 <mini_vsnprintf+0x300>
ffffffc050406562:	f8043783          	ld	a5,-128(s0)
ffffffc050406566:	00878713          	addi	a4,a5,8
ffffffc05040656a:	f8e43023          	sd	a4,-128(s0)
ffffffc05040656e:	639c                	ld	a5,0(a5)
ffffffc050406570:	fef43023          	sd	a5,-32(s0)
ffffffc050406574:	fe043503          	ld	a0,-32(s0)
ffffffc050406578:	9b7ff0ef          	jal	ra,ffffffc050405f2e <mini_strlen>
ffffffc05040657c:	87aa                	mv	a5,a0
ffffffc05040657e:	2781                	sext.w	a5,a5
ffffffc050406580:	fc040713          	addi	a4,s0,-64
ffffffc050406584:	863a                	mv	a2,a4
ffffffc050406586:	85be                	mv	a1,a5
ffffffc050406588:	fe043503          	ld	a0,-32(s0)
ffffffc05040658c:	c65ff0ef          	jal	ra,ffffffc0504061f0 <_puts>
ffffffc050406590:	a819                	j	ffffffc0504065a6 <mini_vsnprintf+0x300>
ffffffc050406592:	fef44783          	lbu	a5,-17(s0)
ffffffc050406596:	2781                	sext.w	a5,a5
ffffffc050406598:	fc040713          	addi	a4,s0,-64
ffffffc05040659c:	85ba                	mv	a1,a4
ffffffc05040659e:	853e                	mv	a0,a5
ffffffc0504065a0:	bebff0ef          	jal	ra,ffffffc05040618a <_putc>
ffffffc0504065a4:	0001                	nop
ffffffc0504065a6:	f8843783          	ld	a5,-120(s0)
ffffffc0504065aa:	00178713          	addi	a4,a5,1
ffffffc0504065ae:	f8e43423          	sd	a4,-120(s0)
ffffffc0504065b2:	0007c783          	lbu	a5,0(a5)
ffffffc0504065b6:	fef407a3          	sb	a5,-17(s0)
ffffffc0504065ba:	fef44783          	lbu	a5,-17(s0)
ffffffc0504065be:	0ff7f793          	andi	a5,a5,255
ffffffc0504065c2:	d0079ce3          	bnez	a5,ffffffc0504062da <mini_vsnprintf+0x34>
ffffffc0504065c6:	a031                	j	ffffffc0504065d2 <mini_vsnprintf+0x32c>
ffffffc0504065c8:	0001                	nop
ffffffc0504065ca:	a021                	j	ffffffc0504065d2 <mini_vsnprintf+0x32c>
ffffffc0504065cc:	0001                	nop
ffffffc0504065ce:	a011                	j	ffffffc0504065d2 <mini_vsnprintf+0x32c>
ffffffc0504065d0:	0001                	nop
ffffffc0504065d2:	fc843703          	ld	a4,-56(s0)
ffffffc0504065d6:	fc043783          	ld	a5,-64(s0)
ffffffc0504065da:	40f707b3          	sub	a5,a4,a5
ffffffc0504065de:	2781                	sext.w	a5,a5
ffffffc0504065e0:	853e                	mv	a0,a5
ffffffc0504065e2:	70e6                	ld	ra,120(sp)
ffffffc0504065e4:	7446                	ld	s0,112(sp)
ffffffc0504065e6:	6109                	addi	sp,sp,128
ffffffc0504065e8:	8082                	ret

ffffffc0504065ea <_vprint>:
ffffffc0504065ea:	714d                	addi	sp,sp,-336
ffffffc0504065ec:	e686                	sd	ra,328(sp)
ffffffc0504065ee:	e2a2                	sd	s0,320(sp)
ffffffc0504065f0:	0a80                	addi	s0,sp,336
ffffffc0504065f2:	eca43423          	sd	a0,-312(s0)
ffffffc0504065f6:	ecb43023          	sd	a1,-320(s0)
ffffffc0504065fa:	eac43c23          	sd	a2,-328(s0)
ffffffc0504065fe:	ec043783          	ld	a5,-320(s0)
ffffffc050406602:	fcf43c23          	sd	a5,-40(s0)
ffffffc050406606:	fd843703          	ld	a4,-40(s0)
ffffffc05040660a:	ed840793          	addi	a5,s0,-296
ffffffc05040660e:	86ba                	mv	a3,a4
ffffffc050406610:	ec843603          	ld	a2,-312(s0)
ffffffc050406614:	10000593          	li	a1,256
ffffffc050406618:	853e                	mv	a0,a5
ffffffc05040661a:	c8dff0ef          	jal	ra,ffffffc0504062a6 <mini_vsnprintf>
ffffffc05040661e:	87aa                	mv	a5,a0
ffffffc050406620:	fef42623          	sw	a5,-20(s0)
ffffffc050406624:	fec42783          	lw	a5,-20(s0)
ffffffc050406628:	ff040713          	addi	a4,s0,-16
ffffffc05040662c:	97ba                	add	a5,a5,a4
ffffffc05040662e:	ee078423          	sb	zero,-280(a5)
ffffffc050406632:	a6ff90ef          	jal	ra,ffffffc0504000a0 <disable_preempt>
ffffffc050406636:	c93f90ef          	jal	ra,ffffffc0504002c8 <get_current_cpu_id>
ffffffc05040663a:	fea43023          	sd	a0,-32(s0)
ffffffc05040663e:	ed840793          	addi	a5,s0,-296
ffffffc050406642:	eb843703          	ld	a4,-328(s0)
ffffffc050406646:	853e                	mv	a0,a5
ffffffc050406648:	9702                	jalr	a4
ffffffc05040664a:	a53f90ef          	jal	ra,ffffffc05040009c <enable_preempt>
ffffffc05040664e:	fec42783          	lw	a5,-20(s0)
ffffffc050406652:	853e                	mv	a0,a5
ffffffc050406654:	60b6                	ld	ra,328(sp)
ffffffc050406656:	6416                	ld	s0,320(sp)
ffffffc050406658:	6171                	addi	sp,sp,336
ffffffc05040665a:	8082                	ret

ffffffc05040665c <vprintk>:
ffffffc05040665c:	1101                	addi	sp,sp,-32
ffffffc05040665e:	ec06                	sd	ra,24(sp)
ffffffc050406660:	e822                	sd	s0,16(sp)
ffffffc050406662:	1000                	addi	s0,sp,32
ffffffc050406664:	fea43423          	sd	a0,-24(s0)
ffffffc050406668:	feb43023          	sd	a1,-32(s0)
ffffffc05040666c:	ffffa617          	auipc	a2,0xffffa
ffffffc050406670:	c3c60613          	addi	a2,a2,-964 # ffffffc0504002a8 <port_write>
ffffffc050406674:	fe043583          	ld	a1,-32(s0)
ffffffc050406678:	fe843503          	ld	a0,-24(s0)
ffffffc05040667c:	f6fff0ef          	jal	ra,ffffffc0504065ea <_vprint>
ffffffc050406680:	87aa                	mv	a5,a0
ffffffc050406682:	853e                	mv	a0,a5
ffffffc050406684:	60e2                	ld	ra,24(sp)
ffffffc050406686:	6442                	ld	s0,16(sp)
ffffffc050406688:	6105                	addi	sp,sp,32
ffffffc05040668a:	8082                	ret

ffffffc05040668c <printk>:
ffffffc05040668c:	7159                	addi	sp,sp,-112
ffffffc05040668e:	f406                	sd	ra,40(sp)
ffffffc050406690:	f022                	sd	s0,32(sp)
ffffffc050406692:	1800                	addi	s0,sp,48
ffffffc050406694:	fca43c23          	sd	a0,-40(s0)
ffffffc050406698:	e40c                	sd	a1,8(s0)
ffffffc05040669a:	e810                	sd	a2,16(s0)
ffffffc05040669c:	ec14                	sd	a3,24(s0)
ffffffc05040669e:	f018                	sd	a4,32(s0)
ffffffc0504066a0:	f41c                	sd	a5,40(s0)
ffffffc0504066a2:	03043823          	sd	a6,48(s0)
ffffffc0504066a6:	03143c23          	sd	a7,56(s0)
ffffffc0504066aa:	fe042623          	sw	zero,-20(s0)
ffffffc0504066ae:	04040793          	addi	a5,s0,64
ffffffc0504066b2:	fcf43823          	sd	a5,-48(s0)
ffffffc0504066b6:	fd043783          	ld	a5,-48(s0)
ffffffc0504066ba:	fc878793          	addi	a5,a5,-56
ffffffc0504066be:	fef43023          	sd	a5,-32(s0)
ffffffc0504066c2:	fe043783          	ld	a5,-32(s0)
ffffffc0504066c6:	85be                	mv	a1,a5
ffffffc0504066c8:	fd843503          	ld	a0,-40(s0)
ffffffc0504066cc:	f91ff0ef          	jal	ra,ffffffc05040665c <vprintk>
ffffffc0504066d0:	87aa                	mv	a5,a0
ffffffc0504066d2:	fef42623          	sw	a5,-20(s0)
ffffffc0504066d6:	fec42783          	lw	a5,-20(s0)
ffffffc0504066da:	853e                	mv	a0,a5
ffffffc0504066dc:	70a2                	ld	ra,40(sp)
ffffffc0504066de:	7402                	ld	s0,32(sp)
ffffffc0504066e0:	6165                	addi	sp,sp,112
ffffffc0504066e2:	8082                	ret

ffffffc0504066e4 <vprints>:
ffffffc0504066e4:	1101                	addi	sp,sp,-32
ffffffc0504066e6:	ec06                	sd	ra,24(sp)
ffffffc0504066e8:	e822                	sd	s0,16(sp)
ffffffc0504066ea:	1000                	addi	s0,sp,32
ffffffc0504066ec:	fea43423          	sd	a0,-24(s0)
ffffffc0504066f0:	feb43023          	sd	a1,-32(s0)
ffffffc0504066f4:	ffffb617          	auipc	a2,0xffffb
ffffffc0504066f8:	ffa60613          	addi	a2,a2,-6 # ffffffc0504016ee <screen_write>
ffffffc0504066fc:	fe043583          	ld	a1,-32(s0)
ffffffc050406700:	fe843503          	ld	a0,-24(s0)
ffffffc050406704:	ee7ff0ef          	jal	ra,ffffffc0504065ea <_vprint>
ffffffc050406708:	87aa                	mv	a5,a0
ffffffc05040670a:	853e                	mv	a0,a5
ffffffc05040670c:	60e2                	ld	ra,24(sp)
ffffffc05040670e:	6442                	ld	s0,16(sp)
ffffffc050406710:	6105                	addi	sp,sp,32
ffffffc050406712:	8082                	ret

ffffffc050406714 <prints>:
ffffffc050406714:	7159                	addi	sp,sp,-112
ffffffc050406716:	f406                	sd	ra,40(sp)
ffffffc050406718:	f022                	sd	s0,32(sp)
ffffffc05040671a:	1800                	addi	s0,sp,48
ffffffc05040671c:	fca43c23          	sd	a0,-40(s0)
ffffffc050406720:	e40c                	sd	a1,8(s0)
ffffffc050406722:	e810                	sd	a2,16(s0)
ffffffc050406724:	ec14                	sd	a3,24(s0)
ffffffc050406726:	f018                	sd	a4,32(s0)
ffffffc050406728:	f41c                	sd	a5,40(s0)
ffffffc05040672a:	03043823          	sd	a6,48(s0)
ffffffc05040672e:	03143c23          	sd	a7,56(s0)
ffffffc050406732:	fe042623          	sw	zero,-20(s0)
ffffffc050406736:	04040793          	addi	a5,s0,64
ffffffc05040673a:	fcf43823          	sd	a5,-48(s0)
ffffffc05040673e:	fd043783          	ld	a5,-48(s0)
ffffffc050406742:	fc878793          	addi	a5,a5,-56
ffffffc050406746:	fef43023          	sd	a5,-32(s0)
ffffffc05040674a:	fe043783          	ld	a5,-32(s0)
ffffffc05040674e:	85be                	mv	a1,a5
ffffffc050406750:	fd843503          	ld	a0,-40(s0)
ffffffc050406754:	f91ff0ef          	jal	ra,ffffffc0504066e4 <vprints>
ffffffc050406758:	87aa                	mv	a5,a0
ffffffc05040675a:	fef42623          	sw	a5,-20(s0)
ffffffc05040675e:	fec42783          	lw	a5,-20(s0)
ffffffc050406762:	853e                	mv	a0,a5
ffffffc050406764:	70a2                	ld	ra,40(sp)
ffffffc050406766:	7402                	ld	s0,32(sp)
ffffffc050406768:	6165                	addi	sp,sp,112
ffffffc05040676a:	8082                	ret

ffffffc05040676c <get_elf_file>:
ffffffc05040676c:	7139                	addi	sp,sp,-64
ffffffc05040676e:	fc06                	sd	ra,56(sp)
ffffffc050406770:	f822                	sd	s0,48(sp)
ffffffc050406772:	0080                	addi	s0,sp,64
ffffffc050406774:	fca43c23          	sd	a0,-40(s0)
ffffffc050406778:	fcb43823          	sd	a1,-48(s0)
ffffffc05040677c:	fcc43423          	sd	a2,-56(s0)
ffffffc050406780:	fe042623          	sw	zero,-20(s0)
ffffffc050406784:	a895                	j	ffffffc0504067f8 <get_elf_file+0x8c>
ffffffc050406786:	0005e697          	auipc	a3,0x5e
ffffffc05040678a:	42268693          	addi	a3,a3,1058 # ffffffc050464ba8 <elf_files>
ffffffc05040678e:	fec42703          	lw	a4,-20(s0)
ffffffc050406792:	87ba                	mv	a5,a4
ffffffc050406794:	0786                	slli	a5,a5,0x1
ffffffc050406796:	97ba                	add	a5,a5,a4
ffffffc050406798:	078e                	slli	a5,a5,0x3
ffffffc05040679a:	97b6                	add	a5,a5,a3
ffffffc05040679c:	639c                	ld	a5,0(a5)
ffffffc05040679e:	fd843583          	ld	a1,-40(s0)
ffffffc0504067a2:	853e                	mv	a0,a5
ffffffc0504067a4:	e3aff0ef          	jal	ra,ffffffc050405dde <strcmp>
ffffffc0504067a8:	87aa                	mv	a5,a0
ffffffc0504067aa:	e3b1                	bnez	a5,ffffffc0504067ee <get_elf_file+0x82>
ffffffc0504067ac:	0005e697          	auipc	a3,0x5e
ffffffc0504067b0:	3fc68693          	addi	a3,a3,1020 # ffffffc050464ba8 <elf_files>
ffffffc0504067b4:	fec42703          	lw	a4,-20(s0)
ffffffc0504067b8:	87ba                	mv	a5,a4
ffffffc0504067ba:	0786                	slli	a5,a5,0x1
ffffffc0504067bc:	97ba                	add	a5,a5,a4
ffffffc0504067be:	078e                	slli	a5,a5,0x3
ffffffc0504067c0:	97b6                	add	a5,a5,a3
ffffffc0504067c2:	6798                	ld	a4,8(a5)
ffffffc0504067c4:	fd043783          	ld	a5,-48(s0)
ffffffc0504067c8:	e398                	sd	a4,0(a5)
ffffffc0504067ca:	0005e697          	auipc	a3,0x5e
ffffffc0504067ce:	3de68693          	addi	a3,a3,990 # ffffffc050464ba8 <elf_files>
ffffffc0504067d2:	fec42703          	lw	a4,-20(s0)
ffffffc0504067d6:	87ba                	mv	a5,a4
ffffffc0504067d8:	0786                	slli	a5,a5,0x1
ffffffc0504067da:	97ba                	add	a5,a5,a4
ffffffc0504067dc:	078e                	slli	a5,a5,0x3
ffffffc0504067de:	97b6                	add	a5,a5,a3
ffffffc0504067e0:	6b9c                	ld	a5,16(a5)
ffffffc0504067e2:	4398                	lw	a4,0(a5)
ffffffc0504067e4:	fc843783          	ld	a5,-56(s0)
ffffffc0504067e8:	c398                	sw	a4,0(a5)
ffffffc0504067ea:	4785                	li	a5,1
ffffffc0504067ec:	a831                	j	ffffffc050406808 <get_elf_file+0x9c>
ffffffc0504067ee:	fec42783          	lw	a5,-20(s0)
ffffffc0504067f2:	2785                	addiw	a5,a5,1
ffffffc0504067f4:	fef42623          	sw	a5,-20(s0)
ffffffc0504067f8:	fec42783          	lw	a5,-20(s0)
ffffffc0504067fc:	0007871b          	sext.w	a4,a5
ffffffc050406800:	47a1                	li	a5,8
ffffffc050406802:	f8e7d2e3          	bge	a5,a4,ffffffc050406786 <get_elf_file+0x1a>
ffffffc050406806:	4781                	li	a5,0
ffffffc050406808:	853e                	mv	a0,a5
ffffffc05040680a:	70e2                	ld	ra,56(sp)
ffffffc05040680c:	7442                	ld	s0,48(sp)
ffffffc05040680e:	6121                	addi	sp,sp,64
ffffffc050406810:	8082                	ret
