
main:     file format elf64-littleriscv


Disassembly of section .text:

ffffffc050400000 <_start>:
ffffffc050400000:	10401073          	csrw	sie,zero
ffffffc050400004:	14401073          	csrw	sip,zero
ffffffc050400008:	6299                	lui	t0,0x6
ffffffc05040000a:	1002b073          	csrc	sstatus,t0
ffffffc05040000e:	0002b197          	auipc	gp,0x2b
ffffffc050400012:	fb218193          	addi	gp,gp,-78 # ffffffc05042afc0 <__global_pointer$>
ffffffc050400016:	f1402573          	csrr	a0,mhartid
ffffffc05040001a:	e90d                	bnez	a0,ffffffc05040004c <set_slave>
ffffffc05040001c:	86c18693          	addi	a3,gp,-1940 # ffffffc05042a82c <_edata>
ffffffc050400020:	00802717          	auipc	a4,0x802
ffffffc050400024:	5e070713          	addi	a4,a4,1504 # ffffffc050c02600 <__BSS_END__>
ffffffc050400028:	00e6d763          	bge	a3,a4,ffffffc050400036 <clear_bss_done>

ffffffc05040002c <clear_bss>:
ffffffc05040002c:	0006b023          	sd	zero,0(a3)
ffffffc050400030:	06a1                	addi	a3,a3,8
ffffffc050400032:	fee6cde3          	blt	a3,a4,ffffffc05040002c <clear_bss>

ffffffc050400036 <clear_bss_done>:
ffffffc050400036:	0000e217          	auipc	tp,0xe
ffffffc05040003a:	92a20213          	addi	tp,tp,-1750 # ffffffc05040d960 <pid0_pcb_m>
ffffffc05040003e:	0002a117          	auipc	sp,0x2a
ffffffc050400042:	78213103          	ld	sp,1922(sp) # ffffffc05042a7c0 <pid0_stack_m>
ffffffc050400046:	14001073          	csrw	sscratch,zero
ffffffc05040004a:	a819                	j	ffffffc050400060 <end>

ffffffc05040004c <set_slave>:
ffffffc05040004c:	0000e217          	auipc	tp,0xe
ffffffc050400050:	9ac20213          	addi	tp,tp,-1620 # ffffffc05040d9f8 <pid0_pcb_s>
ffffffc050400054:	0002a117          	auipc	sp,0x2a
ffffffc050400058:	77413103          	ld	sp,1908(sp) # ffffffc05042a7c8 <pid0_stack_s>
ffffffc05040005c:	14001073          	csrw	sscratch,zero

ffffffc050400060 <end>:
ffffffc050400060:	00201517          	auipc	a0,0x201
ffffffc050400064:	61050513          	addi	a0,a0,1552 # ffffffc050601670 <riscv_dtb>
ffffffc050400068:	e10c                	sd	a1,0(a0)
ffffffc05040006a:	264010ef          	jal	ra,ffffffc0504012ce <main>

ffffffc05040006e <loop>:
ffffffc05040006e:	10500073          	wfi
ffffffc050400072:	bff5                	j	ffffffc05040006e <loop>
ffffffc050400074:	0000                	unimp
	...

ffffffc050400078 <setup_exception>:
ffffffc050400078:	00000297          	auipc	t0,0x0
ffffffc05040007c:	11c28293          	addi	t0,t0,284 # ffffffc050400194 <exception_handler_entry>
ffffffc050400080:	00040337          	lui	t1,0x40
ffffffc050400084:	0023031b          	addiw	t1,t1,2
ffffffc050400088:	22200393          	li	t2,546
ffffffc05040008c:	10529073          	csrw	stvec,t0
ffffffc050400090:	10031073          	csrw	sstatus,t1
ffffffc050400094:	10439073          	csrw	sie,t2
ffffffc050400098:	8082                	ret
	...

ffffffc05040009c <enable_preempt>:
ffffffc05040009c:	8082                	ret
ffffffc05040009e:	0001                	nop

ffffffc0504000a0 <disable_preempt>:
ffffffc0504000a0:	8082                	ret
ffffffc0504000a2:	0001                	nop

ffffffc0504000a4 <enable_interrupt>:
ffffffc0504000a4:	4289                	li	t0,2
ffffffc0504000a6:	1002a073          	csrs	sstatus,t0
ffffffc0504000aa:	8082                	ret

ffffffc0504000ac <disable_interrupt>:
ffffffc0504000ac:	4289                	li	t0,2
ffffffc0504000ae:	1002b073          	csrc	sstatus,t0
ffffffc0504000b2:	8082                	ret

ffffffc0504000b4 <switch_to>:
ffffffc0504000b4:	00053283          	ld	t0,0(a0)
ffffffc0504000b8:	0012b023          	sd	ra,0(t0)
ffffffc0504000bc:	0022b423          	sd	sp,8(t0)
ffffffc0504000c0:	0082b823          	sd	s0,16(t0)
ffffffc0504000c4:	0092bc23          	sd	s1,24(t0)
ffffffc0504000c8:	0322b023          	sd	s2,32(t0)
ffffffc0504000cc:	0332b423          	sd	s3,40(t0)
ffffffc0504000d0:	0342b823          	sd	s4,48(t0)
ffffffc0504000d4:	0352bc23          	sd	s5,56(t0)
ffffffc0504000d8:	0562b023          	sd	s6,64(t0)
ffffffc0504000dc:	0572b423          	sd	s7,72(t0)
ffffffc0504000e0:	0582b823          	sd	s8,80(t0)
ffffffc0504000e4:	0592bc23          	sd	s9,88(t0)
ffffffc0504000e8:	07a2b023          	sd	s10,96(t0)
ffffffc0504000ec:	07b2b423          	sd	s11,104(t0)
ffffffc0504000f0:	822e                	mv	tp,a1
ffffffc0504000f2:	0005b283          	ld	t0,0(a1)
ffffffc0504000f6:	0105b303          	ld	t1,16(a1)
ffffffc0504000fa:	18031073          	csrw	satp,t1
ffffffc0504000fe:	12000073          	sfence.vma
ffffffc050400102:	0002b083          	ld	ra,0(t0)
ffffffc050400106:	0082b103          	ld	sp,8(t0)
ffffffc05040010a:	0102b403          	ld	s0,16(t0)
ffffffc05040010e:	0182b483          	ld	s1,24(t0)
ffffffc050400112:	0202b903          	ld	s2,32(t0)
ffffffc050400116:	0282b983          	ld	s3,40(t0)
ffffffc05040011a:	0302ba03          	ld	s4,48(t0)
ffffffc05040011e:	0382ba83          	ld	s5,56(t0)
ffffffc050400122:	0402bb03          	ld	s6,64(t0)
ffffffc050400126:	0482bb83          	ld	s7,72(t0)
ffffffc05040012a:	0502bc03          	ld	s8,80(t0)
ffffffc05040012e:	0582bc83          	ld	s9,88(t0)
ffffffc050400132:	0602bd03          	ld	s10,96(t0)
ffffffc050400136:	0682bd83          	ld	s11,104(t0)
ffffffc05040013a:	8082                	ret

ffffffc05040013c <ret_from_exception>:
ffffffc05040013c:	28e0a0ef          	jal	ra,ffffffc05040a3ca <unlock_kernel>
ffffffc050400140:	00023103          	ld	sp,0(tp) # 0 <_start-0xffffffc050400000>
ffffffc050400144:	6165                	addi	sp,sp,112
ffffffc050400146:	6412                	ld	s0,256(sp)
ffffffc050400148:	64b2                	ld	s1,264(sp)
ffffffc05040014a:	10041073          	csrw	sstatus,s0
ffffffc05040014e:	14149073          	csrw	sepc,s1
ffffffc050400152:	60a2                	ld	ra,8(sp)
ffffffc050400154:	61e2                	ld	gp,24(sp)
ffffffc050400156:	72a2                	ld	t0,40(sp)
ffffffc050400158:	7342                	ld	t1,48(sp)
ffffffc05040015a:	73e2                	ld	t2,56(sp)
ffffffc05040015c:	6406                	ld	s0,64(sp)
ffffffc05040015e:	64a6                	ld	s1,72(sp)
ffffffc050400160:	6546                	ld	a0,80(sp)
ffffffc050400162:	65e6                	ld	a1,88(sp)
ffffffc050400164:	7606                	ld	a2,96(sp)
ffffffc050400166:	76a6                	ld	a3,104(sp)
ffffffc050400168:	7746                	ld	a4,112(sp)
ffffffc05040016a:	77e6                	ld	a5,120(sp)
ffffffc05040016c:	680a                	ld	a6,128(sp)
ffffffc05040016e:	68aa                	ld	a7,136(sp)
ffffffc050400170:	694a                	ld	s2,144(sp)
ffffffc050400172:	69ea                	ld	s3,152(sp)
ffffffc050400174:	7a0a                	ld	s4,160(sp)
ffffffc050400176:	7aaa                	ld	s5,168(sp)
ffffffc050400178:	7b4a                	ld	s6,176(sp)
ffffffc05040017a:	7bea                	ld	s7,184(sp)
ffffffc05040017c:	6c0e                	ld	s8,192(sp)
ffffffc05040017e:	6cae                	ld	s9,200(sp)
ffffffc050400180:	6d4e                	ld	s10,208(sp)
ffffffc050400182:	6dee                	ld	s11,216(sp)
ffffffc050400184:	7e0e                	ld	t3,224(sp)
ffffffc050400186:	7eae                	ld	t4,232(sp)
ffffffc050400188:	7f4e                	ld	t5,240(sp)
ffffffc05040018a:	7fee                	ld	t6,248(sp)
ffffffc05040018c:	6142                	ld	sp,16(sp)
ffffffc05040018e:	10200073          	sret
ffffffc050400192:	0001                	nop

ffffffc050400194 <exception_handler_entry>:
ffffffc050400194:	14011073          	csrw	sscratch,sp
ffffffc050400198:	00023103          	ld	sp,0(tp) # 0 <_start-0xffffffc050400000>
ffffffc05040019c:	6165                	addi	sp,sp,112
ffffffc05040019e:	e406                	sd	ra,8(sp)
ffffffc0504001a0:	ec0e                	sd	gp,24(sp)
ffffffc0504001a2:	f416                	sd	t0,40(sp)
ffffffc0504001a4:	f81a                	sd	t1,48(sp)
ffffffc0504001a6:	fc1e                	sd	t2,56(sp)
ffffffc0504001a8:	e0a2                	sd	s0,64(sp)
ffffffc0504001aa:	e4a6                	sd	s1,72(sp)
ffffffc0504001ac:	e8aa                	sd	a0,80(sp)
ffffffc0504001ae:	ecae                	sd	a1,88(sp)
ffffffc0504001b0:	f0b2                	sd	a2,96(sp)
ffffffc0504001b2:	f4b6                	sd	a3,104(sp)
ffffffc0504001b4:	f8ba                	sd	a4,112(sp)
ffffffc0504001b6:	fcbe                	sd	a5,120(sp)
ffffffc0504001b8:	e142                	sd	a6,128(sp)
ffffffc0504001ba:	e546                	sd	a7,136(sp)
ffffffc0504001bc:	e94a                	sd	s2,144(sp)
ffffffc0504001be:	ed4e                	sd	s3,152(sp)
ffffffc0504001c0:	f152                	sd	s4,160(sp)
ffffffc0504001c2:	f556                	sd	s5,168(sp)
ffffffc0504001c4:	f95a                	sd	s6,176(sp)
ffffffc0504001c6:	fd5e                	sd	s7,184(sp)
ffffffc0504001c8:	e1e2                	sd	s8,192(sp)
ffffffc0504001ca:	e5e6                	sd	s9,200(sp)
ffffffc0504001cc:	e9ea                	sd	s10,208(sp)
ffffffc0504001ce:	edee                	sd	s11,216(sp)
ffffffc0504001d0:	f1f2                	sd	t3,224(sp)
ffffffc0504001d2:	f5f6                	sd	t4,232(sp)
ffffffc0504001d4:	f9fa                	sd	t5,240(sp)
ffffffc0504001d6:	fdfe                	sd	t6,248(sp)
ffffffc0504001d8:	14002473          	csrr	s0,sscratch
ffffffc0504001dc:	e822                	sd	s0,16(sp)
ffffffc0504001de:	6299                	lui	t0,0x6
ffffffc0504001e0:	1002b473          	csrrc	s0,sstatus,t0
ffffffc0504001e4:	141024f3          	csrr	s1,sepc
ffffffc0504001e8:	14302973          	csrr	s2,stval
ffffffc0504001ec:	142029f3          	csrr	s3,scause
ffffffc0504001f0:	e222                	sd	s0,256(sp)
ffffffc0504001f2:	e626                	sd	s1,264(sp)
ffffffc0504001f4:	ea4a                	sd	s2,272(sp)
ffffffc0504001f6:	ee4e                	sd	s3,280(sp)
ffffffc0504001f8:	7159                	addi	sp,sp,-112
ffffffc0504001fa:	0002b197          	auipc	gp,0x2b
ffffffc0504001fe:	dc618193          	addi	gp,gp,-570 # ffffffc05042afc0 <__global_pointer$>
ffffffc050400202:	1ba0a0ef          	jal	ra,ffffffc05040a3bc <lock_kernel>
ffffffc050400206:	00023503          	ld	a0,0(tp) # 0 <_start-0xffffffc050400000>
ffffffc05040020a:	07050513          	addi	a0,a0,112
ffffffc05040020e:	143025f3          	csrr	a1,stval
ffffffc050400212:	14202673          	csrr	a2,scause
ffffffc050400216:	226010ef          	jal	ra,ffffffc05040143c <interrupt_helper>
ffffffc05040021a:	00000097          	auipc	ra,0x0
ffffffc05040021e:	f2208093          	addi	ra,ra,-222 # ffffffc05040013c <ret_from_exception>
ffffffc050400222:	8082                	ret

ffffffc050400224 <sbi_console_putstr>:
ffffffc050400224:	1101                	addi	sp,sp,-32
ffffffc050400226:	ec22                	sd	s0,24(sp)
ffffffc050400228:	1000                	addi	s0,sp,32
ffffffc05040022a:	fea43423          	sd	a0,-24(s0)
ffffffc05040022e:	a839                	j	ffffffc05040024c <sbi_console_putstr+0x28>
ffffffc050400230:	fe843783          	ld	a5,-24(s0)
ffffffc050400234:	00178713          	addi	a4,a5,1
ffffffc050400238:	fee43423          	sd	a4,-24(s0)
ffffffc05040023c:	0007c783          	lbu	a5,0(a5)
ffffffc050400240:	853e                	mv	a0,a5
ffffffc050400242:	4581                	li	a1,0
ffffffc050400244:	4601                	li	a2,0
ffffffc050400246:	4885                	li	a7,1
ffffffc050400248:	00000073          	ecall
ffffffc05040024c:	fe843783          	ld	a5,-24(s0)
ffffffc050400250:	0007c783          	lbu	a5,0(a5)
ffffffc050400254:	fff1                	bnez	a5,ffffffc050400230 <sbi_console_putstr+0xc>
ffffffc050400256:	0001                	nop
ffffffc050400258:	0001                	nop
ffffffc05040025a:	6462                	ld	s0,24(sp)
ffffffc05040025c:	6105                	addi	sp,sp,32
ffffffc05040025e:	8082                	ret

ffffffc050400260 <sbi_console_putchar>:
ffffffc050400260:	1101                	addi	sp,sp,-32
ffffffc050400262:	ec22                	sd	s0,24(sp)
ffffffc050400264:	1000                	addi	s0,sp,32
ffffffc050400266:	87aa                	mv	a5,a0
ffffffc050400268:	fef42623          	sw	a5,-20(s0)
ffffffc05040026c:	fec42783          	lw	a5,-20(s0)
ffffffc050400270:	853e                	mv	a0,a5
ffffffc050400272:	4581                	li	a1,0
ffffffc050400274:	4601                	li	a2,0
ffffffc050400276:	4885                	li	a7,1
ffffffc050400278:	00000073          	ecall
ffffffc05040027c:	0001                	nop
ffffffc05040027e:	6462                	ld	s0,24(sp)
ffffffc050400280:	6105                	addi	sp,sp,32
ffffffc050400282:	8082                	ret

ffffffc050400284 <port_write_ch>:
ffffffc050400284:	1101                	addi	sp,sp,-32
ffffffc050400286:	ec06                	sd	ra,24(sp)
ffffffc050400288:	e822                	sd	s0,16(sp)
ffffffc05040028a:	1000                	addi	s0,sp,32
ffffffc05040028c:	87aa                	mv	a5,a0
ffffffc05040028e:	fef407a3          	sb	a5,-17(s0)
ffffffc050400292:	fef44783          	lbu	a5,-17(s0)
ffffffc050400296:	2781                	sext.w	a5,a5
ffffffc050400298:	853e                	mv	a0,a5
ffffffc05040029a:	fc7ff0ef          	jal	ra,ffffffc050400260 <sbi_console_putchar>
ffffffc05040029e:	0001                	nop
ffffffc0504002a0:	60e2                	ld	ra,24(sp)
ffffffc0504002a2:	6442                	ld	s0,16(sp)
ffffffc0504002a4:	6105                	addi	sp,sp,32
ffffffc0504002a6:	8082                	ret

ffffffc0504002a8 <port_write>:
ffffffc0504002a8:	1101                	addi	sp,sp,-32
ffffffc0504002aa:	ec06                	sd	ra,24(sp)
ffffffc0504002ac:	e822                	sd	s0,16(sp)
ffffffc0504002ae:	1000                	addi	s0,sp,32
ffffffc0504002b0:	fea43423          	sd	a0,-24(s0)
ffffffc0504002b4:	fe843503          	ld	a0,-24(s0)
ffffffc0504002b8:	f6dff0ef          	jal	ra,ffffffc050400224 <sbi_console_putstr>
ffffffc0504002bc:	0001                	nop
ffffffc0504002be:	60e2                	ld	ra,24(sp)
ffffffc0504002c0:	6442                	ld	s0,16(sp)
ffffffc0504002c2:	6105                	addi	sp,sp,32
ffffffc0504002c4:	8082                	ret
	...

ffffffc0504002c8 <get_current_cpu_id>:
ffffffc0504002c8:	f1402573          	csrr	a0,mhartid
ffffffc0504002cc:	8082                	ret

ffffffc0504002ce <sbi_console_getchar>:
ffffffc0504002ce:	1141                	addi	sp,sp,-16
ffffffc0504002d0:	e422                	sd	s0,8(sp)
ffffffc0504002d2:	0800                	addi	s0,sp,16
ffffffc0504002d4:	4501                	li	a0,0
ffffffc0504002d6:	4581                	li	a1,0
ffffffc0504002d8:	4601                	li	a2,0
ffffffc0504002da:	4889                	li	a7,2
ffffffc0504002dc:	00000073          	ecall
ffffffc0504002e0:	87aa                	mv	a5,a0
ffffffc0504002e2:	2781                	sext.w	a5,a5
ffffffc0504002e4:	853e                	mv	a0,a5
ffffffc0504002e6:	6422                	ld	s0,8(sp)
ffffffc0504002e8:	0141                	addi	sp,sp,16
ffffffc0504002ea:	8082                	ret

ffffffc0504002ec <sbi_set_timer>:
ffffffc0504002ec:	1101                	addi	sp,sp,-32
ffffffc0504002ee:	ec22                	sd	s0,24(sp)
ffffffc0504002f0:	1000                	addi	s0,sp,32
ffffffc0504002f2:	fea43423          	sd	a0,-24(s0)
ffffffc0504002f6:	fe843503          	ld	a0,-24(s0)
ffffffc0504002fa:	4581                	li	a1,0
ffffffc0504002fc:	4601                	li	a2,0
ffffffc0504002fe:	4881                	li	a7,0
ffffffc050400300:	00000073          	ecall
ffffffc050400304:	0001                	nop
ffffffc050400306:	6462                	ld	s0,24(sp)
ffffffc050400308:	6105                	addi	sp,sp,32
ffffffc05040030a:	8082                	ret

ffffffc05040030c <sbi_read_fdt>:
ffffffc05040030c:	1101                	addi	sp,sp,-32
ffffffc05040030e:	ec22                	sd	s0,24(sp)
ffffffc050400310:	1000                	addi	s0,sp,32
ffffffc050400312:	87aa                	mv	a5,a0
ffffffc050400314:	fef42623          	sw	a5,-20(s0)
ffffffc050400318:	fec42783          	lw	a5,-20(s0)
ffffffc05040031c:	853e                	mv	a0,a5
ffffffc05040031e:	4581                	li	a1,0
ffffffc050400320:	4601                	li	a2,0
ffffffc050400322:	48b1                	li	a7,12
ffffffc050400324:	00000073          	ecall
ffffffc050400328:	87aa                	mv	a5,a0
ffffffc05040032a:	2781                	sext.w	a5,a5
ffffffc05040032c:	853e                	mv	a0,a5
ffffffc05040032e:	6462                	ld	s0,24(sp)
ffffffc050400330:	6105                	addi	sp,sp,32
ffffffc050400332:	8082                	ret

ffffffc050400334 <pa2kva>:
ffffffc050400334:	1101                	addi	sp,sp,-32
ffffffc050400336:	ec22                	sd	s0,24(sp)
ffffffc050400338:	1000                	addi	s0,sp,32
ffffffc05040033a:	fea43423          	sd	a0,-24(s0)
ffffffc05040033e:	fe843703          	ld	a4,-24(s0)
ffffffc050400342:	57fd                	li	a5,-1
ffffffc050400344:	179a                	slli	a5,a5,0x26
ffffffc050400346:	97ba                	add	a5,a5,a4
ffffffc050400348:	853e                	mv	a0,a5
ffffffc05040034a:	6462                	ld	s0,24(sp)
ffffffc05040034c:	6105                	addi	sp,sp,32
ffffffc05040034e:	8082                	ret

ffffffc050400350 <is_elf_format>:
ffffffc050400350:	7179                	addi	sp,sp,-48
ffffffc050400352:	f422                	sd	s0,40(sp)
ffffffc050400354:	1800                	addi	s0,sp,48
ffffffc050400356:	fca43c23          	sd	a0,-40(s0)
ffffffc05040035a:	fd843783          	ld	a5,-40(s0)
ffffffc05040035e:	fef43423          	sd	a5,-24(s0)
ffffffc050400362:	fe843783          	ld	a5,-24(s0)
ffffffc050400366:	0007c783          	lbu	a5,0(a5)
ffffffc05040036a:	eb9d                	bnez	a5,ffffffc0504003a0 <is_elf_format+0x50>
ffffffc05040036c:	fe843783          	ld	a5,-24(s0)
ffffffc050400370:	0017c783          	lbu	a5,1(a5)
ffffffc050400374:	873e                	mv	a4,a5
ffffffc050400376:	4785                	li	a5,1
ffffffc050400378:	02f71463          	bne	a4,a5,ffffffc0504003a0 <is_elf_format+0x50>
ffffffc05040037c:	fe843783          	ld	a5,-24(s0)
ffffffc050400380:	0027c783          	lbu	a5,2(a5)
ffffffc050400384:	873e                	mv	a4,a5
ffffffc050400386:	4789                	li	a5,2
ffffffc050400388:	00f71c63          	bne	a4,a5,ffffffc0504003a0 <is_elf_format+0x50>
ffffffc05040038c:	fe843783          	ld	a5,-24(s0)
ffffffc050400390:	0037c783          	lbu	a5,3(a5)
ffffffc050400394:	873e                	mv	a4,a5
ffffffc050400396:	478d                	li	a5,3
ffffffc050400398:	00f71463          	bne	a4,a5,ffffffc0504003a0 <is_elf_format+0x50>
ffffffc05040039c:	4781                	li	a5,0
ffffffc05040039e:	a011                	j	ffffffc0504003a2 <is_elf_format+0x52>
ffffffc0504003a0:	4785                	li	a5,1
ffffffc0504003a2:	853e                	mv	a0,a5
ffffffc0504003a4:	7422                	ld	s0,40(sp)
ffffffc0504003a6:	6145                	addi	sp,sp,48
ffffffc0504003a8:	8082                	ret

ffffffc0504003aa <load_elf>:
ffffffc0504003aa:	7159                	addi	sp,sp,-112
ffffffc0504003ac:	f486                	sd	ra,104(sp)
ffffffc0504003ae:	f0a2                	sd	s0,96(sp)
ffffffc0504003b0:	1880                	addi	s0,sp,112
ffffffc0504003b2:	faa43423          	sd	a0,-88(s0)
ffffffc0504003b6:	87ae                	mv	a5,a1
ffffffc0504003b8:	f8c43c23          	sd	a2,-104(s0)
ffffffc0504003bc:	f8d43823          	sd	a3,-112(s0)
ffffffc0504003c0:	faf42223          	sw	a5,-92(s0)
ffffffc0504003c4:	fa843783          	ld	a5,-88(s0)
ffffffc0504003c8:	fcf43823          	sd	a5,-48(s0)
ffffffc0504003cc:	fc043423          	sd	zero,-56(s0)
ffffffc0504003d0:	fe043423          	sd	zero,-24(s0)
ffffffc0504003d4:	fe042023          	sw	zero,-32(s0)
ffffffc0504003d8:	fa442783          	lw	a5,-92(s0)
ffffffc0504003dc:	0007871b          	sext.w	a4,a5
ffffffc0504003e0:	478d                	li	a5,3
ffffffc0504003e2:	00e7f863          	bgeu	a5,a4,ffffffc0504003f2 <load_elf+0x48>
ffffffc0504003e6:	fa843503          	ld	a0,-88(s0)
ffffffc0504003ea:	f67ff0ef          	jal	ra,ffffffc050400350 <is_elf_format>
ffffffc0504003ee:	87aa                	mv	a5,a0
ffffffc0504003f0:	e399                	bnez	a5,ffffffc0504003f6 <load_elf+0x4c>
ffffffc0504003f2:	4781                	li	a5,0
ffffffc0504003f4:	a269                	j	ffffffc05040057e <load_elf+0x1d4>
ffffffc0504003f6:	fd043783          	ld	a5,-48(s0)
ffffffc0504003fa:	739c                	ld	a5,32(a5)
ffffffc0504003fc:	fa843703          	ld	a4,-88(s0)
ffffffc050400400:	97ba                	add	a5,a5,a4
ffffffc050400402:	fef43423          	sd	a5,-24(s0)
ffffffc050400406:	fd043783          	ld	a5,-48(s0)
ffffffc05040040a:	0387d783          	lhu	a5,56(a5)
ffffffc05040040e:	fef41323          	sh	a5,-26(s0)
ffffffc050400412:	fd043783          	ld	a5,-48(s0)
ffffffc050400416:	0367d783          	lhu	a5,54(a5)
ffffffc05040041a:	fcf41323          	sh	a5,-58(s0)
ffffffc05040041e:	a2a9                	j	ffffffc050400568 <load_elf+0x1be>
ffffffc050400420:	fe843783          	ld	a5,-24(s0)
ffffffc050400424:	fcf43423          	sd	a5,-56(s0)
ffffffc050400428:	fc843783          	ld	a5,-56(s0)
ffffffc05040042c:	439c                	lw	a5,0(a5)
ffffffc05040042e:	873e                	mv	a4,a5
ffffffc050400430:	4785                	li	a5,1
ffffffc050400432:	12f71463          	bne	a4,a5,ffffffc05040055a <load_elf+0x1b0>
ffffffc050400436:	fe042023          	sw	zero,-32(s0)
ffffffc05040043a:	aa09                	j	ffffffc05040054c <load_elf+0x1a2>
ffffffc05040043c:	fe042703          	lw	a4,-32(s0)
ffffffc050400440:	fc843783          	ld	a5,-56(s0)
ffffffc050400444:	739c                	ld	a5,32(a5)
ffffffc050400446:	0af77563          	bgeu	a4,a5,ffffffc0504004f0 <load_elf+0x146>
ffffffc05040044a:	fc843783          	ld	a5,-56(s0)
ffffffc05040044e:	6b98                	ld	a4,16(a5)
ffffffc050400450:	fe042783          	lw	a5,-32(s0)
ffffffc050400454:	97ba                	add	a5,a5,a4
ffffffc050400456:	f9043703          	ld	a4,-112(s0)
ffffffc05040045a:	4601                	li	a2,0
ffffffc05040045c:	f9843583          	ld	a1,-104(s0)
ffffffc050400460:	853e                	mv	a0,a5
ffffffc050400462:	9702                	jalr	a4
ffffffc050400464:	87aa                	mv	a5,a0
ffffffc050400466:	faf43823          	sd	a5,-80(s0)
ffffffc05040046a:	fc843783          	ld	a5,-56(s0)
ffffffc05040046e:	6798                	ld	a4,8(a5)
ffffffc050400470:	fe042783          	lw	a5,-32(s0)
ffffffc050400474:	97ba                	add	a5,a5,a4
ffffffc050400476:	fa843703          	ld	a4,-88(s0)
ffffffc05040047a:	00f706b3          	add	a3,a4,a5
ffffffc05040047e:	fc843783          	ld	a5,-56(s0)
ffffffc050400482:	7398                	ld	a4,32(a5)
ffffffc050400484:	fe042783          	lw	a5,-32(s0)
ffffffc050400488:	40f707b3          	sub	a5,a4,a5
ffffffc05040048c:	6705                	lui	a4,0x1
ffffffc05040048e:	00f77363          	bgeu	a4,a5,ffffffc050400494 <load_elf+0xea>
ffffffc050400492:	6785                	lui	a5,0x1
ffffffc050400494:	2781                	sext.w	a5,a5
ffffffc050400496:	863e                	mv	a2,a5
ffffffc050400498:	85b6                	mv	a1,a3
ffffffc05040049a:	fb043503          	ld	a0,-80(s0)
ffffffc05040049e:	09d0b0ef          	jal	ra,ffffffc05040bd3a <kmemcpy>
ffffffc0504004a2:	fc843783          	ld	a5,-56(s0)
ffffffc0504004a6:	7398                	ld	a4,32(a5)
ffffffc0504004a8:	fe042783          	lw	a5,-32(s0)
ffffffc0504004ac:	8f1d                	sub	a4,a4,a5
ffffffc0504004ae:	6785                	lui	a5,0x1
ffffffc0504004b0:	08f77763          	bgeu	a4,a5,ffffffc05040053e <load_elf+0x194>
ffffffc0504004b4:	fc843783          	ld	a5,-56(s0)
ffffffc0504004b8:	739c                	ld	a5,32(a5)
ffffffc0504004ba:	0007871b          	sext.w	a4,a5
ffffffc0504004be:	6785                	lui	a5,0x1
ffffffc0504004c0:	17fd                	addi	a5,a5,-1
ffffffc0504004c2:	8ff9                	and	a5,a5,a4
ffffffc0504004c4:	fcf42e23          	sw	a5,-36(s0)
ffffffc0504004c8:	a829                	j	ffffffc0504004e2 <load_elf+0x138>
ffffffc0504004ca:	fdc42783          	lw	a5,-36(s0)
ffffffc0504004ce:	fb043703          	ld	a4,-80(s0)
ffffffc0504004d2:	97ba                	add	a5,a5,a4
ffffffc0504004d4:	00078023          	sb	zero,0(a5) # 1000 <_start-0xffffffc0503ff000>
ffffffc0504004d8:	fdc42783          	lw	a5,-36(s0)
ffffffc0504004dc:	2785                	addiw	a5,a5,1
ffffffc0504004de:	fcf42e23          	sw	a5,-36(s0)
ffffffc0504004e2:	fdc42783          	lw	a5,-36(s0)
ffffffc0504004e6:	873e                	mv	a4,a5
ffffffc0504004e8:	6785                	lui	a5,0x1
ffffffc0504004ea:	fef760e3          	bltu	a4,a5,ffffffc0504004ca <load_elf+0x120>
ffffffc0504004ee:	a881                	j	ffffffc05040053e <load_elf+0x194>
ffffffc0504004f0:	fc843783          	ld	a5,-56(s0)
ffffffc0504004f4:	6b98                	ld	a4,16(a5)
ffffffc0504004f6:	fe042783          	lw	a5,-32(s0)
ffffffc0504004fa:	97ba                	add	a5,a5,a4
ffffffc0504004fc:	f9043703          	ld	a4,-112(s0)
ffffffc050400500:	4601                	li	a2,0
ffffffc050400502:	f9843583          	ld	a1,-104(s0)
ffffffc050400506:	853e                	mv	a0,a5
ffffffc050400508:	9702                	jalr	a4
ffffffc05040050a:	87aa                	mv	a5,a0
ffffffc05040050c:	faf43c23          	sd	a5,-72(s0)
ffffffc050400510:	fc042c23          	sw	zero,-40(s0)
ffffffc050400514:	a831                	j	ffffffc050400530 <load_elf+0x186>
ffffffc050400516:	fd842783          	lw	a5,-40(s0)
ffffffc05040051a:	078e                	slli	a5,a5,0x3
ffffffc05040051c:	fb843703          	ld	a4,-72(s0)
ffffffc050400520:	97ba                	add	a5,a5,a4
ffffffc050400522:	0007b023          	sd	zero,0(a5) # 1000 <_start-0xffffffc0503ff000>
ffffffc050400526:	fd842783          	lw	a5,-40(s0)
ffffffc05040052a:	2785                	addiw	a5,a5,1
ffffffc05040052c:	fcf42c23          	sw	a5,-40(s0)
ffffffc050400530:	fd842783          	lw	a5,-40(s0)
ffffffc050400534:	873e                	mv	a4,a5
ffffffc050400536:	1ff00793          	li	a5,511
ffffffc05040053a:	fce7fee3          	bgeu	a5,a4,ffffffc050400516 <load_elf+0x16c>
ffffffc05040053e:	fe042703          	lw	a4,-32(s0)
ffffffc050400542:	6785                	lui	a5,0x1
ffffffc050400544:	9fb9                	addw	a5,a5,a4
ffffffc050400546:	2781                	sext.w	a5,a5
ffffffc050400548:	fef42023          	sw	a5,-32(s0)
ffffffc05040054c:	fe042703          	lw	a4,-32(s0)
ffffffc050400550:	fc843783          	ld	a5,-56(s0)
ffffffc050400554:	779c                	ld	a5,40(a5)
ffffffc050400556:	eef763e3          	bltu	a4,a5,ffffffc05040043c <load_elf+0x92>
ffffffc05040055a:	fc645783          	lhu	a5,-58(s0)
ffffffc05040055e:	fe843703          	ld	a4,-24(s0)
ffffffc050400562:	97ba                	add	a5,a5,a4
ffffffc050400564:	fef43423          	sd	a5,-24(s0)
ffffffc050400568:	fe645783          	lhu	a5,-26(s0)
ffffffc05040056c:	fff7871b          	addiw	a4,a5,-1
ffffffc050400570:	fee41323          	sh	a4,-26(s0)
ffffffc050400574:	ea0796e3          	bnez	a5,ffffffc050400420 <load_elf+0x76>
ffffffc050400578:	fd043783          	ld	a5,-48(s0)
ffffffc05040057c:	6f9c                	ld	a5,24(a5)
ffffffc05040057e:	853e                	mv	a0,a5
ffffffc050400580:	70a6                	ld	ra,104(sp)
ffffffc050400582:	7406                	ld	s0,96(sp)
ffffffc050400584:	6165                	addi	sp,sp,112
ffffffc050400586:	8082                	ret

ffffffc050400588 <_panic>:
ffffffc050400588:	7179                	addi	sp,sp,-48
ffffffc05040058a:	f406                	sd	ra,40(sp)
ffffffc05040058c:	f022                	sd	s0,32(sp)
ffffffc05040058e:	1800                	addi	s0,sp,48
ffffffc050400590:	fea43423          	sd	a0,-24(s0)
ffffffc050400594:	87ae                	mv	a5,a1
ffffffc050400596:	fcc43c23          	sd	a2,-40(s0)
ffffffc05040059a:	fef42223          	sw	a5,-28(s0)
ffffffc05040059e:	fe442783          	lw	a5,-28(s0)
ffffffc0504005a2:	86be                	mv	a3,a5
ffffffc0504005a4:	fe843603          	ld	a2,-24(s0)
ffffffc0504005a8:	fd843583          	ld	a1,-40(s0)
ffffffc0504005ac:	0000c517          	auipc	a0,0xc
ffffffc0504005b0:	3c450513          	addi	a0,a0,964 # ffffffc05040c970 <get_elf_file+0xa6>
ffffffc0504005b4:	2360c0ef          	jal	ra,ffffffc05040c7ea <printk>
ffffffc0504005b8:	a001                	j	ffffffc0504005b8 <_panic+0x30>

ffffffc0504005ba <init_pcb_stack>:
ffffffc0504005ba:	7131                	addi	sp,sp,-192
ffffffc0504005bc:	fd06                	sd	ra,184(sp)
ffffffc0504005be:	f922                	sd	s0,176(sp)
ffffffc0504005c0:	0180                	addi	s0,sp,192
ffffffc0504005c2:	f6a43c23          	sd	a0,-136(s0)
ffffffc0504005c6:	f6b43823          	sd	a1,-144(s0)
ffffffc0504005ca:	f6c43423          	sd	a2,-152(s0)
ffffffc0504005ce:	f6d43023          	sd	a3,-160(s0)
ffffffc0504005d2:	f4f43823          	sd	a5,-176(s0)
ffffffc0504005d6:	f5043423          	sd	a6,-184(s0)
ffffffc0504005da:	87ba                	mv	a5,a4
ffffffc0504005dc:	f4f42e23          	sw	a5,-164(s0)
ffffffc0504005e0:	fe042623          	sw	zero,-20(s0)
ffffffc0504005e4:	a059                	j	ffffffc05040066a <init_pcb_stack+0xb0>
ffffffc0504005e6:	fec42783          	lw	a5,-20(s0)
ffffffc0504005ea:	078e                	slli	a5,a5,0x3
ffffffc0504005ec:	f5043703          	ld	a4,-176(s0)
ffffffc0504005f0:	97ba                	add	a5,a5,a4
ffffffc0504005f2:	639c                	ld	a5,0(a5)
ffffffc0504005f4:	853e                	mv	a0,a5
ffffffc0504005f6:	70e0b0ef          	jal	ra,ffffffc05040bd04 <kstrlen>
ffffffc0504005fa:	87aa                	mv	a5,a0
ffffffc0504005fc:	2785                	addiw	a5,a5,1
ffffffc0504005fe:	fcf42a23          	sw	a5,-44(s0)
ffffffc050400602:	fd442783          	lw	a5,-44(s0)
ffffffc050400606:	f6043703          	ld	a4,-160(s0)
ffffffc05040060a:	40f707b3          	sub	a5,a4,a5
ffffffc05040060e:	86be                	mv	a3,a5
ffffffc050400610:	fec42783          	lw	a5,-20(s0)
ffffffc050400614:	078e                	slli	a5,a5,0x3
ffffffc050400616:	f5043703          	ld	a4,-176(s0)
ffffffc05040061a:	97ba                	add	a5,a5,a4
ffffffc05040061c:	639c                	ld	a5,0(a5)
ffffffc05040061e:	fd442703          	lw	a4,-44(s0)
ffffffc050400622:	863a                	mv	a2,a4
ffffffc050400624:	85be                	mv	a1,a5
ffffffc050400626:	8536                	mv	a0,a3
ffffffc050400628:	7120b0ef          	jal	ra,ffffffc05040bd3a <kmemcpy>
ffffffc05040062c:	fd442783          	lw	a5,-44(s0)
ffffffc050400630:	f6043703          	ld	a4,-160(s0)
ffffffc050400634:	40f707b3          	sub	a5,a4,a5
ffffffc050400638:	f6f43023          	sd	a5,-160(s0)
ffffffc05040063c:	fd442783          	lw	a5,-44(s0)
ffffffc050400640:	f7043703          	ld	a4,-144(s0)
ffffffc050400644:	40f707b3          	sub	a5,a4,a5
ffffffc050400648:	f6f43823          	sd	a5,-144(s0)
ffffffc05040064c:	f7043703          	ld	a4,-144(s0)
ffffffc050400650:	fec42783          	lw	a5,-20(s0)
ffffffc050400654:	078e                	slli	a5,a5,0x3
ffffffc050400656:	ff040693          	addi	a3,s0,-16
ffffffc05040065a:	97b6                	add	a5,a5,a3
ffffffc05040065c:	f8e7b823          	sd	a4,-112(a5) # f90 <_start-0xffffffc0503ff070>
ffffffc050400660:	fec42783          	lw	a5,-20(s0)
ffffffc050400664:	2785                	addiw	a5,a5,1
ffffffc050400666:	fef42623          	sw	a5,-20(s0)
ffffffc05040066a:	fec42703          	lw	a4,-20(s0)
ffffffc05040066e:	f5c42783          	lw	a5,-164(s0)
ffffffc050400672:	2701                	sext.w	a4,a4
ffffffc050400674:	2781                	sext.w	a5,a5
ffffffc050400676:	f6f748e3          	blt	a4,a5,ffffffc0504005e6 <init_pcb_stack+0x2c>
ffffffc05040067a:	f5c42783          	lw	a5,-164(s0)
ffffffc05040067e:	0037979b          	slliw	a5,a5,0x3
ffffffc050400682:	2781                	sext.w	a5,a5
ffffffc050400684:	873e                	mv	a4,a5
ffffffc050400686:	f6043783          	ld	a5,-160(s0)
ffffffc05040068a:	8f99                	sub	a5,a5,a4
ffffffc05040068c:	86be                	mv	a3,a5
ffffffc05040068e:	f5c42783          	lw	a5,-164(s0)
ffffffc050400692:	0037979b          	slliw	a5,a5,0x3
ffffffc050400696:	2781                	sext.w	a5,a5
ffffffc050400698:	0007871b          	sext.w	a4,a5
ffffffc05040069c:	f8040793          	addi	a5,s0,-128
ffffffc0504006a0:	863a                	mv	a2,a4
ffffffc0504006a2:	85be                	mv	a1,a5
ffffffc0504006a4:	8536                	mv	a0,a3
ffffffc0504006a6:	6940b0ef          	jal	ra,ffffffc05040bd3a <kmemcpy>
ffffffc0504006aa:	f5c42783          	lw	a5,-164(s0)
ffffffc0504006ae:	0037979b          	slliw	a5,a5,0x3
ffffffc0504006b2:	2781                	sext.w	a5,a5
ffffffc0504006b4:	873e                	mv	a4,a5
ffffffc0504006b6:	f7043783          	ld	a5,-144(s0)
ffffffc0504006ba:	8f99                	sub	a5,a5,a4
ffffffc0504006bc:	f6f43823          	sd	a5,-144(s0)
ffffffc0504006c0:	f7843783          	ld	a5,-136(s0)
ffffffc0504006c4:	ee078793          	addi	a5,a5,-288
ffffffc0504006c8:	fef43023          	sd	a5,-32(s0)
ffffffc0504006cc:	f7043783          	ld	a5,-144(s0)
ffffffc0504006d0:	f807f713          	andi	a4,a5,-128
ffffffc0504006d4:	fe043783          	ld	a5,-32(s0)
ffffffc0504006d8:	eb98                	sd	a4,16(a5)
ffffffc0504006da:	00018713          	mv	a4,gp
ffffffc0504006de:	fe043783          	ld	a5,-32(s0)
ffffffc0504006e2:	ef98                	sd	a4,24(a5)
ffffffc0504006e4:	f4843703          	ld	a4,-184(s0)
ffffffc0504006e8:	fe043783          	ld	a5,-32(s0)
ffffffc0504006ec:	f398                	sd	a4,32(a5)
ffffffc0504006ee:	f5c42703          	lw	a4,-164(s0)
ffffffc0504006f2:	fe043783          	ld	a5,-32(s0)
ffffffc0504006f6:	ebb8                	sd	a4,80(a5)
ffffffc0504006f8:	fe043783          	ld	a5,-32(s0)
ffffffc0504006fc:	f7043703          	ld	a4,-144(s0)
ffffffc050400700:	efb8                	sd	a4,88(a5)
ffffffc050400702:	fe043783          	ld	a5,-32(s0)
ffffffc050400706:	f6843703          	ld	a4,-152(s0)
ffffffc05040070a:	10e7b423          	sd	a4,264(a5)
ffffffc05040070e:	fe043783          	ld	a5,-32(s0)
ffffffc050400712:	00040737          	lui	a4,0x40
ffffffc050400716:	10e7b023          	sd	a4,256(a5)
ffffffc05040071a:	fe043783          	ld	a5,-32(s0)
ffffffc05040071e:	1007bc23          	sd	zero,280(a5)
ffffffc050400722:	fe043783          	ld	a5,-32(s0)
ffffffc050400726:	1007b823          	sd	zero,272(a5)
ffffffc05040072a:	f7843783          	ld	a5,-136(s0)
ffffffc05040072e:	e7078713          	addi	a4,a5,-400
ffffffc050400732:	f4843783          	ld	a5,-184(s0)
ffffffc050400736:	e398                	sd	a4,0(a5)
ffffffc050400738:	f7043783          	ld	a5,-144(s0)
ffffffc05040073c:	f807f713          	andi	a4,a5,-128
ffffffc050400740:	f4843783          	ld	a5,-184(s0)
ffffffc050400744:	e798                	sd	a4,8(a5)
ffffffc050400746:	f4843783          	ld	a5,-184(s0)
ffffffc05040074a:	639c                	ld	a5,0(a5)
ffffffc05040074c:	fcf43c23          	sd	a5,-40(s0)
ffffffc050400750:	00000717          	auipc	a4,0x0
ffffffc050400754:	9ec70713          	addi	a4,a4,-1556 # ffffffc05040013c <ret_from_exception>
ffffffc050400758:	fd843783          	ld	a5,-40(s0)
ffffffc05040075c:	e398                	sd	a4,0(a5)
ffffffc05040075e:	fd843783          	ld	a5,-40(s0)
ffffffc050400762:	f7843703          	ld	a4,-136(s0)
ffffffc050400766:	e798                	sd	a4,8(a5)
ffffffc050400768:	4789                	li	a5,2
ffffffc05040076a:	fef42423          	sw	a5,-24(s0)
ffffffc05040076e:	a831                	j	ffffffc05040078a <init_pcb_stack+0x1d0>
ffffffc050400770:	fd843703          	ld	a4,-40(s0)
ffffffc050400774:	fe842783          	lw	a5,-24(s0)
ffffffc050400778:	078e                	slli	a5,a5,0x3
ffffffc05040077a:	97ba                	add	a5,a5,a4
ffffffc05040077c:	0007b023          	sd	zero,0(a5)
ffffffc050400780:	fe842783          	lw	a5,-24(s0)
ffffffc050400784:	2785                	addiw	a5,a5,1
ffffffc050400786:	fef42423          	sw	a5,-24(s0)
ffffffc05040078a:	fe842783          	lw	a5,-24(s0)
ffffffc05040078e:	0007871b          	sext.w	a4,a5
ffffffc050400792:	47b5                	li	a5,13
ffffffc050400794:	fce7dee3          	bge	a5,a4,ffffffc050400770 <init_pcb_stack+0x1b6>
ffffffc050400798:	0001                	nop
ffffffc05040079a:	0001                	nop
ffffffc05040079c:	70ea                	ld	ra,184(sp)
ffffffc05040079e:	744a                	ld	s0,176(sp)
ffffffc0504007a0:	6129                	addi	sp,sp,192
ffffffc0504007a2:	8082                	ret

ffffffc0504007a4 <init_pcb>:
ffffffc0504007a4:	715d                	addi	sp,sp,-80
ffffffc0504007a6:	e486                	sd	ra,72(sp)
ffffffc0504007a8:	e0a2                	sd	s0,64(sp)
ffffffc0504007aa:	0880                	addi	s0,sp,80
ffffffc0504007ac:	00800797          	auipc	a5,0x800
ffffffc0504007b0:	e4c78793          	addi	a5,a5,-436 # ffffffc050c005f8 <current_running>
ffffffc0504007b4:	0000d717          	auipc	a4,0xd
ffffffc0504007b8:	1ac70713          	addi	a4,a4,428 # ffffffc05040d960 <pid0_pcb_m>
ffffffc0504007bc:	e398                	sd	a4,0(a5)
ffffffc0504007be:	00800797          	auipc	a5,0x800
ffffffc0504007c2:	e3a78793          	addi	a5,a5,-454 # ffffffc050c005f8 <current_running>
ffffffc0504007c6:	0000d717          	auipc	a4,0xd
ffffffc0504007ca:	23270713          	addi	a4,a4,562 # ffffffc05040d9f8 <pid0_pcb_s>
ffffffc0504007ce:	e798                	sd	a4,8(a5)
ffffffc0504007d0:	00800517          	auipc	a0,0x800
ffffffc0504007d4:	e1850513          	addi	a0,a0,-488 # ffffffc050c005e8 <ready_queue>
ffffffc0504007d8:	364080ef          	jal	ra,ffffffc050408b3c <list_init>
ffffffc0504007dc:	fe042623          	sw	zero,-20(s0)
ffffffc0504007e0:	a01d                	j	ffffffc050400806 <init_pcb+0x62>
ffffffc0504007e2:	00800717          	auipc	a4,0x800
ffffffc0504007e6:	f1670713          	addi	a4,a4,-234 # ffffffc050c006f8 <pcb>
ffffffc0504007ea:	fec42683          	lw	a3,-20(s0)
ffffffc0504007ee:	09800793          	li	a5,152
ffffffc0504007f2:	02f687b3          	mul	a5,a3,a5
ffffffc0504007f6:	97ba                	add	a5,a5,a4
ffffffc0504007f8:	0407a423          	sw	zero,72(a5)
ffffffc0504007fc:	fec42783          	lw	a5,-20(s0)
ffffffc050400800:	2785                	addiw	a5,a5,1
ffffffc050400802:	fef42623          	sw	a5,-20(s0)
ffffffc050400806:	fec42783          	lw	a5,-20(s0)
ffffffc05040080a:	0007871b          	sext.w	a4,a5
ffffffc05040080e:	47bd                	li	a5,15
ffffffc050400810:	fce7d9e3          	bge	a5,a4,ffffffc0504007e2 <init_pcb+0x3e>
ffffffc050400814:	fbc40713          	addi	a4,s0,-68
ffffffc050400818:	fc040793          	addi	a5,s0,-64
ffffffc05040081c:	863a                	mv	a2,a4
ffffffc05040081e:	85be                	mv	a1,a5
ffffffc050400820:	0000c517          	auipc	a0,0xc
ffffffc050400824:	17850513          	addi	a0,a0,376 # ffffffc05040c998 <get_elf_file+0xce>
ffffffc050400828:	0a20c0ef          	jal	ra,ffffffc05040c8ca <get_elf_file>
ffffffc05040082c:	1c40b0ef          	jal	ra,ffffffc05040b9f0 <create_pt>
ffffffc050400830:	fea43023          	sd	a0,-32(s0)
ffffffc050400834:	5e0005b7          	lui	a1,0x5e000
ffffffc050400838:	fe043503          	ld	a0,-32(s0)
ffffffc05040083c:	5db0a0ef          	jal	ra,ffffffc05040b616 <share_pgtable>
ffffffc050400840:	4601                	li	a2,0
ffffffc050400842:	fe043583          	ld	a1,-32(s0)
ffffffc050400846:	00f007b7          	lui	a5,0xf00
ffffffc05040084a:	07bd                	addi	a5,a5,15
ffffffc05040084c:	00c79513          	slli	a0,a5,0xc
ffffffc050400850:	0fc0b0ef          	jal	ra,ffffffc05040b94c <alloc_page_helper>
ffffffc050400854:	fca43c23          	sd	a0,-40(s0)
ffffffc050400858:	4581                	li	a1,0
ffffffc05040085a:	4505                	li	a0,1
ffffffc05040085c:	747090ef          	jal	ra,ffffffc05040a7a2 <allocPage>
ffffffc050400860:	87aa                	mv	a5,a0
ffffffc050400862:	853e                	mv	a0,a5
ffffffc050400864:	ad1ff0ef          	jal	ra,ffffffc050400334 <pa2kva>
ffffffc050400868:	fca43823          	sd	a0,-48(s0)
ffffffc05040086c:	fc043783          	ld	a5,-64(s0)
ffffffc050400870:	fbc42703          	lw	a4,-68(s0)
ffffffc050400874:	2701                	sext.w	a4,a4
ffffffc050400876:	0000b697          	auipc	a3,0xb
ffffffc05040087a:	0d668693          	addi	a3,a3,214 # ffffffc05040b94c <alloc_page_helper>
ffffffc05040087e:	fe043603          	ld	a2,-32(s0)
ffffffc050400882:	85ba                	mv	a1,a4
ffffffc050400884:	853e                	mv	a0,a5
ffffffc050400886:	b25ff0ef          	jal	ra,ffffffc0504003aa <load_elf>
ffffffc05040088a:	fca43423          	sd	a0,-56(s0)
ffffffc05040088e:	00800797          	auipc	a5,0x800
ffffffc050400892:	e6a78793          	addi	a5,a5,-406 # ffffffc050c006f8 <pcb>
ffffffc050400896:	470d                	li	a4,3
ffffffc050400898:	cfb8                	sw	a4,88(a5)
ffffffc05040089a:	00800797          	auipc	a5,0x800
ffffffc05040089e:	e5e78793          	addi	a5,a5,-418 # ffffffc050c006f8 <pcb>
ffffffc0504008a2:	0607aa23          	sw	zero,116(a5)
ffffffc0504008a6:	fd043703          	ld	a4,-48(s0)
ffffffc0504008aa:	6785                	lui	a5,0x1
ffffffc0504008ac:	973e                	add	a4,a4,a5
ffffffc0504008ae:	00800797          	auipc	a5,0x800
ffffffc0504008b2:	e4a78793          	addi	a5,a5,-438 # ffffffc050c006f8 <pcb>
ffffffc0504008b6:	e398                	sd	a4,0(a5)
ffffffc0504008b8:	00800797          	auipc	a5,0x800
ffffffc0504008bc:	e4078793          	addi	a5,a5,-448 # ffffffc050c006f8 <pcb>
ffffffc0504008c0:	000f0737          	lui	a4,0xf0
ffffffc0504008c4:	0705                	addi	a4,a4,1
ffffffc0504008c6:	0742                	slli	a4,a4,0x10
ffffffc0504008c8:	e798                	sd	a4,8(a5)
ffffffc0504008ca:	00800717          	auipc	a4,0x800
ffffffc0504008ce:	e2e70713          	addi	a4,a4,-466 # ffffffc050c006f8 <pcb>
ffffffc0504008d2:	fec42683          	lw	a3,-20(s0)
ffffffc0504008d6:	09800793          	li	a5,152
ffffffc0504008da:	02f687b3          	mul	a5,a3,a5
ffffffc0504008de:	97ba                	add	a5,a5,a4
ffffffc0504008e0:	6398                	ld	a4,0(a5)
ffffffc0504008e2:	00800797          	auipc	a5,0x800
ffffffc0504008e6:	e1678793          	addi	a5,a5,-490 # ffffffc050c006f8 <pcb>
ffffffc0504008ea:	ff98                	sd	a4,56(a5)
ffffffc0504008ec:	00800717          	auipc	a4,0x800
ffffffc0504008f0:	e0c70713          	addi	a4,a4,-500 # ffffffc050c006f8 <pcb>
ffffffc0504008f4:	fec42683          	lw	a3,-20(s0)
ffffffc0504008f8:	09800793          	li	a5,152
ffffffc0504008fc:	02f687b3          	mul	a5,a3,a5
ffffffc050400900:	97ba                	add	a5,a5,a4
ffffffc050400902:	6798                	ld	a4,8(a5)
ffffffc050400904:	00800797          	auipc	a5,0x800
ffffffc050400908:	df478793          	addi	a5,a5,-524 # ffffffc050c006f8 <pcb>
ffffffc05040090c:	e3b8                	sd	a4,64(a5)
ffffffc05040090e:	00800797          	auipc	a5,0x800
ffffffc050400912:	dea78793          	addi	a5,a5,-534 # ffffffc050c006f8 <pcb>
ffffffc050400916:	4705                	li	a4,1
ffffffc050400918:	c7b8                	sw	a4,72(a5)
ffffffc05040091a:	00800797          	auipc	a5,0x800
ffffffc05040091e:	dde78793          	addi	a5,a5,-546 # ffffffc050c006f8 <pcb>
ffffffc050400922:	4709                	li	a4,2
ffffffc050400924:	dff8                	sw	a4,124(a5)
ffffffc050400926:	00800797          	auipc	a5,0x800
ffffffc05040092a:	dd278793          	addi	a5,a5,-558 # ffffffc050c006f8 <pcb>
ffffffc05040092e:	4709                	li	a4,2
ffffffc050400930:	08e7a023          	sw	a4,128(a5)
ffffffc050400934:	00800797          	auipc	a5,0x800
ffffffc050400938:	dc478793          	addi	a5,a5,-572 # ffffffc050c006f8 <pcb>
ffffffc05040093c:	4705                	li	a4,1
ffffffc05040093e:	08e7a223          	sw	a4,132(a5)
ffffffc050400942:	00800797          	auipc	a5,0x800
ffffffc050400946:	db678793          	addi	a5,a5,-586 # ffffffc050c006f8 <pcb>
ffffffc05040094a:	47bc                	lw	a5,72(a5)
ffffffc05040094c:	02c79713          	slli	a4,a5,0x2c
ffffffc050400950:	fe043783          	ld	a5,-32(s0)
ffffffc050400954:	83b1                	srli	a5,a5,0xc
ffffffc050400956:	8f5d                	or	a4,a4,a5
ffffffc050400958:	57fd                	li	a5,-1
ffffffc05040095a:	17fe                	slli	a5,a5,0x3f
ffffffc05040095c:	8f5d                	or	a4,a4,a5
ffffffc05040095e:	00800797          	auipc	a5,0x800
ffffffc050400962:	d9a78793          	addi	a5,a5,-614 # ffffffc050c006f8 <pcb>
ffffffc050400966:	eb98                	sd	a4,16(a5)
ffffffc050400968:	00800517          	auipc	a0,0x800
ffffffc05040096c:	db850513          	addi	a0,a0,-584 # ffffffc050c00720 <pcb+0x28>
ffffffc050400970:	1cc080ef          	jal	ra,ffffffc050408b3c <list_init>
ffffffc050400974:	00800797          	auipc	a5,0x800
ffffffc050400978:	d8478793          	addi	a5,a5,-636 # ffffffc050c006f8 <pcb>
ffffffc05040097c:	6388                	ld	a0,0(a5)
ffffffc05040097e:	00800797          	auipc	a5,0x800
ffffffc050400982:	d7a78793          	addi	a5,a5,-646 # ffffffc050c006f8 <pcb>
ffffffc050400986:	678c                	ld	a1,8(a5)
ffffffc050400988:	00800817          	auipc	a6,0x800
ffffffc05040098c:	d7080813          	addi	a6,a6,-656 # ffffffc050c006f8 <pcb>
ffffffc050400990:	4781                	li	a5,0
ffffffc050400992:	4701                	li	a4,0
ffffffc050400994:	4681                	li	a3,0
ffffffc050400996:	fc843603          	ld	a2,-56(s0)
ffffffc05040099a:	c21ff0ef          	jal	ra,ffffffc0504005ba <init_pcb_stack>
ffffffc05040099e:	00800597          	auipc	a1,0x800
ffffffc0504009a2:	d5a58593          	addi	a1,a1,-678 # ffffffc050c006f8 <pcb>
ffffffc0504009a6:	00800517          	auipc	a0,0x800
ffffffc0504009aa:	c4250513          	addi	a0,a0,-958 # ffffffc050c005e8 <ready_queue>
ffffffc0504009ae:	23e080ef          	jal	ra,ffffffc050408bec <in_queue>
ffffffc0504009b2:	0001                	nop
ffffffc0504009b4:	60a6                	ld	ra,72(sp)
ffffffc0504009b6:	6406                	ld	s0,64(sp)
ffffffc0504009b8:	6161                	addi	sp,sp,80
ffffffc0504009ba:	8082                	ret

ffffffc0504009bc <do_exec>:
ffffffc0504009bc:	7159                	addi	sp,sp,-112
ffffffc0504009be:	f486                	sd	ra,104(sp)
ffffffc0504009c0:	f0a2                	sd	s0,96(sp)
ffffffc0504009c2:	1880                	addi	s0,sp,112
ffffffc0504009c4:	faa43423          	sd	a0,-88(s0)
ffffffc0504009c8:	87ae                	mv	a5,a1
ffffffc0504009ca:	f8c43c23          	sd	a2,-104(s0)
ffffffc0504009ce:	8736                	mv	a4,a3
ffffffc0504009d0:	faf42223          	sw	a5,-92(s0)
ffffffc0504009d4:	87ba                	mv	a5,a4
ffffffc0504009d6:	faf42023          	sw	a5,-96(s0)
ffffffc0504009da:	fb440713          	addi	a4,s0,-76
ffffffc0504009de:	fb840793          	addi	a5,s0,-72
ffffffc0504009e2:	863a                	mv	a2,a4
ffffffc0504009e4:	85be                	mv	a1,a5
ffffffc0504009e6:	fa843503          	ld	a0,-88(s0)
ffffffc0504009ea:	6e10b0ef          	jal	ra,ffffffc05040c8ca <get_elf_file>
ffffffc0504009ee:	0020b0ef          	jal	ra,ffffffc05040b9f0 <create_pt>
ffffffc0504009f2:	fea43023          	sd	a0,-32(s0)
ffffffc0504009f6:	5e0005b7          	lui	a1,0x5e000
ffffffc0504009fa:	fe043503          	ld	a0,-32(s0)
ffffffc0504009fe:	4190a0ef          	jal	ra,ffffffc05040b616 <share_pgtable>
ffffffc050400a02:	4601                	li	a2,0
ffffffc050400a04:	fe043583          	ld	a1,-32(s0)
ffffffc050400a08:	00f007b7          	lui	a5,0xf00
ffffffc050400a0c:	07bd                	addi	a5,a5,15
ffffffc050400a0e:	00c79513          	slli	a0,a5,0xc
ffffffc050400a12:	73b0a0ef          	jal	ra,ffffffc05040b94c <alloc_page_helper>
ffffffc050400a16:	fca43c23          	sd	a0,-40(s0)
ffffffc050400a1a:	4581                	li	a1,0
ffffffc050400a1c:	4505                	li	a0,1
ffffffc050400a1e:	585090ef          	jal	ra,ffffffc05040a7a2 <allocPage>
ffffffc050400a22:	87aa                	mv	a5,a0
ffffffc050400a24:	853e                	mv	a0,a5
ffffffc050400a26:	90fff0ef          	jal	ra,ffffffc050400334 <pa2kva>
ffffffc050400a2a:	fca43823          	sd	a0,-48(s0)
ffffffc050400a2e:	fb843783          	ld	a5,-72(s0)
ffffffc050400a32:	fb442703          	lw	a4,-76(s0)
ffffffc050400a36:	2701                	sext.w	a4,a4
ffffffc050400a38:	0000b697          	auipc	a3,0xb
ffffffc050400a3c:	f1468693          	addi	a3,a3,-236 # ffffffc05040b94c <alloc_page_helper>
ffffffc050400a40:	fe043603          	ld	a2,-32(s0)
ffffffc050400a44:	85ba                	mv	a1,a4
ffffffc050400a46:	853e                	mv	a0,a5
ffffffc050400a48:	963ff0ef          	jal	ra,ffffffc0504003aa <load_elf>
ffffffc050400a4c:	fca43423          	sd	a0,-56(s0)
ffffffc050400a50:	fe042623          	sw	zero,-20(s0)
ffffffc050400a54:	a01d                	j	ffffffc050400a7a <do_exec+0xbe>
ffffffc050400a56:	00800717          	auipc	a4,0x800
ffffffc050400a5a:	ca270713          	addi	a4,a4,-862 # ffffffc050c006f8 <pcb>
ffffffc050400a5e:	fec42683          	lw	a3,-20(s0)
ffffffc050400a62:	09800793          	li	a5,152
ffffffc050400a66:	02f687b3          	mul	a5,a3,a5
ffffffc050400a6a:	97ba                	add	a5,a5,a4
ffffffc050400a6c:	47bc                	lw	a5,72(a5)
ffffffc050400a6e:	cf91                	beqz	a5,ffffffc050400a8a <do_exec+0xce>
ffffffc050400a70:	fec42783          	lw	a5,-20(s0)
ffffffc050400a74:	2785                	addiw	a5,a5,1
ffffffc050400a76:	fef42623          	sw	a5,-20(s0)
ffffffc050400a7a:	fec42783          	lw	a5,-20(s0)
ffffffc050400a7e:	0007871b          	sext.w	a4,a5
ffffffc050400a82:	47bd                	li	a5,15
ffffffc050400a84:	fce7d9e3          	bge	a5,a4,ffffffc050400a56 <do_exec+0x9a>
ffffffc050400a88:	a011                	j	ffffffc050400a8c <do_exec+0xd0>
ffffffc050400a8a:	0001                	nop
ffffffc050400a8c:	fec42783          	lw	a5,-20(s0)
ffffffc050400a90:	0007871b          	sext.w	a4,a5
ffffffc050400a94:	47c1                	li	a5,16
ffffffc050400a96:	00f71a63          	bne	a4,a5,ffffffc050400aaa <do_exec+0xee>
ffffffc050400a9a:	0000c517          	auipc	a0,0xc
ffffffc050400a9e:	f0650513          	addi	a0,a0,-250 # ffffffc05040c9a0 <get_elf_file+0xd6>
ffffffc050400aa2:	5d10b0ef          	jal	ra,ffffffc05040c872 <prints>
ffffffc050400aa6:	4781                	li	a5,0
ffffffc050400aa8:	aca9                	j	ffffffc050400d02 <do_exec+0x346>
ffffffc050400aaa:	81fff0ef          	jal	ra,ffffffc0504002c8 <get_current_cpu_id>
ffffffc050400aae:	87aa                	mv	a5,a0
ffffffc050400ab0:	fcf43023          	sd	a5,-64(s0)
ffffffc050400ab4:	00800717          	auipc	a4,0x800
ffffffc050400ab8:	b4470713          	addi	a4,a4,-1212 # ffffffc050c005f8 <current_running>
ffffffc050400abc:	fc043783          	ld	a5,-64(s0)
ffffffc050400ac0:	078e                	slli	a5,a5,0x3
ffffffc050400ac2:	97ba                	add	a5,a5,a4
ffffffc050400ac4:	639c                	ld	a5,0(a5)
ffffffc050400ac6:	4fb8                	lw	a4,88(a5)
ffffffc050400ac8:	00800697          	auipc	a3,0x800
ffffffc050400acc:	c3068693          	addi	a3,a3,-976 # ffffffc050c006f8 <pcb>
ffffffc050400ad0:	fec42603          	lw	a2,-20(s0)
ffffffc050400ad4:	09800793          	li	a5,152
ffffffc050400ad8:	02f607b3          	mul	a5,a2,a5
ffffffc050400adc:	97b6                	add	a5,a5,a3
ffffffc050400ade:	cfb8                	sw	a4,88(a5)
ffffffc050400ae0:	fd043703          	ld	a4,-48(s0)
ffffffc050400ae4:	6785                	lui	a5,0x1
ffffffc050400ae6:	973e                	add	a4,a4,a5
ffffffc050400ae8:	00800697          	auipc	a3,0x800
ffffffc050400aec:	c1068693          	addi	a3,a3,-1008 # ffffffc050c006f8 <pcb>
ffffffc050400af0:	fec42603          	lw	a2,-20(s0)
ffffffc050400af4:	09800793          	li	a5,152
ffffffc050400af8:	02f607b3          	mul	a5,a2,a5
ffffffc050400afc:	97b6                	add	a5,a5,a3
ffffffc050400afe:	e398                	sd	a4,0(a5)
ffffffc050400b00:	00800717          	auipc	a4,0x800
ffffffc050400b04:	bf870713          	addi	a4,a4,-1032 # ffffffc050c006f8 <pcb>
ffffffc050400b08:	fec42683          	lw	a3,-20(s0)
ffffffc050400b0c:	09800793          	li	a5,152
ffffffc050400b10:	02f687b3          	mul	a5,a3,a5
ffffffc050400b14:	97ba                	add	a5,a5,a4
ffffffc050400b16:	000f0737          	lui	a4,0xf0
ffffffc050400b1a:	0705                	addi	a4,a4,1
ffffffc050400b1c:	0742                	slli	a4,a4,0x10
ffffffc050400b1e:	e798                	sd	a4,8(a5)
ffffffc050400b20:	00800717          	auipc	a4,0x800
ffffffc050400b24:	bd870713          	addi	a4,a4,-1064 # ffffffc050c006f8 <pcb>
ffffffc050400b28:	fec42683          	lw	a3,-20(s0)
ffffffc050400b2c:	09800793          	li	a5,152
ffffffc050400b30:	02f687b3          	mul	a5,a3,a5
ffffffc050400b34:	97ba                	add	a5,a5,a4
ffffffc050400b36:	6398                	ld	a4,0(a5)
ffffffc050400b38:	00800697          	auipc	a3,0x800
ffffffc050400b3c:	bc068693          	addi	a3,a3,-1088 # ffffffc050c006f8 <pcb>
ffffffc050400b40:	fec42603          	lw	a2,-20(s0)
ffffffc050400b44:	09800793          	li	a5,152
ffffffc050400b48:	02f607b3          	mul	a5,a2,a5
ffffffc050400b4c:	97b6                	add	a5,a5,a3
ffffffc050400b4e:	ff98                	sd	a4,56(a5)
ffffffc050400b50:	00800717          	auipc	a4,0x800
ffffffc050400b54:	ba870713          	addi	a4,a4,-1112 # ffffffc050c006f8 <pcb>
ffffffc050400b58:	fec42683          	lw	a3,-20(s0)
ffffffc050400b5c:	09800793          	li	a5,152
ffffffc050400b60:	02f687b3          	mul	a5,a3,a5
ffffffc050400b64:	97ba                	add	a5,a5,a4
ffffffc050400b66:	6798                	ld	a4,8(a5)
ffffffc050400b68:	00800697          	auipc	a3,0x800
ffffffc050400b6c:	b9068693          	addi	a3,a3,-1136 # ffffffc050c006f8 <pcb>
ffffffc050400b70:	fec42603          	lw	a2,-20(s0)
ffffffc050400b74:	09800793          	li	a5,152
ffffffc050400b78:	02f607b3          	mul	a5,a2,a5
ffffffc050400b7c:	97b6                	add	a5,a5,a3
ffffffc050400b7e:	e3b8                	sd	a4,64(a5)
ffffffc050400b80:	fec42783          	lw	a5,-20(s0)
ffffffc050400b84:	2785                	addiw	a5,a5,1
ffffffc050400b86:	0007871b          	sext.w	a4,a5
ffffffc050400b8a:	00800697          	auipc	a3,0x800
ffffffc050400b8e:	b6e68693          	addi	a3,a3,-1170 # ffffffc050c006f8 <pcb>
ffffffc050400b92:	fec42603          	lw	a2,-20(s0)
ffffffc050400b96:	09800793          	li	a5,152
ffffffc050400b9a:	02f607b3          	mul	a5,a2,a5
ffffffc050400b9e:	97b6                	add	a5,a5,a3
ffffffc050400ba0:	c7b8                	sw	a4,72(a5)
ffffffc050400ba2:	00800717          	auipc	a4,0x800
ffffffc050400ba6:	b5670713          	addi	a4,a4,-1194 # ffffffc050c006f8 <pcb>
ffffffc050400baa:	fec42683          	lw	a3,-20(s0)
ffffffc050400bae:	09800793          	li	a5,152
ffffffc050400bb2:	02f687b3          	mul	a5,a3,a5
ffffffc050400bb6:	97ba                	add	a5,a5,a4
ffffffc050400bb8:	0607aa23          	sw	zero,116(a5) # 1074 <_start-0xffffffc0503fef8c>
ffffffc050400bbc:	00800717          	auipc	a4,0x800
ffffffc050400bc0:	b3c70713          	addi	a4,a4,-1220 # ffffffc050c006f8 <pcb>
ffffffc050400bc4:	fec42683          	lw	a3,-20(s0)
ffffffc050400bc8:	09800793          	li	a5,152
ffffffc050400bcc:	02f687b3          	mul	a5,a3,a5
ffffffc050400bd0:	97ba                	add	a5,a5,a4
ffffffc050400bd2:	4709                	li	a4,2
ffffffc050400bd4:	dff8                	sw	a4,124(a5)
ffffffc050400bd6:	00800717          	auipc	a4,0x800
ffffffc050400bda:	b2270713          	addi	a4,a4,-1246 # ffffffc050c006f8 <pcb>
ffffffc050400bde:	fec42683          	lw	a3,-20(s0)
ffffffc050400be2:	09800793          	li	a5,152
ffffffc050400be6:	02f687b3          	mul	a5,a3,a5
ffffffc050400bea:	97ba                	add	a5,a5,a4
ffffffc050400bec:	4709                	li	a4,2
ffffffc050400bee:	08e7a023          	sw	a4,128(a5)
ffffffc050400bf2:	00800717          	auipc	a4,0x800
ffffffc050400bf6:	b0670713          	addi	a4,a4,-1274 # ffffffc050c006f8 <pcb>
ffffffc050400bfa:	fec42683          	lw	a3,-20(s0)
ffffffc050400bfe:	09800793          	li	a5,152
ffffffc050400c02:	02f687b3          	mul	a5,a3,a5
ffffffc050400c06:	97ba                	add	a5,a5,a4
ffffffc050400c08:	fa042703          	lw	a4,-96(s0)
ffffffc050400c0c:	08e7a223          	sw	a4,132(a5)
ffffffc050400c10:	00800717          	auipc	a4,0x800
ffffffc050400c14:	ae870713          	addi	a4,a4,-1304 # ffffffc050c006f8 <pcb>
ffffffc050400c18:	fec42683          	lw	a3,-20(s0)
ffffffc050400c1c:	09800793          	li	a5,152
ffffffc050400c20:	02f687b3          	mul	a5,a3,a5
ffffffc050400c24:	97ba                	add	a5,a5,a4
ffffffc050400c26:	47bc                	lw	a5,72(a5)
ffffffc050400c28:	02c79713          	slli	a4,a5,0x2c
ffffffc050400c2c:	fe043783          	ld	a5,-32(s0)
ffffffc050400c30:	83b1                	srli	a5,a5,0xc
ffffffc050400c32:	8f5d                	or	a4,a4,a5
ffffffc050400c34:	57fd                	li	a5,-1
ffffffc050400c36:	17fe                	slli	a5,a5,0x3f
ffffffc050400c38:	8f5d                	or	a4,a4,a5
ffffffc050400c3a:	00800697          	auipc	a3,0x800
ffffffc050400c3e:	abe68693          	addi	a3,a3,-1346 # ffffffc050c006f8 <pcb>
ffffffc050400c42:	fec42603          	lw	a2,-20(s0)
ffffffc050400c46:	09800793          	li	a5,152
ffffffc050400c4a:	02f607b3          	mul	a5,a2,a5
ffffffc050400c4e:	97b6                	add	a5,a5,a3
ffffffc050400c50:	eb98                	sd	a4,16(a5)
ffffffc050400c52:	fec42703          	lw	a4,-20(s0)
ffffffc050400c56:	09800793          	li	a5,152
ffffffc050400c5a:	02f707b3          	mul	a5,a4,a5
ffffffc050400c5e:	02078713          	addi	a4,a5,32
ffffffc050400c62:	00800797          	auipc	a5,0x800
ffffffc050400c66:	a9678793          	addi	a5,a5,-1386 # ffffffc050c006f8 <pcb>
ffffffc050400c6a:	97ba                	add	a5,a5,a4
ffffffc050400c6c:	07a1                	addi	a5,a5,8
ffffffc050400c6e:	853e                	mv	a0,a5
ffffffc050400c70:	6cd070ef          	jal	ra,ffffffc050408b3c <list_init>
ffffffc050400c74:	00800717          	auipc	a4,0x800
ffffffc050400c78:	a8470713          	addi	a4,a4,-1404 # ffffffc050c006f8 <pcb>
ffffffc050400c7c:	fec42683          	lw	a3,-20(s0)
ffffffc050400c80:	09800793          	li	a5,152
ffffffc050400c84:	02f687b3          	mul	a5,a3,a5
ffffffc050400c88:	97ba                	add	a5,a5,a4
ffffffc050400c8a:	6388                	ld	a0,0(a5)
ffffffc050400c8c:	00800717          	auipc	a4,0x800
ffffffc050400c90:	a6c70713          	addi	a4,a4,-1428 # ffffffc050c006f8 <pcb>
ffffffc050400c94:	fec42683          	lw	a3,-20(s0)
ffffffc050400c98:	09800793          	li	a5,152
ffffffc050400c9c:	02f687b3          	mul	a5,a3,a5
ffffffc050400ca0:	97ba                	add	a5,a5,a4
ffffffc050400ca2:	678c                	ld	a1,8(a5)
ffffffc050400ca4:	fd843703          	ld	a4,-40(s0)
ffffffc050400ca8:	6785                	lui	a5,0x1
ffffffc050400caa:	00f706b3          	add	a3,a4,a5
ffffffc050400cae:	fec42703          	lw	a4,-20(s0)
ffffffc050400cb2:	09800793          	li	a5,152
ffffffc050400cb6:	02f70733          	mul	a4,a4,a5
ffffffc050400cba:	00800797          	auipc	a5,0x800
ffffffc050400cbe:	a3e78793          	addi	a5,a5,-1474 # ffffffc050c006f8 <pcb>
ffffffc050400cc2:	97ba                	add	a5,a5,a4
ffffffc050400cc4:	fa442703          	lw	a4,-92(s0)
ffffffc050400cc8:	883e                	mv	a6,a5
ffffffc050400cca:	f9843783          	ld	a5,-104(s0)
ffffffc050400cce:	fc843603          	ld	a2,-56(s0)
ffffffc050400cd2:	8e9ff0ef          	jal	ra,ffffffc0504005ba <init_pcb_stack>
ffffffc050400cd6:	fec42703          	lw	a4,-20(s0)
ffffffc050400cda:	09800793          	li	a5,152
ffffffc050400cde:	02f70733          	mul	a4,a4,a5
ffffffc050400ce2:	00800797          	auipc	a5,0x800
ffffffc050400ce6:	a1678793          	addi	a5,a5,-1514 # ffffffc050c006f8 <pcb>
ffffffc050400cea:	97ba                	add	a5,a5,a4
ffffffc050400cec:	85be                	mv	a1,a5
ffffffc050400cee:	00800517          	auipc	a0,0x800
ffffffc050400cf2:	8fa50513          	addi	a0,a0,-1798 # ffffffc050c005e8 <ready_queue>
ffffffc050400cf6:	6f7070ef          	jal	ra,ffffffc050408bec <in_queue>
ffffffc050400cfa:	fec42783          	lw	a5,-20(s0)
ffffffc050400cfe:	2785                	addiw	a5,a5,1
ffffffc050400d00:	2781                	sext.w	a5,a5
ffffffc050400d02:	853e                	mv	a0,a5
ffffffc050400d04:	70a6                	ld	ra,104(sp)
ffffffc050400d06:	7406                	ld	s0,96(sp)
ffffffc050400d08:	6165                	addi	sp,sp,112
ffffffc050400d0a:	8082                	ret

ffffffc050400d0c <do_spawn>:
ffffffc050400d0c:	7179                	addi	sp,sp,-48
ffffffc050400d0e:	f422                	sd	s0,40(sp)
ffffffc050400d10:	1800                	addi	s0,sp,48
ffffffc050400d12:	fea43423          	sd	a0,-24(s0)
ffffffc050400d16:	feb43023          	sd	a1,-32(s0)
ffffffc050400d1a:	87b2                	mv	a5,a2
ffffffc050400d1c:	fcf42e23          	sw	a5,-36(s0)
ffffffc050400d20:	0001                	nop
ffffffc050400d22:	853e                	mv	a0,a5
ffffffc050400d24:	7422                	ld	s0,40(sp)
ffffffc050400d26:	6145                	addi	sp,sp,48
ffffffc050400d28:	8082                	ret

ffffffc050400d2a <do_taskset>:
ffffffc050400d2a:	1101                	addi	sp,sp,-32
ffffffc050400d2c:	ec22                	sd	s0,24(sp)
ffffffc050400d2e:	1000                	addi	s0,sp,32
ffffffc050400d30:	fea43423          	sd	a0,-24(s0)
ffffffc050400d34:	87ae                	mv	a5,a1
ffffffc050400d36:	fef42223          	sw	a5,-28(s0)
ffffffc050400d3a:	0001                	nop
ffffffc050400d3c:	853e                	mv	a0,a5
ffffffc050400d3e:	6462                	ld	s0,24(sp)
ffffffc050400d40:	6105                	addi	sp,sp,32
ffffffc050400d42:	8082                	ret

ffffffc050400d44 <do_taskset_p>:
ffffffc050400d44:	7179                	addi	sp,sp,-48
ffffffc050400d46:	f422                	sd	s0,40(sp)
ffffffc050400d48:	1800                	addi	s0,sp,48
ffffffc050400d4a:	87aa                	mv	a5,a0
ffffffc050400d4c:	872e                	mv	a4,a1
ffffffc050400d4e:	fcf42e23          	sw	a5,-36(s0)
ffffffc050400d52:	87ba                	mv	a5,a4
ffffffc050400d54:	fcf42c23          	sw	a5,-40(s0)
ffffffc050400d58:	fe042623          	sw	zero,-20(s0)
ffffffc050400d5c:	a031                	j	ffffffc050400d68 <do_taskset_p+0x24>
ffffffc050400d5e:	fec42783          	lw	a5,-20(s0)
ffffffc050400d62:	2785                	addiw	a5,a5,1
ffffffc050400d64:	fef42623          	sw	a5,-20(s0)
ffffffc050400d68:	00800717          	auipc	a4,0x800
ffffffc050400d6c:	99070713          	addi	a4,a4,-1648 # ffffffc050c006f8 <pcb>
ffffffc050400d70:	fec42683          	lw	a3,-20(s0)
ffffffc050400d74:	09800793          	li	a5,152
ffffffc050400d78:	02f687b3          	mul	a5,a3,a5
ffffffc050400d7c:	97ba                	add	a5,a5,a4
ffffffc050400d7e:	47b8                	lw	a4,72(a5)
ffffffc050400d80:	fdc42783          	lw	a5,-36(s0)
ffffffc050400d84:	2781                	sext.w	a5,a5
ffffffc050400d86:	00e78963          	beq	a5,a4,ffffffc050400d98 <do_taskset_p+0x54>
ffffffc050400d8a:	fec42783          	lw	a5,-20(s0)
ffffffc050400d8e:	0007871b          	sext.w	a4,a5
ffffffc050400d92:	47bd                	li	a5,15
ffffffc050400d94:	fce7d5e3          	bge	a5,a4,ffffffc050400d5e <do_taskset_p+0x1a>
ffffffc050400d98:	fec42783          	lw	a5,-20(s0)
ffffffc050400d9c:	0007871b          	sext.w	a4,a5
ffffffc050400da0:	47c1                	li	a5,16
ffffffc050400da2:	00f71463          	bne	a4,a5,ffffffc050400daa <do_taskset_p+0x66>
ffffffc050400da6:	4781                	li	a5,0
ffffffc050400da8:	a839                	j	ffffffc050400dc6 <do_taskset_p+0x82>
ffffffc050400daa:	00800717          	auipc	a4,0x800
ffffffc050400dae:	94e70713          	addi	a4,a4,-1714 # ffffffc050c006f8 <pcb>
ffffffc050400db2:	fec42683          	lw	a3,-20(s0)
ffffffc050400db6:	09800793          	li	a5,152
ffffffc050400dba:	02f687b3          	mul	a5,a3,a5
ffffffc050400dbe:	97ba                	add	a5,a5,a4
ffffffc050400dc0:	fd842703          	lw	a4,-40(s0)
ffffffc050400dc4:	cfb8                	sw	a4,88(a5)
ffffffc050400dc6:	853e                	mv	a0,a5
ffffffc050400dc8:	7422                	ld	s0,40(sp)
ffffffc050400dca:	6145                	addi	sp,sp,48
ffffffc050400dcc:	8082                	ret

ffffffc050400dce <init_syscall>:
ffffffc050400dce:	1141                	addi	sp,sp,-16
ffffffc050400dd0:	e422                	sd	s0,8(sp)
ffffffc050400dd2:	0800                	addi	s0,sp,16
ffffffc050400dd4:	00801797          	auipc	a5,0x801
ffffffc050400dd8:	62c78793          	addi	a5,a5,1580 # ffffffc050c02400 <syscall>
ffffffc050400ddc:	00008717          	auipc	a4,0x8
ffffffc050400de0:	59070713          	addi	a4,a4,1424 # ffffffc05040936c <do_fork>
ffffffc050400de4:	e3b8                	sd	a4,64(a5)
ffffffc050400de6:	00801797          	auipc	a5,0x801
ffffffc050400dea:	61a78793          	addi	a5,a5,1562 # ffffffc050c02400 <syscall>
ffffffc050400dee:	00008717          	auipc	a4,0x8
ffffffc050400df2:	3b870713          	addi	a4,a4,952 # ffffffc0504091a6 <do_sleep>
ffffffc050400df6:	eb98                	sd	a4,16(a5)
ffffffc050400df8:	00801797          	auipc	a5,0x801
ffffffc050400dfc:	60878793          	addi	a5,a5,1544 # ffffffc050c02400 <syscall>
ffffffc050400e00:	00007717          	auipc	a4,0x7
ffffffc050400e04:	b0670713          	addi	a4,a4,-1274 # ffffffc050407906 <mutex_get>
ffffffc050400e08:	f3b8                	sd	a4,96(a5)
ffffffc050400e0a:	00801797          	auipc	a5,0x801
ffffffc050400e0e:	5f678793          	addi	a5,a5,1526 # ffffffc050c02400 <syscall>
ffffffc050400e12:	00007717          	auipc	a4,0x7
ffffffc050400e16:	b3a70713          	addi	a4,a4,-1222 # ffffffc05040794c <mutex_lock>
ffffffc050400e1a:	f7b8                	sd	a4,104(a5)
ffffffc050400e1c:	00801797          	auipc	a5,0x801
ffffffc050400e20:	5e478793          	addi	a5,a5,1508 # ffffffc050c02400 <syscall>
ffffffc050400e24:	00007717          	auipc	a4,0x7
ffffffc050400e28:	b8870713          	addi	a4,a4,-1144 # ffffffc0504079ac <mutex_unlock>
ffffffc050400e2c:	fbb8                	sd	a4,112(a5)
ffffffc050400e2e:	00801797          	auipc	a5,0x801
ffffffc050400e32:	5d278793          	addi	a5,a5,1490 # ffffffc050c02400 <syscall>
ffffffc050400e36:	00008717          	auipc	a4,0x8
ffffffc050400e3a:	e1a70713          	addi	a4,a4,-486 # ffffffc050408c50 <get_time>
ffffffc050400e3e:	ffb8                	sd	a4,120(a5)
ffffffc050400e40:	00801797          	auipc	a5,0x801
ffffffc050400e44:	5c078793          	addi	a5,a5,1472 # ffffffc050c02400 <syscall>
ffffffc050400e48:	00008717          	auipc	a4,0x8
ffffffc050400e4c:	f0470713          	addi	a4,a4,-252 # ffffffc050408d4c <do_scheduler>
ffffffc050400e50:	ff98                	sd	a4,56(a5)
ffffffc050400e52:	00801797          	auipc	a5,0x801
ffffffc050400e56:	5ae78793          	addi	a5,a5,1454 # ffffffc050c02400 <syscall>
ffffffc050400e5a:	00001717          	auipc	a4,0x1
ffffffc050400e5e:	c2270713          	addi	a4,a4,-990 # ffffffc050401a7c <screen_write>
ffffffc050400e62:	f3d8                	sd	a4,160(a5)
ffffffc050400e64:	00801797          	auipc	a5,0x801
ffffffc050400e68:	59c78793          	addi	a5,a5,1436 # ffffffc050c02400 <syscall>
ffffffc050400e6c:	fffff717          	auipc	a4,0xfffff
ffffffc050400e70:	46270713          	addi	a4,a4,1122 # ffffffc0504002ce <sbi_console_getchar>
ffffffc050400e74:	f7d8                	sd	a4,168(a5)
ffffffc050400e76:	00801797          	auipc	a5,0x801
ffffffc050400e7a:	58a78793          	addi	a5,a5,1418 # ffffffc050c02400 <syscall>
ffffffc050400e7e:	00001717          	auipc	a4,0x1
ffffffc050400e82:	ba270713          	addi	a4,a4,-1118 # ffffffc050401a20 <screen_move_cursor>
ffffffc050400e86:	fbd8                	sd	a4,176(a5)
ffffffc050400e88:	00801797          	auipc	a5,0x801
ffffffc050400e8c:	57878793          	addi	a5,a5,1400 # ffffffc050c02400 <syscall>
ffffffc050400e90:	00001717          	auipc	a4,0x1
ffffffc050400e94:	c4c70713          	addi	a4,a4,-948 # ffffffc050401adc <screen_reflush>
ffffffc050400e98:	ffd8                	sd	a4,184(a5)
ffffffc050400e9a:	00801797          	auipc	a5,0x801
ffffffc050400e9e:	56678793          	addi	a5,a5,1382 # ffffffc050c02400 <syscall>
ffffffc050400ea2:	00009717          	auipc	a4,0x9
ffffffc050400ea6:	47070713          	addi	a4,a4,1136 # ffffffc05040a312 <get_time_base>
ffffffc050400eaa:	fbf8                	sd	a4,240(a5)
ffffffc050400eac:	00801797          	auipc	a5,0x801
ffffffc050400eb0:	55478793          	addi	a5,a5,1364 # ffffffc050c02400 <syscall>
ffffffc050400eb4:	00009717          	auipc	a4,0x9
ffffffc050400eb8:	40e70713          	addi	a4,a4,1038 # ffffffc05040a2c2 <get_ticks>
ffffffc050400ebc:	fff8                	sd	a4,248(a5)
ffffffc050400ebe:	00801797          	auipc	a5,0x801
ffffffc050400ec2:	54278793          	addi	a5,a5,1346 # ffffffc050c02400 <syscall>
ffffffc050400ec6:	00009717          	auipc	a4,0x9
ffffffc050400eca:	84270713          	addi	a4,a4,-1982 # ffffffc050409708 <do_process_show>
ffffffc050400ece:	f798                	sd	a4,40(a5)
ffffffc050400ed0:	00801797          	auipc	a5,0x801
ffffffc050400ed4:	53078793          	addi	a5,a5,1328 # ffffffc050c02400 <syscall>
ffffffc050400ed8:	00001717          	auipc	a4,0x1
ffffffc050400edc:	a8e70713          	addi	a4,a4,-1394 # ffffffc050401966 <screen_clear>
ffffffc050400ee0:	eff8                	sd	a4,216(a5)
ffffffc050400ee2:	00801797          	auipc	a5,0x801
ffffffc050400ee6:	51e78793          	addi	a5,a5,1310 # ffffffc050c02400 <syscall>
ffffffc050400eea:	00001717          	auipc	a4,0x1
ffffffc050400eee:	e3870713          	addi	a4,a4,-456 # ffffffc050401d22 <screen_back>
ffffffc050400ef2:	e7b8                	sd	a4,72(a5)
ffffffc050400ef4:	00801797          	auipc	a5,0x801
ffffffc050400ef8:	50c78793          	addi	a5,a5,1292 # ffffffc050c02400 <syscall>
ffffffc050400efc:	00000717          	auipc	a4,0x0
ffffffc050400f00:	e1070713          	addi	a4,a4,-496 # ffffffc050400d0c <do_spawn>
ffffffc050400f04:	e398                	sd	a4,0(a5)
ffffffc050400f06:	00801797          	auipc	a5,0x801
ffffffc050400f0a:	4fa78793          	addi	a5,a5,1274 # ffffffc050c02400 <syscall>
ffffffc050400f0e:	00009717          	auipc	a4,0x9
ffffffc050400f12:	9c270713          	addi	a4,a4,-1598 # ffffffc0504098d0 <do_exit>
ffffffc050400f16:	e798                	sd	a4,8(a5)
ffffffc050400f18:	00801797          	auipc	a5,0x801
ffffffc050400f1c:	4e878793          	addi	a5,a5,1256 # ffffffc050c02400 <syscall>
ffffffc050400f20:	00009717          	auipc	a4,0x9
ffffffc050400f24:	bc470713          	addi	a4,a4,-1084 # ffffffc050409ae4 <do_kill>
ffffffc050400f28:	ef98                	sd	a4,24(a5)
ffffffc050400f2a:	00801797          	auipc	a5,0x801
ffffffc050400f2e:	4d678793          	addi	a5,a5,1238 # ffffffc050c02400 <syscall>
ffffffc050400f32:	00009717          	auipc	a4,0x9
ffffffc050400f36:	d6a70713          	addi	a4,a4,-662 # ffffffc050409c9c <do_waitpid>
ffffffc050400f3a:	f398                	sd	a4,32(a5)
ffffffc050400f3c:	00801797          	auipc	a5,0x801
ffffffc050400f40:	4c478793          	addi	a5,a5,1220 # ffffffc050c02400 <syscall>
ffffffc050400f44:	00009717          	auipc	a4,0x9
ffffffc050400f48:	e9e70713          	addi	a4,a4,-354 # ffffffc050409de2 <do_getpid>
ffffffc050400f4c:	fb98                	sd	a4,48(a5)
ffffffc050400f4e:	00801797          	auipc	a5,0x801
ffffffc050400f52:	4b278793          	addi	a5,a5,1202 # ffffffc050c02400 <syscall>
ffffffc050400f56:	00007717          	auipc	a4,0x7
ffffffc050400f5a:	cf870713          	addi	a4,a4,-776 # ffffffc050407c4e <barrier_get>
ffffffc050400f5e:	e3d8                	sd	a4,128(a5)
ffffffc050400f60:	00801797          	auipc	a5,0x801
ffffffc050400f64:	4a078793          	addi	a5,a5,1184 # ffffffc050c02400 <syscall>
ffffffc050400f68:	00007717          	auipc	a4,0x7
ffffffc050400f6c:	d8670713          	addi	a4,a4,-634 # ffffffc050407cee <barrier_wait>
ffffffc050400f70:	e7d8                	sd	a4,136(a5)
ffffffc050400f72:	00801797          	auipc	a5,0x801
ffffffc050400f76:	48e78793          	addi	a5,a5,1166 # ffffffc050c02400 <syscall>
ffffffc050400f7a:	00007717          	auipc	a4,0x7
ffffffc050400f7e:	e6c70713          	addi	a4,a4,-404 # ffffffc050407de6 <barrier_destroy>
ffffffc050400f82:	ebd8                	sd	a4,144(a5)
ffffffc050400f84:	00801797          	auipc	a5,0x801
ffffffc050400f88:	47c78793          	addi	a5,a5,1148 # ffffffc050c02400 <syscall>
ffffffc050400f8c:	00007717          	auipc	a4,0x7
ffffffc050400f90:	ec470713          	addi	a4,a4,-316 # ffffffc050407e50 <semaphore_init>
ffffffc050400f94:	efd8                	sd	a4,152(a5)
ffffffc050400f96:	00801797          	auipc	a5,0x801
ffffffc050400f9a:	46a78793          	addi	a5,a5,1130 # ffffffc050c02400 <syscall>
ffffffc050400f9e:	00007717          	auipc	a4,0x7
ffffffc050400fa2:	f3270713          	addi	a4,a4,-206 # ffffffc050407ed0 <semaphore_up>
ffffffc050400fa6:	f3f8                	sd	a4,224(a5)
ffffffc050400fa8:	00801797          	auipc	a5,0x801
ffffffc050400fac:	45878793          	addi	a5,a5,1112 # ffffffc050c02400 <syscall>
ffffffc050400fb0:	00007717          	auipc	a4,0x7
ffffffc050400fb4:	fe470713          	addi	a4,a4,-28 # ffffffc050407f94 <semaphore_down>
ffffffc050400fb8:	f7f8                	sd	a4,232(a5)
ffffffc050400fba:	00801797          	auipc	a5,0x801
ffffffc050400fbe:	44678793          	addi	a5,a5,1094 # ffffffc050c02400 <syscall>
ffffffc050400fc2:	00007717          	auipc	a4,0x7
ffffffc050400fc6:	07270713          	addi	a4,a4,114 # ffffffc050408034 <semaphore_destroy>
ffffffc050400fca:	10e7b423          	sd	a4,264(a5)
ffffffc050400fce:	00801797          	auipc	a5,0x801
ffffffc050400fd2:	43278793          	addi	a5,a5,1074 # ffffffc050c02400 <syscall>
ffffffc050400fd6:	00007717          	auipc	a4,0x7
ffffffc050400fda:	0ae70713          	addi	a4,a4,174 # ffffffc050408084 <kernel_mbox_open>
ffffffc050400fde:	10e7b823          	sd	a4,272(a5)
ffffffc050400fe2:	00801797          	auipc	a5,0x801
ffffffc050400fe6:	41e78793          	addi	a5,a5,1054 # ffffffc050c02400 <syscall>
ffffffc050400fea:	00007717          	auipc	a4,0x7
ffffffc050400fee:	26670713          	addi	a4,a4,614 # ffffffc050408250 <kernel_mbox_close>
ffffffc050400ff2:	10e7bc23          	sd	a4,280(a5)
ffffffc050400ff6:	00801797          	auipc	a5,0x801
ffffffc050400ffa:	40a78793          	addi	a5,a5,1034 # ffffffc050c02400 <syscall>
ffffffc050400ffe:	00007717          	auipc	a4,0x7
ffffffc050401002:	27a70713          	addi	a4,a4,634 # ffffffc050408278 <kernel_mbox_send>
ffffffc050401006:	12e7b023          	sd	a4,288(a5)
ffffffc05040100a:	00801797          	auipc	a5,0x801
ffffffc05040100e:	3f678793          	addi	a5,a5,1014 # ffffffc050c02400 <syscall>
ffffffc050401012:	00007717          	auipc	a4,0x7
ffffffc050401016:	3ce70713          	addi	a4,a4,974 # ffffffc0504083e0 <kernel_mbox_recv>
ffffffc05040101a:	12e7b423          	sd	a4,296(a5)
ffffffc05040101e:	00801797          	auipc	a5,0x801
ffffffc050401022:	3e278793          	addi	a5,a5,994 # ffffffc050c02400 <syscall>
ffffffc050401026:	00007717          	auipc	a4,0x7
ffffffc05040102a:	5d070713          	addi	a4,a4,1488 # ffffffc0504085f6 <kernel_send_recv>
ffffffc05040102e:	12e7b823          	sd	a4,304(a5)
ffffffc050401032:	00801797          	auipc	a5,0x801
ffffffc050401036:	3ce78793          	addi	a5,a5,974 # ffffffc050c02400 <syscall>
ffffffc05040103a:	00000717          	auipc	a4,0x0
ffffffc05040103e:	cf070713          	addi	a4,a4,-784 # ffffffc050400d2a <do_taskset>
ffffffc050401042:	12e7bc23          	sd	a4,312(a5)
ffffffc050401046:	00801797          	auipc	a5,0x801
ffffffc05040104a:	3ba78793          	addi	a5,a5,954 # ffffffc050c02400 <syscall>
ffffffc05040104e:	00000717          	auipc	a4,0x0
ffffffc050401052:	cf670713          	addi	a4,a4,-778 # ffffffc050400d44 <do_taskset_p>
ffffffc050401056:	14e7b023          	sd	a4,320(a5)
ffffffc05040105a:	00801797          	auipc	a5,0x801
ffffffc05040105e:	3a678793          	addi	a5,a5,934 # ffffffc050c02400 <syscall>
ffffffc050401062:	00000717          	auipc	a4,0x0
ffffffc050401066:	95a70713          	addi	a4,a4,-1702 # ffffffc0504009bc <do_exec>
ffffffc05040106a:	14e7b423          	sd	a4,328(a5)
ffffffc05040106e:	00801797          	auipc	a5,0x801
ffffffc050401072:	39278793          	addi	a5,a5,914 # ffffffc050c02400 <syscall>
ffffffc050401076:	00007717          	auipc	a4,0x7
ffffffc05040107a:	96c70713          	addi	a4,a4,-1684 # ffffffc0504079e2 <do_binsem_get>
ffffffc05040107e:	14e7b823          	sd	a4,336(a5)
ffffffc050401082:	00801797          	auipc	a5,0x801
ffffffc050401086:	37e78793          	addi	a5,a5,894 # ffffffc050c02400 <syscall>
ffffffc05040108a:	00007717          	auipc	a4,0x7
ffffffc05040108e:	a4070713          	addi	a4,a4,-1472 # ffffffc050407aca <do_binsem_lock>
ffffffc050401092:	14e7bc23          	sd	a4,344(a5)
ffffffc050401096:	00801797          	auipc	a5,0x801
ffffffc05040109a:	36a78793          	addi	a5,a5,874 # ffffffc050c02400 <syscall>
ffffffc05040109e:	00007717          	auipc	a4,0x7
ffffffc0504010a2:	a8c70713          	addi	a4,a4,-1396 # ffffffc050407b2a <do_binsem_unlock>
ffffffc0504010a6:	16e7b023          	sd	a4,352(a5)
ffffffc0504010aa:	00801797          	auipc	a5,0x801
ffffffc0504010ae:	35678793          	addi	a5,a5,854 # ffffffc050c02400 <syscall>
ffffffc0504010b2:	00009717          	auipc	a4,0x9
ffffffc0504010b6:	d6070713          	addi	a4,a4,-672 # ffffffc050409e12 <do_mthread_create>
ffffffc0504010ba:	16e7b423          	sd	a4,360(a5)
ffffffc0504010be:	00801797          	auipc	a5,0x801
ffffffc0504010c2:	34278793          	addi	a5,a5,834 # ffffffc050c02400 <syscall>
ffffffc0504010c6:	00009717          	auipc	a4,0x9
ffffffc0504010ca:	1d870713          	addi	a4,a4,472 # ffffffc05040a29e <do_mthread_join>
ffffffc0504010ce:	16e7b823          	sd	a4,368(a5)
ffffffc0504010d2:	00801797          	auipc	a5,0x801
ffffffc0504010d6:	32e78793          	addi	a5,a5,814 # ffffffc050c02400 <syscall>
ffffffc0504010da:	0000a717          	auipc	a4,0xa
ffffffc0504010de:	f7870713          	addi	a4,a4,-136 # ffffffc05040b052 <shm_page_get>
ffffffc0504010e2:	16e7bc23          	sd	a4,376(a5)
ffffffc0504010e6:	00801797          	auipc	a5,0x801
ffffffc0504010ea:	31a78793          	addi	a5,a5,794 # ffffffc050c02400 <syscall>
ffffffc0504010ee:	0000a717          	auipc	a4,0xa
ffffffc0504010f2:	13670713          	addi	a4,a4,310 # ffffffc05040b224 <shm_page_dt>
ffffffc0504010f6:	18e7b023          	sd	a4,384(a5)
ffffffc0504010fa:	00801797          	auipc	a5,0x801
ffffffc0504010fe:	30678793          	addi	a5,a5,774 # ffffffc050c02400 <syscall>
ffffffc050401102:	00001717          	auipc	a4,0x1
ffffffc050401106:	04e70713          	addi	a4,a4,78 # ffffffc050402150 <do_net_recv>
ffffffc05040110a:	18e7b423          	sd	a4,392(a5)
ffffffc05040110e:	00801797          	auipc	a5,0x801
ffffffc050401112:	2f278793          	addi	a5,a5,754 # ffffffc050c02400 <syscall>
ffffffc050401116:	00001717          	auipc	a4,0x1
ffffffc05040111a:	26c70713          	addi	a4,a4,620 # ffffffc050402382 <do_net_send>
ffffffc05040111e:	18e7b823          	sd	a4,400(a5)
ffffffc050401122:	00801797          	auipc	a5,0x801
ffffffc050401126:	2de78793          	addi	a5,a5,734 # ffffffc050c02400 <syscall>
ffffffc05040112a:	00001717          	auipc	a4,0x1
ffffffc05040112e:	2b070713          	addi	a4,a4,688 # ffffffc0504023da <do_net_irq_mode>
ffffffc050401132:	18e7bc23          	sd	a4,408(a5)
ffffffc050401136:	0001                	nop
ffffffc050401138:	6422                	ld	s0,8(sp)
ffffffc05040113a:	0141                	addi	sp,sp,16
ffffffc05040113c:	8082                	ret

ffffffc05040113e <init_net>:
ffffffc05040113e:	7179                	addi	sp,sp,-48
ffffffc050401140:	f406                	sd	ra,40(sp)
ffffffc050401142:	f022                	sd	s0,32(sp)
ffffffc050401144:	1800                	addi	s0,sp,48
ffffffc050401146:	fe042623          	sw	zero,-20(s0)
ffffffc05040114a:	fe042423          	sw	zero,-24(s0)
ffffffc05040114e:	4505                	li	a0,1
ffffffc050401150:	9bcff0ef          	jal	ra,ffffffc05040030c <sbi_read_fdt>
ffffffc050401154:	87aa                	mv	a5,a0
ffffffc050401156:	fef42623          	sw	a5,-20(s0)
ffffffc05040115a:	fec42783          	lw	a5,-20(s0)
ffffffc05040115e:	85be                	mv	a1,a5
ffffffc050401160:	0000c517          	auipc	a0,0xc
ffffffc050401164:	85850513          	addi	a0,a0,-1960 # ffffffc05040c9b8 <get_elf_file+0xee>
ffffffc050401168:	6820b0ef          	jal	ra,ffffffc05040c7ea <printk>
ffffffc05040116c:	4509                	li	a0,2
ffffffc05040116e:	99eff0ef          	jal	ra,ffffffc05040030c <sbi_read_fdt>
ffffffc050401172:	87aa                	mv	a5,a0
ffffffc050401174:	fef42423          	sw	a5,-24(s0)
ffffffc050401178:	fe842783          	lw	a5,-24(s0)
ffffffc05040117c:	85be                	mv	a1,a5
ffffffc05040117e:	0000c517          	auipc	a0,0xc
ffffffc050401182:	85250513          	addi	a0,a0,-1966 # ffffffc05040c9d0 <get_elf_file+0x106>
ffffffc050401186:	6640b0ef          	jal	ra,ffffffc05040c7ea <printk>
ffffffc05040118a:	fe042223          	sw	zero,-28(s0)
ffffffc05040118e:	450d                	li	a0,3
ffffffc050401190:	97cff0ef          	jal	ra,ffffffc05040030c <sbi_read_fdt>
ffffffc050401194:	87aa                	mv	a5,a0
ffffffc050401196:	fef42223          	sw	a5,-28(s0)
ffffffc05040119a:	fe442783          	lw	a5,-28(s0)
ffffffc05040119e:	85be                	mv	a1,a5
ffffffc0504011a0:	0000c517          	auipc	a0,0xc
ffffffc0504011a4:	84850513          	addi	a0,a0,-1976 # ffffffc05040c9e8 <get_elf_file+0x11e>
ffffffc0504011a8:	6420b0ef          	jal	ra,ffffffc05040c7ea <printk>
ffffffc0504011ac:	4511                	li	a0,4
ffffffc0504011ae:	95eff0ef          	jal	ra,ffffffc05040030c <sbi_read_fdt>
ffffffc0504011b2:	87aa                	mv	a5,a0
ffffffc0504011b4:	fef42023          	sw	a5,-32(s0)
ffffffc0504011b8:	fe042783          	lw	a5,-32(s0)
ffffffc0504011bc:	85be                	mv	a1,a5
ffffffc0504011be:	0000c517          	auipc	a0,0xc
ffffffc0504011c2:	84250513          	addi	a0,a0,-1982 # ffffffc05040ca00 <get_elf_file+0x136>
ffffffc0504011c6:	6240b0ef          	jal	ra,ffffffc05040c7ea <printk>
ffffffc0504011ca:	fec46783          	lwu	a5,-20(s0)
ffffffc0504011ce:	6585                	lui	a1,0x1
ffffffc0504011d0:	853e                	mv	a0,a5
ffffffc0504011d2:	2030a0ef          	jal	ra,ffffffc05040bbd4 <ioremap>
ffffffc0504011d6:	87aa                	mv	a5,a0
ffffffc0504011d8:	873e                	mv	a4,a5
ffffffc0504011da:	00400797          	auipc	a5,0x400
ffffffc0504011de:	a6e78793          	addi	a5,a5,-1426 # ffffffc050800c48 <XPS_SYS_CTRL_BASEADDR>
ffffffc0504011e2:	e398                	sd	a4,0(a5)
ffffffc0504011e4:	fe846783          	lwu	a5,-24(s0)
ffffffc0504011e8:	6585                	lui	a1,0x1
ffffffc0504011ea:	853e                	mv	a0,a5
ffffffc0504011ec:	1e90a0ef          	jal	ra,ffffffc05040bbd4 <ioremap>
ffffffc0504011f0:	87aa                	mv	a5,a0
ffffffc0504011f2:	873e                	mv	a4,a5
ffffffc0504011f4:	007ff797          	auipc	a5,0x7ff
ffffffc0504011f8:	f5c78793          	addi	a5,a5,-164 # ffffffc050c00150 <xemacps_config>
ffffffc0504011fc:	e798                	sd	a4,8(a5)
ffffffc0504011fe:	fe446783          	lwu	a5,-28(s0)
ffffffc050401202:	040005b7          	lui	a1,0x4000
ffffffc050401206:	853e                	mv	a0,a5
ffffffc050401208:	1cd0a0ef          	jal	ra,ffffffc05040bbd4 <ioremap>
ffffffc05040120c:	87aa                	mv	a5,a0
ffffffc05040120e:	fcf43c23          	sd	a5,-40(s0)
ffffffc050401212:	007ff797          	auipc	a5,0x7ff
ffffffc050401216:	f3e78793          	addi	a5,a5,-194 # ffffffc050c00150 <xemacps_config>
ffffffc05040121a:	00079023          	sh	zero,0(a5)
ffffffc05040121e:	007ff797          	auipc	a5,0x7ff
ffffffc050401222:	f3278793          	addi	a5,a5,-206 # ffffffc050c00150 <xemacps_config>
ffffffc050401226:	00078823          	sb	zero,16(a5)
ffffffc05040122a:	00400797          	auipc	a5,0x400
ffffffc05040122e:	a1e78793          	addi	a5,a5,-1506 # ffffffc050800c48 <XPS_SYS_CTRL_BASEADDR>
ffffffc050401232:	6398                	ld	a4,0(a5)
ffffffc050401234:	fec42783          	lw	a5,-20(s0)
ffffffc050401238:	863a                	mv	a2,a4
ffffffc05040123a:	85be                	mv	a1,a5
ffffffc05040123c:	0000b517          	auipc	a0,0xb
ffffffc050401240:	7dc50513          	addi	a0,a0,2012 # ffffffc05040ca18 <get_elf_file+0x14e>
ffffffc050401244:	5a60b0ef          	jal	ra,ffffffc05040c7ea <printk>
ffffffc050401248:	007ff797          	auipc	a5,0x7ff
ffffffc05040124c:	f0878793          	addi	a5,a5,-248 # ffffffc050c00150 <xemacps_config>
ffffffc050401250:	6798                	ld	a4,8(a5)
ffffffc050401252:	fe842783          	lw	a5,-24(s0)
ffffffc050401256:	863a                	mv	a2,a4
ffffffc050401258:	85be                	mv	a1,a5
ffffffc05040125a:	0000b517          	auipc	a0,0xb
ffffffc05040125e:	7e650513          	addi	a0,a0,2022 # ffffffc05040ca40 <get_elf_file+0x176>
ffffffc050401262:	5880b0ef          	jal	ra,ffffffc05040c7ea <printk>
ffffffc050401266:	fe442783          	lw	a5,-28(s0)
ffffffc05040126a:	fd843603          	ld	a2,-40(s0)
ffffffc05040126e:	85be                	mv	a1,a5
ffffffc050401270:	0000b517          	auipc	a0,0xb
ffffffc050401274:	7f850513          	addi	a0,a0,2040 # ffffffc05040ca68 <get_elf_file+0x19e>
ffffffc050401278:	5720b0ef          	jal	ra,ffffffc05040c7ea <printk>
ffffffc05040127c:	fe042783          	lw	a5,-32(s0)
ffffffc050401280:	85be                	mv	a1,a5
ffffffc050401282:	fd843503          	ld	a0,-40(s0)
ffffffc050401286:	539000ef          	jal	ra,ffffffc050401fbe <plic_init>
ffffffc05040128a:	0020d517          	auipc	a0,0x20d
ffffffc05040128e:	b3650513          	addi	a0,a0,-1226 # ffffffc05060ddc0 <EmacPsInstance>
ffffffc050401292:	19e050ef          	jal	ra,ffffffc050406430 <EmacPsInit>
ffffffc050401296:	fca43823          	sd	a0,-48(s0)
ffffffc05040129a:	fd043783          	ld	a5,-48(s0)
ffffffc05040129e:	c39d                	beqz	a5,ffffffc0504012c4 <init_net+0x186>
ffffffc0504012a0:	0000b517          	auipc	a0,0xb
ffffffc0504012a4:	7e850513          	addi	a0,a0,2024 # ffffffc05040ca88 <get_elf_file+0x1be>
ffffffc0504012a8:	5420b0ef          	jal	ra,ffffffc05040c7ea <printk>
ffffffc0504012ac:	0000c617          	auipc	a2,0xc
ffffffc0504012b0:	90c60613          	addi	a2,a2,-1780 # ffffffc05040cbb8 <__FUNCTION__.2057>
ffffffc0504012b4:	1a700593          	li	a1,423
ffffffc0504012b8:	0000c517          	auipc	a0,0xc
ffffffc0504012bc:	80050513          	addi	a0,a0,-2048 # ffffffc05040cab8 <get_elf_file+0x1ee>
ffffffc0504012c0:	ac8ff0ef          	jal	ra,ffffffc050400588 <_panic>
ffffffc0504012c4:	0001                	nop
ffffffc0504012c6:	70a2                	ld	ra,40(sp)
ffffffc0504012c8:	7402                	ld	s0,32(sp)
ffffffc0504012ca:	6145                	addi	sp,sp,48
ffffffc0504012cc:	8082                	ret

ffffffc0504012ce <main>:
ffffffc0504012ce:	1101                	addi	sp,sp,-32
ffffffc0504012d0:	ec06                	sd	ra,24(sp)
ffffffc0504012d2:	e822                	sd	s0,16(sp)
ffffffc0504012d4:	1000                	addi	s0,sp,32
ffffffc0504012d6:	ff3fe0ef          	jal	ra,ffffffc0504002c8 <get_current_cpu_id>
ffffffc0504012da:	87aa                	mv	a5,a0
ffffffc0504012dc:	fef43423          	sd	a5,-24(s0)
ffffffc0504012e0:	07f0a0ef          	jal	ra,ffffffc05040bb5e <clean_direct_pg>
ffffffc0504012e4:	fe843783          	ld	a5,-24(s0)
ffffffc0504012e8:	ebad                	bnez	a5,ffffffc05040135a <main+0x8c>
ffffffc0504012ea:	e55ff0ef          	jal	ra,ffffffc05040113e <init_net>
ffffffc0504012ee:	cb6ff0ef          	jal	ra,ffffffc0504007a4 <init_pcb>
ffffffc0504012f2:	0000b517          	auipc	a0,0xb
ffffffc0504012f6:	7d650513          	addi	a0,a0,2006 # ffffffc05040cac8 <get_elf_file+0x1fe>
ffffffc0504012fa:	4f00b0ef          	jal	ra,ffffffc05040c7ea <printk>
ffffffc0504012fe:	4501                	li	a0,0
ffffffc050401300:	80cff0ef          	jal	ra,ffffffc05040030c <sbi_read_fdt>
ffffffc050401304:	87aa                	mv	a5,a0
ffffffc050401306:	0007871b          	sext.w	a4,a5
ffffffc05040130a:	00029797          	auipc	a5,0x29
ffffffc05040130e:	54678793          	addi	a5,a5,1350 # ffffffc05042a850 <time_base>
ffffffc050401312:	c398                	sw	a4,0(a5)
ffffffc050401314:	26e000ef          	jal	ra,ffffffc050401582 <init_exception>
ffffffc050401318:	0000b517          	auipc	a0,0xb
ffffffc05040131c:	7e050513          	addi	a0,a0,2016 # ffffffc05040caf8 <get_elf_file+0x22e>
ffffffc050401320:	4ca0b0ef          	jal	ra,ffffffc05040c7ea <printk>
ffffffc050401324:	aabff0ef          	jal	ra,ffffffc050400dce <init_syscall>
ffffffc050401328:	0000c517          	auipc	a0,0xc
ffffffc05040132c:	81050513          	addi	a0,a0,-2032 # ffffffc05040cb38 <get_elf_file+0x26e>
ffffffc050401330:	4ba0b0ef          	jal	ra,ffffffc05040c7ea <printk>
ffffffc050401334:	618000ef          	jal	ra,ffffffc05040194c <init_screen>
ffffffc050401338:	0000c517          	auipc	a0,0xc
ffffffc05040133c:	83850513          	addi	a0,a0,-1992 # ffffffc05040cb70 <get_elf_file+0x2a6>
ffffffc050401340:	4aa0b0ef          	jal	ra,ffffffc05040c7ea <printk>
ffffffc050401344:	042090ef          	jal	ra,ffffffc05040a386 <smp_init>
ffffffc050401348:	074090ef          	jal	ra,ffffffc05040a3bc <lock_kernel>
ffffffc05040134c:	d61fe0ef          	jal	ra,ffffffc0504000ac <disable_interrupt>
ffffffc050401350:	050090ef          	jal	ra,ffffffc05040a3a0 <wakeup_other_hart>
ffffffc050401354:	d51fe0ef          	jal	ra,ffffffc0504000a4 <enable_interrupt>
ffffffc050401358:	a029                	j	ffffffc050401362 <main+0x94>
ffffffc05040135a:	062090ef          	jal	ra,ffffffc05040a3bc <lock_kernel>
ffffffc05040135e:	d1bfe0ef          	jal	ra,ffffffc050400078 <setup_exception>
ffffffc050401362:	fe843583          	ld	a1,-24(s0)
ffffffc050401366:	0000c517          	auipc	a0,0xc
ffffffc05040136a:	83a50513          	addi	a0,a0,-1990 # ffffffc05040cba0 <get_elf_file+0x2d6>
ffffffc05040136e:	47c0b0ef          	jal	ra,ffffffc05040c7ea <printk>
ffffffc050401372:	751080ef          	jal	ra,ffffffc05040a2c2 <get_ticks>
ffffffc050401376:	872a                	mv	a4,a0
ffffffc050401378:	00029797          	auipc	a5,0x29
ffffffc05040137c:	4d878793          	addi	a5,a5,1240 # ffffffc05042a850 <time_base>
ffffffc050401380:	439c                	lw	a5,0(a5)
ffffffc050401382:	86be                	mv	a3,a5
ffffffc050401384:	12c00793          	li	a5,300
ffffffc050401388:	02f6d7bb          	divuw	a5,a3,a5
ffffffc05040138c:	2781                	sext.w	a5,a5
ffffffc05040138e:	1782                	slli	a5,a5,0x20
ffffffc050401390:	9381                	srli	a5,a5,0x20
ffffffc050401392:	97ba                	add	a5,a5,a4
ffffffc050401394:	853e                	mv	a0,a5
ffffffc050401396:	f57fe0ef          	jal	ra,ffffffc0504002ec <sbi_set_timer>
ffffffc05040139a:	030090ef          	jal	ra,ffffffc05040a3ca <unlock_kernel>
ffffffc05040139e:	a001                	j	ffffffc05040139e <main+0xd0>

ffffffc0504013a0 <_panic>:
ffffffc0504013a0:	7179                	addi	sp,sp,-48
ffffffc0504013a2:	f406                	sd	ra,40(sp)
ffffffc0504013a4:	f022                	sd	s0,32(sp)
ffffffc0504013a6:	1800                	addi	s0,sp,48
ffffffc0504013a8:	fea43423          	sd	a0,-24(s0)
ffffffc0504013ac:	87ae                	mv	a5,a1
ffffffc0504013ae:	fcc43c23          	sd	a2,-40(s0)
ffffffc0504013b2:	fef42223          	sw	a5,-28(s0)
ffffffc0504013b6:	fe442783          	lw	a5,-28(s0)
ffffffc0504013ba:	86be                	mv	a3,a5
ffffffc0504013bc:	fe843603          	ld	a2,-24(s0)
ffffffc0504013c0:	fd843583          	ld	a1,-40(s0)
ffffffc0504013c4:	0000c517          	auipc	a0,0xc
ffffffc0504013c8:	90450513          	addi	a0,a0,-1788 # ffffffc05040ccc8 <__FUNCTION__.2057+0x110>
ffffffc0504013cc:	41e0b0ef          	jal	ra,ffffffc05040c7ea <printk>
ffffffc0504013d0:	a001                	j	ffffffc0504013d0 <_panic+0x30>

ffffffc0504013d2 <sbi_set_timer>:
ffffffc0504013d2:	1101                	addi	sp,sp,-32
ffffffc0504013d4:	ec22                	sd	s0,24(sp)
ffffffc0504013d6:	1000                	addi	s0,sp,32
ffffffc0504013d8:	fea43423          	sd	a0,-24(s0)
ffffffc0504013dc:	fe843503          	ld	a0,-24(s0)
ffffffc0504013e0:	4581                	li	a1,0
ffffffc0504013e2:	4601                	li	a2,0
ffffffc0504013e4:	4881                	li	a7,0
ffffffc0504013e6:	00000073          	ecall
ffffffc0504013ea:	0001                	nop
ffffffc0504013ec:	6462                	ld	s0,24(sp)
ffffffc0504013ee:	6105                	addi	sp,sp,32
ffffffc0504013f0:	8082                	ret

ffffffc0504013f2 <reset_irq_timer>:
ffffffc0504013f2:	1141                	addi	sp,sp,-16
ffffffc0504013f4:	e406                	sd	ra,8(sp)
ffffffc0504013f6:	e022                	sd	s0,0(sp)
ffffffc0504013f8:	0800                	addi	s0,sp,16
ffffffc0504013fa:	6e2000ef          	jal	ra,ffffffc050401adc <screen_reflush>
ffffffc0504013fe:	649070ef          	jal	ra,ffffffc050409246 <time_check>
ffffffc050401402:	4dd000ef          	jal	ra,ffffffc0504020de <net_check>
ffffffc050401406:	6bd080ef          	jal	ra,ffffffc05040a2c2 <get_ticks>
ffffffc05040140a:	872a                	mv	a4,a0
ffffffc05040140c:	00029797          	auipc	a5,0x29
ffffffc050401410:	44478793          	addi	a5,a5,1092 # ffffffc05042a850 <time_base>
ffffffc050401414:	439c                	lw	a5,0(a5)
ffffffc050401416:	86be                	mv	a3,a5
ffffffc050401418:	12c00793          	li	a5,300
ffffffc05040141c:	02f6d7bb          	divuw	a5,a3,a5
ffffffc050401420:	2781                	sext.w	a5,a5
ffffffc050401422:	1782                	slli	a5,a5,0x20
ffffffc050401424:	9381                	srli	a5,a5,0x20
ffffffc050401426:	97ba                	add	a5,a5,a4
ffffffc050401428:	853e                	mv	a0,a5
ffffffc05040142a:	fa9ff0ef          	jal	ra,ffffffc0504013d2 <sbi_set_timer>
ffffffc05040142e:	11f070ef          	jal	ra,ffffffc050408d4c <do_scheduler>
ffffffc050401432:	0001                	nop
ffffffc050401434:	60a2                	ld	ra,8(sp)
ffffffc050401436:	6402                	ld	s0,0(sp)
ffffffc050401438:	0141                	addi	sp,sp,16
ffffffc05040143a:	8082                	ret

ffffffc05040143c <interrupt_helper>:
ffffffc05040143c:	7179                	addi	sp,sp,-48
ffffffc05040143e:	f406                	sd	ra,40(sp)
ffffffc050401440:	f022                	sd	s0,32(sp)
ffffffc050401442:	1800                	addi	s0,sp,48
ffffffc050401444:	fea43423          	sd	a0,-24(s0)
ffffffc050401448:	feb43023          	sd	a1,-32(s0)
ffffffc05040144c:	fcc43c23          	sd	a2,-40(s0)
ffffffc050401450:	fd843783          	ld	a5,-40(s0)
ffffffc050401454:	0207dc63          	bgez	a5,ffffffc05040148c <interrupt_helper+0x50>
ffffffc050401458:	fd843703          	ld	a4,-40(s0)
ffffffc05040145c:	800007b7          	lui	a5,0x80000
ffffffc050401460:	fff7c793          	not	a5,a5
ffffffc050401464:	8ff9                	and	a5,a5,a4
ffffffc050401466:	fcf43c23          	sd	a5,-40(s0)
ffffffc05040146a:	00200717          	auipc	a4,0x200
ffffffc05040146e:	20e70713          	addi	a4,a4,526 # ffffffc050601678 <irq_table>
ffffffc050401472:	fd843783          	ld	a5,-40(s0)
ffffffc050401476:	078e                	slli	a5,a5,0x3
ffffffc050401478:	97ba                	add	a5,a5,a4
ffffffc05040147a:	639c                	ld	a5,0(a5)
ffffffc05040147c:	fd843603          	ld	a2,-40(s0)
ffffffc050401480:	fe043583          	ld	a1,-32(s0)
ffffffc050401484:	fe843503          	ld	a0,-24(s0)
ffffffc050401488:	9782                	jalr	a5
ffffffc05040148a:	a00d                	j	ffffffc0504014ac <interrupt_helper+0x70>
ffffffc05040148c:	00200717          	auipc	a4,0x200
ffffffc050401490:	16470713          	addi	a4,a4,356 # ffffffc0506015f0 <exc_table>
ffffffc050401494:	fd843783          	ld	a5,-40(s0)
ffffffc050401498:	078e                	slli	a5,a5,0x3
ffffffc05040149a:	97ba                	add	a5,a5,a4
ffffffc05040149c:	639c                	ld	a5,0(a5)
ffffffc05040149e:	fd843603          	ld	a2,-40(s0)
ffffffc0504014a2:	fe043583          	ld	a1,-32(s0)
ffffffc0504014a6:	fe843503          	ld	a0,-24(s0)
ffffffc0504014aa:	9782                	jalr	a5
ffffffc0504014ac:	0001                	nop
ffffffc0504014ae:	70a2                	ld	ra,40(sp)
ffffffc0504014b0:	7402                	ld	s0,32(sp)
ffffffc0504014b2:	6145                	addi	sp,sp,48
ffffffc0504014b4:	8082                	ret

ffffffc0504014b6 <handle_int>:
ffffffc0504014b6:	7179                	addi	sp,sp,-48
ffffffc0504014b8:	f406                	sd	ra,40(sp)
ffffffc0504014ba:	f022                	sd	s0,32(sp)
ffffffc0504014bc:	1800                	addi	s0,sp,48
ffffffc0504014be:	fea43423          	sd	a0,-24(s0)
ffffffc0504014c2:	feb43023          	sd	a1,-32(s0)
ffffffc0504014c6:	fcc43c23          	sd	a2,-40(s0)
ffffffc0504014ca:	f29ff0ef          	jal	ra,ffffffc0504013f2 <reset_irq_timer>
ffffffc0504014ce:	0001                	nop
ffffffc0504014d0:	70a2                	ld	ra,40(sp)
ffffffc0504014d2:	7402                	ld	s0,32(sp)
ffffffc0504014d4:	6145                	addi	sp,sp,48
ffffffc0504014d6:	8082                	ret

ffffffc0504014d8 <handle_inst_pagefault>:
ffffffc0504014d8:	7179                	addi	sp,sp,-48
ffffffc0504014da:	f406                	sd	ra,40(sp)
ffffffc0504014dc:	f022                	sd	s0,32(sp)
ffffffc0504014de:	1800                	addi	s0,sp,48
ffffffc0504014e0:	fea43423          	sd	a0,-24(s0)
ffffffc0504014e4:	feb43023          	sd	a1,-32(s0)
ffffffc0504014e8:	fcc43c23          	sd	a2,-40(s0)
ffffffc0504014ec:	0000c517          	auipc	a0,0xc
ffffffc0504014f0:	80450513          	addi	a0,a0,-2044 # ffffffc05040ccf0 <__FUNCTION__.2057+0x138>
ffffffc0504014f4:	2f60b0ef          	jal	ra,ffffffc05040c7ea <printk>
ffffffc0504014f8:	0001                	nop
ffffffc0504014fa:	70a2                	ld	ra,40(sp)
ffffffc0504014fc:	7402                	ld	s0,32(sp)
ffffffc0504014fe:	6145                	addi	sp,sp,48
ffffffc050401500:	8082                	ret

ffffffc050401502 <handle_pagefault>:
ffffffc050401502:	715d                	addi	sp,sp,-80
ffffffc050401504:	e486                	sd	ra,72(sp)
ffffffc050401506:	e0a2                	sd	s0,64(sp)
ffffffc050401508:	0880                	addi	s0,sp,80
ffffffc05040150a:	fca43423          	sd	a0,-56(s0)
ffffffc05040150e:	fcb43023          	sd	a1,-64(s0)
ffffffc050401512:	fac43c23          	sd	a2,-72(s0)
ffffffc050401516:	db3fe0ef          	jal	ra,ffffffc0504002c8 <get_current_cpu_id>
ffffffc05040151a:	87aa                	mv	a5,a0
ffffffc05040151c:	fef43423          	sd	a5,-24(s0)
ffffffc050401520:	007ff717          	auipc	a4,0x7ff
ffffffc050401524:	0d870713          	addi	a4,a4,216 # ffffffc050c005f8 <current_running>
ffffffc050401528:	fe843783          	ld	a5,-24(s0)
ffffffc05040152c:	078e                	slli	a5,a5,0x3
ffffffc05040152e:	97ba                	add	a5,a5,a4
ffffffc050401530:	639c                	ld	a5,0(a5)
ffffffc050401532:	fef43023          	sd	a5,-32(s0)
ffffffc050401536:	fe043783          	ld	a5,-32(s0)
ffffffc05040153a:	6b9c                	ld	a5,16(a5)
ffffffc05040153c:	fcf43c23          	sd	a5,-40(s0)
ffffffc050401540:	fd843703          	ld	a4,-40(s0)
ffffffc050401544:	57fd                	li	a5,-1
ffffffc050401546:	83d1                	srli	a5,a5,0x14
ffffffc050401548:	8ff9                	and	a5,a5,a4
ffffffc05040154a:	fcf43823          	sd	a5,-48(s0)
ffffffc05040154e:	fd043783          	ld	a5,-48(s0)
ffffffc050401552:	07b2                	slli	a5,a5,0xc
ffffffc050401554:	4605                	li	a2,1
ffffffc050401556:	85be                	mv	a1,a5
ffffffc050401558:	fc043503          	ld	a0,-64(s0)
ffffffc05040155c:	3f00a0ef          	jal	ra,ffffffc05040b94c <alloc_page_helper>
ffffffc050401560:	0001                	nop
ffffffc050401562:	60a6                	ld	ra,72(sp)
ffffffc050401564:	6406                	ld	s0,64(sp)
ffffffc050401566:	6161                	addi	sp,sp,80
ffffffc050401568:	8082                	ret

ffffffc05040156a <handle_irq>:
ffffffc05040156a:	1101                	addi	sp,sp,-32
ffffffc05040156c:	ec22                	sd	s0,24(sp)
ffffffc05040156e:	1000                	addi	s0,sp,32
ffffffc050401570:	fea43423          	sd	a0,-24(s0)
ffffffc050401574:	87ae                	mv	a5,a1
ffffffc050401576:	fef42223          	sw	a5,-28(s0)
ffffffc05040157a:	0001                	nop
ffffffc05040157c:	6462                	ld	s0,24(sp)
ffffffc05040157e:	6105                	addi	sp,sp,32
ffffffc050401580:	8082                	ret

ffffffc050401582 <init_exception>:
ffffffc050401582:	1101                	addi	sp,sp,-32
ffffffc050401584:	ec06                	sd	ra,24(sp)
ffffffc050401586:	e822                	sd	s0,16(sp)
ffffffc050401588:	1000                	addi	s0,sp,32
ffffffc05040158a:	fe042623          	sw	zero,-20(s0)
ffffffc05040158e:	a01d                	j	ffffffc0504015b4 <init_exception+0x32>
ffffffc050401590:	00200717          	auipc	a4,0x200
ffffffc050401594:	0e870713          	addi	a4,a4,232 # ffffffc050601678 <irq_table>
ffffffc050401598:	fec42783          	lw	a5,-20(s0)
ffffffc05040159c:	078e                	slli	a5,a5,0x3
ffffffc05040159e:	97ba                	add	a5,a5,a4
ffffffc0504015a0:	00000717          	auipc	a4,0x0
ffffffc0504015a4:	08c70713          	addi	a4,a4,140 # ffffffc05040162c <handle_other>
ffffffc0504015a8:	e398                	sd	a4,0(a5)
ffffffc0504015aa:	fec42783          	lw	a5,-20(s0)
ffffffc0504015ae:	2785                	addiw	a5,a5,1
ffffffc0504015b0:	fef42623          	sw	a5,-20(s0)
ffffffc0504015b4:	fec42783          	lw	a5,-20(s0)
ffffffc0504015b8:	0007871b          	sext.w	a4,a5
ffffffc0504015bc:	47ad                	li	a5,11
ffffffc0504015be:	fce7d9e3          	bge	a5,a4,ffffffc050401590 <init_exception+0xe>
ffffffc0504015c2:	00200797          	auipc	a5,0x200
ffffffc0504015c6:	0b678793          	addi	a5,a5,182 # ffffffc050601678 <irq_table>
ffffffc0504015ca:	00000717          	auipc	a4,0x0
ffffffc0504015ce:	eec70713          	addi	a4,a4,-276 # ffffffc0504014b6 <handle_int>
ffffffc0504015d2:	f798                	sd	a4,40(a5)
ffffffc0504015d4:	fe042623          	sw	zero,-20(s0)
ffffffc0504015d8:	a01d                	j	ffffffc0504015fe <init_exception+0x7c>
ffffffc0504015da:	00200717          	auipc	a4,0x200
ffffffc0504015de:	01670713          	addi	a4,a4,22 # ffffffc0506015f0 <exc_table>
ffffffc0504015e2:	fec42783          	lw	a5,-20(s0)
ffffffc0504015e6:	078e                	slli	a5,a5,0x3
ffffffc0504015e8:	97ba                	add	a5,a5,a4
ffffffc0504015ea:	00000717          	auipc	a4,0x0
ffffffc0504015ee:	04270713          	addi	a4,a4,66 # ffffffc05040162c <handle_other>
ffffffc0504015f2:	e398                	sd	a4,0(a5)
ffffffc0504015f4:	fec42783          	lw	a5,-20(s0)
ffffffc0504015f8:	2785                	addiw	a5,a5,1
ffffffc0504015fa:	fef42623          	sw	a5,-20(s0)
ffffffc0504015fe:	fec42783          	lw	a5,-20(s0)
ffffffc050401602:	0007871b          	sext.w	a4,a5
ffffffc050401606:	47bd                	li	a5,15
ffffffc050401608:	fce7d9e3          	bge	a5,a4,ffffffc0504015da <init_exception+0x58>
ffffffc05040160c:	00200797          	auipc	a5,0x200
ffffffc050401610:	fe478793          	addi	a5,a5,-28 # ffffffc0506015f0 <exc_table>
ffffffc050401614:	0000a717          	auipc	a4,0xa
ffffffc050401618:	68070713          	addi	a4,a4,1664 # ffffffc05040bc94 <handle_syscall>
ffffffc05040161c:	e3b8                	sd	a4,64(a5)
ffffffc05040161e:	a5bfe0ef          	jal	ra,ffffffc050400078 <setup_exception>
ffffffc050401622:	0001                	nop
ffffffc050401624:	60e2                	ld	ra,24(sp)
ffffffc050401626:	6442                	ld	s0,16(sp)
ffffffc050401628:	6105                	addi	sp,sp,32
ffffffc05040162a:	8082                	ret

ffffffc05040162c <handle_other>:
ffffffc05040162c:	7129                	addi	sp,sp,-320
ffffffc05040162e:	fe06                	sd	ra,312(sp)
ffffffc050401630:	fa22                	sd	s0,304(sp)
ffffffc050401632:	0280                	addi	s0,sp,320
ffffffc050401634:	eca43c23          	sd	a0,-296(s0)
ffffffc050401638:	ecb43823          	sd	a1,-304(s0)
ffffffc05040163c:	ecc43423          	sd	a2,-312(s0)
ffffffc050401640:	0000b517          	auipc	a0,0xb
ffffffc050401644:	6d050513          	addi	a0,a0,1744 # ffffffc05040cd10 <__FUNCTION__.2057+0x158>
ffffffc050401648:	1a20b0ef          	jal	ra,ffffffc05040c7ea <printk>
ffffffc05040164c:	0000b717          	auipc	a4,0xb
ffffffc050401650:	77470713          	addi	a4,a4,1908 # ffffffc05040cdc0 <__FUNCTION__.2057+0x208>
ffffffc050401654:	ee840793          	addi	a5,s0,-280
ffffffc050401658:	86ba                	mv	a3,a4
ffffffc05040165a:	10000713          	li	a4,256
ffffffc05040165e:	863a                	mv	a2,a4
ffffffc050401660:	85b6                	mv	a1,a3
ffffffc050401662:	853e                	mv	a0,a5
ffffffc050401664:	7280a0ef          	jal	ra,ffffffc05040bd8c <memcpy>
ffffffc050401668:	fe042623          	sw	zero,-20(s0)
ffffffc05040166c:	a061                	j	ffffffc0504016f4 <handle_other+0xc8>
ffffffc05040166e:	fe042423          	sw	zero,-24(s0)
ffffffc050401672:	a0a9                	j	ffffffc0504016bc <handle_other+0x90>
ffffffc050401674:	fec42703          	lw	a4,-20(s0)
ffffffc050401678:	fe842783          	lw	a5,-24(s0)
ffffffc05040167c:	9fb9                	addw	a5,a5,a4
ffffffc05040167e:	2781                	sext.w	a5,a5
ffffffc050401680:	078e                	slli	a5,a5,0x3
ffffffc050401682:	ff040713          	addi	a4,s0,-16
ffffffc050401686:	97ba                	add	a5,a5,a4
ffffffc050401688:	ef87b683          	ld	a3,-264(a5)
ffffffc05040168c:	fec42703          	lw	a4,-20(s0)
ffffffc050401690:	fe842783          	lw	a5,-24(s0)
ffffffc050401694:	9fb9                	addw	a5,a5,a4
ffffffc050401696:	2781                	sext.w	a5,a5
ffffffc050401698:	ed843703          	ld	a4,-296(s0)
ffffffc05040169c:	078e                	slli	a5,a5,0x3
ffffffc05040169e:	97ba                	add	a5,a5,a4
ffffffc0504016a0:	639c                	ld	a5,0(a5)
ffffffc0504016a2:	863e                	mv	a2,a5
ffffffc0504016a4:	85b6                	mv	a1,a3
ffffffc0504016a6:	0000b517          	auipc	a0,0xb
ffffffc0504016aa:	68a50513          	addi	a0,a0,1674 # ffffffc05040cd30 <__FUNCTION__.2057+0x178>
ffffffc0504016ae:	13c0b0ef          	jal	ra,ffffffc05040c7ea <printk>
ffffffc0504016b2:	fe842783          	lw	a5,-24(s0)
ffffffc0504016b6:	2785                	addiw	a5,a5,1
ffffffc0504016b8:	fef42423          	sw	a5,-24(s0)
ffffffc0504016bc:	fe842783          	lw	a5,-24(s0)
ffffffc0504016c0:	0007871b          	sext.w	a4,a5
ffffffc0504016c4:	4789                	li	a5,2
ffffffc0504016c6:	00e7cc63          	blt	a5,a4,ffffffc0504016de <handle_other+0xb2>
ffffffc0504016ca:	fec42703          	lw	a4,-20(s0)
ffffffc0504016ce:	fe842783          	lw	a5,-24(s0)
ffffffc0504016d2:	9fb9                	addw	a5,a5,a4
ffffffc0504016d4:	2781                	sext.w	a5,a5
ffffffc0504016d6:	873e                	mv	a4,a5
ffffffc0504016d8:	47fd                	li	a5,31
ffffffc0504016da:	f8e7dde3          	bge	a5,a4,ffffffc050401674 <handle_other+0x48>
ffffffc0504016de:	0000b517          	auipc	a0,0xb
ffffffc0504016e2:	66250513          	addi	a0,a0,1634 # ffffffc05040cd40 <__FUNCTION__.2057+0x188>
ffffffc0504016e6:	1040b0ef          	jal	ra,ffffffc05040c7ea <printk>
ffffffc0504016ea:	fec42783          	lw	a5,-20(s0)
ffffffc0504016ee:	278d                	addiw	a5,a5,3
ffffffc0504016f0:	fef42623          	sw	a5,-20(s0)
ffffffc0504016f4:	fec42783          	lw	a5,-20(s0)
ffffffc0504016f8:	0007871b          	sext.w	a4,a5
ffffffc0504016fc:	47fd                	li	a5,31
ffffffc0504016fe:	f6e7d8e3          	bge	a5,a4,ffffffc05040166e <handle_other+0x42>
ffffffc050401702:	ed843783          	ld	a5,-296(s0)
ffffffc050401706:	1007b703          	ld	a4,256(a5)
ffffffc05040170a:	ed843783          	ld	a5,-296(s0)
ffffffc05040170e:	1107b603          	ld	a2,272(a5)
ffffffc050401712:	ed843783          	ld	a5,-296(s0)
ffffffc050401716:	1187b783          	ld	a5,280(a5)
ffffffc05040171a:	86be                	mv	a3,a5
ffffffc05040171c:	85ba                	mv	a1,a4
ffffffc05040171e:	0000b517          	auipc	a0,0xb
ffffffc050401722:	62a50513          	addi	a0,a0,1578 # ffffffc05040cd48 <__FUNCTION__.2057+0x190>
ffffffc050401726:	0c40b0ef          	jal	ra,ffffffc05040c7ea <printk>
ffffffc05040172a:	ec843603          	ld	a2,-312(s0)
ffffffc05040172e:	ed043583          	ld	a1,-304(s0)
ffffffc050401732:	0000b517          	auipc	a0,0xb
ffffffc050401736:	64650513          	addi	a0,a0,1606 # ffffffc05040cd78 <__FUNCTION__.2057+0x1c0>
ffffffc05040173a:	0b00b0ef          	jal	ra,ffffffc05040c7ea <printk>
ffffffc05040173e:	ed843783          	ld	a5,-296(s0)
ffffffc050401742:	1087b783          	ld	a5,264(a5)
ffffffc050401746:	85be                	mv	a1,a5
ffffffc050401748:	0000b517          	auipc	a0,0xb
ffffffc05040174c:	65050513          	addi	a0,a0,1616 # ffffffc05040cd98 <__FUNCTION__.2057+0x1e0>
ffffffc050401750:	09a0b0ef          	jal	ra,ffffffc05040c7ea <printk>
ffffffc050401754:	0000b617          	auipc	a2,0xb
ffffffc050401758:	76c60613          	addi	a2,a2,1900 # ffffffc05040cec0 <__FUNCTION__.1870>
ffffffc05040175c:	08d00593          	li	a1,141
ffffffc050401760:	0000b517          	auipc	a0,0xb
ffffffc050401764:	64850513          	addi	a0,a0,1608 # ffffffc05040cda8 <__FUNCTION__.2057+0x1f0>
ffffffc050401768:	c39ff0ef          	jal	ra,ffffffc0504013a0 <_panic>
ffffffc05040176c:	0001                	nop
ffffffc05040176e:	70f2                	ld	ra,312(sp)
ffffffc050401770:	7452                	ld	s0,304(sp)
ffffffc050401772:	6131                	addi	sp,sp,320
ffffffc050401774:	8082                	ret

ffffffc050401776 <vt100_move_cursor>:
ffffffc050401776:	7179                	addi	sp,sp,-48
ffffffc050401778:	f406                	sd	ra,40(sp)
ffffffc05040177a:	f022                	sd	s0,32(sp)
ffffffc05040177c:	1800                	addi	s0,sp,48
ffffffc05040177e:	87aa                	mv	a5,a0
ffffffc050401780:	872e                	mv	a4,a1
ffffffc050401782:	fcf42e23          	sw	a5,-36(s0)
ffffffc050401786:	87ba                	mv	a5,a4
ffffffc050401788:	fcf42c23          	sw	a5,-40(s0)
ffffffc05040178c:	915fe0ef          	jal	ra,ffffffc0504000a0 <disable_preempt>
ffffffc050401790:	fdc42703          	lw	a4,-36(s0)
ffffffc050401794:	fd842783          	lw	a5,-40(s0)
ffffffc050401798:	86ba                	mv	a3,a4
ffffffc05040179a:	863e                	mv	a2,a5
ffffffc05040179c:	45ed                	li	a1,27
ffffffc05040179e:	0000b517          	auipc	a0,0xb
ffffffc0504017a2:	73250513          	addi	a0,a0,1842 # ffffffc05040ced0 <__FUNCTION__.1870+0x10>
ffffffc0504017a6:	0440b0ef          	jal	ra,ffffffc05040c7ea <printk>
ffffffc0504017aa:	b1ffe0ef          	jal	ra,ffffffc0504002c8 <get_current_cpu_id>
ffffffc0504017ae:	fea43423          	sd	a0,-24(s0)
ffffffc0504017b2:	007ff717          	auipc	a4,0x7ff
ffffffc0504017b6:	e4670713          	addi	a4,a4,-442 # ffffffc050c005f8 <current_running>
ffffffc0504017ba:	fe843783          	ld	a5,-24(s0)
ffffffc0504017be:	078e                	slli	a5,a5,0x3
ffffffc0504017c0:	97ba                	add	a5,a5,a4
ffffffc0504017c2:	639c                	ld	a5,0(a5)
ffffffc0504017c4:	fdc42703          	lw	a4,-36(s0)
ffffffc0504017c8:	08e7a823          	sw	a4,144(a5)
ffffffc0504017cc:	007ff717          	auipc	a4,0x7ff
ffffffc0504017d0:	e2c70713          	addi	a4,a4,-468 # ffffffc050c005f8 <current_running>
ffffffc0504017d4:	fe843783          	ld	a5,-24(s0)
ffffffc0504017d8:	078e                	slli	a5,a5,0x3
ffffffc0504017da:	97ba                	add	a5,a5,a4
ffffffc0504017dc:	639c                	ld	a5,0(a5)
ffffffc0504017de:	fd842703          	lw	a4,-40(s0)
ffffffc0504017e2:	08e7aa23          	sw	a4,148(a5)
ffffffc0504017e6:	8b7fe0ef          	jal	ra,ffffffc05040009c <enable_preempt>
ffffffc0504017ea:	0001                	nop
ffffffc0504017ec:	70a2                	ld	ra,40(sp)
ffffffc0504017ee:	7402                	ld	s0,32(sp)
ffffffc0504017f0:	6145                	addi	sp,sp,48
ffffffc0504017f2:	8082                	ret

ffffffc0504017f4 <vt100_clear>:
ffffffc0504017f4:	1141                	addi	sp,sp,-16
ffffffc0504017f6:	e406                	sd	ra,8(sp)
ffffffc0504017f8:	e022                	sd	s0,0(sp)
ffffffc0504017fa:	0800                	addi	s0,sp,16
ffffffc0504017fc:	45ed                	li	a1,27
ffffffc0504017fe:	0000b517          	auipc	a0,0xb
ffffffc050401802:	6e250513          	addi	a0,a0,1762 # ffffffc05040cee0 <__FUNCTION__.1870+0x20>
ffffffc050401806:	7e50a0ef          	jal	ra,ffffffc05040c7ea <printk>
ffffffc05040180a:	0001                	nop
ffffffc05040180c:	60a2                	ld	ra,8(sp)
ffffffc05040180e:	6402                	ld	s0,0(sp)
ffffffc050401810:	0141                	addi	sp,sp,16
ffffffc050401812:	8082                	ret

ffffffc050401814 <vt100_hidden_cursor>:
ffffffc050401814:	1141                	addi	sp,sp,-16
ffffffc050401816:	e406                	sd	ra,8(sp)
ffffffc050401818:	e022                	sd	s0,0(sp)
ffffffc05040181a:	0800                	addi	s0,sp,16
ffffffc05040181c:	45ed                	li	a1,27
ffffffc05040181e:	0000b517          	auipc	a0,0xb
ffffffc050401822:	6ca50513          	addi	a0,a0,1738 # ffffffc05040cee8 <__FUNCTION__.1870+0x28>
ffffffc050401826:	7c50a0ef          	jal	ra,ffffffc05040c7ea <printk>
ffffffc05040182a:	0001                	nop
ffffffc05040182c:	60a2                	ld	ra,8(sp)
ffffffc05040182e:	6402                	ld	s0,0(sp)
ffffffc050401830:	0141                	addi	sp,sp,16
ffffffc050401832:	8082                	ret

ffffffc050401834 <screen_write_ch>:
ffffffc050401834:	7179                	addi	sp,sp,-48
ffffffc050401836:	f406                	sd	ra,40(sp)
ffffffc050401838:	f022                	sd	s0,32(sp)
ffffffc05040183a:	1800                	addi	s0,sp,48
ffffffc05040183c:	87aa                	mv	a5,a0
ffffffc05040183e:	fcf40fa3          	sb	a5,-33(s0)
ffffffc050401842:	a87fe0ef          	jal	ra,ffffffc0504002c8 <get_current_cpu_id>
ffffffc050401846:	fea43423          	sd	a0,-24(s0)
ffffffc05040184a:	fdf44783          	lbu	a5,-33(s0)
ffffffc05040184e:	0ff7f713          	andi	a4,a5,255
ffffffc050401852:	47a9                	li	a5,10
ffffffc050401854:	06f71a63          	bne	a4,a5,ffffffc0504018c8 <screen_write_ch+0x94>
ffffffc050401858:	007ff717          	auipc	a4,0x7ff
ffffffc05040185c:	da070713          	addi	a4,a4,-608 # ffffffc050c005f8 <current_running>
ffffffc050401860:	fe843783          	ld	a5,-24(s0)
ffffffc050401864:	078e                	slli	a5,a5,0x3
ffffffc050401866:	97ba                	add	a5,a5,a4
ffffffc050401868:	639c                	ld	a5,0(a5)
ffffffc05040186a:	4705                	li	a4,1
ffffffc05040186c:	08e7a823          	sw	a4,144(a5)
ffffffc050401870:	007ff717          	auipc	a4,0x7ff
ffffffc050401874:	d8870713          	addi	a4,a4,-632 # ffffffc050c005f8 <current_running>
ffffffc050401878:	fe843783          	ld	a5,-24(s0)
ffffffc05040187c:	078e                	slli	a5,a5,0x3
ffffffc05040187e:	97ba                	add	a5,a5,a4
ffffffc050401880:	639c                	ld	a5,0(a5)
ffffffc050401882:	0947a703          	lw	a4,148(a5)
ffffffc050401886:	2705                	addiw	a4,a4,1
ffffffc050401888:	2701                	sext.w	a4,a4
ffffffc05040188a:	08e7aa23          	sw	a4,148(a5)
ffffffc05040188e:	007ff717          	auipc	a4,0x7ff
ffffffc050401892:	d6a70713          	addi	a4,a4,-662 # ffffffc050c005f8 <current_running>
ffffffc050401896:	fe843783          	ld	a5,-24(s0)
ffffffc05040189a:	078e                	slli	a5,a5,0x3
ffffffc05040189c:	97ba                	add	a5,a5,a4
ffffffc05040189e:	639c                	ld	a5,0(a5)
ffffffc0504018a0:	0947a783          	lw	a5,148(a5)
ffffffc0504018a4:	873e                	mv	a4,a5
ffffffc0504018a6:	02300793          	li	a5,35
ffffffc0504018aa:	08f71c63          	bne	a4,a5,ffffffc050401942 <screen_write_ch+0x10e>
ffffffc0504018ae:	007ff717          	auipc	a4,0x7ff
ffffffc0504018b2:	d4a70713          	addi	a4,a4,-694 # ffffffc050c005f8 <current_running>
ffffffc0504018b6:	fe843783          	ld	a5,-24(s0)
ffffffc0504018ba:	078e                	slli	a5,a5,0x3
ffffffc0504018bc:	97ba                	add	a5,a5,a4
ffffffc0504018be:	639c                	ld	a5,0(a5)
ffffffc0504018c0:	4705                	li	a4,1
ffffffc0504018c2:	08e7aa23          	sw	a4,148(a5)
ffffffc0504018c6:	a8b5                	j	ffffffc050401942 <screen_write_ch+0x10e>
ffffffc0504018c8:	007ff717          	auipc	a4,0x7ff
ffffffc0504018cc:	d3070713          	addi	a4,a4,-720 # ffffffc050c005f8 <current_running>
ffffffc0504018d0:	fe843783          	ld	a5,-24(s0)
ffffffc0504018d4:	078e                	slli	a5,a5,0x3
ffffffc0504018d6:	97ba                	add	a5,a5,a4
ffffffc0504018d8:	639c                	ld	a5,0(a5)
ffffffc0504018da:	0947a783          	lw	a5,148(a5)
ffffffc0504018de:	37fd                	addiw	a5,a5,-1
ffffffc0504018e0:	2781                	sext.w	a5,a5
ffffffc0504018e2:	873e                	mv	a4,a5
ffffffc0504018e4:	87ba                	mv	a5,a4
ffffffc0504018e6:	0027979b          	slliw	a5,a5,0x2
ffffffc0504018ea:	9fb9                	addw	a5,a5,a4
ffffffc0504018ec:	0047979b          	slliw	a5,a5,0x4
ffffffc0504018f0:	0007871b          	sext.w	a4,a5
ffffffc0504018f4:	007ff697          	auipc	a3,0x7ff
ffffffc0504018f8:	d0468693          	addi	a3,a3,-764 # ffffffc050c005f8 <current_running>
ffffffc0504018fc:	fe843783          	ld	a5,-24(s0)
ffffffc050401900:	078e                	slli	a5,a5,0x3
ffffffc050401902:	97b6                	add	a5,a5,a3
ffffffc050401904:	639c                	ld	a5,0(a5)
ffffffc050401906:	0907a783          	lw	a5,144(a5)
ffffffc05040190a:	37fd                	addiw	a5,a5,-1
ffffffc05040190c:	2781                	sext.w	a5,a5
ffffffc05040190e:	9fb9                	addw	a5,a5,a4
ffffffc050401910:	2781                	sext.w	a5,a5
ffffffc050401912:	001fe717          	auipc	a4,0x1fe
ffffffc050401916:	6ee70713          	addi	a4,a4,1774 # ffffffc050600000 <new_screen>
ffffffc05040191a:	97ba                	add	a5,a5,a4
ffffffc05040191c:	fdf44703          	lbu	a4,-33(s0)
ffffffc050401920:	00e78023          	sb	a4,0(a5)
ffffffc050401924:	007ff717          	auipc	a4,0x7ff
ffffffc050401928:	cd470713          	addi	a4,a4,-812 # ffffffc050c005f8 <current_running>
ffffffc05040192c:	fe843783          	ld	a5,-24(s0)
ffffffc050401930:	078e                	slli	a5,a5,0x3
ffffffc050401932:	97ba                	add	a5,a5,a4
ffffffc050401934:	639c                	ld	a5,0(a5)
ffffffc050401936:	0907a703          	lw	a4,144(a5)
ffffffc05040193a:	2705                	addiw	a4,a4,1
ffffffc05040193c:	2701                	sext.w	a4,a4
ffffffc05040193e:	08e7a823          	sw	a4,144(a5)
ffffffc050401942:	0001                	nop
ffffffc050401944:	70a2                	ld	ra,40(sp)
ffffffc050401946:	7402                	ld	s0,32(sp)
ffffffc050401948:	6145                	addi	sp,sp,48
ffffffc05040194a:	8082                	ret

ffffffc05040194c <init_screen>:
ffffffc05040194c:	1141                	addi	sp,sp,-16
ffffffc05040194e:	e406                	sd	ra,8(sp)
ffffffc050401950:	e022                	sd	s0,0(sp)
ffffffc050401952:	0800                	addi	s0,sp,16
ffffffc050401954:	ec1ff0ef          	jal	ra,ffffffc050401814 <vt100_hidden_cursor>
ffffffc050401958:	e9dff0ef          	jal	ra,ffffffc0504017f4 <vt100_clear>
ffffffc05040195c:	0001                	nop
ffffffc05040195e:	60a2                	ld	ra,8(sp)
ffffffc050401960:	6402                	ld	s0,0(sp)
ffffffc050401962:	0141                	addi	sp,sp,16
ffffffc050401964:	8082                	ret

ffffffc050401966 <screen_clear>:
ffffffc050401966:	1101                	addi	sp,sp,-32
ffffffc050401968:	ec06                	sd	ra,24(sp)
ffffffc05040196a:	e822                	sd	s0,16(sp)
ffffffc05040196c:	1000                	addi	s0,sp,32
ffffffc05040196e:	fe042623          	sw	zero,-20(s0)
ffffffc050401972:	a8a1                	j	ffffffc0504019ca <screen_clear+0x64>
ffffffc050401974:	fe042423          	sw	zero,-24(s0)
ffffffc050401978:	a825                	j	ffffffc0504019b0 <screen_clear+0x4a>
ffffffc05040197a:	fec42703          	lw	a4,-20(s0)
ffffffc05040197e:	87ba                	mv	a5,a4
ffffffc050401980:	0027979b          	slliw	a5,a5,0x2
ffffffc050401984:	9fb9                	addw	a5,a5,a4
ffffffc050401986:	0047979b          	slliw	a5,a5,0x4
ffffffc05040198a:	2781                	sext.w	a5,a5
ffffffc05040198c:	fe842703          	lw	a4,-24(s0)
ffffffc050401990:	9fb9                	addw	a5,a5,a4
ffffffc050401992:	2781                	sext.w	a5,a5
ffffffc050401994:	001fe717          	auipc	a4,0x1fe
ffffffc050401998:	66c70713          	addi	a4,a4,1644 # ffffffc050600000 <new_screen>
ffffffc05040199c:	97ba                	add	a5,a5,a4
ffffffc05040199e:	02000713          	li	a4,32
ffffffc0504019a2:	00e78023          	sb	a4,0(a5)
ffffffc0504019a6:	fe842783          	lw	a5,-24(s0)
ffffffc0504019aa:	2785                	addiw	a5,a5,1
ffffffc0504019ac:	fef42423          	sw	a5,-24(s0)
ffffffc0504019b0:	fe842783          	lw	a5,-24(s0)
ffffffc0504019b4:	0007871b          	sext.w	a4,a5
ffffffc0504019b8:	04f00793          	li	a5,79
ffffffc0504019bc:	fae7dfe3          	bge	a5,a4,ffffffc05040197a <screen_clear+0x14>
ffffffc0504019c0:	fec42783          	lw	a5,-20(s0)
ffffffc0504019c4:	2785                	addiw	a5,a5,1
ffffffc0504019c6:	fef42623          	sw	a5,-20(s0)
ffffffc0504019ca:	fec42783          	lw	a5,-20(s0)
ffffffc0504019ce:	0007871b          	sext.w	a4,a5
ffffffc0504019d2:	02200793          	li	a5,34
ffffffc0504019d6:	f8e7dfe3          	bge	a5,a4,ffffffc050401974 <screen_clear+0xe>
ffffffc0504019da:	8effe0ef          	jal	ra,ffffffc0504002c8 <get_current_cpu_id>
ffffffc0504019de:	fea43023          	sd	a0,-32(s0)
ffffffc0504019e2:	007ff717          	auipc	a4,0x7ff
ffffffc0504019e6:	c1670713          	addi	a4,a4,-1002 # ffffffc050c005f8 <current_running>
ffffffc0504019ea:	fe043783          	ld	a5,-32(s0)
ffffffc0504019ee:	078e                	slli	a5,a5,0x3
ffffffc0504019f0:	97ba                	add	a5,a5,a4
ffffffc0504019f2:	639c                	ld	a5,0(a5)
ffffffc0504019f4:	4705                	li	a4,1
ffffffc0504019f6:	08e7a823          	sw	a4,144(a5)
ffffffc0504019fa:	007ff717          	auipc	a4,0x7ff
ffffffc0504019fe:	bfe70713          	addi	a4,a4,-1026 # ffffffc050c005f8 <current_running>
ffffffc050401a02:	fe043783          	ld	a5,-32(s0)
ffffffc050401a06:	078e                	slli	a5,a5,0x3
ffffffc050401a08:	97ba                	add	a5,a5,a4
ffffffc050401a0a:	639c                	ld	a5,0(a5)
ffffffc050401a0c:	4705                	li	a4,1
ffffffc050401a0e:	08e7aa23          	sw	a4,148(a5)
ffffffc050401a12:	0ca000ef          	jal	ra,ffffffc050401adc <screen_reflush>
ffffffc050401a16:	0001                	nop
ffffffc050401a18:	60e2                	ld	ra,24(sp)
ffffffc050401a1a:	6442                	ld	s0,16(sp)
ffffffc050401a1c:	6105                	addi	sp,sp,32
ffffffc050401a1e:	8082                	ret

ffffffc050401a20 <screen_move_cursor>:
ffffffc050401a20:	7179                	addi	sp,sp,-48
ffffffc050401a22:	f406                	sd	ra,40(sp)
ffffffc050401a24:	f022                	sd	s0,32(sp)
ffffffc050401a26:	1800                	addi	s0,sp,48
ffffffc050401a28:	87aa                	mv	a5,a0
ffffffc050401a2a:	872e                	mv	a4,a1
ffffffc050401a2c:	fcf42e23          	sw	a5,-36(s0)
ffffffc050401a30:	87ba                	mv	a5,a4
ffffffc050401a32:	fcf42c23          	sw	a5,-40(s0)
ffffffc050401a36:	893fe0ef          	jal	ra,ffffffc0504002c8 <get_current_cpu_id>
ffffffc050401a3a:	fea43423          	sd	a0,-24(s0)
ffffffc050401a3e:	007ff717          	auipc	a4,0x7ff
ffffffc050401a42:	bba70713          	addi	a4,a4,-1094 # ffffffc050c005f8 <current_running>
ffffffc050401a46:	fe843783          	ld	a5,-24(s0)
ffffffc050401a4a:	078e                	slli	a5,a5,0x3
ffffffc050401a4c:	97ba                	add	a5,a5,a4
ffffffc050401a4e:	639c                	ld	a5,0(a5)
ffffffc050401a50:	fdc42703          	lw	a4,-36(s0)
ffffffc050401a54:	08e7a823          	sw	a4,144(a5)
ffffffc050401a58:	007ff717          	auipc	a4,0x7ff
ffffffc050401a5c:	ba070713          	addi	a4,a4,-1120 # ffffffc050c005f8 <current_running>
ffffffc050401a60:	fe843783          	ld	a5,-24(s0)
ffffffc050401a64:	078e                	slli	a5,a5,0x3
ffffffc050401a66:	97ba                	add	a5,a5,a4
ffffffc050401a68:	639c                	ld	a5,0(a5)
ffffffc050401a6a:	fd842703          	lw	a4,-40(s0)
ffffffc050401a6e:	08e7aa23          	sw	a4,148(a5)
ffffffc050401a72:	0001                	nop
ffffffc050401a74:	70a2                	ld	ra,40(sp)
ffffffc050401a76:	7402                	ld	s0,32(sp)
ffffffc050401a78:	6145                	addi	sp,sp,48
ffffffc050401a7a:	8082                	ret

ffffffc050401a7c <screen_write>:
ffffffc050401a7c:	7179                	addi	sp,sp,-48
ffffffc050401a7e:	f406                	sd	ra,40(sp)
ffffffc050401a80:	f022                	sd	s0,32(sp)
ffffffc050401a82:	1800                	addi	s0,sp,48
ffffffc050401a84:	fca43c23          	sd	a0,-40(s0)
ffffffc050401a88:	fe042623          	sw	zero,-20(s0)
ffffffc050401a8c:	fd843503          	ld	a0,-40(s0)
ffffffc050401a90:	2740a0ef          	jal	ra,ffffffc05040bd04 <kstrlen>
ffffffc050401a94:	87aa                	mv	a5,a0
ffffffc050401a96:	fef42423          	sw	a5,-24(s0)
ffffffc050401a9a:	fe042623          	sw	zero,-20(s0)
ffffffc050401a9e:	a005                	j	ffffffc050401abe <screen_write+0x42>
ffffffc050401aa0:	fec42783          	lw	a5,-20(s0)
ffffffc050401aa4:	fd843703          	ld	a4,-40(s0)
ffffffc050401aa8:	97ba                	add	a5,a5,a4
ffffffc050401aaa:	0007c783          	lbu	a5,0(a5)
ffffffc050401aae:	853e                	mv	a0,a5
ffffffc050401ab0:	d85ff0ef          	jal	ra,ffffffc050401834 <screen_write_ch>
ffffffc050401ab4:	fec42783          	lw	a5,-20(s0)
ffffffc050401ab8:	2785                	addiw	a5,a5,1
ffffffc050401aba:	fef42623          	sw	a5,-20(s0)
ffffffc050401abe:	fec42703          	lw	a4,-20(s0)
ffffffc050401ac2:	fe842783          	lw	a5,-24(s0)
ffffffc050401ac6:	2701                	sext.w	a4,a4
ffffffc050401ac8:	2781                	sext.w	a5,a5
ffffffc050401aca:	fcf74be3          	blt	a4,a5,ffffffc050401aa0 <screen_write+0x24>
ffffffc050401ace:	00e000ef          	jal	ra,ffffffc050401adc <screen_reflush>
ffffffc050401ad2:	0001                	nop
ffffffc050401ad4:	70a2                	ld	ra,40(sp)
ffffffc050401ad6:	7402                	ld	s0,32(sp)
ffffffc050401ad8:	6145                	addi	sp,sp,48
ffffffc050401ada:	8082                	ret

ffffffc050401adc <screen_reflush>:
ffffffc050401adc:	7179                	addi	sp,sp,-48
ffffffc050401ade:	f406                	sd	ra,40(sp)
ffffffc050401ae0:	f022                	sd	s0,32(sp)
ffffffc050401ae2:	1800                	addi	s0,sp,48
ffffffc050401ae4:	fe4fe0ef          	jal	ra,ffffffc0504002c8 <get_current_cpu_id>
ffffffc050401ae8:	fea43023          	sd	a0,-32(s0)
ffffffc050401aec:	007ff717          	auipc	a4,0x7ff
ffffffc050401af0:	b0c70713          	addi	a4,a4,-1268 # ffffffc050c005f8 <current_running>
ffffffc050401af4:	fe043783          	ld	a5,-32(s0)
ffffffc050401af8:	078e                	slli	a5,a5,0x3
ffffffc050401afa:	97ba                	add	a5,a5,a4
ffffffc050401afc:	639c                	ld	a5,0(a5)
ffffffc050401afe:	0907a783          	lw	a5,144(a5)
ffffffc050401b02:	fcf42e23          	sw	a5,-36(s0)
ffffffc050401b06:	007ff717          	auipc	a4,0x7ff
ffffffc050401b0a:	af270713          	addi	a4,a4,-1294 # ffffffc050c005f8 <current_running>
ffffffc050401b0e:	fe043783          	ld	a5,-32(s0)
ffffffc050401b12:	078e                	slli	a5,a5,0x3
ffffffc050401b14:	97ba                	add	a5,a5,a4
ffffffc050401b16:	639c                	ld	a5,0(a5)
ffffffc050401b18:	0947a783          	lw	a5,148(a5)
ffffffc050401b1c:	fcf42c23          	sw	a5,-40(s0)
ffffffc050401b20:	fe042623          	sw	zero,-20(s0)
ffffffc050401b24:	aa31                	j	ffffffc050401c40 <screen_reflush+0x164>
ffffffc050401b26:	fe042423          	sw	zero,-24(s0)
ffffffc050401b2a:	a8f5                	j	ffffffc050401c26 <screen_reflush+0x14a>
ffffffc050401b2c:	fec42703          	lw	a4,-20(s0)
ffffffc050401b30:	87ba                	mv	a5,a4
ffffffc050401b32:	0027979b          	slliw	a5,a5,0x2
ffffffc050401b36:	9fb9                	addw	a5,a5,a4
ffffffc050401b38:	0047979b          	slliw	a5,a5,0x4
ffffffc050401b3c:	2781                	sext.w	a5,a5
ffffffc050401b3e:	fe842703          	lw	a4,-24(s0)
ffffffc050401b42:	9fb9                	addw	a5,a5,a4
ffffffc050401b44:	2781                	sext.w	a5,a5
ffffffc050401b46:	001fe717          	auipc	a4,0x1fe
ffffffc050401b4a:	4ba70713          	addi	a4,a4,1210 # ffffffc050600000 <new_screen>
ffffffc050401b4e:	97ba                	add	a5,a5,a4
ffffffc050401b50:	0007c683          	lbu	a3,0(a5)
ffffffc050401b54:	fec42703          	lw	a4,-20(s0)
ffffffc050401b58:	87ba                	mv	a5,a4
ffffffc050401b5a:	0027979b          	slliw	a5,a5,0x2
ffffffc050401b5e:	9fb9                	addw	a5,a5,a4
ffffffc050401b60:	0047979b          	slliw	a5,a5,0x4
ffffffc050401b64:	2781                	sext.w	a5,a5
ffffffc050401b66:	fe842703          	lw	a4,-24(s0)
ffffffc050401b6a:	9fb9                	addw	a5,a5,a4
ffffffc050401b6c:	2781                	sext.w	a5,a5
ffffffc050401b6e:	001ff717          	auipc	a4,0x1ff
ffffffc050401b72:	f8270713          	addi	a4,a4,-126 # ffffffc050600af0 <old_screen>
ffffffc050401b76:	97ba                	add	a5,a5,a4
ffffffc050401b78:	0007c783          	lbu	a5,0(a5)
ffffffc050401b7c:	8736                	mv	a4,a3
ffffffc050401b7e:	08f70f63          	beq	a4,a5,ffffffc050401c1c <screen_reflush+0x140>
ffffffc050401b82:	fe842783          	lw	a5,-24(s0)
ffffffc050401b86:	2785                	addiw	a5,a5,1
ffffffc050401b88:	0007871b          	sext.w	a4,a5
ffffffc050401b8c:	fec42783          	lw	a5,-20(s0)
ffffffc050401b90:	2785                	addiw	a5,a5,1
ffffffc050401b92:	2781                	sext.w	a5,a5
ffffffc050401b94:	85be                	mv	a1,a5
ffffffc050401b96:	853a                	mv	a0,a4
ffffffc050401b98:	bdfff0ef          	jal	ra,ffffffc050401776 <vt100_move_cursor>
ffffffc050401b9c:	fec42703          	lw	a4,-20(s0)
ffffffc050401ba0:	87ba                	mv	a5,a4
ffffffc050401ba2:	0027979b          	slliw	a5,a5,0x2
ffffffc050401ba6:	9fb9                	addw	a5,a5,a4
ffffffc050401ba8:	0047979b          	slliw	a5,a5,0x4
ffffffc050401bac:	2781                	sext.w	a5,a5
ffffffc050401bae:	fe842703          	lw	a4,-24(s0)
ffffffc050401bb2:	9fb9                	addw	a5,a5,a4
ffffffc050401bb4:	2781                	sext.w	a5,a5
ffffffc050401bb6:	001fe717          	auipc	a4,0x1fe
ffffffc050401bba:	44a70713          	addi	a4,a4,1098 # ffffffc050600000 <new_screen>
ffffffc050401bbe:	97ba                	add	a5,a5,a4
ffffffc050401bc0:	0007c783          	lbu	a5,0(a5)
ffffffc050401bc4:	853e                	mv	a0,a5
ffffffc050401bc6:	ebefe0ef          	jal	ra,ffffffc050400284 <port_write_ch>
ffffffc050401bca:	fec42703          	lw	a4,-20(s0)
ffffffc050401bce:	87ba                	mv	a5,a4
ffffffc050401bd0:	0027979b          	slliw	a5,a5,0x2
ffffffc050401bd4:	9fb9                	addw	a5,a5,a4
ffffffc050401bd6:	0047979b          	slliw	a5,a5,0x4
ffffffc050401bda:	2781                	sext.w	a5,a5
ffffffc050401bdc:	fe842703          	lw	a4,-24(s0)
ffffffc050401be0:	9fb9                	addw	a5,a5,a4
ffffffc050401be2:	0007869b          	sext.w	a3,a5
ffffffc050401be6:	fec42703          	lw	a4,-20(s0)
ffffffc050401bea:	87ba                	mv	a5,a4
ffffffc050401bec:	0027979b          	slliw	a5,a5,0x2
ffffffc050401bf0:	9fb9                	addw	a5,a5,a4
ffffffc050401bf2:	0047979b          	slliw	a5,a5,0x4
ffffffc050401bf6:	2781                	sext.w	a5,a5
ffffffc050401bf8:	fe842703          	lw	a4,-24(s0)
ffffffc050401bfc:	9fb9                	addw	a5,a5,a4
ffffffc050401bfe:	2781                	sext.w	a5,a5
ffffffc050401c00:	001fe717          	auipc	a4,0x1fe
ffffffc050401c04:	40070713          	addi	a4,a4,1024 # ffffffc050600000 <new_screen>
ffffffc050401c08:	9736                	add	a4,a4,a3
ffffffc050401c0a:	00074703          	lbu	a4,0(a4)
ffffffc050401c0e:	001ff697          	auipc	a3,0x1ff
ffffffc050401c12:	ee268693          	addi	a3,a3,-286 # ffffffc050600af0 <old_screen>
ffffffc050401c16:	97b6                	add	a5,a5,a3
ffffffc050401c18:	00e78023          	sb	a4,0(a5)
ffffffc050401c1c:	fe842783          	lw	a5,-24(s0)
ffffffc050401c20:	2785                	addiw	a5,a5,1
ffffffc050401c22:	fef42423          	sw	a5,-24(s0)
ffffffc050401c26:	fe842783          	lw	a5,-24(s0)
ffffffc050401c2a:	0007871b          	sext.w	a4,a5
ffffffc050401c2e:	04f00793          	li	a5,79
ffffffc050401c32:	eee7dde3          	bge	a5,a4,ffffffc050401b2c <screen_reflush+0x50>
ffffffc050401c36:	fec42783          	lw	a5,-20(s0)
ffffffc050401c3a:	2785                	addiw	a5,a5,1
ffffffc050401c3c:	fef42623          	sw	a5,-20(s0)
ffffffc050401c40:	fec42783          	lw	a5,-20(s0)
ffffffc050401c44:	0007871b          	sext.w	a4,a5
ffffffc050401c48:	02200793          	li	a5,34
ffffffc050401c4c:	ece7dde3          	bge	a5,a4,ffffffc050401b26 <screen_reflush+0x4a>
ffffffc050401c50:	007ff717          	auipc	a4,0x7ff
ffffffc050401c54:	9a870713          	addi	a4,a4,-1624 # ffffffc050c005f8 <current_running>
ffffffc050401c58:	fe043783          	ld	a5,-32(s0)
ffffffc050401c5c:	078e                	slli	a5,a5,0x3
ffffffc050401c5e:	97ba                	add	a5,a5,a4
ffffffc050401c60:	639c                	ld	a5,0(a5)
ffffffc050401c62:	fdc42703          	lw	a4,-36(s0)
ffffffc050401c66:	08e7a823          	sw	a4,144(a5)
ffffffc050401c6a:	007ff717          	auipc	a4,0x7ff
ffffffc050401c6e:	98e70713          	addi	a4,a4,-1650 # ffffffc050c005f8 <current_running>
ffffffc050401c72:	fe043783          	ld	a5,-32(s0)
ffffffc050401c76:	078e                	slli	a5,a5,0x3
ffffffc050401c78:	97ba                	add	a5,a5,a4
ffffffc050401c7a:	639c                	ld	a5,0(a5)
ffffffc050401c7c:	fd842703          	lw	a4,-40(s0)
ffffffc050401c80:	08e7aa23          	sw	a4,148(a5)
ffffffc050401c84:	0001                	nop
ffffffc050401c86:	70a2                	ld	ra,40(sp)
ffffffc050401c88:	7402                	ld	s0,32(sp)
ffffffc050401c8a:	6145                	addi	sp,sp,48
ffffffc050401c8c:	8082                	ret

ffffffc050401c8e <screen_back_ch>:
ffffffc050401c8e:	1101                	addi	sp,sp,-32
ffffffc050401c90:	ec06                	sd	ra,24(sp)
ffffffc050401c92:	e822                	sd	s0,16(sp)
ffffffc050401c94:	1000                	addi	s0,sp,32
ffffffc050401c96:	e32fe0ef          	jal	ra,ffffffc0504002c8 <get_current_cpu_id>
ffffffc050401c9a:	fea43423          	sd	a0,-24(s0)
ffffffc050401c9e:	007ff717          	auipc	a4,0x7ff
ffffffc050401ca2:	95a70713          	addi	a4,a4,-1702 # ffffffc050c005f8 <current_running>
ffffffc050401ca6:	fe843783          	ld	a5,-24(s0)
ffffffc050401caa:	078e                	slli	a5,a5,0x3
ffffffc050401cac:	97ba                	add	a5,a5,a4
ffffffc050401cae:	639c                	ld	a5,0(a5)
ffffffc050401cb0:	0947a783          	lw	a5,148(a5)
ffffffc050401cb4:	37fd                	addiw	a5,a5,-1
ffffffc050401cb6:	2781                	sext.w	a5,a5
ffffffc050401cb8:	873e                	mv	a4,a5
ffffffc050401cba:	87ba                	mv	a5,a4
ffffffc050401cbc:	0027979b          	slliw	a5,a5,0x2
ffffffc050401cc0:	9fb9                	addw	a5,a5,a4
ffffffc050401cc2:	0047979b          	slliw	a5,a5,0x4
ffffffc050401cc6:	0007871b          	sext.w	a4,a5
ffffffc050401cca:	007ff697          	auipc	a3,0x7ff
ffffffc050401cce:	92e68693          	addi	a3,a3,-1746 # ffffffc050c005f8 <current_running>
ffffffc050401cd2:	fe843783          	ld	a5,-24(s0)
ffffffc050401cd6:	078e                	slli	a5,a5,0x3
ffffffc050401cd8:	97b6                	add	a5,a5,a3
ffffffc050401cda:	639c                	ld	a5,0(a5)
ffffffc050401cdc:	0907a783          	lw	a5,144(a5)
ffffffc050401ce0:	37f9                	addiw	a5,a5,-2
ffffffc050401ce2:	2781                	sext.w	a5,a5
ffffffc050401ce4:	9fb9                	addw	a5,a5,a4
ffffffc050401ce6:	2781                	sext.w	a5,a5
ffffffc050401ce8:	001fe717          	auipc	a4,0x1fe
ffffffc050401cec:	31870713          	addi	a4,a4,792 # ffffffc050600000 <new_screen>
ffffffc050401cf0:	97ba                	add	a5,a5,a4
ffffffc050401cf2:	02000713          	li	a4,32
ffffffc050401cf6:	00e78023          	sb	a4,0(a5)
ffffffc050401cfa:	007ff717          	auipc	a4,0x7ff
ffffffc050401cfe:	8fe70713          	addi	a4,a4,-1794 # ffffffc050c005f8 <current_running>
ffffffc050401d02:	fe843783          	ld	a5,-24(s0)
ffffffc050401d06:	078e                	slli	a5,a5,0x3
ffffffc050401d08:	97ba                	add	a5,a5,a4
ffffffc050401d0a:	639c                	ld	a5,0(a5)
ffffffc050401d0c:	0907a703          	lw	a4,144(a5)
ffffffc050401d10:	377d                	addiw	a4,a4,-1
ffffffc050401d12:	2701                	sext.w	a4,a4
ffffffc050401d14:	08e7a823          	sw	a4,144(a5)
ffffffc050401d18:	0001                	nop
ffffffc050401d1a:	60e2                	ld	ra,24(sp)
ffffffc050401d1c:	6442                	ld	s0,16(sp)
ffffffc050401d1e:	6105                	addi	sp,sp,32
ffffffc050401d20:	8082                	ret

ffffffc050401d22 <screen_back>:
ffffffc050401d22:	1141                	addi	sp,sp,-16
ffffffc050401d24:	e406                	sd	ra,8(sp)
ffffffc050401d26:	e022                	sd	s0,0(sp)
ffffffc050401d28:	0800                	addi	s0,sp,16
ffffffc050401d2a:	f65ff0ef          	jal	ra,ffffffc050401c8e <screen_back_ch>
ffffffc050401d2e:	dafff0ef          	jal	ra,ffffffc050401adc <screen_reflush>
ffffffc050401d32:	0001                	nop
ffffffc050401d34:	60a2                	ld	ra,8(sp)
ffffffc050401d36:	6402                	ld	s0,0(sp)
ffffffc050401d38:	0141                	addi	sp,sp,16
ffffffc050401d3a:	8082                	ret

ffffffc050401d3c <writel>:
ffffffc050401d3c:	1101                	addi	sp,sp,-32
ffffffc050401d3e:	ec22                	sd	s0,24(sp)
ffffffc050401d40:	1000                	addi	s0,sp,32
ffffffc050401d42:	87aa                	mv	a5,a0
ffffffc050401d44:	feb43023          	sd	a1,-32(s0)
ffffffc050401d48:	fef42623          	sw	a5,-20(s0)
ffffffc050401d4c:	0550000f          	fence	ow,ow
ffffffc050401d50:	fe043783          	ld	a5,-32(s0)
ffffffc050401d54:	fec42703          	lw	a4,-20(s0)
ffffffc050401d58:	c398                	sw	a4,0(a5)
ffffffc050401d5a:	0001                	nop
ffffffc050401d5c:	6462                	ld	s0,24(sp)
ffffffc050401d5e:	6105                	addi	sp,sp,32
ffffffc050401d60:	8082                	ret

ffffffc050401d62 <readl>:
ffffffc050401d62:	7179                	addi	sp,sp,-48
ffffffc050401d64:	f422                	sd	s0,40(sp)
ffffffc050401d66:	1800                	addi	s0,sp,48
ffffffc050401d68:	fca43c23          	sd	a0,-40(s0)
ffffffc050401d6c:	fd843783          	ld	a5,-40(s0)
ffffffc050401d70:	439c                	lw	a5,0(a5)
ffffffc050401d72:	fef42623          	sw	a5,-20(s0)
ffffffc050401d76:	0aa0000f          	fence	ir,ir
ffffffc050401d7a:	fec42783          	lw	a5,-20(s0)
ffffffc050401d7e:	853e                	mv	a0,a5
ffffffc050401d80:	7422                	ld	s0,40(sp)
ffffffc050401d82:	6145                	addi	sp,sp,48
ffffffc050401d84:	8082                	ret

ffffffc050401d86 <plic_toggle>:
ffffffc050401d86:	7179                	addi	sp,sp,-48
ffffffc050401d88:	f406                	sd	ra,40(sp)
ffffffc050401d8a:	f022                	sd	s0,32(sp)
ffffffc050401d8c:	1800                	addi	s0,sp,48
ffffffc050401d8e:	fca43c23          	sd	a0,-40(s0)
ffffffc050401d92:	87ae                	mv	a5,a1
ffffffc050401d94:	8732                	mv	a4,a2
ffffffc050401d96:	fcf42a23          	sw	a5,-44(s0)
ffffffc050401d9a:	87ba                	mv	a5,a4
ffffffc050401d9c:	fcf42823          	sw	a5,-48(s0)
ffffffc050401da0:	fd843783          	ld	a5,-40(s0)
ffffffc050401da4:	6b98                	ld	a4,16(a5)
ffffffc050401da6:	fd442783          	lw	a5,-44(s0)
ffffffc050401daa:	41f7d69b          	sraiw	a3,a5,0x1f
ffffffc050401dae:	01b6d69b          	srliw	a3,a3,0x1b
ffffffc050401db2:	9fb5                	addw	a5,a5,a3
ffffffc050401db4:	4057d79b          	sraiw	a5,a5,0x5
ffffffc050401db8:	2781                	sext.w	a5,a5
ffffffc050401dba:	078a                	slli	a5,a5,0x2
ffffffc050401dbc:	97ba                	add	a5,a5,a4
ffffffc050401dbe:	fef43423          	sd	a5,-24(s0)
ffffffc050401dc2:	fd442703          	lw	a4,-44(s0)
ffffffc050401dc6:	41f7579b          	sraiw	a5,a4,0x1f
ffffffc050401dca:	01b7d79b          	srliw	a5,a5,0x1b
ffffffc050401dce:	9f3d                	addw	a4,a4,a5
ffffffc050401dd0:	8b7d                	andi	a4,a4,31
ffffffc050401dd2:	40f707bb          	subw	a5,a4,a5
ffffffc050401dd6:	2781                	sext.w	a5,a5
ffffffc050401dd8:	4705                	li	a4,1
ffffffc050401dda:	00f717bb          	sllw	a5,a4,a5
ffffffc050401dde:	2781                	sext.w	a5,a5
ffffffc050401de0:	fef42223          	sw	a5,-28(s0)
ffffffc050401de4:	fd042783          	lw	a5,-48(s0)
ffffffc050401de8:	2781                	sext.w	a5,a5
ffffffc050401dea:	c395                	beqz	a5,ffffffc050401e0e <plic_toggle+0x88>
ffffffc050401dec:	fe843503          	ld	a0,-24(s0)
ffffffc050401df0:	f73ff0ef          	jal	ra,ffffffc050401d62 <readl>
ffffffc050401df4:	87aa                	mv	a5,a0
ffffffc050401df6:	0007871b          	sext.w	a4,a5
ffffffc050401dfa:	fe442783          	lw	a5,-28(s0)
ffffffc050401dfe:	8fd9                	or	a5,a5,a4
ffffffc050401e00:	2781                	sext.w	a5,a5
ffffffc050401e02:	fe843583          	ld	a1,-24(s0)
ffffffc050401e06:	853e                	mv	a0,a5
ffffffc050401e08:	f35ff0ef          	jal	ra,ffffffc050401d3c <writel>
ffffffc050401e0c:	a025                	j	ffffffc050401e34 <plic_toggle+0xae>
ffffffc050401e0e:	fe843503          	ld	a0,-24(s0)
ffffffc050401e12:	f51ff0ef          	jal	ra,ffffffc050401d62 <readl>
ffffffc050401e16:	87aa                	mv	a5,a0
ffffffc050401e18:	0007871b          	sext.w	a4,a5
ffffffc050401e1c:	fe442783          	lw	a5,-28(s0)
ffffffc050401e20:	fff7c793          	not	a5,a5
ffffffc050401e24:	2781                	sext.w	a5,a5
ffffffc050401e26:	8ff9                	and	a5,a5,a4
ffffffc050401e28:	2781                	sext.w	a5,a5
ffffffc050401e2a:	fe843583          	ld	a1,-24(s0)
ffffffc050401e2e:	853e                	mv	a0,a5
ffffffc050401e30:	f0dff0ef          	jal	ra,ffffffc050401d3c <writel>
ffffffc050401e34:	0001                	nop
ffffffc050401e36:	70a2                	ld	ra,40(sp)
ffffffc050401e38:	7402                	ld	s0,32(sp)
ffffffc050401e3a:	6145                	addi	sp,sp,48
ffffffc050401e3c:	8082                	ret

ffffffc050401e3e <plic_irq_unmask>:
ffffffc050401e3e:	7179                	addi	sp,sp,-48
ffffffc050401e40:	f406                	sd	ra,40(sp)
ffffffc050401e42:	f022                	sd	s0,32(sp)
ffffffc050401e44:	1800                	addi	s0,sp,48
ffffffc050401e46:	87aa                	mv	a5,a0
ffffffc050401e48:	fcf42e23          	sw	a5,-36(s0)
ffffffc050401e4c:	4785                	li	a5,1
ffffffc050401e4e:	fef42623          	sw	a5,-20(s0)
ffffffc050401e52:	fec42683          	lw	a3,-20(s0)
ffffffc050401e56:	001ff797          	auipc	a5,0x1ff
ffffffc050401e5a:	78a78793          	addi	a5,a5,1930 # ffffffc0506015e0 <plic_regs>
ffffffc050401e5e:	639c                	ld	a5,0(a5)
ffffffc050401e60:	fdc42703          	lw	a4,-36(s0)
ffffffc050401e64:	0027171b          	slliw	a4,a4,0x2
ffffffc050401e68:	2701                	sext.w	a4,a4
ffffffc050401e6a:	97ba                	add	a5,a5,a4
ffffffc050401e6c:	85be                	mv	a1,a5
ffffffc050401e6e:	8536                	mv	a0,a3
ffffffc050401e70:	ecdff0ef          	jal	ra,ffffffc050401d3c <writel>
ffffffc050401e74:	00200797          	auipc	a5,0x200
ffffffc050401e78:	86478793          	addi	a5,a5,-1948 # ffffffc0506016d8 <plic_handlers>
ffffffc050401e7c:	fef43023          	sd	a5,-32(s0)
ffffffc050401e80:	fe043783          	ld	a5,-32(s0)
ffffffc050401e84:	0007c783          	lbu	a5,0(a5)
ffffffc050401e88:	cb99                	beqz	a5,ffffffc050401e9e <plic_irq_unmask+0x60>
ffffffc050401e8a:	fec42703          	lw	a4,-20(s0)
ffffffc050401e8e:	fdc42783          	lw	a5,-36(s0)
ffffffc050401e92:	863a                	mv	a2,a4
ffffffc050401e94:	85be                	mv	a1,a5
ffffffc050401e96:	fe043503          	ld	a0,-32(s0)
ffffffc050401e9a:	eedff0ef          	jal	ra,ffffffc050401d86 <plic_toggle>
ffffffc050401e9e:	0001                	nop
ffffffc050401ea0:	70a2                	ld	ra,40(sp)
ffffffc050401ea2:	7402                	ld	s0,32(sp)
ffffffc050401ea4:	6145                	addi	sp,sp,48
ffffffc050401ea6:	8082                	ret

ffffffc050401ea8 <plic_irq_mask>:
ffffffc050401ea8:	7179                	addi	sp,sp,-48
ffffffc050401eaa:	f406                	sd	ra,40(sp)
ffffffc050401eac:	f022                	sd	s0,32(sp)
ffffffc050401eae:	1800                	addi	s0,sp,48
ffffffc050401eb0:	87aa                	mv	a5,a0
ffffffc050401eb2:	fcf42e23          	sw	a5,-36(s0)
ffffffc050401eb6:	fe042623          	sw	zero,-20(s0)
ffffffc050401eba:	fec42683          	lw	a3,-20(s0)
ffffffc050401ebe:	001ff797          	auipc	a5,0x1ff
ffffffc050401ec2:	72278793          	addi	a5,a5,1826 # ffffffc0506015e0 <plic_regs>
ffffffc050401ec6:	639c                	ld	a5,0(a5)
ffffffc050401ec8:	fdc42703          	lw	a4,-36(s0)
ffffffc050401ecc:	0027171b          	slliw	a4,a4,0x2
ffffffc050401ed0:	2701                	sext.w	a4,a4
ffffffc050401ed2:	97ba                	add	a5,a5,a4
ffffffc050401ed4:	85be                	mv	a1,a5
ffffffc050401ed6:	8536                	mv	a0,a3
ffffffc050401ed8:	e65ff0ef          	jal	ra,ffffffc050401d3c <writel>
ffffffc050401edc:	001ff797          	auipc	a5,0x1ff
ffffffc050401ee0:	7fc78793          	addi	a5,a5,2044 # ffffffc0506016d8 <plic_handlers>
ffffffc050401ee4:	fef43023          	sd	a5,-32(s0)
ffffffc050401ee8:	fe043783          	ld	a5,-32(s0)
ffffffc050401eec:	0007c783          	lbu	a5,0(a5)
ffffffc050401ef0:	cb99                	beqz	a5,ffffffc050401f06 <plic_irq_mask+0x5e>
ffffffc050401ef2:	fec42703          	lw	a4,-20(s0)
ffffffc050401ef6:	fdc42783          	lw	a5,-36(s0)
ffffffc050401efa:	863a                	mv	a2,a4
ffffffc050401efc:	85be                	mv	a1,a5
ffffffc050401efe:	fe043503          	ld	a0,-32(s0)
ffffffc050401f02:	e85ff0ef          	jal	ra,ffffffc050401d86 <plic_toggle>
ffffffc050401f06:	0001                	nop
ffffffc050401f08:	70a2                	ld	ra,40(sp)
ffffffc050401f0a:	7402                	ld	s0,32(sp)
ffffffc050401f0c:	6145                	addi	sp,sp,48
ffffffc050401f0e:	8082                	ret

ffffffc050401f10 <plic_irq_eoi>:
ffffffc050401f10:	7179                	addi	sp,sp,-48
ffffffc050401f12:	f406                	sd	ra,40(sp)
ffffffc050401f14:	f022                	sd	s0,32(sp)
ffffffc050401f16:	1800                	addi	s0,sp,48
ffffffc050401f18:	87aa                	mv	a5,a0
ffffffc050401f1a:	fcf42e23          	sw	a5,-36(s0)
ffffffc050401f1e:	001ff797          	auipc	a5,0x1ff
ffffffc050401f22:	7ba78793          	addi	a5,a5,1978 # ffffffc0506016d8 <plic_handlers>
ffffffc050401f26:	fef43423          	sd	a5,-24(s0)
ffffffc050401f2a:	fdc42703          	lw	a4,-36(s0)
ffffffc050401f2e:	fe843783          	ld	a5,-24(s0)
ffffffc050401f32:	679c                	ld	a5,8(a5)
ffffffc050401f34:	0791                	addi	a5,a5,4
ffffffc050401f36:	85be                	mv	a1,a5
ffffffc050401f38:	853a                	mv	a0,a4
ffffffc050401f3a:	e03ff0ef          	jal	ra,ffffffc050401d3c <writel>
ffffffc050401f3e:	0001                	nop
ffffffc050401f40:	70a2                	ld	ra,40(sp)
ffffffc050401f42:	7402                	ld	s0,32(sp)
ffffffc050401f44:	6145                	addi	sp,sp,48
ffffffc050401f46:	8082                	ret

ffffffc050401f48 <plic_handle_irq>:
ffffffc050401f48:	715d                	addi	sp,sp,-80
ffffffc050401f4a:	e486                	sd	ra,72(sp)
ffffffc050401f4c:	e0a2                	sd	s0,64(sp)
ffffffc050401f4e:	0880                	addi	s0,sp,80
ffffffc050401f50:	faa43c23          	sd	a0,-72(s0)
ffffffc050401f54:	001ff797          	auipc	a5,0x1ff
ffffffc050401f58:	78478793          	addi	a5,a5,1924 # ffffffc0506016d8 <plic_handlers>
ffffffc050401f5c:	fef43423          	sd	a5,-24(s0)
ffffffc050401f60:	fe843783          	ld	a5,-24(s0)
ffffffc050401f64:	679c                	ld	a5,8(a5)
ffffffc050401f66:	0791                	addi	a5,a5,4
ffffffc050401f68:	fef43023          	sd	a5,-32(s0)
ffffffc050401f6c:	20000793          	li	a5,512
ffffffc050401f70:	fcf43c23          	sd	a5,-40(s0)
ffffffc050401f74:	fd843783          	ld	a5,-40(s0)
ffffffc050401f78:	1047b073          	csrc	sie,a5
ffffffc050401f7c:	a801                	j	ffffffc050401f8c <plic_handle_irq+0x44>
ffffffc050401f7e:	fd442783          	lw	a5,-44(s0)
ffffffc050401f82:	85be                	mv	a1,a5
ffffffc050401f84:	fb843503          	ld	a0,-72(s0)
ffffffc050401f88:	de2ff0ef          	jal	ra,ffffffc05040156a <handle_irq>
ffffffc050401f8c:	fe043503          	ld	a0,-32(s0)
ffffffc050401f90:	dd3ff0ef          	jal	ra,ffffffc050401d62 <readl>
ffffffc050401f94:	87aa                	mv	a5,a0
ffffffc050401f96:	2781                	sext.w	a5,a5
ffffffc050401f98:	fcf42a23          	sw	a5,-44(s0)
ffffffc050401f9c:	fd442783          	lw	a5,-44(s0)
ffffffc050401fa0:	2781                	sext.w	a5,a5
ffffffc050401fa2:	fff1                	bnez	a5,ffffffc050401f7e <plic_handle_irq+0x36>
ffffffc050401fa4:	20000793          	li	a5,512
ffffffc050401fa8:	fcf43423          	sd	a5,-56(s0)
ffffffc050401fac:	fc843783          	ld	a5,-56(s0)
ffffffc050401fb0:	1047a073          	csrs	sie,a5
ffffffc050401fb4:	0001                	nop
ffffffc050401fb6:	60a6                	ld	ra,72(sp)
ffffffc050401fb8:	6406                	ld	s0,64(sp)
ffffffc050401fba:	6161                	addi	sp,sp,80
ffffffc050401fbc:	8082                	ret

ffffffc050401fbe <plic_init>:
ffffffc050401fbe:	7179                	addi	sp,sp,-48
ffffffc050401fc0:	f406                	sd	ra,40(sp)
ffffffc050401fc2:	f022                	sd	s0,32(sp)
ffffffc050401fc4:	1800                	addi	s0,sp,48
ffffffc050401fc6:	fca43c23          	sd	a0,-40(s0)
ffffffc050401fca:	87ae                	mv	a5,a1
ffffffc050401fcc:	fcf42a23          	sw	a5,-44(s0)
ffffffc050401fd0:	fd843703          	ld	a4,-40(s0)
ffffffc050401fd4:	001ff797          	auipc	a5,0x1ff
ffffffc050401fd8:	60c78793          	addi	a5,a5,1548 # ffffffc0506015e0 <plic_regs>
ffffffc050401fdc:	e398                	sd	a4,0(a5)
ffffffc050401fde:	fe042423          	sw	zero,-24(s0)
ffffffc050401fe2:	001ff797          	auipc	a5,0x1ff
ffffffc050401fe6:	6f678793          	addi	a5,a5,1782 # ffffffc0506016d8 <plic_handlers>
ffffffc050401fea:	fef43023          	sd	a5,-32(s0)
ffffffc050401fee:	fe043783          	ld	a5,-32(s0)
ffffffc050401ff2:	0007c783          	lbu	a5,0(a5)
ffffffc050401ff6:	cb99                	beqz	a5,ffffffc05040200c <plic_init+0x4e>
ffffffc050401ff8:	0000b517          	auipc	a0,0xb
ffffffc050401ffc:	ef850513          	addi	a0,a0,-264 # ffffffc05040cef0 <__FUNCTION__.1870+0x30>
ffffffc050402000:	7ea0a0ef          	jal	ra,ffffffc05040c7ea <printk>
ffffffc050402004:	57fd                	li	a5,-1
ffffffc050402006:	fef42423          	sw	a5,-24(s0)
ffffffc05040200a:	a81d                	j	ffffffc050402040 <plic_init+0x82>
ffffffc05040200c:	fe043783          	ld	a5,-32(s0)
ffffffc050402010:	4705                	li	a4,1
ffffffc050402012:	00e78023          	sb	a4,0(a5)
ffffffc050402016:	001ff797          	auipc	a5,0x1ff
ffffffc05040201a:	5ca78793          	addi	a5,a5,1482 # ffffffc0506015e0 <plic_regs>
ffffffc05040201e:	6398                	ld	a4,0(a5)
ffffffc050402020:	002007b7          	lui	a5,0x200
ffffffc050402024:	973e                	add	a4,a4,a5
ffffffc050402026:	fe043783          	ld	a5,-32(s0)
ffffffc05040202a:	e798                	sd	a4,8(a5)
ffffffc05040202c:	001ff797          	auipc	a5,0x1ff
ffffffc050402030:	5b478793          	addi	a5,a5,1460 # ffffffc0506015e0 <plic_regs>
ffffffc050402034:	6398                	ld	a4,0(a5)
ffffffc050402036:	6789                	lui	a5,0x2
ffffffc050402038:	973e                	add	a4,a4,a5
ffffffc05040203a:	fe043783          	ld	a5,-32(s0)
ffffffc05040203e:	eb98                	sd	a4,16(a5)
ffffffc050402040:	fe043783          	ld	a5,-32(s0)
ffffffc050402044:	6798                	ld	a4,8(a5)
ffffffc050402046:	fe842783          	lw	a5,-24(s0)
ffffffc05040204a:	85ba                	mv	a1,a4
ffffffc05040204c:	853e                	mv	a0,a5
ffffffc05040204e:	cefff0ef          	jal	ra,ffffffc050401d3c <writel>
ffffffc050402052:	4785                	li	a5,1
ffffffc050402054:	fef42623          	sw	a5,-20(s0)
ffffffc050402058:	a831                	j	ffffffc050402074 <plic_init+0xb6>
ffffffc05040205a:	fec42783          	lw	a5,-20(s0)
ffffffc05040205e:	4605                	li	a2,1
ffffffc050402060:	85be                	mv	a1,a5
ffffffc050402062:	fe043503          	ld	a0,-32(s0)
ffffffc050402066:	d21ff0ef          	jal	ra,ffffffc050401d86 <plic_toggle>
ffffffc05040206a:	fec42783          	lw	a5,-20(s0)
ffffffc05040206e:	2785                	addiw	a5,a5,1
ffffffc050402070:	fef42623          	sw	a5,-20(s0)
ffffffc050402074:	fec42703          	lw	a4,-20(s0)
ffffffc050402078:	fd442783          	lw	a5,-44(s0)
ffffffc05040207c:	2781                	sext.w	a5,a5
ffffffc05040207e:	fce7fee3          	bgeu	a5,a4,ffffffc05040205a <plic_init+0x9c>
ffffffc050402082:	02100513          	li	a0,33
ffffffc050402086:	db9ff0ef          	jal	ra,ffffffc050401e3e <plic_irq_unmask>
ffffffc05040208a:	4781                	li	a5,0
ffffffc05040208c:	853e                	mv	a0,a5
ffffffc05040208e:	70a2                	ld	ra,40(sp)
ffffffc050402090:	7402                	ld	s0,32(sp)
ffffffc050402092:	6145                	addi	sp,sp,48
ffffffc050402094:	8082                	ret

ffffffc050402096 <readl>:
ffffffc050402096:	7179                	addi	sp,sp,-48
ffffffc050402098:	f422                	sd	s0,40(sp)
ffffffc05040209a:	1800                	addi	s0,sp,48
ffffffc05040209c:	fca43c23          	sd	a0,-40(s0)
ffffffc0504020a0:	fd843783          	ld	a5,-40(s0)
ffffffc0504020a4:	439c                	lw	a5,0(a5)
ffffffc0504020a6:	fef42623          	sw	a5,-20(s0)
ffffffc0504020aa:	0aa0000f          	fence	ir,ir
ffffffc0504020ae:	fec42783          	lw	a5,-20(s0)
ffffffc0504020b2:	853e                	mv	a0,a5
ffffffc0504020b4:	7422                	ld	s0,40(sp)
ffffffc0504020b6:	6145                	addi	sp,sp,48
ffffffc0504020b8:	8082                	ret

ffffffc0504020ba <Xil_In32>:
ffffffc0504020ba:	1101                	addi	sp,sp,-32
ffffffc0504020bc:	ec06                	sd	ra,24(sp)
ffffffc0504020be:	e822                	sd	s0,16(sp)
ffffffc0504020c0:	1000                	addi	s0,sp,32
ffffffc0504020c2:	fea43423          	sd	a0,-24(s0)
ffffffc0504020c6:	fe843783          	ld	a5,-24(s0)
ffffffc0504020ca:	853e                	mv	a0,a5
ffffffc0504020cc:	fcbff0ef          	jal	ra,ffffffc050402096 <readl>
ffffffc0504020d0:	87aa                	mv	a5,a0
ffffffc0504020d2:	2781                	sext.w	a5,a5
ffffffc0504020d4:	853e                	mv	a0,a5
ffffffc0504020d6:	60e2                	ld	ra,24(sp)
ffffffc0504020d8:	6442                	ld	s0,16(sp)
ffffffc0504020da:	6105                	addi	sp,sp,32
ffffffc0504020dc:	8082                	ret

ffffffc0504020de <net_check>:
ffffffc0504020de:	1101                	addi	sp,sp,-32
ffffffc0504020e0:	ec06                	sd	ra,24(sp)
ffffffc0504020e2:	e822                	sd	s0,16(sp)
ffffffc0504020e4:	1000                	addi	s0,sp,32
ffffffc0504020e6:	0020c797          	auipc	a5,0x20c
ffffffc0504020ea:	cda78793          	addi	a5,a5,-806 # ffffffc05060ddc0 <EmacPsInstance>
ffffffc0504020ee:	679c                	ld	a5,8(a5)
ffffffc0504020f0:	07d1                	addi	a5,a5,20
ffffffc0504020f2:	853e                	mv	a0,a5
ffffffc0504020f4:	fc7ff0ef          	jal	ra,ffffffc0504020ba <Xil_In32>
ffffffc0504020f8:	87aa                	mv	a5,a0
ffffffc0504020fa:	fef42623          	sw	a5,-20(s0)
ffffffc0504020fe:	fec42783          	lw	a5,-20(s0)
ffffffc050402102:	0207f793          	andi	a5,a5,32
ffffffc050402106:	2781                	sext.w	a5,a5
ffffffc050402108:	c799                	beqz	a5,ffffffc050402116 <net_check+0x38>
ffffffc05040210a:	0000c517          	auipc	a0,0xc
ffffffc05040210e:	82650513          	addi	a0,a0,-2010 # ffffffc05040d930 <wait_send_queue>
ffffffc050402112:	77c070ef          	jal	ra,ffffffc05040988e <release_queue>
ffffffc050402116:	0020c797          	auipc	a5,0x20c
ffffffc05040211a:	caa78793          	addi	a5,a5,-854 # ffffffc05060ddc0 <EmacPsInstance>
ffffffc05040211e:	679c                	ld	a5,8(a5)
ffffffc050402120:	02078793          	addi	a5,a5,32
ffffffc050402124:	853e                	mv	a0,a5
ffffffc050402126:	f95ff0ef          	jal	ra,ffffffc0504020ba <Xil_In32>
ffffffc05040212a:	87aa                	mv	a5,a0
ffffffc05040212c:	fef42423          	sw	a5,-24(s0)
ffffffc050402130:	fe842783          	lw	a5,-24(s0)
ffffffc050402134:	8b89                	andi	a5,a5,2
ffffffc050402136:	2781                	sext.w	a5,a5
ffffffc050402138:	c799                	beqz	a5,ffffffc050402146 <net_check+0x68>
ffffffc05040213a:	0000b517          	auipc	a0,0xb
ffffffc05040213e:	7e650513          	addi	a0,a0,2022 # ffffffc05040d920 <wait_recv_queue>
ffffffc050402142:	74c070ef          	jal	ra,ffffffc05040988e <release_queue>
ffffffc050402146:	0001                	nop
ffffffc050402148:	60e2                	ld	ra,24(sp)
ffffffc05040214a:	6442                	ld	s0,16(sp)
ffffffc05040214c:	6105                	addi	sp,sp,32
ffffffc05040214e:	8082                	ret

ffffffc050402150 <do_net_recv>:
ffffffc050402150:	715d                	addi	sp,sp,-80
ffffffc050402152:	e486                	sd	ra,72(sp)
ffffffc050402154:	e0a2                	sd	s0,64(sp)
ffffffc050402156:	0880                	addi	s0,sp,80
ffffffc050402158:	fca43423          	sd	a0,-56(s0)
ffffffc05040215c:	fcb43023          	sd	a1,-64(s0)
ffffffc050402160:	87b2                	mv	a5,a2
ffffffc050402162:	fad43823          	sd	a3,-80(s0)
ffffffc050402166:	faf42e23          	sw	a5,-68(s0)
ffffffc05040216a:	fc042823          	sw	zero,-48(s0)
ffffffc05040216e:	fc843783          	ld	a5,-56(s0)
ffffffc050402172:	fcf43c23          	sd	a5,-40(s0)
ffffffc050402176:	fbc42783          	lw	a5,-68(s0)
ffffffc05040217a:	fef42023          	sw	a5,-32(s0)
ffffffc05040217e:	a2f5                	j	ffffffc05040236a <do_net_recv+0x21a>
ffffffc050402180:	fe042783          	lw	a5,-32(s0)
ffffffc050402184:	0007871b          	sext.w	a4,a5
ffffffc050402188:	02000793          	li	a5,32
ffffffc05040218c:	0ee7c863          	blt	a5,a4,ffffffc05040227c <do_net_recv+0x12c>
ffffffc050402190:	fe042783          	lw	a5,-32(s0)
ffffffc050402194:	863e                	mv	a2,a5
ffffffc050402196:	001ff597          	auipc	a1,0x1ff
ffffffc05040219a:	56a58593          	addi	a1,a1,1386 # ffffffc050601700 <rx_buffers>
ffffffc05040219e:	0020c517          	auipc	a0,0x20c
ffffffc0504021a2:	c2250513          	addi	a0,a0,-990 # ffffffc05060ddc0 <EmacPsInstance>
ffffffc0504021a6:	598040ef          	jal	ra,ffffffc05040673e <EmacPsRecv>
ffffffc0504021aa:	fea43423          	sd	a0,-24(s0)
ffffffc0504021ae:	fe042783          	lw	a5,-32(s0)
ffffffc0504021b2:	0020c617          	auipc	a2,0x20c
ffffffc0504021b6:	b8e60613          	addi	a2,a2,-1138 # ffffffc05060dd40 <rx_len>
ffffffc0504021ba:	85be                	mv	a1,a5
ffffffc0504021bc:	0020c517          	auipc	a0,0x20c
ffffffc0504021c0:	c0450513          	addi	a0,a0,-1020 # ffffffc05060ddc0 <EmacPsInstance>
ffffffc0504021c4:	734040ef          	jal	ra,ffffffc0504068f8 <EmacPsWaitRecv>
ffffffc0504021c8:	fea43423          	sd	a0,-24(s0)
ffffffc0504021cc:	fe042223          	sw	zero,-28(s0)
ffffffc0504021d0:	a869                	j	ffffffc05040226a <do_net_recv+0x11a>
ffffffc0504021d2:	fe442703          	lw	a4,-28(s0)
ffffffc0504021d6:	87ba                	mv	a5,a4
ffffffc0504021d8:	0786                	slli	a5,a5,0x1
ffffffc0504021da:	97ba                	add	a5,a5,a4
ffffffc0504021dc:	07a6                	slli	a5,a5,0x9
ffffffc0504021de:	001ff717          	auipc	a4,0x1ff
ffffffc0504021e2:	52270713          	addi	a4,a4,1314 # ffffffc050601700 <rx_buffers>
ffffffc0504021e6:	00e786b3          	add	a3,a5,a4
ffffffc0504021ea:	0020c717          	auipc	a4,0x20c
ffffffc0504021ee:	b5670713          	addi	a4,a4,-1194 # ffffffc05060dd40 <rx_len>
ffffffc0504021f2:	fe442783          	lw	a5,-28(s0)
ffffffc0504021f6:	078a                	slli	a5,a5,0x2
ffffffc0504021f8:	97ba                	add	a5,a5,a4
ffffffc0504021fa:	439c                	lw	a5,0(a5)
ffffffc0504021fc:	863e                	mv	a2,a5
ffffffc0504021fe:	85b6                	mv	a1,a3
ffffffc050402200:	fd843503          	ld	a0,-40(s0)
ffffffc050402204:	389090ef          	jal	ra,ffffffc05040bd8c <memcpy>
ffffffc050402208:	0020c717          	auipc	a4,0x20c
ffffffc05040220c:	b3870713          	addi	a4,a4,-1224 # ffffffc05060dd40 <rx_len>
ffffffc050402210:	fe442783          	lw	a5,-28(s0)
ffffffc050402214:	078a                	slli	a5,a5,0x2
ffffffc050402216:	97ba                	add	a5,a5,a4
ffffffc050402218:	439c                	lw	a5,0(a5)
ffffffc05040221a:	1782                	slli	a5,a5,0x20
ffffffc05040221c:	9381                	srli	a5,a5,0x20
ffffffc05040221e:	fd843703          	ld	a4,-40(s0)
ffffffc050402222:	97ba                	add	a5,a5,a4
ffffffc050402224:	fcf43c23          	sd	a5,-40(s0)
ffffffc050402228:	0020c717          	auipc	a4,0x20c
ffffffc05040222c:	b1870713          	addi	a4,a4,-1256 # ffffffc05060dd40 <rx_len>
ffffffc050402230:	fe442783          	lw	a5,-28(s0)
ffffffc050402234:	078a                	slli	a5,a5,0x2
ffffffc050402236:	97ba                	add	a5,a5,a4
ffffffc050402238:	4394                	lw	a3,0(a5)
ffffffc05040223a:	fbc42703          	lw	a4,-68(s0)
ffffffc05040223e:	fe042783          	lw	a5,-32(s0)
ffffffc050402242:	40f707bb          	subw	a5,a4,a5
ffffffc050402246:	2781                	sext.w	a5,a5
ffffffc050402248:	fe442703          	lw	a4,-28(s0)
ffffffc05040224c:	9fb9                	addw	a5,a5,a4
ffffffc05040224e:	2781                	sext.w	a5,a5
ffffffc050402250:	078e                	slli	a5,a5,0x3
ffffffc050402252:	fb043703          	ld	a4,-80(s0)
ffffffc050402256:	97ba                	add	a5,a5,a4
ffffffc050402258:	02069713          	slli	a4,a3,0x20
ffffffc05040225c:	9301                	srli	a4,a4,0x20
ffffffc05040225e:	e398                	sd	a4,0(a5)
ffffffc050402260:	fe442783          	lw	a5,-28(s0)
ffffffc050402264:	2785                	addiw	a5,a5,1
ffffffc050402266:	fef42223          	sw	a5,-28(s0)
ffffffc05040226a:	fe442703          	lw	a4,-28(s0)
ffffffc05040226e:	fe042783          	lw	a5,-32(s0)
ffffffc050402272:	2701                	sext.w	a4,a4
ffffffc050402274:	2781                	sext.w	a5,a5
ffffffc050402276:	f4f74ee3          	blt	a4,a5,ffffffc0504021d2 <do_net_recv+0x82>
ffffffc05040227a:	a8ed                	j	ffffffc050402374 <do_net_recv+0x224>
ffffffc05040227c:	02000613          	li	a2,32
ffffffc050402280:	001ff597          	auipc	a1,0x1ff
ffffffc050402284:	48058593          	addi	a1,a1,1152 # ffffffc050601700 <rx_buffers>
ffffffc050402288:	0020c517          	auipc	a0,0x20c
ffffffc05040228c:	b3850513          	addi	a0,a0,-1224 # ffffffc05060ddc0 <EmacPsInstance>
ffffffc050402290:	4ae040ef          	jal	ra,ffffffc05040673e <EmacPsRecv>
ffffffc050402294:	fea43423          	sd	a0,-24(s0)
ffffffc050402298:	0020c617          	auipc	a2,0x20c
ffffffc05040229c:	aa860613          	addi	a2,a2,-1368 # ffffffc05060dd40 <rx_len>
ffffffc0504022a0:	02000593          	li	a1,32
ffffffc0504022a4:	0020c517          	auipc	a0,0x20c
ffffffc0504022a8:	b1c50513          	addi	a0,a0,-1252 # ffffffc05060ddc0 <EmacPsInstance>
ffffffc0504022ac:	64c040ef          	jal	ra,ffffffc0504068f8 <EmacPsWaitRecv>
ffffffc0504022b0:	fea43423          	sd	a0,-24(s0)
ffffffc0504022b4:	fc042a23          	sw	zero,-44(s0)
ffffffc0504022b8:	a869                	j	ffffffc050402352 <do_net_recv+0x202>
ffffffc0504022ba:	fd442703          	lw	a4,-44(s0)
ffffffc0504022be:	87ba                	mv	a5,a4
ffffffc0504022c0:	0786                	slli	a5,a5,0x1
ffffffc0504022c2:	97ba                	add	a5,a5,a4
ffffffc0504022c4:	07a6                	slli	a5,a5,0x9
ffffffc0504022c6:	001ff717          	auipc	a4,0x1ff
ffffffc0504022ca:	43a70713          	addi	a4,a4,1082 # ffffffc050601700 <rx_buffers>
ffffffc0504022ce:	00e786b3          	add	a3,a5,a4
ffffffc0504022d2:	0020c717          	auipc	a4,0x20c
ffffffc0504022d6:	a6e70713          	addi	a4,a4,-1426 # ffffffc05060dd40 <rx_len>
ffffffc0504022da:	fd442783          	lw	a5,-44(s0)
ffffffc0504022de:	078a                	slli	a5,a5,0x2
ffffffc0504022e0:	97ba                	add	a5,a5,a4
ffffffc0504022e2:	439c                	lw	a5,0(a5)
ffffffc0504022e4:	863e                	mv	a2,a5
ffffffc0504022e6:	85b6                	mv	a1,a3
ffffffc0504022e8:	fd843503          	ld	a0,-40(s0)
ffffffc0504022ec:	2a1090ef          	jal	ra,ffffffc05040bd8c <memcpy>
ffffffc0504022f0:	0020c717          	auipc	a4,0x20c
ffffffc0504022f4:	a5070713          	addi	a4,a4,-1456 # ffffffc05060dd40 <rx_len>
ffffffc0504022f8:	fd442783          	lw	a5,-44(s0)
ffffffc0504022fc:	078a                	slli	a5,a5,0x2
ffffffc0504022fe:	97ba                	add	a5,a5,a4
ffffffc050402300:	439c                	lw	a5,0(a5)
ffffffc050402302:	1782                	slli	a5,a5,0x20
ffffffc050402304:	9381                	srli	a5,a5,0x20
ffffffc050402306:	fd843703          	ld	a4,-40(s0)
ffffffc05040230a:	97ba                	add	a5,a5,a4
ffffffc05040230c:	fcf43c23          	sd	a5,-40(s0)
ffffffc050402310:	0020c717          	auipc	a4,0x20c
ffffffc050402314:	a3070713          	addi	a4,a4,-1488 # ffffffc05060dd40 <rx_len>
ffffffc050402318:	fd442783          	lw	a5,-44(s0)
ffffffc05040231c:	078a                	slli	a5,a5,0x2
ffffffc05040231e:	97ba                	add	a5,a5,a4
ffffffc050402320:	4394                	lw	a3,0(a5)
ffffffc050402322:	fbc42703          	lw	a4,-68(s0)
ffffffc050402326:	fe042783          	lw	a5,-32(s0)
ffffffc05040232a:	40f707bb          	subw	a5,a4,a5
ffffffc05040232e:	2781                	sext.w	a5,a5
ffffffc050402330:	fd442703          	lw	a4,-44(s0)
ffffffc050402334:	9fb9                	addw	a5,a5,a4
ffffffc050402336:	2781                	sext.w	a5,a5
ffffffc050402338:	078e                	slli	a5,a5,0x3
ffffffc05040233a:	fb043703          	ld	a4,-80(s0)
ffffffc05040233e:	97ba                	add	a5,a5,a4
ffffffc050402340:	02069713          	slli	a4,a3,0x20
ffffffc050402344:	9301                	srli	a4,a4,0x20
ffffffc050402346:	e398                	sd	a4,0(a5)
ffffffc050402348:	fd442783          	lw	a5,-44(s0)
ffffffc05040234c:	2785                	addiw	a5,a5,1
ffffffc05040234e:	fcf42a23          	sw	a5,-44(s0)
ffffffc050402352:	fd442783          	lw	a5,-44(s0)
ffffffc050402356:	0007871b          	sext.w	a4,a5
ffffffc05040235a:	47fd                	li	a5,31
ffffffc05040235c:	f4e7dfe3          	bge	a5,a4,ffffffc0504022ba <do_net_recv+0x16a>
ffffffc050402360:	fe042783          	lw	a5,-32(s0)
ffffffc050402364:	3781                	addiw	a5,a5,-32
ffffffc050402366:	fef42023          	sw	a5,-32(s0)
ffffffc05040236a:	fe042783          	lw	a5,-32(s0)
ffffffc05040236e:	2781                	sext.w	a5,a5
ffffffc050402370:	e00798e3          	bnez	a5,ffffffc050402180 <do_net_recv+0x30>
ffffffc050402374:	fe843783          	ld	a5,-24(s0)
ffffffc050402378:	853e                	mv	a0,a5
ffffffc05040237a:	60a6                	ld	ra,72(sp)
ffffffc05040237c:	6406                	ld	s0,64(sp)
ffffffc05040237e:	6161                	addi	sp,sp,80
ffffffc050402380:	8082                	ret

ffffffc050402382 <do_net_send>:
ffffffc050402382:	1101                	addi	sp,sp,-32
ffffffc050402384:	ec06                	sd	ra,24(sp)
ffffffc050402386:	e822                	sd	s0,16(sp)
ffffffc050402388:	1000                	addi	s0,sp,32
ffffffc05040238a:	fea43423          	sd	a0,-24(s0)
ffffffc05040238e:	feb43023          	sd	a1,-32(s0)
ffffffc050402392:	fe843783          	ld	a5,-24(s0)
ffffffc050402396:	fe043703          	ld	a4,-32(s0)
ffffffc05040239a:	2701                	sext.w	a4,a4
ffffffc05040239c:	863a                	mv	a2,a4
ffffffc05040239e:	85be                	mv	a1,a5
ffffffc0504023a0:	0020b517          	auipc	a0,0x20b
ffffffc0504023a4:	3a050513          	addi	a0,a0,928 # ffffffc05060d740 <tx_buffer>
ffffffc0504023a8:	1e5090ef          	jal	ra,ffffffc05040bd8c <memcpy>
ffffffc0504023ac:	fe043603          	ld	a2,-32(s0)
ffffffc0504023b0:	0020b597          	auipc	a1,0x20b
ffffffc0504023b4:	39058593          	addi	a1,a1,912 # ffffffc05060d740 <tx_buffer>
ffffffc0504023b8:	0020c517          	auipc	a0,0x20c
ffffffc0504023bc:	a0850513          	addi	a0,a0,-1528 # ffffffc05060ddc0 <EmacPsInstance>
ffffffc0504023c0:	154040ef          	jal	ra,ffffffc050406514 <EmacPsSend>
ffffffc0504023c4:	0020c517          	auipc	a0,0x20c
ffffffc0504023c8:	9fc50513          	addi	a0,a0,-1540 # ffffffc05060ddc0 <EmacPsInstance>
ffffffc0504023cc:	29c040ef          	jal	ra,ffffffc050406668 <EmacPsWaitSend>
ffffffc0504023d0:	0001                	nop
ffffffc0504023d2:	60e2                	ld	ra,24(sp)
ffffffc0504023d4:	6442                	ld	s0,16(sp)
ffffffc0504023d6:	6105                	addi	sp,sp,32
ffffffc0504023d8:	8082                	ret

ffffffc0504023da <do_net_irq_mode>:
ffffffc0504023da:	1101                	addi	sp,sp,-32
ffffffc0504023dc:	ec22                	sd	s0,24(sp)
ffffffc0504023de:	1000                	addi	s0,sp,32
ffffffc0504023e0:	87aa                	mv	a5,a0
ffffffc0504023e2:	fef42623          	sw	a5,-20(s0)
ffffffc0504023e6:	0001                	nop
ffffffc0504023e8:	6462                	ld	s0,24(sp)
ffffffc0504023ea:	6105                	addi	sp,sp,32
ffffffc0504023ec:	8082                	ret

ffffffc0504023ee <XEmacPs_BdRingCreate>:
ffffffc0504023ee:	711d                	addi	sp,sp,-96
ffffffc0504023f0:	ec86                	sd	ra,88(sp)
ffffffc0504023f2:	e8a2                	sd	s0,80(sp)
ffffffc0504023f4:	1080                	addi	s0,sp,96
ffffffc0504023f6:	fca43423          	sd	a0,-56(s0)
ffffffc0504023fa:	fcb43023          	sd	a1,-64(s0)
ffffffc0504023fe:	fac43c23          	sd	a2,-72(s0)
ffffffc050402402:	faf43423          	sd	a5,-88(s0)
ffffffc050402406:	87b6                	mv	a5,a3
ffffffc050402408:	faf42a23          	sw	a5,-76(s0)
ffffffc05040240c:	87ba                	mv	a5,a4
ffffffc05040240e:	faf42823          	sw	a5,-80(s0)
ffffffc050402412:	fb843783          	ld	a5,-72(s0)
ffffffc050402416:	fcf43823          	sd	a5,-48(s0)
ffffffc05040241a:	fc843783          	ld	a5,-56(s0)
ffffffc05040241e:	0607a423          	sw	zero,104(a5)
ffffffc050402422:	fc843783          	ld	a5,-56(s0)
ffffffc050402426:	0607a023          	sw	zero,96(a5)
ffffffc05040242a:	fc843783          	ld	a5,-56(s0)
ffffffc05040242e:	0407ac23          	sw	zero,88(a5)
ffffffc050402432:	fc843783          	ld	a5,-56(s0)
ffffffc050402436:	0407ae23          	sw	zero,92(a5)
ffffffc05040243a:	fc843783          	ld	a5,-56(s0)
ffffffc05040243e:	0607a223          	sw	zero,100(a5)
ffffffc050402442:	fb442783          	lw	a5,-76(s0)
ffffffc050402446:	0007871b          	sext.w	a4,a5
ffffffc05040244a:	03f00793          	li	a5,63
ffffffc05040244e:	00e7e463          	bltu	a5,a4,ffffffc050402456 <XEmacPs_BdRingCreate+0x68>
ffffffc050402452:	47bd                	li	a5,15
ffffffc050402454:	a255                	j	ffffffc0504025f8 <XEmacPs_BdRingCreate+0x20a>
ffffffc050402456:	fb442783          	lw	a5,-76(s0)
ffffffc05040245a:	37fd                	addiw	a5,a5,-1
ffffffc05040245c:	0007871b          	sext.w	a4,a5
ffffffc050402460:	fb442783          	lw	a5,-76(s0)
ffffffc050402464:	8ff9                	and	a5,a5,a4
ffffffc050402466:	2781                	sext.w	a5,a5
ffffffc050402468:	c399                	beqz	a5,ffffffc05040246e <XEmacPs_BdRingCreate+0x80>
ffffffc05040246a:	47bd                	li	a5,15
ffffffc05040246c:	a271                	j	ffffffc0504025f8 <XEmacPs_BdRingCreate+0x20a>
ffffffc05040246e:	fb446783          	lwu	a5,-76(s0)
ffffffc050402472:	fc043703          	ld	a4,-64(s0)
ffffffc050402476:	02f777b3          	remu	a5,a4,a5
ffffffc05040247a:	eb81                	bnez	a5,ffffffc05040248a <XEmacPs_BdRingCreate+0x9c>
ffffffc05040247c:	fb446783          	lwu	a5,-76(s0)
ffffffc050402480:	fd043703          	ld	a4,-48(s0)
ffffffc050402484:	02f777b3          	remu	a5,a4,a5
ffffffc050402488:	c399                	beqz	a5,ffffffc05040248e <XEmacPs_BdRingCreate+0xa0>
ffffffc05040248a:	47bd                	li	a5,15
ffffffc05040248c:	a2b5                	j	ffffffc0504025f8 <XEmacPs_BdRingCreate+0x20a>
ffffffc05040248e:	fb042783          	lw	a5,-80(s0)
ffffffc050402492:	2781                	sext.w	a5,a5
ffffffc050402494:	e399                	bnez	a5,ffffffc05040249a <XEmacPs_BdRingCreate+0xac>
ffffffc050402496:	47bd                	li	a5,15
ffffffc050402498:	a285                	j	ffffffc0504025f8 <XEmacPs_BdRingCreate+0x20a>
ffffffc05040249a:	fc843783          	ld	a5,-56(s0)
ffffffc05040249e:	4721                	li	a4,8
ffffffc0504024a0:	d398                	sw	a4,32(a5)
ffffffc0504024a2:	fc843783          	ld	a5,-56(s0)
ffffffc0504024a6:	539c                	lw	a5,32(a5)
ffffffc0504024a8:	fb042703          	lw	a4,-80(s0)
ffffffc0504024ac:	02f707bb          	mulw	a5,a4,a5
ffffffc0504024b0:	2781                	sext.w	a5,a5
ffffffc0504024b2:	02079713          	slli	a4,a5,0x20
ffffffc0504024b6:	9301                	srli	a4,a4,0x20
ffffffc0504024b8:	fd043783          	ld	a5,-48(s0)
ffffffc0504024bc:	97ba                	add	a5,a5,a4
ffffffc0504024be:	17fd                	addi	a5,a5,-1
ffffffc0504024c0:	fd043703          	ld	a4,-48(s0)
ffffffc0504024c4:	00e7f563          	bgeu	a5,a4,ffffffc0504024ce <XEmacPs_BdRingCreate+0xe0>
ffffffc0504024c8:	20e00793          	li	a5,526
ffffffc0504024cc:	a235                	j	ffffffc0504025f8 <XEmacPs_BdRingCreate+0x20a>
ffffffc0504024ce:	fd043683          	ld	a3,-48(s0)
ffffffc0504024d2:	fc843783          	ld	a5,-56(s0)
ffffffc0504024d6:	539c                	lw	a5,32(a5)
ffffffc0504024d8:	fb042703          	lw	a4,-80(s0)
ffffffc0504024dc:	02f707bb          	mulw	a5,a4,a5
ffffffc0504024e0:	2781                	sext.w	a5,a5
ffffffc0504024e2:	863e                	mv	a2,a5
ffffffc0504024e4:	4581                	li	a1,0
ffffffc0504024e6:	8536                	mv	a0,a3
ffffffc0504024e8:	149090ef          	jal	ra,ffffffc05040be30 <memset>
ffffffc0504024ec:	fd043783          	ld	a5,-48(s0)
ffffffc0504024f0:	fef43023          	sd	a5,-32(s0)
ffffffc0504024f4:	fc843783          	ld	a5,-56(s0)
ffffffc0504024f8:	539c                	lw	a5,32(a5)
ffffffc0504024fa:	1782                	slli	a5,a5,0x20
ffffffc0504024fc:	9381                	srli	a5,a5,0x20
ffffffc0504024fe:	fc043703          	ld	a4,-64(s0)
ffffffc050402502:	97ba                	add	a5,a5,a4
ffffffc050402504:	fcf43c23          	sd	a5,-40(s0)
ffffffc050402508:	4785                	li	a5,1
ffffffc05040250a:	fef42623          	sw	a5,-20(s0)
ffffffc05040250e:	a815                	j	ffffffc050402542 <XEmacPs_BdRingCreate+0x154>
ffffffc050402510:	fc843783          	ld	a5,-56(s0)
ffffffc050402514:	539c                	lw	a5,32(a5)
ffffffc050402516:	1782                	slli	a5,a5,0x20
ffffffc050402518:	9381                	srli	a5,a5,0x20
ffffffc05040251a:	fe043703          	ld	a4,-32(s0)
ffffffc05040251e:	97ba                	add	a5,a5,a4
ffffffc050402520:	fef43023          	sd	a5,-32(s0)
ffffffc050402524:	fc843783          	ld	a5,-56(s0)
ffffffc050402528:	539c                	lw	a5,32(a5)
ffffffc05040252a:	1782                	slli	a5,a5,0x20
ffffffc05040252c:	9381                	srli	a5,a5,0x20
ffffffc05040252e:	fd843703          	ld	a4,-40(s0)
ffffffc050402532:	97ba                	add	a5,a5,a4
ffffffc050402534:	fcf43c23          	sd	a5,-40(s0)
ffffffc050402538:	fec42783          	lw	a5,-20(s0)
ffffffc05040253c:	2785                	addiw	a5,a5,1
ffffffc05040253e:	fef42623          	sw	a5,-20(s0)
ffffffc050402542:	fec42703          	lw	a4,-20(s0)
ffffffc050402546:	fb042783          	lw	a5,-80(s0)
ffffffc05040254a:	2701                	sext.w	a4,a4
ffffffc05040254c:	2781                	sext.w	a5,a5
ffffffc05040254e:	fcf761e3          	bltu	a4,a5,ffffffc050402510 <XEmacPs_BdRingCreate+0x122>
ffffffc050402552:	fc843783          	ld	a5,-56(s0)
ffffffc050402556:	20300713          	li	a4,515
ffffffc05040255a:	cfd8                	sw	a4,28(a5)
ffffffc05040255c:	fc843783          	ld	a5,-56(s0)
ffffffc050402560:	fd043703          	ld	a4,-48(s0)
ffffffc050402564:	e798                	sd	a4,8(a5)
ffffffc050402566:	fc843783          	ld	a5,-56(s0)
ffffffc05040256a:	fc043703          	ld	a4,-64(s0)
ffffffc05040256e:	e398                	sd	a4,0(a5)
ffffffc050402570:	fc843783          	ld	a5,-56(s0)
ffffffc050402574:	fe043703          	ld	a4,-32(s0)
ffffffc050402578:	eb98                	sd	a4,16(a5)
ffffffc05040257a:	fc843783          	ld	a5,-56(s0)
ffffffc05040257e:	6b9c                	ld	a5,16(a5)
ffffffc050402580:	0007871b          	sext.w	a4,a5
ffffffc050402584:	fc843783          	ld	a5,-56(s0)
ffffffc050402588:	679c                	ld	a5,8(a5)
ffffffc05040258a:	2781                	sext.w	a5,a5
ffffffc05040258c:	40f707bb          	subw	a5,a4,a5
ffffffc050402590:	0007871b          	sext.w	a4,a5
ffffffc050402594:	fc843783          	ld	a5,-56(s0)
ffffffc050402598:	539c                	lw	a5,32(a5)
ffffffc05040259a:	9fb9                	addw	a5,a5,a4
ffffffc05040259c:	0007871b          	sext.w	a4,a5
ffffffc0504025a0:	fc843783          	ld	a5,-56(s0)
ffffffc0504025a4:	cf98                	sw	a4,24(a5)
ffffffc0504025a6:	fc843783          	ld	a5,-56(s0)
ffffffc0504025aa:	fb042703          	lw	a4,-80(s0)
ffffffc0504025ae:	d7b8                	sw	a4,104(a5)
ffffffc0504025b0:	fc843783          	ld	a5,-56(s0)
ffffffc0504025b4:	fb042703          	lw	a4,-80(s0)
ffffffc0504025b8:	d3b8                	sw	a4,96(a5)
ffffffc0504025ba:	fd043703          	ld	a4,-48(s0)
ffffffc0504025be:	fc843783          	ld	a5,-56(s0)
ffffffc0504025c2:	f798                	sd	a4,40(a5)
ffffffc0504025c4:	fd043703          	ld	a4,-48(s0)
ffffffc0504025c8:	fc843783          	ld	a5,-56(s0)
ffffffc0504025cc:	fb98                	sd	a4,48(a5)
ffffffc0504025ce:	fd043703          	ld	a4,-48(s0)
ffffffc0504025d2:	fc843783          	ld	a5,-56(s0)
ffffffc0504025d6:	ff98                	sd	a4,56(a5)
ffffffc0504025d8:	fd043703          	ld	a4,-48(s0)
ffffffc0504025dc:	fc843783          	ld	a5,-56(s0)
ffffffc0504025e0:	e3b8                	sd	a4,64(a5)
ffffffc0504025e2:	fd043703          	ld	a4,-48(s0)
ffffffc0504025e6:	fc843783          	ld	a5,-56(s0)
ffffffc0504025ea:	e7b8                	sd	a4,72(a5)
ffffffc0504025ec:	fc043703          	ld	a4,-64(s0)
ffffffc0504025f0:	fc843783          	ld	a5,-56(s0)
ffffffc0504025f4:	ebb8                	sd	a4,80(a5)
ffffffc0504025f6:	4781                	li	a5,0
ffffffc0504025f8:	853e                	mv	a0,a5
ffffffc0504025fa:	60e6                	ld	ra,88(sp)
ffffffc0504025fc:	6446                	ld	s0,80(sp)
ffffffc0504025fe:	6125                	addi	sp,sp,96
ffffffc050402600:	8082                	ret

ffffffc050402602 <XEmacPs_BdRingClone>:
ffffffc050402602:	7139                	addi	sp,sp,-64
ffffffc050402604:	fc06                	sd	ra,56(sp)
ffffffc050402606:	f822                	sd	s0,48(sp)
ffffffc050402608:	0080                	addi	s0,sp,64
ffffffc05040260a:	fca43c23          	sd	a0,-40(s0)
ffffffc05040260e:	fcb43823          	sd	a1,-48(s0)
ffffffc050402612:	87b2                	mv	a5,a2
ffffffc050402614:	fcf407a3          	sb	a5,-49(s0)
ffffffc050402618:	fd843783          	ld	a5,-40(s0)
ffffffc05040261c:	57bc                	lw	a5,104(a5)
ffffffc05040261e:	e781                	bnez	a5,ffffffc050402626 <XEmacPs_BdRingClone+0x24>
ffffffc050402620:	20b00793          	li	a5,523
ffffffc050402624:	a8c9                	j	ffffffc0504026f6 <XEmacPs_BdRingClone+0xf4>
ffffffc050402626:	fd843783          	ld	a5,-40(s0)
ffffffc05040262a:	4fdc                	lw	a5,28(a5)
ffffffc05040262c:	873e                	mv	a4,a5
ffffffc05040262e:	20200793          	li	a5,514
ffffffc050402632:	00f71463          	bne	a4,a5,ffffffc05040263a <XEmacPs_BdRingClone+0x38>
ffffffc050402636:	4795                	li	a5,5
ffffffc050402638:	a87d                	j	ffffffc0504026f6 <XEmacPs_BdRingClone+0xf4>
ffffffc05040263a:	fd843783          	ld	a5,-40(s0)
ffffffc05040263e:	53b8                	lw	a4,96(a5)
ffffffc050402640:	fd843783          	ld	a5,-40(s0)
ffffffc050402644:	57bc                	lw	a5,104(a5)
ffffffc050402646:	00f70563          	beq	a4,a5,ffffffc050402650 <XEmacPs_BdRingClone+0x4e>
ffffffc05040264a:	20e00793          	li	a5,526
ffffffc05040264e:	a065                	j	ffffffc0504026f6 <XEmacPs_BdRingClone+0xf4>
ffffffc050402650:	fcf44783          	lbu	a5,-49(s0)
ffffffc050402654:	0ff7f713          	andi	a4,a5,255
ffffffc050402658:	4785                	li	a5,1
ffffffc05040265a:	00f70b63          	beq	a4,a5,ffffffc050402670 <XEmacPs_BdRingClone+0x6e>
ffffffc05040265e:	fcf44783          	lbu	a5,-49(s0)
ffffffc050402662:	0ff7f713          	andi	a4,a5,255
ffffffc050402666:	4789                	li	a5,2
ffffffc050402668:	00f70463          	beq	a4,a5,ffffffc050402670 <XEmacPs_BdRingClone+0x6e>
ffffffc05040266c:	47bd                	li	a5,15
ffffffc05040266e:	a061                	j	ffffffc0504026f6 <XEmacPs_BdRingClone+0xf4>
ffffffc050402670:	fd843783          	ld	a5,-40(s0)
ffffffc050402674:	679c                	ld	a5,8(a5)
ffffffc050402676:	fef43023          	sd	a5,-32(s0)
ffffffc05040267a:	fe042623          	sw	zero,-20(s0)
ffffffc05040267e:	a805                	j	ffffffc0504026ae <XEmacPs_BdRingClone+0xac>
ffffffc050402680:	fe043783          	ld	a5,-32(s0)
ffffffc050402684:	4621                	li	a2,8
ffffffc050402686:	fd043583          	ld	a1,-48(s0)
ffffffc05040268a:	853e                	mv	a0,a5
ffffffc05040268c:	700090ef          	jal	ra,ffffffc05040bd8c <memcpy>
ffffffc050402690:	fd843783          	ld	a5,-40(s0)
ffffffc050402694:	539c                	lw	a5,32(a5)
ffffffc050402696:	1782                	slli	a5,a5,0x20
ffffffc050402698:	9381                	srli	a5,a5,0x20
ffffffc05040269a:	fe043703          	ld	a4,-32(s0)
ffffffc05040269e:	97ba                	add	a5,a5,a4
ffffffc0504026a0:	fef43023          	sd	a5,-32(s0)
ffffffc0504026a4:	fec42783          	lw	a5,-20(s0)
ffffffc0504026a8:	2785                	addiw	a5,a5,1
ffffffc0504026aa:	fef42623          	sw	a5,-20(s0)
ffffffc0504026ae:	fd843783          	ld	a5,-40(s0)
ffffffc0504026b2:	57b8                	lw	a4,104(a5)
ffffffc0504026b4:	fec42783          	lw	a5,-20(s0)
ffffffc0504026b8:	2781                	sext.w	a5,a5
ffffffc0504026ba:	fce7e3e3          	bltu	a5,a4,ffffffc050402680 <XEmacPs_BdRingClone+0x7e>
ffffffc0504026be:	fd843783          	ld	a5,-40(s0)
ffffffc0504026c2:	539c                	lw	a5,32(a5)
ffffffc0504026c4:	1782                	slli	a5,a5,0x20
ffffffc0504026c6:	9381                	srli	a5,a5,0x20
ffffffc0504026c8:	fe043703          	ld	a4,-32(s0)
ffffffc0504026cc:	40f707b3          	sub	a5,a4,a5
ffffffc0504026d0:	fef43023          	sd	a5,-32(s0)
ffffffc0504026d4:	fcf44783          	lbu	a5,-49(s0)
ffffffc0504026d8:	0ff7f713          	andi	a4,a5,255
ffffffc0504026dc:	4789                	li	a5,2
ffffffc0504026de:	00f71763          	bne	a4,a5,ffffffc0504026ec <XEmacPs_BdRingClone+0xea>
ffffffc0504026e2:	fe043503          	ld	a0,-32(s0)
ffffffc0504026e6:	1e3000ef          	jal	ra,ffffffc0504030c8 <XEmacPs_BdSetRxWrap>
ffffffc0504026ea:	a029                	j	ffffffc0504026f4 <XEmacPs_BdRingClone+0xf2>
ffffffc0504026ec:	fe043503          	ld	a0,-32(s0)
ffffffc0504026f0:	219000ef          	jal	ra,ffffffc050403108 <XEmacPs_BdSetTxWrap>
ffffffc0504026f4:	4781                	li	a5,0
ffffffc0504026f6:	853e                	mv	a0,a5
ffffffc0504026f8:	70e2                	ld	ra,56(sp)
ffffffc0504026fa:	7442                	ld	s0,48(sp)
ffffffc0504026fc:	6121                	addi	sp,sp,64
ffffffc0504026fe:	8082                	ret

ffffffc050402700 <XEmacPs_BdRingAlloc>:
ffffffc050402700:	7139                	addi	sp,sp,-64
ffffffc050402702:	fc22                	sd	s0,56(sp)
ffffffc050402704:	0080                	addi	s0,sp,64
ffffffc050402706:	fca43c23          	sd	a0,-40(s0)
ffffffc05040270a:	87ae                	mv	a5,a1
ffffffc05040270c:	fcc43423          	sd	a2,-56(s0)
ffffffc050402710:	fcf42a23          	sw	a5,-44(s0)
ffffffc050402714:	fd843783          	ld	a5,-40(s0)
ffffffc050402718:	53b8                	lw	a4,96(a5)
ffffffc05040271a:	fd442783          	lw	a5,-44(s0)
ffffffc05040271e:	2781                	sext.w	a5,a5
ffffffc050402720:	00f77663          	bgeu	a4,a5,ffffffc05040272c <XEmacPs_BdRingAlloc+0x2c>
ffffffc050402724:	4785                	li	a5,1
ffffffc050402726:	fef43423          	sd	a5,-24(s0)
ffffffc05040272a:	a05d                	j	ffffffc0504027d0 <XEmacPs_BdRingAlloc+0xd0>
ffffffc05040272c:	fd843783          	ld	a5,-40(s0)
ffffffc050402730:	7798                	ld	a4,40(a5)
ffffffc050402732:	fc843783          	ld	a5,-56(s0)
ffffffc050402736:	e398                	sd	a4,0(a5)
ffffffc050402738:	fd843783          	ld	a5,-40(s0)
ffffffc05040273c:	779c                	ld	a5,40(a5)
ffffffc05040273e:	fef43023          	sd	a5,-32(s0)
ffffffc050402742:	fd843783          	ld	a5,-40(s0)
ffffffc050402746:	539c                	lw	a5,32(a5)
ffffffc050402748:	fd442703          	lw	a4,-44(s0)
ffffffc05040274c:	02f707bb          	mulw	a5,a4,a5
ffffffc050402750:	2781                	sext.w	a5,a5
ffffffc050402752:	1782                	slli	a5,a5,0x20
ffffffc050402754:	9381                	srli	a5,a5,0x20
ffffffc050402756:	fe043703          	ld	a4,-32(s0)
ffffffc05040275a:	97ba                	add	a5,a5,a4
ffffffc05040275c:	fef43023          	sd	a5,-32(s0)
ffffffc050402760:	fd843783          	ld	a5,-40(s0)
ffffffc050402764:	6b9c                	ld	a5,16(a5)
ffffffc050402766:	fe043703          	ld	a4,-32(s0)
ffffffc05040276a:	00e7ea63          	bltu	a5,a4,ffffffc05040277e <XEmacPs_BdRingAlloc+0x7e>
ffffffc05040276e:	fd843783          	ld	a5,-40(s0)
ffffffc050402772:	779c                	ld	a5,40(a5)
ffffffc050402774:	873e                	mv	a4,a5
ffffffc050402776:	fe043783          	ld	a5,-32(s0)
ffffffc05040277a:	00e7fd63          	bgeu	a5,a4,ffffffc050402794 <XEmacPs_BdRingAlloc+0x94>
ffffffc05040277e:	fd843783          	ld	a5,-40(s0)
ffffffc050402782:	4f9c                	lw	a5,24(a5)
ffffffc050402784:	1782                	slli	a5,a5,0x20
ffffffc050402786:	9381                	srli	a5,a5,0x20
ffffffc050402788:	fe043703          	ld	a4,-32(s0)
ffffffc05040278c:	40f707b3          	sub	a5,a4,a5
ffffffc050402790:	fef43023          	sd	a5,-32(s0)
ffffffc050402794:	fe043703          	ld	a4,-32(s0)
ffffffc050402798:	fd843783          	ld	a5,-40(s0)
ffffffc05040279c:	f798                	sd	a4,40(a5)
ffffffc05040279e:	fd843783          	ld	a5,-40(s0)
ffffffc0504027a2:	53b8                	lw	a4,96(a5)
ffffffc0504027a4:	fd442783          	lw	a5,-44(s0)
ffffffc0504027a8:	40f707bb          	subw	a5,a4,a5
ffffffc0504027ac:	0007871b          	sext.w	a4,a5
ffffffc0504027b0:	fd843783          	ld	a5,-40(s0)
ffffffc0504027b4:	d3b8                	sw	a4,96(a5)
ffffffc0504027b6:	fd843783          	ld	a5,-40(s0)
ffffffc0504027ba:	4ffc                	lw	a5,92(a5)
ffffffc0504027bc:	fd442703          	lw	a4,-44(s0)
ffffffc0504027c0:	9fb9                	addw	a5,a5,a4
ffffffc0504027c2:	0007871b          	sext.w	a4,a5
ffffffc0504027c6:	fd843783          	ld	a5,-40(s0)
ffffffc0504027ca:	cff8                	sw	a4,92(a5)
ffffffc0504027cc:	fe043423          	sd	zero,-24(s0)
ffffffc0504027d0:	fe843783          	ld	a5,-24(s0)
ffffffc0504027d4:	853e                	mv	a0,a5
ffffffc0504027d6:	7462                	ld	s0,56(sp)
ffffffc0504027d8:	6121                	addi	sp,sp,64
ffffffc0504027da:	8082                	ret

ffffffc0504027dc <XEmacPs_BdRingUnAlloc>:
ffffffc0504027dc:	7139                	addi	sp,sp,-64
ffffffc0504027de:	fc22                	sd	s0,56(sp)
ffffffc0504027e0:	0080                	addi	s0,sp,64
ffffffc0504027e2:	fca43c23          	sd	a0,-40(s0)
ffffffc0504027e6:	87ae                	mv	a5,a1
ffffffc0504027e8:	fcc43423          	sd	a2,-56(s0)
ffffffc0504027ec:	fcf42a23          	sw	a5,-44(s0)
ffffffc0504027f0:	fd843783          	ld	a5,-40(s0)
ffffffc0504027f4:	4ff8                	lw	a4,92(a5)
ffffffc0504027f6:	fd442783          	lw	a5,-44(s0)
ffffffc0504027fa:	2781                	sext.w	a5,a5
ffffffc0504027fc:	00f77663          	bgeu	a4,a5,ffffffc050402808 <XEmacPs_BdRingUnAlloc+0x2c>
ffffffc050402800:	4785                	li	a5,1
ffffffc050402802:	fef43423          	sd	a5,-24(s0)
ffffffc050402806:	a869                	j	ffffffc0504028a0 <XEmacPs_BdRingUnAlloc+0xc4>
ffffffc050402808:	fd843783          	ld	a5,-40(s0)
ffffffc05040280c:	779c                	ld	a5,40(a5)
ffffffc05040280e:	fef43023          	sd	a5,-32(s0)
ffffffc050402812:	fd843783          	ld	a5,-40(s0)
ffffffc050402816:	539c                	lw	a5,32(a5)
ffffffc050402818:	fd442703          	lw	a4,-44(s0)
ffffffc05040281c:	02f707bb          	mulw	a5,a4,a5
ffffffc050402820:	2781                	sext.w	a5,a5
ffffffc050402822:	1782                	slli	a5,a5,0x20
ffffffc050402824:	9381                	srli	a5,a5,0x20
ffffffc050402826:	fe043703          	ld	a4,-32(s0)
ffffffc05040282a:	40f707b3          	sub	a5,a4,a5
ffffffc05040282e:	fef43023          	sd	a5,-32(s0)
ffffffc050402832:	fd843783          	ld	a5,-40(s0)
ffffffc050402836:	679c                	ld	a5,8(a5)
ffffffc050402838:	fe043703          	ld	a4,-32(s0)
ffffffc05040283c:	00f76a63          	bltu	a4,a5,ffffffc050402850 <XEmacPs_BdRingUnAlloc+0x74>
ffffffc050402840:	fd843783          	ld	a5,-40(s0)
ffffffc050402844:	779c                	ld	a5,40(a5)
ffffffc050402846:	873e                	mv	a4,a5
ffffffc050402848:	fe043783          	ld	a5,-32(s0)
ffffffc05040284c:	00f77c63          	bgeu	a4,a5,ffffffc050402864 <XEmacPs_BdRingUnAlloc+0x88>
ffffffc050402850:	fd843783          	ld	a5,-40(s0)
ffffffc050402854:	4f9c                	lw	a5,24(a5)
ffffffc050402856:	1782                	slli	a5,a5,0x20
ffffffc050402858:	9381                	srli	a5,a5,0x20
ffffffc05040285a:	fe043703          	ld	a4,-32(s0)
ffffffc05040285e:	97ba                	add	a5,a5,a4
ffffffc050402860:	fef43023          	sd	a5,-32(s0)
ffffffc050402864:	fe043703          	ld	a4,-32(s0)
ffffffc050402868:	fd843783          	ld	a5,-40(s0)
ffffffc05040286c:	f798                	sd	a4,40(a5)
ffffffc05040286e:	fd843783          	ld	a5,-40(s0)
ffffffc050402872:	53bc                	lw	a5,96(a5)
ffffffc050402874:	fd442703          	lw	a4,-44(s0)
ffffffc050402878:	9fb9                	addw	a5,a5,a4
ffffffc05040287a:	0007871b          	sext.w	a4,a5
ffffffc05040287e:	fd843783          	ld	a5,-40(s0)
ffffffc050402882:	d3b8                	sw	a4,96(a5)
ffffffc050402884:	fd843783          	ld	a5,-40(s0)
ffffffc050402888:	4ff8                	lw	a4,92(a5)
ffffffc05040288a:	fd442783          	lw	a5,-44(s0)
ffffffc05040288e:	40f707bb          	subw	a5,a4,a5
ffffffc050402892:	0007871b          	sext.w	a4,a5
ffffffc050402896:	fd843783          	ld	a5,-40(s0)
ffffffc05040289a:	cff8                	sw	a4,92(a5)
ffffffc05040289c:	fe043423          	sd	zero,-24(s0)
ffffffc0504028a0:	fe843783          	ld	a5,-24(s0)
ffffffc0504028a4:	853e                	mv	a0,a5
ffffffc0504028a6:	7462                	ld	s0,56(sp)
ffffffc0504028a8:	6121                	addi	sp,sp,64
ffffffc0504028aa:	8082                	ret

ffffffc0504028ac <XEmacPs_BdRingToHw>:
ffffffc0504028ac:	715d                	addi	sp,sp,-80
ffffffc0504028ae:	e4a2                	sd	s0,72(sp)
ffffffc0504028b0:	0880                	addi	s0,sp,80
ffffffc0504028b2:	fca43423          	sd	a0,-56(s0)
ffffffc0504028b6:	87ae                	mv	a5,a1
ffffffc0504028b8:	fac43c23          	sd	a2,-72(s0)
ffffffc0504028bc:	fcf42223          	sw	a5,-60(s0)
ffffffc0504028c0:	fc442783          	lw	a5,-60(s0)
ffffffc0504028c4:	2781                	sext.w	a5,a5
ffffffc0504028c6:	e781                	bnez	a5,ffffffc0504028ce <XEmacPs_BdRingToHw+0x22>
ffffffc0504028c8:	fc043c23          	sd	zero,-40(s0)
ffffffc0504028cc:	a20d                	j	ffffffc0504029ee <XEmacPs_BdRingToHw+0x142>
ffffffc0504028ce:	fc843783          	ld	a5,-56(s0)
ffffffc0504028d2:	4ff8                	lw	a4,92(a5)
ffffffc0504028d4:	fc442783          	lw	a5,-60(s0)
ffffffc0504028d8:	2781                	sext.w	a5,a5
ffffffc0504028da:	00f76963          	bltu	a4,a5,ffffffc0504028ec <XEmacPs_BdRingToHw+0x40>
ffffffc0504028de:	fc843783          	ld	a5,-56(s0)
ffffffc0504028e2:	7b9c                	ld	a5,48(a5)
ffffffc0504028e4:	fb843703          	ld	a4,-72(s0)
ffffffc0504028e8:	00f70763          	beq	a4,a5,ffffffc0504028f6 <XEmacPs_BdRingToHw+0x4a>
ffffffc0504028ec:	20e00793          	li	a5,526
ffffffc0504028f0:	fcf43c23          	sd	a5,-40(s0)
ffffffc0504028f4:	a8ed                	j	ffffffc0504029ee <XEmacPs_BdRingToHw+0x142>
ffffffc0504028f6:	fb843783          	ld	a5,-72(s0)
ffffffc0504028fa:	fef43423          	sd	a5,-24(s0)
ffffffc0504028fe:	fe042223          	sw	zero,-28(s0)
ffffffc050402902:	a825                	j	ffffffc05040293a <XEmacPs_BdRingToHw+0x8e>
ffffffc050402904:	fc843783          	ld	a5,-56(s0)
ffffffc050402908:	6b98                	ld	a4,16(a5)
ffffffc05040290a:	fe843783          	ld	a5,-24(s0)
ffffffc05040290e:	00e7e663          	bltu	a5,a4,ffffffc05040291a <XEmacPs_BdRingToHw+0x6e>
ffffffc050402912:	fc843783          	ld	a5,-56(s0)
ffffffc050402916:	679c                	ld	a5,8(a5)
ffffffc050402918:	a811                	j	ffffffc05040292c <XEmacPs_BdRingToHw+0x80>
ffffffc05040291a:	fc843783          	ld	a5,-56(s0)
ffffffc05040291e:	539c                	lw	a5,32(a5)
ffffffc050402920:	02079713          	slli	a4,a5,0x20
ffffffc050402924:	9301                	srli	a4,a4,0x20
ffffffc050402926:	fe843783          	ld	a5,-24(s0)
ffffffc05040292a:	97ba                	add	a5,a5,a4
ffffffc05040292c:	fef43423          	sd	a5,-24(s0)
ffffffc050402930:	fe442783          	lw	a5,-28(s0)
ffffffc050402934:	2785                	addiw	a5,a5,1
ffffffc050402936:	fef42223          	sw	a5,-28(s0)
ffffffc05040293a:	fe442703          	lw	a4,-28(s0)
ffffffc05040293e:	fc442783          	lw	a5,-60(s0)
ffffffc050402942:	2701                	sext.w	a4,a4
ffffffc050402944:	2781                	sext.w	a5,a5
ffffffc050402946:	faf76fe3          	bltu	a4,a5,ffffffc050402904 <XEmacPs_BdRingToHw+0x58>
ffffffc05040294a:	fc843783          	ld	a5,-56(s0)
ffffffc05040294e:	7b9c                	ld	a5,48(a5)
ffffffc050402950:	fcf43823          	sd	a5,-48(s0)
ffffffc050402954:	fc843783          	ld	a5,-56(s0)
ffffffc050402958:	539c                	lw	a5,32(a5)
ffffffc05040295a:	fc442703          	lw	a4,-60(s0)
ffffffc05040295e:	02f707bb          	mulw	a5,a4,a5
ffffffc050402962:	2781                	sext.w	a5,a5
ffffffc050402964:	1782                	slli	a5,a5,0x20
ffffffc050402966:	9381                	srli	a5,a5,0x20
ffffffc050402968:	fd043703          	ld	a4,-48(s0)
ffffffc05040296c:	97ba                	add	a5,a5,a4
ffffffc05040296e:	fcf43823          	sd	a5,-48(s0)
ffffffc050402972:	fc843783          	ld	a5,-56(s0)
ffffffc050402976:	6b9c                	ld	a5,16(a5)
ffffffc050402978:	fd043703          	ld	a4,-48(s0)
ffffffc05040297c:	00e7ea63          	bltu	a5,a4,ffffffc050402990 <XEmacPs_BdRingToHw+0xe4>
ffffffc050402980:	fc843783          	ld	a5,-56(s0)
ffffffc050402984:	7b9c                	ld	a5,48(a5)
ffffffc050402986:	873e                	mv	a4,a5
ffffffc050402988:	fd043783          	ld	a5,-48(s0)
ffffffc05040298c:	00e7fd63          	bgeu	a5,a4,ffffffc0504029a6 <XEmacPs_BdRingToHw+0xfa>
ffffffc050402990:	fc843783          	ld	a5,-56(s0)
ffffffc050402994:	4f9c                	lw	a5,24(a5)
ffffffc050402996:	1782                	slli	a5,a5,0x20
ffffffc050402998:	9381                	srli	a5,a5,0x20
ffffffc05040299a:	fd043703          	ld	a4,-48(s0)
ffffffc05040299e:	40f707b3          	sub	a5,a4,a5
ffffffc0504029a2:	fcf43823          	sd	a5,-48(s0)
ffffffc0504029a6:	fd043703          	ld	a4,-48(s0)
ffffffc0504029aa:	fc843783          	ld	a5,-56(s0)
ffffffc0504029ae:	fb98                	sd	a4,48(a5)
ffffffc0504029b0:	fc843783          	ld	a5,-56(s0)
ffffffc0504029b4:	4ff8                	lw	a4,92(a5)
ffffffc0504029b6:	fc442783          	lw	a5,-60(s0)
ffffffc0504029ba:	40f707bb          	subw	a5,a4,a5
ffffffc0504029be:	0007871b          	sext.w	a4,a5
ffffffc0504029c2:	fc843783          	ld	a5,-56(s0)
ffffffc0504029c6:	cff8                	sw	a4,92(a5)
ffffffc0504029c8:	fc843783          	ld	a5,-56(s0)
ffffffc0504029cc:	fe843703          	ld	a4,-24(s0)
ffffffc0504029d0:	e3b8                	sd	a4,64(a5)
ffffffc0504029d2:	fc843783          	ld	a5,-56(s0)
ffffffc0504029d6:	4fbc                	lw	a5,88(a5)
ffffffc0504029d8:	2781                	sext.w	a5,a5
ffffffc0504029da:	fc442703          	lw	a4,-60(s0)
ffffffc0504029de:	9fb9                	addw	a5,a5,a4
ffffffc0504029e0:	0007871b          	sext.w	a4,a5
ffffffc0504029e4:	fc843783          	ld	a5,-56(s0)
ffffffc0504029e8:	cfb8                	sw	a4,88(a5)
ffffffc0504029ea:	fc043c23          	sd	zero,-40(s0)
ffffffc0504029ee:	fd843783          	ld	a5,-40(s0)
ffffffc0504029f2:	853e                	mv	a0,a5
ffffffc0504029f4:	6426                	ld	s0,72(sp)
ffffffc0504029f6:	6161                	addi	sp,sp,80
ffffffc0504029f8:	8082                	ret

ffffffc0504029fa <XEmacPs_BdRingFromHwTx>:
ffffffc0504029fa:	711d                	addi	sp,sp,-96
ffffffc0504029fc:	eca2                	sd	s0,88(sp)
ffffffc0504029fe:	1080                	addi	s0,sp,96
ffffffc050402a00:	faa43c23          	sd	a0,-72(s0)
ffffffc050402a04:	87ae                	mv	a5,a1
ffffffc050402a06:	fac43423          	sd	a2,-88(s0)
ffffffc050402a0a:	faf42a23          	sw	a5,-76(s0)
ffffffc050402a0e:	fe042223          	sw	zero,-28(s0)
ffffffc050402a12:	fc042c23          	sw	zero,-40(s0)
ffffffc050402a16:	fb442783          	lw	a5,-76(s0)
ffffffc050402a1a:	fcf42823          	sw	a5,-48(s0)
ffffffc050402a1e:	fb843783          	ld	a5,-72(s0)
ffffffc050402a22:	7f9c                	ld	a5,56(a5)
ffffffc050402a24:	fef43423          	sd	a5,-24(s0)
ffffffc050402a28:	fe042023          	sw	zero,-32(s0)
ffffffc050402a2c:	fc042e23          	sw	zero,-36(s0)
ffffffc050402a30:	fb843783          	ld	a5,-72(s0)
ffffffc050402a34:	4fbc                	lw	a5,88(a5)
ffffffc050402a36:	2781                	sext.w	a5,a5
ffffffc050402a38:	eb81                	bnez	a5,ffffffc050402a48 <XEmacPs_BdRingFromHwTx+0x4e>
ffffffc050402a3a:	fa843783          	ld	a5,-88(s0)
ffffffc050402a3e:	0007b023          	sd	zero,0(a5)
ffffffc050402a42:	fc042a23          	sw	zero,-44(s0)
ffffffc050402a46:	aa71                	j	ffffffc050402be2 <XEmacPs_BdRingFromHwTx+0x1e8>
ffffffc050402a48:	fb843783          	ld	a5,-72(s0)
ffffffc050402a4c:	4fbc                	lw	a5,88(a5)
ffffffc050402a4e:	0007871b          	sext.w	a4,a5
ffffffc050402a52:	fd042783          	lw	a5,-48(s0)
ffffffc050402a56:	2781                	sext.w	a5,a5
ffffffc050402a58:	0af77463          	bgeu	a4,a5,ffffffc050402b00 <XEmacPs_BdRingFromHwTx+0x106>
ffffffc050402a5c:	fb843783          	ld	a5,-72(s0)
ffffffc050402a60:	4fbc                	lw	a5,88(a5)
ffffffc050402a62:	fcf42823          	sw	a5,-48(s0)
ffffffc050402a66:	a869                	j	ffffffc050402b00 <XEmacPs_BdRingFromHwTx+0x106>
ffffffc050402a68:	fe843783          	ld	a5,-24(s0)
ffffffc050402a6c:	c799                	beqz	a5,ffffffc050402a7a <XEmacPs_BdRingFromHwTx+0x80>
ffffffc050402a6e:	fe843783          	ld	a5,-24(s0)
ffffffc050402a72:	0791                	addi	a5,a5,4
ffffffc050402a74:	439c                	lw	a5,0(a5)
ffffffc050402a76:	fef42223          	sw	a5,-28(s0)
ffffffc050402a7a:	fd842783          	lw	a5,-40(s0)
ffffffc050402a7e:	2781                	sext.w	a5,a5
ffffffc050402a80:	eb81                	bnez	a5,ffffffc050402a90 <XEmacPs_BdRingFromHwTx+0x96>
ffffffc050402a82:	fe442783          	lw	a5,-28(s0)
ffffffc050402a86:	0007d563          	bgez	a5,ffffffc050402a90 <XEmacPs_BdRingFromHwTx+0x96>
ffffffc050402a8a:	4785                	li	a5,1
ffffffc050402a8c:	fcf42c23          	sw	a5,-40(s0)
ffffffc050402a90:	fd842783          	lw	a5,-40(s0)
ffffffc050402a94:	0007871b          	sext.w	a4,a5
ffffffc050402a98:	4785                	li	a5,1
ffffffc050402a9a:	00f71c63          	bne	a4,a5,ffffffc050402ab2 <XEmacPs_BdRingFromHwTx+0xb8>
ffffffc050402a9e:	fe042783          	lw	a5,-32(s0)
ffffffc050402aa2:	2785                	addiw	a5,a5,1
ffffffc050402aa4:	fef42023          	sw	a5,-32(s0)
ffffffc050402aa8:	fdc42783          	lw	a5,-36(s0)
ffffffc050402aac:	2785                	addiw	a5,a5,1
ffffffc050402aae:	fcf42e23          	sw	a5,-36(s0)
ffffffc050402ab2:	fd842783          	lw	a5,-40(s0)
ffffffc050402ab6:	0007871b          	sext.w	a4,a5
ffffffc050402aba:	4785                	li	a5,1
ffffffc050402abc:	00f71c63          	bne	a4,a5,ffffffc050402ad4 <XEmacPs_BdRingFromHwTx+0xda>
ffffffc050402ac0:	fe442703          	lw	a4,-28(s0)
ffffffc050402ac4:	67a1                	lui	a5,0x8
ffffffc050402ac6:	8ff9                	and	a5,a5,a4
ffffffc050402ac8:	2781                	sext.w	a5,a5
ffffffc050402aca:	c789                	beqz	a5,ffffffc050402ad4 <XEmacPs_BdRingFromHwTx+0xda>
ffffffc050402acc:	fc042c23          	sw	zero,-40(s0)
ffffffc050402ad0:	fc042e23          	sw	zero,-36(s0)
ffffffc050402ad4:	fb843783          	ld	a5,-72(s0)
ffffffc050402ad8:	6b98                	ld	a4,16(a5)
ffffffc050402ada:	fe843783          	ld	a5,-24(s0)
ffffffc050402ade:	00e7e663          	bltu	a5,a4,ffffffc050402aea <XEmacPs_BdRingFromHwTx+0xf0>
ffffffc050402ae2:	fb843783          	ld	a5,-72(s0)
ffffffc050402ae6:	679c                	ld	a5,8(a5)
ffffffc050402ae8:	a811                	j	ffffffc050402afc <XEmacPs_BdRingFromHwTx+0x102>
ffffffc050402aea:	fb843783          	ld	a5,-72(s0)
ffffffc050402aee:	539c                	lw	a5,32(a5)
ffffffc050402af0:	02079713          	slli	a4,a5,0x20
ffffffc050402af4:	9301                	srli	a4,a4,0x20
ffffffc050402af6:	fe843783          	ld	a5,-24(s0)
ffffffc050402afa:	97ba                	add	a5,a5,a4
ffffffc050402afc:	fef43423          	sd	a5,-24(s0)
ffffffc050402b00:	fe042703          	lw	a4,-32(s0)
ffffffc050402b04:	fd042783          	lw	a5,-48(s0)
ffffffc050402b08:	2701                	sext.w	a4,a4
ffffffc050402b0a:	2781                	sext.w	a5,a5
ffffffc050402b0c:	f4f76ee3          	bltu	a4,a5,ffffffc050402a68 <XEmacPs_BdRingFromHwTx+0x6e>
ffffffc050402b10:	fe042703          	lw	a4,-32(s0)
ffffffc050402b14:	fdc42783          	lw	a5,-36(s0)
ffffffc050402b18:	40f707bb          	subw	a5,a4,a5
ffffffc050402b1c:	fef42023          	sw	a5,-32(s0)
ffffffc050402b20:	fe042783          	lw	a5,-32(s0)
ffffffc050402b24:	2781                	sext.w	a5,a5
ffffffc050402b26:	cbc5                	beqz	a5,ffffffc050402bd6 <XEmacPs_BdRingFromHwTx+0x1dc>
ffffffc050402b28:	fb843783          	ld	a5,-72(s0)
ffffffc050402b2c:	7f98                	ld	a4,56(a5)
ffffffc050402b2e:	fa843783          	ld	a5,-88(s0)
ffffffc050402b32:	e398                	sd	a4,0(a5)
ffffffc050402b34:	fb843783          	ld	a5,-72(s0)
ffffffc050402b38:	4fbc                	lw	a5,88(a5)
ffffffc050402b3a:	0007871b          	sext.w	a4,a5
ffffffc050402b3e:	fe042783          	lw	a5,-32(s0)
ffffffc050402b42:	40f707bb          	subw	a5,a4,a5
ffffffc050402b46:	0007871b          	sext.w	a4,a5
ffffffc050402b4a:	fb843783          	ld	a5,-72(s0)
ffffffc050402b4e:	cfb8                	sw	a4,88(a5)
ffffffc050402b50:	fb843783          	ld	a5,-72(s0)
ffffffc050402b54:	53fc                	lw	a5,100(a5)
ffffffc050402b56:	fe042703          	lw	a4,-32(s0)
ffffffc050402b5a:	9fb9                	addw	a5,a5,a4
ffffffc050402b5c:	0007871b          	sext.w	a4,a5
ffffffc050402b60:	fb843783          	ld	a5,-72(s0)
ffffffc050402b64:	d3f8                	sw	a4,100(a5)
ffffffc050402b66:	fb843783          	ld	a5,-72(s0)
ffffffc050402b6a:	7f9c                	ld	a5,56(a5)
ffffffc050402b6c:	fcf43423          	sd	a5,-56(s0)
ffffffc050402b70:	fb843783          	ld	a5,-72(s0)
ffffffc050402b74:	539c                	lw	a5,32(a5)
ffffffc050402b76:	fe042703          	lw	a4,-32(s0)
ffffffc050402b7a:	02f707bb          	mulw	a5,a4,a5
ffffffc050402b7e:	2781                	sext.w	a5,a5
ffffffc050402b80:	1782                	slli	a5,a5,0x20
ffffffc050402b82:	9381                	srli	a5,a5,0x20
ffffffc050402b84:	fc843703          	ld	a4,-56(s0)
ffffffc050402b88:	97ba                	add	a5,a5,a4
ffffffc050402b8a:	fcf43423          	sd	a5,-56(s0)
ffffffc050402b8e:	fb843783          	ld	a5,-72(s0)
ffffffc050402b92:	6b9c                	ld	a5,16(a5)
ffffffc050402b94:	fc843703          	ld	a4,-56(s0)
ffffffc050402b98:	00e7ea63          	bltu	a5,a4,ffffffc050402bac <XEmacPs_BdRingFromHwTx+0x1b2>
ffffffc050402b9c:	fb843783          	ld	a5,-72(s0)
ffffffc050402ba0:	7f9c                	ld	a5,56(a5)
ffffffc050402ba2:	873e                	mv	a4,a5
ffffffc050402ba4:	fc843783          	ld	a5,-56(s0)
ffffffc050402ba8:	00e7fd63          	bgeu	a5,a4,ffffffc050402bc2 <XEmacPs_BdRingFromHwTx+0x1c8>
ffffffc050402bac:	fb843783          	ld	a5,-72(s0)
ffffffc050402bb0:	4f9c                	lw	a5,24(a5)
ffffffc050402bb2:	1782                	slli	a5,a5,0x20
ffffffc050402bb4:	9381                	srli	a5,a5,0x20
ffffffc050402bb6:	fc843703          	ld	a4,-56(s0)
ffffffc050402bba:	40f707b3          	sub	a5,a4,a5
ffffffc050402bbe:	fcf43423          	sd	a5,-56(s0)
ffffffc050402bc2:	fc843703          	ld	a4,-56(s0)
ffffffc050402bc6:	fb843783          	ld	a5,-72(s0)
ffffffc050402bca:	ff98                	sd	a4,56(a5)
ffffffc050402bcc:	fe042783          	lw	a5,-32(s0)
ffffffc050402bd0:	fcf42a23          	sw	a5,-44(s0)
ffffffc050402bd4:	a039                	j	ffffffc050402be2 <XEmacPs_BdRingFromHwTx+0x1e8>
ffffffc050402bd6:	fa843783          	ld	a5,-88(s0)
ffffffc050402bda:	0007b023          	sd	zero,0(a5) # 8000 <_start-0xffffffc0503f8000>
ffffffc050402bde:	fc042a23          	sw	zero,-44(s0)
ffffffc050402be2:	fd442783          	lw	a5,-44(s0)
ffffffc050402be6:	853e                	mv	a0,a5
ffffffc050402be8:	6466                	ld	s0,88(sp)
ffffffc050402bea:	6125                	addi	sp,sp,96
ffffffc050402bec:	8082                	ret

ffffffc050402bee <XEmacPs_BdRingFromHwRx>:
ffffffc050402bee:	715d                	addi	sp,sp,-80
ffffffc050402bf0:	e4a2                	sd	s0,72(sp)
ffffffc050402bf2:	0880                	addi	s0,sp,80
ffffffc050402bf4:	fca43423          	sd	a0,-56(s0)
ffffffc050402bf8:	87ae                	mv	a5,a1
ffffffc050402bfa:	fac43c23          	sd	a2,-72(s0)
ffffffc050402bfe:	fcf42223          	sw	a5,-60(s0)
ffffffc050402c02:	fe042223          	sw	zero,-28(s0)
ffffffc050402c06:	fc843783          	ld	a5,-56(s0)
ffffffc050402c0a:	7f9c                	ld	a5,56(a5)
ffffffc050402c0c:	fef43423          	sd	a5,-24(s0)
ffffffc050402c10:	fe042023          	sw	zero,-32(s0)
ffffffc050402c14:	fc042e23          	sw	zero,-36(s0)
ffffffc050402c18:	fc843783          	ld	a5,-56(s0)
ffffffc050402c1c:	4fbc                	lw	a5,88(a5)
ffffffc050402c1e:	2781                	sext.w	a5,a5
ffffffc050402c20:	e3c1                	bnez	a5,ffffffc050402ca0 <XEmacPs_BdRingFromHwRx+0xb2>
ffffffc050402c22:	fb843783          	ld	a5,-72(s0)
ffffffc050402c26:	0007b023          	sd	zero,0(a5)
ffffffc050402c2a:	fc042c23          	sw	zero,-40(s0)
ffffffc050402c2e:	aaa1                	j	ffffffc050402d86 <XEmacPs_BdRingFromHwRx+0x198>
ffffffc050402c30:	fe843783          	ld	a5,-24(s0)
ffffffc050402c34:	c799                	beqz	a5,ffffffc050402c42 <XEmacPs_BdRingFromHwRx+0x54>
ffffffc050402c36:	fe843783          	ld	a5,-24(s0)
ffffffc050402c3a:	0791                	addi	a5,a5,4
ffffffc050402c3c:	439c                	lw	a5,0(a5)
ffffffc050402c3e:	fef42223          	sw	a5,-28(s0)
ffffffc050402c42:	fe843783          	ld	a5,-24(s0)
ffffffc050402c46:	439c                	lw	a5,0(a5)
ffffffc050402c48:	8b85                	andi	a5,a5,1
ffffffc050402c4a:	2781                	sext.w	a5,a5
ffffffc050402c4c:	c3bd                	beqz	a5,ffffffc050402cb2 <XEmacPs_BdRingFromHwRx+0xc4>
ffffffc050402c4e:	fe042783          	lw	a5,-32(s0)
ffffffc050402c52:	2785                	addiw	a5,a5,1
ffffffc050402c54:	fef42023          	sw	a5,-32(s0)
ffffffc050402c58:	fe442703          	lw	a4,-28(s0)
ffffffc050402c5c:	67a1                	lui	a5,0x8
ffffffc050402c5e:	8ff9                	and	a5,a5,a4
ffffffc050402c60:	2781                	sext.w	a5,a5
ffffffc050402c62:	c781                	beqz	a5,ffffffc050402c6a <XEmacPs_BdRingFromHwRx+0x7c>
ffffffc050402c64:	fc042e23          	sw	zero,-36(s0)
ffffffc050402c68:	a031                	j	ffffffc050402c74 <XEmacPs_BdRingFromHwRx+0x86>
ffffffc050402c6a:	fdc42783          	lw	a5,-36(s0)
ffffffc050402c6e:	2785                	addiw	a5,a5,1
ffffffc050402c70:	fcf42e23          	sw	a5,-36(s0)
ffffffc050402c74:	fc843783          	ld	a5,-56(s0)
ffffffc050402c78:	6b98                	ld	a4,16(a5)
ffffffc050402c7a:	fe843783          	ld	a5,-24(s0)
ffffffc050402c7e:	00e7e663          	bltu	a5,a4,ffffffc050402c8a <XEmacPs_BdRingFromHwRx+0x9c>
ffffffc050402c82:	fc843783          	ld	a5,-56(s0)
ffffffc050402c86:	679c                	ld	a5,8(a5)
ffffffc050402c88:	a811                	j	ffffffc050402c9c <XEmacPs_BdRingFromHwRx+0xae>
ffffffc050402c8a:	fc843783          	ld	a5,-56(s0)
ffffffc050402c8e:	539c                	lw	a5,32(a5)
ffffffc050402c90:	02079713          	slli	a4,a5,0x20
ffffffc050402c94:	9301                	srli	a4,a4,0x20
ffffffc050402c96:	fe843783          	ld	a5,-24(s0)
ffffffc050402c9a:	97ba                	add	a5,a5,a4
ffffffc050402c9c:	fef43423          	sd	a5,-24(s0)
ffffffc050402ca0:	fe042703          	lw	a4,-32(s0)
ffffffc050402ca4:	fc442783          	lw	a5,-60(s0)
ffffffc050402ca8:	2701                	sext.w	a4,a4
ffffffc050402caa:	2781                	sext.w	a5,a5
ffffffc050402cac:	f8f762e3          	bltu	a4,a5,ffffffc050402c30 <XEmacPs_BdRingFromHwRx+0x42>
ffffffc050402cb0:	a011                	j	ffffffc050402cb4 <XEmacPs_BdRingFromHwRx+0xc6>
ffffffc050402cb2:	0001                	nop
ffffffc050402cb4:	fe042703          	lw	a4,-32(s0)
ffffffc050402cb8:	fdc42783          	lw	a5,-36(s0)
ffffffc050402cbc:	40f707bb          	subw	a5,a4,a5
ffffffc050402cc0:	fef42023          	sw	a5,-32(s0)
ffffffc050402cc4:	fe042783          	lw	a5,-32(s0)
ffffffc050402cc8:	2781                	sext.w	a5,a5
ffffffc050402cca:	cbc5                	beqz	a5,ffffffc050402d7a <XEmacPs_BdRingFromHwRx+0x18c>
ffffffc050402ccc:	fc843783          	ld	a5,-56(s0)
ffffffc050402cd0:	7f98                	ld	a4,56(a5)
ffffffc050402cd2:	fb843783          	ld	a5,-72(s0)
ffffffc050402cd6:	e398                	sd	a4,0(a5)
ffffffc050402cd8:	fc843783          	ld	a5,-56(s0)
ffffffc050402cdc:	4fbc                	lw	a5,88(a5)
ffffffc050402cde:	0007871b          	sext.w	a4,a5
ffffffc050402ce2:	fe042783          	lw	a5,-32(s0)
ffffffc050402ce6:	40f707bb          	subw	a5,a4,a5
ffffffc050402cea:	0007871b          	sext.w	a4,a5
ffffffc050402cee:	fc843783          	ld	a5,-56(s0)
ffffffc050402cf2:	cfb8                	sw	a4,88(a5)
ffffffc050402cf4:	fc843783          	ld	a5,-56(s0)
ffffffc050402cf8:	53fc                	lw	a5,100(a5)
ffffffc050402cfa:	fe042703          	lw	a4,-32(s0)
ffffffc050402cfe:	9fb9                	addw	a5,a5,a4
ffffffc050402d00:	0007871b          	sext.w	a4,a5
ffffffc050402d04:	fc843783          	ld	a5,-56(s0)
ffffffc050402d08:	d3f8                	sw	a4,100(a5)
ffffffc050402d0a:	fc843783          	ld	a5,-56(s0)
ffffffc050402d0e:	7f9c                	ld	a5,56(a5)
ffffffc050402d10:	fcf43823          	sd	a5,-48(s0)
ffffffc050402d14:	fc843783          	ld	a5,-56(s0)
ffffffc050402d18:	539c                	lw	a5,32(a5)
ffffffc050402d1a:	fe042703          	lw	a4,-32(s0)
ffffffc050402d1e:	02f707bb          	mulw	a5,a4,a5
ffffffc050402d22:	2781                	sext.w	a5,a5
ffffffc050402d24:	1782                	slli	a5,a5,0x20
ffffffc050402d26:	9381                	srli	a5,a5,0x20
ffffffc050402d28:	fd043703          	ld	a4,-48(s0)
ffffffc050402d2c:	97ba                	add	a5,a5,a4
ffffffc050402d2e:	fcf43823          	sd	a5,-48(s0)
ffffffc050402d32:	fc843783          	ld	a5,-56(s0)
ffffffc050402d36:	6b9c                	ld	a5,16(a5)
ffffffc050402d38:	fd043703          	ld	a4,-48(s0)
ffffffc050402d3c:	00e7ea63          	bltu	a5,a4,ffffffc050402d50 <XEmacPs_BdRingFromHwRx+0x162>
ffffffc050402d40:	fc843783          	ld	a5,-56(s0)
ffffffc050402d44:	7f9c                	ld	a5,56(a5)
ffffffc050402d46:	873e                	mv	a4,a5
ffffffc050402d48:	fd043783          	ld	a5,-48(s0)
ffffffc050402d4c:	00e7fd63          	bgeu	a5,a4,ffffffc050402d66 <XEmacPs_BdRingFromHwRx+0x178>
ffffffc050402d50:	fc843783          	ld	a5,-56(s0)
ffffffc050402d54:	4f9c                	lw	a5,24(a5)
ffffffc050402d56:	1782                	slli	a5,a5,0x20
ffffffc050402d58:	9381                	srli	a5,a5,0x20
ffffffc050402d5a:	fd043703          	ld	a4,-48(s0)
ffffffc050402d5e:	40f707b3          	sub	a5,a4,a5
ffffffc050402d62:	fcf43823          	sd	a5,-48(s0)
ffffffc050402d66:	fd043703          	ld	a4,-48(s0)
ffffffc050402d6a:	fc843783          	ld	a5,-56(s0)
ffffffc050402d6e:	ff98                	sd	a4,56(a5)
ffffffc050402d70:	fe042783          	lw	a5,-32(s0)
ffffffc050402d74:	fcf42c23          	sw	a5,-40(s0)
ffffffc050402d78:	a039                	j	ffffffc050402d86 <XEmacPs_BdRingFromHwRx+0x198>
ffffffc050402d7a:	fb843783          	ld	a5,-72(s0)
ffffffc050402d7e:	0007b023          	sd	zero,0(a5) # 8000 <_start-0xffffffc0503f8000>
ffffffc050402d82:	fc042c23          	sw	zero,-40(s0)
ffffffc050402d86:	fd842783          	lw	a5,-40(s0)
ffffffc050402d8a:	853e                	mv	a0,a5
ffffffc050402d8c:	6426                	ld	s0,72(sp)
ffffffc050402d8e:	6161                	addi	sp,sp,80
ffffffc050402d90:	8082                	ret

ffffffc050402d92 <XEmacPs_BdRingFree>:
ffffffc050402d92:	7139                	addi	sp,sp,-64
ffffffc050402d94:	fc22                	sd	s0,56(sp)
ffffffc050402d96:	0080                	addi	s0,sp,64
ffffffc050402d98:	fca43c23          	sd	a0,-40(s0)
ffffffc050402d9c:	87ae                	mv	a5,a1
ffffffc050402d9e:	fcc43423          	sd	a2,-56(s0)
ffffffc050402da2:	fcf42a23          	sw	a5,-44(s0)
ffffffc050402da6:	fd442783          	lw	a5,-44(s0)
ffffffc050402daa:	2781                	sext.w	a5,a5
ffffffc050402dac:	e781                	bnez	a5,ffffffc050402db4 <XEmacPs_BdRingFree+0x22>
ffffffc050402dae:	fe043423          	sd	zero,-24(s0)
ffffffc050402db2:	a0c9                	j	ffffffc050402e74 <XEmacPs_BdRingFree+0xe2>
ffffffc050402db4:	fd843783          	ld	a5,-40(s0)
ffffffc050402db8:	53f8                	lw	a4,100(a5)
ffffffc050402dba:	fd442783          	lw	a5,-44(s0)
ffffffc050402dbe:	2781                	sext.w	a5,a5
ffffffc050402dc0:	00f76963          	bltu	a4,a5,ffffffc050402dd2 <XEmacPs_BdRingFree+0x40>
ffffffc050402dc4:	fd843783          	ld	a5,-40(s0)
ffffffc050402dc8:	67bc                	ld	a5,72(a5)
ffffffc050402dca:	fc843703          	ld	a4,-56(s0)
ffffffc050402dce:	00f70763          	beq	a4,a5,ffffffc050402ddc <XEmacPs_BdRingFree+0x4a>
ffffffc050402dd2:	20e00793          	li	a5,526
ffffffc050402dd6:	fef43423          	sd	a5,-24(s0)
ffffffc050402dda:	a869                	j	ffffffc050402e74 <XEmacPs_BdRingFree+0xe2>
ffffffc050402ddc:	fd843783          	ld	a5,-40(s0)
ffffffc050402de0:	53bc                	lw	a5,96(a5)
ffffffc050402de2:	fd442703          	lw	a4,-44(s0)
ffffffc050402de6:	9fb9                	addw	a5,a5,a4
ffffffc050402de8:	0007871b          	sext.w	a4,a5
ffffffc050402dec:	fd843783          	ld	a5,-40(s0)
ffffffc050402df0:	d3b8                	sw	a4,96(a5)
ffffffc050402df2:	fd843783          	ld	a5,-40(s0)
ffffffc050402df6:	53f8                	lw	a4,100(a5)
ffffffc050402df8:	fd442783          	lw	a5,-44(s0)
ffffffc050402dfc:	40f707bb          	subw	a5,a4,a5
ffffffc050402e00:	0007871b          	sext.w	a4,a5
ffffffc050402e04:	fd843783          	ld	a5,-40(s0)
ffffffc050402e08:	d3f8                	sw	a4,100(a5)
ffffffc050402e0a:	fd843783          	ld	a5,-40(s0)
ffffffc050402e0e:	67bc                	ld	a5,72(a5)
ffffffc050402e10:	fef43023          	sd	a5,-32(s0)
ffffffc050402e14:	fd843783          	ld	a5,-40(s0)
ffffffc050402e18:	539c                	lw	a5,32(a5)
ffffffc050402e1a:	fd442703          	lw	a4,-44(s0)
ffffffc050402e1e:	02f707bb          	mulw	a5,a4,a5
ffffffc050402e22:	2781                	sext.w	a5,a5
ffffffc050402e24:	1782                	slli	a5,a5,0x20
ffffffc050402e26:	9381                	srli	a5,a5,0x20
ffffffc050402e28:	fe043703          	ld	a4,-32(s0)
ffffffc050402e2c:	97ba                	add	a5,a5,a4
ffffffc050402e2e:	fef43023          	sd	a5,-32(s0)
ffffffc050402e32:	fd843783          	ld	a5,-40(s0)
ffffffc050402e36:	6b9c                	ld	a5,16(a5)
ffffffc050402e38:	fe043703          	ld	a4,-32(s0)
ffffffc050402e3c:	00e7ea63          	bltu	a5,a4,ffffffc050402e50 <XEmacPs_BdRingFree+0xbe>
ffffffc050402e40:	fd843783          	ld	a5,-40(s0)
ffffffc050402e44:	67bc                	ld	a5,72(a5)
ffffffc050402e46:	873e                	mv	a4,a5
ffffffc050402e48:	fe043783          	ld	a5,-32(s0)
ffffffc050402e4c:	00e7fd63          	bgeu	a5,a4,ffffffc050402e66 <XEmacPs_BdRingFree+0xd4>
ffffffc050402e50:	fd843783          	ld	a5,-40(s0)
ffffffc050402e54:	4f9c                	lw	a5,24(a5)
ffffffc050402e56:	1782                	slli	a5,a5,0x20
ffffffc050402e58:	9381                	srli	a5,a5,0x20
ffffffc050402e5a:	fe043703          	ld	a4,-32(s0)
ffffffc050402e5e:	40f707b3          	sub	a5,a4,a5
ffffffc050402e62:	fef43023          	sd	a5,-32(s0)
ffffffc050402e66:	fe043703          	ld	a4,-32(s0)
ffffffc050402e6a:	fd843783          	ld	a5,-40(s0)
ffffffc050402e6e:	e7b8                	sd	a4,72(a5)
ffffffc050402e70:	fe043423          	sd	zero,-24(s0)
ffffffc050402e74:	fe843783          	ld	a5,-24(s0)
ffffffc050402e78:	853e                	mv	a0,a5
ffffffc050402e7a:	7462                	ld	s0,56(sp)
ffffffc050402e7c:	6121                	addi	sp,sp,64
ffffffc050402e7e:	8082                	ret

ffffffc050402e80 <XEmacPs_BdRingCheck>:
ffffffc050402e80:	7139                	addi	sp,sp,-64
ffffffc050402e82:	fc22                	sd	s0,56(sp)
ffffffc050402e84:	0080                	addi	s0,sp,64
ffffffc050402e86:	fca43423          	sd	a0,-56(s0)
ffffffc050402e8a:	87ae                	mv	a5,a1
ffffffc050402e8c:	fcf403a3          	sb	a5,-57(s0)
ffffffc050402e90:	fc744783          	lbu	a5,-57(s0)
ffffffc050402e94:	0ff7f713          	andi	a4,a5,255
ffffffc050402e98:	4785                	li	a5,1
ffffffc050402e9a:	00f70b63          	beq	a4,a5,ffffffc050402eb0 <XEmacPs_BdRingCheck+0x30>
ffffffc050402e9e:	fc744783          	lbu	a5,-57(s0)
ffffffc050402ea2:	0ff7f713          	andi	a4,a5,255
ffffffc050402ea6:	4789                	li	a5,2
ffffffc050402ea8:	00f70463          	beq	a4,a5,ffffffc050402eb0 <XEmacPs_BdRingCheck+0x30>
ffffffc050402eac:	47bd                	li	a5,15
ffffffc050402eae:	ac09                	j	ffffffc0504030c0 <XEmacPs_BdRingCheck+0x240>
ffffffc050402eb0:	fc843783          	ld	a5,-56(s0)
ffffffc050402eb4:	57bc                	lw	a5,104(a5)
ffffffc050402eb6:	e781                	bnez	a5,ffffffc050402ebe <XEmacPs_BdRingCheck+0x3e>
ffffffc050402eb8:	20b00793          	li	a5,523
ffffffc050402ebc:	a411                	j	ffffffc0504030c0 <XEmacPs_BdRingCheck+0x240>
ffffffc050402ebe:	fc843783          	ld	a5,-56(s0)
ffffffc050402ec2:	4fdc                	lw	a5,28(a5)
ffffffc050402ec4:	873e                	mv	a4,a5
ffffffc050402ec6:	20200793          	li	a5,514
ffffffc050402eca:	00f71463          	bne	a4,a5,ffffffc050402ed2 <XEmacPs_BdRingCheck+0x52>
ffffffc050402ece:	47dd                	li	a5,23
ffffffc050402ed0:	aac5                	j	ffffffc0504030c0 <XEmacPs_BdRingCheck+0x240>
ffffffc050402ed2:	fc843783          	ld	a5,-56(s0)
ffffffc050402ed6:	4fdc                	lw	a5,28(a5)
ffffffc050402ed8:	873e                	mv	a4,a5
ffffffc050402eda:	20300793          	li	a5,515
ffffffc050402ede:	00f70563          	beq	a4,a5,ffffffc050402ee8 <XEmacPs_BdRingCheck+0x68>
ffffffc050402ee2:	20e00793          	li	a5,526
ffffffc050402ee6:	aae9                	j	ffffffc0504030c0 <XEmacPs_BdRingCheck+0x240>
ffffffc050402ee8:	fc843783          	ld	a5,-56(s0)
ffffffc050402eec:	779c                	ld	a5,40(a5)
ffffffc050402eee:	fef43423          	sd	a5,-24(s0)
ffffffc050402ef2:	fc843783          	ld	a5,-56(s0)
ffffffc050402ef6:	679c                	ld	a5,8(a5)
ffffffc050402ef8:	fe843703          	ld	a4,-24(s0)
ffffffc050402efc:	00f76963          	bltu	a4,a5,ffffffc050402f0e <XEmacPs_BdRingCheck+0x8e>
ffffffc050402f00:	fc843783          	ld	a5,-56(s0)
ffffffc050402f04:	6b9c                	ld	a5,16(a5)
ffffffc050402f06:	fe843703          	ld	a4,-24(s0)
ffffffc050402f0a:	00e7f563          	bgeu	a5,a4,ffffffc050402f14 <XEmacPs_BdRingCheck+0x94>
ffffffc050402f0e:	20e00793          	li	a5,526
ffffffc050402f12:	a27d                	j	ffffffc0504030c0 <XEmacPs_BdRingCheck+0x240>
ffffffc050402f14:	fc843783          	ld	a5,-56(s0)
ffffffc050402f18:	7b9c                	ld	a5,48(a5)
ffffffc050402f1a:	fef43423          	sd	a5,-24(s0)
ffffffc050402f1e:	fc843783          	ld	a5,-56(s0)
ffffffc050402f22:	679c                	ld	a5,8(a5)
ffffffc050402f24:	fe843703          	ld	a4,-24(s0)
ffffffc050402f28:	00f76963          	bltu	a4,a5,ffffffc050402f3a <XEmacPs_BdRingCheck+0xba>
ffffffc050402f2c:	fc843783          	ld	a5,-56(s0)
ffffffc050402f30:	6b9c                	ld	a5,16(a5)
ffffffc050402f32:	fe843703          	ld	a4,-24(s0)
ffffffc050402f36:	00e7f563          	bgeu	a5,a4,ffffffc050402f40 <XEmacPs_BdRingCheck+0xc0>
ffffffc050402f3a:	20e00793          	li	a5,526
ffffffc050402f3e:	a249                	j	ffffffc0504030c0 <XEmacPs_BdRingCheck+0x240>
ffffffc050402f40:	fc843783          	ld	a5,-56(s0)
ffffffc050402f44:	7f9c                	ld	a5,56(a5)
ffffffc050402f46:	fef43423          	sd	a5,-24(s0)
ffffffc050402f4a:	fc843783          	ld	a5,-56(s0)
ffffffc050402f4e:	679c                	ld	a5,8(a5)
ffffffc050402f50:	fe843703          	ld	a4,-24(s0)
ffffffc050402f54:	00f76963          	bltu	a4,a5,ffffffc050402f66 <XEmacPs_BdRingCheck+0xe6>
ffffffc050402f58:	fc843783          	ld	a5,-56(s0)
ffffffc050402f5c:	6b9c                	ld	a5,16(a5)
ffffffc050402f5e:	fe843703          	ld	a4,-24(s0)
ffffffc050402f62:	00e7f563          	bgeu	a5,a4,ffffffc050402f6c <XEmacPs_BdRingCheck+0xec>
ffffffc050402f66:	20e00793          	li	a5,526
ffffffc050402f6a:	aa99                	j	ffffffc0504030c0 <XEmacPs_BdRingCheck+0x240>
ffffffc050402f6c:	fc843783          	ld	a5,-56(s0)
ffffffc050402f70:	63bc                	ld	a5,64(a5)
ffffffc050402f72:	fef43423          	sd	a5,-24(s0)
ffffffc050402f76:	fc843783          	ld	a5,-56(s0)
ffffffc050402f7a:	679c                	ld	a5,8(a5)
ffffffc050402f7c:	fe843703          	ld	a4,-24(s0)
ffffffc050402f80:	00f76963          	bltu	a4,a5,ffffffc050402f92 <XEmacPs_BdRingCheck+0x112>
ffffffc050402f84:	fc843783          	ld	a5,-56(s0)
ffffffc050402f88:	6b9c                	ld	a5,16(a5)
ffffffc050402f8a:	fe843703          	ld	a4,-24(s0)
ffffffc050402f8e:	00e7f563          	bgeu	a5,a4,ffffffc050402f98 <XEmacPs_BdRingCheck+0x118>
ffffffc050402f92:	20e00793          	li	a5,526
ffffffc050402f96:	a22d                	j	ffffffc0504030c0 <XEmacPs_BdRingCheck+0x240>
ffffffc050402f98:	fc843783          	ld	a5,-56(s0)
ffffffc050402f9c:	67bc                	ld	a5,72(a5)
ffffffc050402f9e:	fef43423          	sd	a5,-24(s0)
ffffffc050402fa2:	fc843783          	ld	a5,-56(s0)
ffffffc050402fa6:	679c                	ld	a5,8(a5)
ffffffc050402fa8:	fe843703          	ld	a4,-24(s0)
ffffffc050402fac:	00f76963          	bltu	a4,a5,ffffffc050402fbe <XEmacPs_BdRingCheck+0x13e>
ffffffc050402fb0:	fc843783          	ld	a5,-56(s0)
ffffffc050402fb4:	6b9c                	ld	a5,16(a5)
ffffffc050402fb6:	fe843703          	ld	a4,-24(s0)
ffffffc050402fba:	00e7f563          	bgeu	a5,a4,ffffffc050402fc4 <XEmacPs_BdRingCheck+0x144>
ffffffc050402fbe:	20e00793          	li	a5,526
ffffffc050402fc2:	a8fd                	j	ffffffc0504030c0 <XEmacPs_BdRingCheck+0x240>
ffffffc050402fc4:	fc843783          	ld	a5,-56(s0)
ffffffc050402fc8:	4fbc                	lw	a5,88(a5)
ffffffc050402fca:	0007871b          	sext.w	a4,a5
ffffffc050402fce:	fc843783          	ld	a5,-56(s0)
ffffffc050402fd2:	4ffc                	lw	a5,92(a5)
ffffffc050402fd4:	9fb9                	addw	a5,a5,a4
ffffffc050402fd6:	0007871b          	sext.w	a4,a5
ffffffc050402fda:	fc843783          	ld	a5,-56(s0)
ffffffc050402fde:	53bc                	lw	a5,96(a5)
ffffffc050402fe0:	9fb9                	addw	a5,a5,a4
ffffffc050402fe2:	0007871b          	sext.w	a4,a5
ffffffc050402fe6:	fc843783          	ld	a5,-56(s0)
ffffffc050402fea:	53fc                	lw	a5,100(a5)
ffffffc050402fec:	9fb9                	addw	a5,a5,a4
ffffffc050402fee:	0007871b          	sext.w	a4,a5
ffffffc050402ff2:	fc843783          	ld	a5,-56(s0)
ffffffc050402ff6:	57bc                	lw	a5,104(a5)
ffffffc050402ff8:	00f70563          	beq	a4,a5,ffffffc050403002 <XEmacPs_BdRingCheck+0x182>
ffffffc050402ffc:	20e00793          	li	a5,526
ffffffc050403000:	a0c1                	j	ffffffc0504030c0 <XEmacPs_BdRingCheck+0x240>
ffffffc050403002:	fc843783          	ld	a5,-56(s0)
ffffffc050403006:	679c                	ld	a5,8(a5)
ffffffc050403008:	fef43423          	sd	a5,-24(s0)
ffffffc05040300c:	fc843783          	ld	a5,-56(s0)
ffffffc050403010:	6398                	ld	a4,0(a5)
ffffffc050403012:	fc843783          	ld	a5,-56(s0)
ffffffc050403016:	539c                	lw	a5,32(a5)
ffffffc050403018:	1782                	slli	a5,a5,0x20
ffffffc05040301a:	9381                	srli	a5,a5,0x20
ffffffc05040301c:	97ba                	add	a5,a5,a4
ffffffc05040301e:	fef43023          	sd	a5,-32(s0)
ffffffc050403022:	4785                	li	a5,1
ffffffc050403024:	fcf42e23          	sw	a5,-36(s0)
ffffffc050403028:	a0b1                	j	ffffffc050403074 <XEmacPs_BdRingCheck+0x1f4>
ffffffc05040302a:	fe843783          	ld	a5,-24(s0)
ffffffc05040302e:	439c                	lw	a5,0(a5)
ffffffc050403030:	1782                	slli	a5,a5,0x20
ffffffc050403032:	9381                	srli	a5,a5,0x20
ffffffc050403034:	fe043703          	ld	a4,-32(s0)
ffffffc050403038:	00f70563          	beq	a4,a5,ffffffc050403042 <XEmacPs_BdRingCheck+0x1c2>
ffffffc05040303c:	20e00793          	li	a5,526
ffffffc050403040:	a041                	j	ffffffc0504030c0 <XEmacPs_BdRingCheck+0x240>
ffffffc050403042:	fc843783          	ld	a5,-56(s0)
ffffffc050403046:	539c                	lw	a5,32(a5)
ffffffc050403048:	1782                	slli	a5,a5,0x20
ffffffc05040304a:	9381                	srli	a5,a5,0x20
ffffffc05040304c:	fe843703          	ld	a4,-24(s0)
ffffffc050403050:	97ba                	add	a5,a5,a4
ffffffc050403052:	fef43423          	sd	a5,-24(s0)
ffffffc050403056:	fc843783          	ld	a5,-56(s0)
ffffffc05040305a:	539c                	lw	a5,32(a5)
ffffffc05040305c:	1782                	slli	a5,a5,0x20
ffffffc05040305e:	9381                	srli	a5,a5,0x20
ffffffc050403060:	fe043703          	ld	a4,-32(s0)
ffffffc050403064:	97ba                	add	a5,a5,a4
ffffffc050403066:	fef43023          	sd	a5,-32(s0)
ffffffc05040306a:	fdc42783          	lw	a5,-36(s0)
ffffffc05040306e:	2785                	addiw	a5,a5,1
ffffffc050403070:	fcf42e23          	sw	a5,-36(s0)
ffffffc050403074:	fc843783          	ld	a5,-56(s0)
ffffffc050403078:	57b8                	lw	a4,104(a5)
ffffffc05040307a:	fdc42783          	lw	a5,-36(s0)
ffffffc05040307e:	2781                	sext.w	a5,a5
ffffffc050403080:	fae7e5e3          	bltu	a5,a4,ffffffc05040302a <XEmacPs_BdRingCheck+0x1aa>
ffffffc050403084:	fc744783          	lbu	a5,-57(s0)
ffffffc050403088:	0ff7f713          	andi	a4,a5,255
ffffffc05040308c:	4785                	li	a5,1
ffffffc05040308e:	00f71f63          	bne	a4,a5,ffffffc0504030ac <XEmacPs_BdRingCheck+0x22c>
ffffffc050403092:	fe843783          	ld	a5,-24(s0)
ffffffc050403096:	0791                	addi	a5,a5,4
ffffffc050403098:	439c                	lw	a5,0(a5)
ffffffc05040309a:	873e                	mv	a4,a5
ffffffc05040309c:	400007b7          	lui	a5,0x40000
ffffffc0504030a0:	8ff9                	and	a5,a5,a4
ffffffc0504030a2:	2781                	sext.w	a5,a5
ffffffc0504030a4:	ef89                	bnez	a5,ffffffc0504030be <XEmacPs_BdRingCheck+0x23e>
ffffffc0504030a6:	20e00793          	li	a5,526
ffffffc0504030aa:	a819                	j	ffffffc0504030c0 <XEmacPs_BdRingCheck+0x240>
ffffffc0504030ac:	fe843783          	ld	a5,-24(s0)
ffffffc0504030b0:	439c                	lw	a5,0(a5)
ffffffc0504030b2:	8b89                	andi	a5,a5,2
ffffffc0504030b4:	2781                	sext.w	a5,a5
ffffffc0504030b6:	e781                	bnez	a5,ffffffc0504030be <XEmacPs_BdRingCheck+0x23e>
ffffffc0504030b8:	20e00793          	li	a5,526
ffffffc0504030bc:	a011                	j	ffffffc0504030c0 <XEmacPs_BdRingCheck+0x240>
ffffffc0504030be:	4781                	li	a5,0
ffffffc0504030c0:	853e                	mv	a0,a5
ffffffc0504030c2:	7462                	ld	s0,56(sp)
ffffffc0504030c4:	6121                	addi	sp,sp,64
ffffffc0504030c6:	8082                	ret

ffffffc0504030c8 <XEmacPs_BdSetRxWrap>:
ffffffc0504030c8:	7179                	addi	sp,sp,-48
ffffffc0504030ca:	f422                	sd	s0,40(sp)
ffffffc0504030cc:	1800                	addi	s0,sp,48
ffffffc0504030ce:	fca43c23          	sd	a0,-40(s0)
ffffffc0504030d2:	fd843783          	ld	a5,-40(s0)
ffffffc0504030d6:	fef43423          	sd	a5,-24(s0)
ffffffc0504030da:	fe843783          	ld	a5,-24(s0)
ffffffc0504030de:	c38d                	beqz	a5,ffffffc050403100 <XEmacPs_BdSetRxWrap+0x38>
ffffffc0504030e0:	fe843783          	ld	a5,-24(s0)
ffffffc0504030e4:	439c                	lw	a5,0(a5)
ffffffc0504030e6:	fef42223          	sw	a5,-28(s0)
ffffffc0504030ea:	fe442783          	lw	a5,-28(s0)
ffffffc0504030ee:	0027e793          	ori	a5,a5,2
ffffffc0504030f2:	fef42223          	sw	a5,-28(s0)
ffffffc0504030f6:	fe843783          	ld	a5,-24(s0)
ffffffc0504030fa:	fe442703          	lw	a4,-28(s0)
ffffffc0504030fe:	c398                	sw	a4,0(a5)
ffffffc050403100:	0001                	nop
ffffffc050403102:	7422                	ld	s0,40(sp)
ffffffc050403104:	6145                	addi	sp,sp,48
ffffffc050403106:	8082                	ret

ffffffc050403108 <XEmacPs_BdSetTxWrap>:
ffffffc050403108:	7179                	addi	sp,sp,-48
ffffffc05040310a:	f422                	sd	s0,40(sp)
ffffffc05040310c:	1800                	addi	s0,sp,48
ffffffc05040310e:	fca43c23          	sd	a0,-40(s0)
ffffffc050403112:	fd843783          	ld	a5,-40(s0)
ffffffc050403116:	0791                	addi	a5,a5,4
ffffffc050403118:	fcf43c23          	sd	a5,-40(s0)
ffffffc05040311c:	fd843783          	ld	a5,-40(s0)
ffffffc050403120:	fef43423          	sd	a5,-24(s0)
ffffffc050403124:	fe843783          	ld	a5,-24(s0)
ffffffc050403128:	c395                	beqz	a5,ffffffc05040314c <XEmacPs_BdSetTxWrap+0x44>
ffffffc05040312a:	fe843783          	ld	a5,-24(s0)
ffffffc05040312e:	439c                	lw	a5,0(a5)
ffffffc050403130:	fef42223          	sw	a5,-28(s0)
ffffffc050403134:	fe442703          	lw	a4,-28(s0)
ffffffc050403138:	400007b7          	lui	a5,0x40000
ffffffc05040313c:	8fd9                	or	a5,a5,a4
ffffffc05040313e:	fef42223          	sw	a5,-28(s0)
ffffffc050403142:	fe843783          	ld	a5,-24(s0)
ffffffc050403146:	fe442703          	lw	a4,-28(s0)
ffffffc05040314a:	c398                	sw	a4,0(a5)
ffffffc05040314c:	0001                	nop
ffffffc05040314e:	7422                	ld	s0,40(sp)
ffffffc050403150:	6145                	addi	sp,sp,48
ffffffc050403152:	8082                	ret

ffffffc050403154 <XEmacPs_BdRingPtrReset>:
ffffffc050403154:	1101                	addi	sp,sp,-32
ffffffc050403156:	ec22                	sd	s0,24(sp)
ffffffc050403158:	1000                	addi	s0,sp,32
ffffffc05040315a:	fea43423          	sd	a0,-24(s0)
ffffffc05040315e:	feb43023          	sd	a1,-32(s0)
ffffffc050403162:	fe843783          	ld	a5,-24(s0)
ffffffc050403166:	fe043703          	ld	a4,-32(s0)
ffffffc05040316a:	f798                	sd	a4,40(a5)
ffffffc05040316c:	fe843783          	ld	a5,-24(s0)
ffffffc050403170:	fe043703          	ld	a4,-32(s0)
ffffffc050403174:	fb98                	sd	a4,48(a5)
ffffffc050403176:	fe843783          	ld	a5,-24(s0)
ffffffc05040317a:	fe043703          	ld	a4,-32(s0)
ffffffc05040317e:	ff98                	sd	a4,56(a5)
ffffffc050403180:	fe843783          	ld	a5,-24(s0)
ffffffc050403184:	fe043703          	ld	a4,-32(s0)
ffffffc050403188:	e3b8                	sd	a4,64(a5)
ffffffc05040318a:	fe843783          	ld	a5,-24(s0)
ffffffc05040318e:	fe043703          	ld	a4,-32(s0)
ffffffc050403192:	e7b8                	sd	a4,72(a5)
ffffffc050403194:	0001                	nop
ffffffc050403196:	6462                	ld	s0,24(sp)
ffffffc050403198:	6105                	addi	sp,sp,32
ffffffc05040319a:	8082                	ret

ffffffc05040319c <writel>:
ffffffc05040319c:	1101                	addi	sp,sp,-32
ffffffc05040319e:	ec22                	sd	s0,24(sp)
ffffffc0504031a0:	1000                	addi	s0,sp,32
ffffffc0504031a2:	87aa                	mv	a5,a0
ffffffc0504031a4:	feb43023          	sd	a1,-32(s0)
ffffffc0504031a8:	fef42623          	sw	a5,-20(s0)
ffffffc0504031ac:	0550000f          	fence	ow,ow
ffffffc0504031b0:	fe043783          	ld	a5,-32(s0)
ffffffc0504031b4:	fec42703          	lw	a4,-20(s0)
ffffffc0504031b8:	c398                	sw	a4,0(a5)
ffffffc0504031ba:	0001                	nop
ffffffc0504031bc:	6462                	ld	s0,24(sp)
ffffffc0504031be:	6105                	addi	sp,sp,32
ffffffc0504031c0:	8082                	ret

ffffffc0504031c2 <readl>:
ffffffc0504031c2:	7179                	addi	sp,sp,-48
ffffffc0504031c4:	f422                	sd	s0,40(sp)
ffffffc0504031c6:	1800                	addi	s0,sp,48
ffffffc0504031c8:	fca43c23          	sd	a0,-40(s0)
ffffffc0504031cc:	fd843783          	ld	a5,-40(s0)
ffffffc0504031d0:	439c                	lw	a5,0(a5)
ffffffc0504031d2:	fef42623          	sw	a5,-20(s0)
ffffffc0504031d6:	0aa0000f          	fence	ir,ir
ffffffc0504031da:	fec42783          	lw	a5,-20(s0)
ffffffc0504031de:	853e                	mv	a0,a5
ffffffc0504031e0:	7422                	ld	s0,40(sp)
ffffffc0504031e2:	6145                	addi	sp,sp,48
ffffffc0504031e4:	8082                	ret

ffffffc0504031e6 <Xil_Out32>:
ffffffc0504031e6:	1101                	addi	sp,sp,-32
ffffffc0504031e8:	ec06                	sd	ra,24(sp)
ffffffc0504031ea:	e822                	sd	s0,16(sp)
ffffffc0504031ec:	1000                	addi	s0,sp,32
ffffffc0504031ee:	fea43423          	sd	a0,-24(s0)
ffffffc0504031f2:	87ae                	mv	a5,a1
ffffffc0504031f4:	fef42223          	sw	a5,-28(s0)
ffffffc0504031f8:	fe843703          	ld	a4,-24(s0)
ffffffc0504031fc:	fe442783          	lw	a5,-28(s0)
ffffffc050403200:	85ba                	mv	a1,a4
ffffffc050403202:	853e                	mv	a0,a5
ffffffc050403204:	f99ff0ef          	jal	ra,ffffffc05040319c <writel>
ffffffc050403208:	0001                	nop
ffffffc05040320a:	60e2                	ld	ra,24(sp)
ffffffc05040320c:	6442                	ld	s0,16(sp)
ffffffc05040320e:	6105                	addi	sp,sp,32
ffffffc050403210:	8082                	ret

ffffffc050403212 <Xil_In32>:
ffffffc050403212:	1101                	addi	sp,sp,-32
ffffffc050403214:	ec06                	sd	ra,24(sp)
ffffffc050403216:	e822                	sd	s0,16(sp)
ffffffc050403218:	1000                	addi	s0,sp,32
ffffffc05040321a:	fea43423          	sd	a0,-24(s0)
ffffffc05040321e:	fe843783          	ld	a5,-24(s0)
ffffffc050403222:	853e                	mv	a0,a5
ffffffc050403224:	f9fff0ef          	jal	ra,ffffffc0504031c2 <readl>
ffffffc050403228:	87aa                	mv	a5,a0
ffffffc05040322a:	2781                	sext.w	a5,a5
ffffffc05040322c:	853e                	mv	a0,a5
ffffffc05040322e:	60e2                	ld	ra,24(sp)
ffffffc050403230:	6442                	ld	s0,16(sp)
ffffffc050403232:	6105                	addi	sp,sp,32
ffffffc050403234:	8082                	ret

ffffffc050403236 <XEmacPs_SetMacAddress>:
ffffffc050403236:	715d                	addi	sp,sp,-80
ffffffc050403238:	e486                	sd	ra,72(sp)
ffffffc05040323a:	e0a2                	sd	s0,64(sp)
ffffffc05040323c:	0880                	addi	s0,sp,80
ffffffc05040323e:	fca43423          	sd	a0,-56(s0)
ffffffc050403242:	fcb43023          	sd	a1,-64(s0)
ffffffc050403246:	87b2                	mv	a5,a2
ffffffc050403248:	faf40fa3          	sb	a5,-65(s0)
ffffffc05040324c:	fc043783          	ld	a5,-64(s0)
ffffffc050403250:	fef43023          	sd	a5,-32(s0)
ffffffc050403254:	fbf44783          	lbu	a5,-65(s0)
ffffffc050403258:	fcf40fa3          	sb	a5,-33(s0)
ffffffc05040325c:	fc843783          	ld	a5,-56(s0)
ffffffc050403260:	4f9c                	lw	a5,24(a5)
ffffffc050403262:	873e                	mv	a4,a5
ffffffc050403264:	222227b7          	lui	a5,0x22222
ffffffc050403268:	22278793          	addi	a5,a5,546 # 22222222 <_start-0xffffffc02e1dddde>
ffffffc05040326c:	00f71663          	bne	a4,a5,ffffffc050403278 <XEmacPs_SetMacAddress+0x42>
ffffffc050403270:	4795                	li	a5,5
ffffffc050403272:	fef43423          	sd	a5,-24(s0)
ffffffc050403276:	aa15                	j	ffffffc0504033aa <XEmacPs_SetMacAddress+0x174>
ffffffc050403278:	fdf44783          	lbu	a5,-33(s0)
ffffffc05040327c:	37fd                	addiw	a5,a5,-1
ffffffc05040327e:	fcf40fa3          	sb	a5,-33(s0)
ffffffc050403282:	fe043783          	ld	a5,-32(s0)
ffffffc050403286:	0007c783          	lbu	a5,0(a5)
ffffffc05040328a:	fcf42c23          	sw	a5,-40(s0)
ffffffc05040328e:	fe043783          	ld	a5,-32(s0)
ffffffc050403292:	0785                	addi	a5,a5,1
ffffffc050403294:	0007c783          	lbu	a5,0(a5)
ffffffc050403298:	2781                	sext.w	a5,a5
ffffffc05040329a:	0087979b          	slliw	a5,a5,0x8
ffffffc05040329e:	0007871b          	sext.w	a4,a5
ffffffc0504032a2:	fd842783          	lw	a5,-40(s0)
ffffffc0504032a6:	8fd9                	or	a5,a5,a4
ffffffc0504032a8:	fcf42c23          	sw	a5,-40(s0)
ffffffc0504032ac:	fe043783          	ld	a5,-32(s0)
ffffffc0504032b0:	0789                	addi	a5,a5,2
ffffffc0504032b2:	0007c783          	lbu	a5,0(a5)
ffffffc0504032b6:	2781                	sext.w	a5,a5
ffffffc0504032b8:	0107979b          	slliw	a5,a5,0x10
ffffffc0504032bc:	0007871b          	sext.w	a4,a5
ffffffc0504032c0:	fd842783          	lw	a5,-40(s0)
ffffffc0504032c4:	8fd9                	or	a5,a5,a4
ffffffc0504032c6:	fcf42c23          	sw	a5,-40(s0)
ffffffc0504032ca:	fe043783          	ld	a5,-32(s0)
ffffffc0504032ce:	078d                	addi	a5,a5,3
ffffffc0504032d0:	0007c783          	lbu	a5,0(a5)
ffffffc0504032d4:	2781                	sext.w	a5,a5
ffffffc0504032d6:	0187979b          	slliw	a5,a5,0x18
ffffffc0504032da:	0007871b          	sext.w	a4,a5
ffffffc0504032de:	fd842783          	lw	a5,-40(s0)
ffffffc0504032e2:	8fd9                	or	a5,a5,a4
ffffffc0504032e4:	fcf42c23          	sw	a5,-40(s0)
ffffffc0504032e8:	fc843783          	ld	a5,-56(s0)
ffffffc0504032ec:	6798                	ld	a4,8(a5)
ffffffc0504032ee:	fdf44783          	lbu	a5,-33(s0)
ffffffc0504032f2:	2781                	sext.w	a5,a5
ffffffc0504032f4:	27c5                	addiw	a5,a5,17
ffffffc0504032f6:	2781                	sext.w	a5,a5
ffffffc0504032f8:	0037979b          	slliw	a5,a5,0x3
ffffffc0504032fc:	2781                	sext.w	a5,a5
ffffffc0504032fe:	1782                	slli	a5,a5,0x20
ffffffc050403300:	9381                	srli	a5,a5,0x20
ffffffc050403302:	97ba                	add	a5,a5,a4
ffffffc050403304:	fd842703          	lw	a4,-40(s0)
ffffffc050403308:	85ba                	mv	a1,a4
ffffffc05040330a:	853e                	mv	a0,a5
ffffffc05040330c:	edbff0ef          	jal	ra,ffffffc0504031e6 <Xil_Out32>
ffffffc050403310:	fc843783          	ld	a5,-56(s0)
ffffffc050403314:	6798                	ld	a4,8(a5)
ffffffc050403316:	fdf44783          	lbu	a5,-33(s0)
ffffffc05040331a:	2781                	sext.w	a5,a5
ffffffc05040331c:	0037979b          	slliw	a5,a5,0x3
ffffffc050403320:	2781                	sext.w	a5,a5
ffffffc050403322:	08c7879b          	addiw	a5,a5,140
ffffffc050403326:	2781                	sext.w	a5,a5
ffffffc050403328:	1782                	slli	a5,a5,0x20
ffffffc05040332a:	9381                	srli	a5,a5,0x20
ffffffc05040332c:	97ba                	add	a5,a5,a4
ffffffc05040332e:	853e                	mv	a0,a5
ffffffc050403330:	ee3ff0ef          	jal	ra,ffffffc050403212 <Xil_In32>
ffffffc050403334:	87aa                	mv	a5,a0
ffffffc050403336:	fcf42c23          	sw	a5,-40(s0)
ffffffc05040333a:	fd842703          	lw	a4,-40(s0)
ffffffc05040333e:	77c1                	lui	a5,0xffff0
ffffffc050403340:	8ff9                	and	a5,a5,a4
ffffffc050403342:	fcf42c23          	sw	a5,-40(s0)
ffffffc050403346:	fe043783          	ld	a5,-32(s0)
ffffffc05040334a:	0791                	addi	a5,a5,4
ffffffc05040334c:	0007c783          	lbu	a5,0(a5) # ffffffffffff0000 <__BSS_END__+0x3faf3eda00>
ffffffc050403350:	0007871b          	sext.w	a4,a5
ffffffc050403354:	fd842783          	lw	a5,-40(s0)
ffffffc050403358:	8fd9                	or	a5,a5,a4
ffffffc05040335a:	fcf42c23          	sw	a5,-40(s0)
ffffffc05040335e:	fe043783          	ld	a5,-32(s0)
ffffffc050403362:	0795                	addi	a5,a5,5
ffffffc050403364:	0007c783          	lbu	a5,0(a5)
ffffffc050403368:	2781                	sext.w	a5,a5
ffffffc05040336a:	0087979b          	slliw	a5,a5,0x8
ffffffc05040336e:	0007871b          	sext.w	a4,a5
ffffffc050403372:	fd842783          	lw	a5,-40(s0)
ffffffc050403376:	8fd9                	or	a5,a5,a4
ffffffc050403378:	fcf42c23          	sw	a5,-40(s0)
ffffffc05040337c:	fc843783          	ld	a5,-56(s0)
ffffffc050403380:	6798                	ld	a4,8(a5)
ffffffc050403382:	fdf44783          	lbu	a5,-33(s0)
ffffffc050403386:	2781                	sext.w	a5,a5
ffffffc050403388:	0037979b          	slliw	a5,a5,0x3
ffffffc05040338c:	2781                	sext.w	a5,a5
ffffffc05040338e:	08c7879b          	addiw	a5,a5,140
ffffffc050403392:	2781                	sext.w	a5,a5
ffffffc050403394:	1782                	slli	a5,a5,0x20
ffffffc050403396:	9381                	srli	a5,a5,0x20
ffffffc050403398:	97ba                	add	a5,a5,a4
ffffffc05040339a:	fd842703          	lw	a4,-40(s0)
ffffffc05040339e:	85ba                	mv	a1,a4
ffffffc0504033a0:	853e                	mv	a0,a5
ffffffc0504033a2:	e45ff0ef          	jal	ra,ffffffc0504031e6 <Xil_Out32>
ffffffc0504033a6:	fe043423          	sd	zero,-24(s0)
ffffffc0504033aa:	fe843783          	ld	a5,-24(s0)
ffffffc0504033ae:	853e                	mv	a0,a5
ffffffc0504033b0:	60a6                	ld	ra,72(sp)
ffffffc0504033b2:	6406                	ld	s0,64(sp)
ffffffc0504033b4:	6161                	addi	sp,sp,80
ffffffc0504033b6:	8082                	ret

ffffffc0504033b8 <XEmacPs_GetMacAddress>:
ffffffc0504033b8:	7139                	addi	sp,sp,-64
ffffffc0504033ba:	fc06                	sd	ra,56(sp)
ffffffc0504033bc:	f822                	sd	s0,48(sp)
ffffffc0504033be:	0080                	addi	s0,sp,64
ffffffc0504033c0:	fca43c23          	sd	a0,-40(s0)
ffffffc0504033c4:	fcb43823          	sd	a1,-48(s0)
ffffffc0504033c8:	87b2                	mv	a5,a2
ffffffc0504033ca:	fcf407a3          	sb	a5,-49(s0)
ffffffc0504033ce:	fd043783          	ld	a5,-48(s0)
ffffffc0504033d2:	fef43423          	sd	a5,-24(s0)
ffffffc0504033d6:	fcf44783          	lbu	a5,-49(s0)
ffffffc0504033da:	fef403a3          	sb	a5,-25(s0)
ffffffc0504033de:	fe744783          	lbu	a5,-25(s0)
ffffffc0504033e2:	37fd                	addiw	a5,a5,-1
ffffffc0504033e4:	fef403a3          	sb	a5,-25(s0)
ffffffc0504033e8:	fd843783          	ld	a5,-40(s0)
ffffffc0504033ec:	6798                	ld	a4,8(a5)
ffffffc0504033ee:	fe744783          	lbu	a5,-25(s0)
ffffffc0504033f2:	2781                	sext.w	a5,a5
ffffffc0504033f4:	27c5                	addiw	a5,a5,17
ffffffc0504033f6:	2781                	sext.w	a5,a5
ffffffc0504033f8:	0037979b          	slliw	a5,a5,0x3
ffffffc0504033fc:	2781                	sext.w	a5,a5
ffffffc0504033fe:	1782                	slli	a5,a5,0x20
ffffffc050403400:	9381                	srli	a5,a5,0x20
ffffffc050403402:	97ba                	add	a5,a5,a4
ffffffc050403404:	853e                	mv	a0,a5
ffffffc050403406:	e0dff0ef          	jal	ra,ffffffc050403212 <Xil_In32>
ffffffc05040340a:	87aa                	mv	a5,a0
ffffffc05040340c:	fef42023          	sw	a5,-32(s0)
ffffffc050403410:	fe042783          	lw	a5,-32(s0)
ffffffc050403414:	0ff7f713          	andi	a4,a5,255
ffffffc050403418:	fe843783          	ld	a5,-24(s0)
ffffffc05040341c:	00e78023          	sb	a4,0(a5)
ffffffc050403420:	fe042783          	lw	a5,-32(s0)
ffffffc050403424:	0087d79b          	srliw	a5,a5,0x8
ffffffc050403428:	0007871b          	sext.w	a4,a5
ffffffc05040342c:	fe843783          	ld	a5,-24(s0)
ffffffc050403430:	0785                	addi	a5,a5,1
ffffffc050403432:	0ff77713          	andi	a4,a4,255
ffffffc050403436:	00e78023          	sb	a4,0(a5)
ffffffc05040343a:	fe042783          	lw	a5,-32(s0)
ffffffc05040343e:	0107d79b          	srliw	a5,a5,0x10
ffffffc050403442:	0007871b          	sext.w	a4,a5
ffffffc050403446:	fe843783          	ld	a5,-24(s0)
ffffffc05040344a:	0789                	addi	a5,a5,2
ffffffc05040344c:	0ff77713          	andi	a4,a4,255
ffffffc050403450:	00e78023          	sb	a4,0(a5)
ffffffc050403454:	fe042783          	lw	a5,-32(s0)
ffffffc050403458:	0187d79b          	srliw	a5,a5,0x18
ffffffc05040345c:	0007871b          	sext.w	a4,a5
ffffffc050403460:	fe843783          	ld	a5,-24(s0)
ffffffc050403464:	078d                	addi	a5,a5,3
ffffffc050403466:	0ff77713          	andi	a4,a4,255
ffffffc05040346a:	00e78023          	sb	a4,0(a5)
ffffffc05040346e:	fd843783          	ld	a5,-40(s0)
ffffffc050403472:	6798                	ld	a4,8(a5)
ffffffc050403474:	fe744783          	lbu	a5,-25(s0)
ffffffc050403478:	2781                	sext.w	a5,a5
ffffffc05040347a:	0037979b          	slliw	a5,a5,0x3
ffffffc05040347e:	2781                	sext.w	a5,a5
ffffffc050403480:	08c7879b          	addiw	a5,a5,140
ffffffc050403484:	2781                	sext.w	a5,a5
ffffffc050403486:	1782                	slli	a5,a5,0x20
ffffffc050403488:	9381                	srli	a5,a5,0x20
ffffffc05040348a:	97ba                	add	a5,a5,a4
ffffffc05040348c:	853e                	mv	a0,a5
ffffffc05040348e:	d85ff0ef          	jal	ra,ffffffc050403212 <Xil_In32>
ffffffc050403492:	87aa                	mv	a5,a0
ffffffc050403494:	fef42023          	sw	a5,-32(s0)
ffffffc050403498:	fe843783          	ld	a5,-24(s0)
ffffffc05040349c:	0791                	addi	a5,a5,4
ffffffc05040349e:	fe042703          	lw	a4,-32(s0)
ffffffc0504034a2:	0ff77713          	andi	a4,a4,255
ffffffc0504034a6:	00e78023          	sb	a4,0(a5)
ffffffc0504034aa:	fe042783          	lw	a5,-32(s0)
ffffffc0504034ae:	0087d79b          	srliw	a5,a5,0x8
ffffffc0504034b2:	0007871b          	sext.w	a4,a5
ffffffc0504034b6:	fe843783          	ld	a5,-24(s0)
ffffffc0504034ba:	0795                	addi	a5,a5,5
ffffffc0504034bc:	0ff77713          	andi	a4,a4,255
ffffffc0504034c0:	00e78023          	sb	a4,0(a5)
ffffffc0504034c4:	0001                	nop
ffffffc0504034c6:	70e2                	ld	ra,56(sp)
ffffffc0504034c8:	7442                	ld	s0,48(sp)
ffffffc0504034ca:	6121                	addi	sp,sp,64
ffffffc0504034cc:	8082                	ret

ffffffc0504034ce <XEmacPs_SetHash>:
ffffffc0504034ce:	7139                	addi	sp,sp,-64
ffffffc0504034d0:	fc06                	sd	ra,56(sp)
ffffffc0504034d2:	f822                	sd	s0,48(sp)
ffffffc0504034d4:	0080                	addi	s0,sp,64
ffffffc0504034d6:	fca43423          	sd	a0,-56(s0)
ffffffc0504034da:	fcb43023          	sd	a1,-64(s0)
ffffffc0504034de:	fc043783          	ld	a5,-64(s0)
ffffffc0504034e2:	fef43023          	sd	a5,-32(s0)
ffffffc0504034e6:	fc843783          	ld	a5,-56(s0)
ffffffc0504034ea:	4f9c                	lw	a5,24(a5)
ffffffc0504034ec:	873e                	mv	a4,a5
ffffffc0504034ee:	222227b7          	lui	a5,0x22222
ffffffc0504034f2:	22278793          	addi	a5,a5,546 # 22222222 <_start-0xffffffc02e1dddde>
ffffffc0504034f6:	00f71663          	bne	a4,a5,ffffffc050403502 <XEmacPs_SetHash+0x34>
ffffffc0504034fa:	4795                	li	a5,5
ffffffc0504034fc:	fef43423          	sd	a5,-24(s0)
ffffffc050403500:	ac19                	j	ffffffc050403716 <XEmacPs_SetHash+0x248>
ffffffc050403502:	fe043783          	ld	a5,-32(s0)
ffffffc050403506:	0007c783          	lbu	a5,0(a5)
ffffffc05040350a:	03f7f793          	andi	a5,a5,63
ffffffc05040350e:	fcf40fa3          	sb	a5,-33(s0)
ffffffc050403512:	fe043783          	ld	a5,-32(s0)
ffffffc050403516:	0007c783          	lbu	a5,0(a5)
ffffffc05040351a:	0067d79b          	srliw	a5,a5,0x6
ffffffc05040351e:	0ff7f713          	andi	a4,a5,255
ffffffc050403522:	fe043783          	ld	a5,-32(s0)
ffffffc050403526:	0785                	addi	a5,a5,1
ffffffc050403528:	0007c783          	lbu	a5,0(a5)
ffffffc05040352c:	0027979b          	slliw	a5,a5,0x2
ffffffc050403530:	0ff7f793          	andi	a5,a5,255
ffffffc050403534:	03c7f793          	andi	a5,a5,60
ffffffc050403538:	0ff7f793          	andi	a5,a5,255
ffffffc05040353c:	8fd9                	or	a5,a5,a4
ffffffc05040353e:	fcf40f23          	sb	a5,-34(s0)
ffffffc050403542:	fe043783          	ld	a5,-32(s0)
ffffffc050403546:	0785                	addi	a5,a5,1
ffffffc050403548:	0007c783          	lbu	a5,0(a5)
ffffffc05040354c:	0047d79b          	srliw	a5,a5,0x4
ffffffc050403550:	0ff7f713          	andi	a4,a5,255
ffffffc050403554:	fe043783          	ld	a5,-32(s0)
ffffffc050403558:	0789                	addi	a5,a5,2
ffffffc05040355a:	0007c783          	lbu	a5,0(a5)
ffffffc05040355e:	0047979b          	slliw	a5,a5,0x4
ffffffc050403562:	0ff7f793          	andi	a5,a5,255
ffffffc050403566:	0307f793          	andi	a5,a5,48
ffffffc05040356a:	0ff7f793          	andi	a5,a5,255
ffffffc05040356e:	8fd9                	or	a5,a5,a4
ffffffc050403570:	fcf40ea3          	sb	a5,-35(s0)
ffffffc050403574:	fe043783          	ld	a5,-32(s0)
ffffffc050403578:	0789                	addi	a5,a5,2
ffffffc05040357a:	0007c783          	lbu	a5,0(a5)
ffffffc05040357e:	0027d79b          	srliw	a5,a5,0x2
ffffffc050403582:	fcf40e23          	sb	a5,-36(s0)
ffffffc050403586:	fe043783          	ld	a5,-32(s0)
ffffffc05040358a:	078d                	addi	a5,a5,3
ffffffc05040358c:	0007c783          	lbu	a5,0(a5)
ffffffc050403590:	03f7f793          	andi	a5,a5,63
ffffffc050403594:	fcf40da3          	sb	a5,-37(s0)
ffffffc050403598:	fe043783          	ld	a5,-32(s0)
ffffffc05040359c:	078d                	addi	a5,a5,3
ffffffc05040359e:	0007c783          	lbu	a5,0(a5)
ffffffc0504035a2:	0067d79b          	srliw	a5,a5,0x6
ffffffc0504035a6:	0ff7f713          	andi	a4,a5,255
ffffffc0504035aa:	fe043783          	ld	a5,-32(s0)
ffffffc0504035ae:	0791                	addi	a5,a5,4
ffffffc0504035b0:	0007c783          	lbu	a5,0(a5)
ffffffc0504035b4:	0027979b          	slliw	a5,a5,0x2
ffffffc0504035b8:	0ff7f793          	andi	a5,a5,255
ffffffc0504035bc:	03c7f793          	andi	a5,a5,60
ffffffc0504035c0:	0ff7f793          	andi	a5,a5,255
ffffffc0504035c4:	8fd9                	or	a5,a5,a4
ffffffc0504035c6:	fcf40d23          	sb	a5,-38(s0)
ffffffc0504035ca:	fe043783          	ld	a5,-32(s0)
ffffffc0504035ce:	0791                	addi	a5,a5,4
ffffffc0504035d0:	0007c783          	lbu	a5,0(a5)
ffffffc0504035d4:	0047d79b          	srliw	a5,a5,0x4
ffffffc0504035d8:	0ff7f713          	andi	a4,a5,255
ffffffc0504035dc:	fe043783          	ld	a5,-32(s0)
ffffffc0504035e0:	0795                	addi	a5,a5,5
ffffffc0504035e2:	0007c783          	lbu	a5,0(a5)
ffffffc0504035e6:	0047979b          	slliw	a5,a5,0x4
ffffffc0504035ea:	0ff7f793          	andi	a5,a5,255
ffffffc0504035ee:	0307f793          	andi	a5,a5,48
ffffffc0504035f2:	0ff7f793          	andi	a5,a5,255
ffffffc0504035f6:	8fd9                	or	a5,a5,a4
ffffffc0504035f8:	fcf40ca3          	sb	a5,-39(s0)
ffffffc0504035fc:	fe043783          	ld	a5,-32(s0)
ffffffc050403600:	0795                	addi	a5,a5,5
ffffffc050403602:	0007c783          	lbu	a5,0(a5)
ffffffc050403606:	0027d79b          	srliw	a5,a5,0x2
ffffffc05040360a:	fcf40c23          	sb	a5,-40(s0)
ffffffc05040360e:	fdf44703          	lbu	a4,-33(s0)
ffffffc050403612:	fde44783          	lbu	a5,-34(s0)
ffffffc050403616:	8fb9                	xor	a5,a5,a4
ffffffc050403618:	0ff7f713          	andi	a4,a5,255
ffffffc05040361c:	fdd44783          	lbu	a5,-35(s0)
ffffffc050403620:	8fb9                	xor	a5,a5,a4
ffffffc050403622:	0ff7f713          	andi	a4,a5,255
ffffffc050403626:	fdc44783          	lbu	a5,-36(s0)
ffffffc05040362a:	8fb9                	xor	a5,a5,a4
ffffffc05040362c:	0ff7f713          	andi	a4,a5,255
ffffffc050403630:	fdb44783          	lbu	a5,-37(s0)
ffffffc050403634:	8fb9                	xor	a5,a5,a4
ffffffc050403636:	0ff7f713          	andi	a4,a5,255
ffffffc05040363a:	fda44783          	lbu	a5,-38(s0)
ffffffc05040363e:	8fb9                	xor	a5,a5,a4
ffffffc050403640:	0ff7f713          	andi	a4,a5,255
ffffffc050403644:	fd944783          	lbu	a5,-39(s0)
ffffffc050403648:	8fb9                	xor	a5,a5,a4
ffffffc05040364a:	0ff7f713          	andi	a4,a5,255
ffffffc05040364e:	fd844783          	lbu	a5,-40(s0)
ffffffc050403652:	8fb9                	xor	a5,a5,a4
ffffffc050403654:	0ff7f793          	andi	a5,a5,255
ffffffc050403658:	fcf42a23          	sw	a5,-44(s0)
ffffffc05040365c:	fd442783          	lw	a5,-44(s0)
ffffffc050403660:	0007871b          	sext.w	a4,a5
ffffffc050403664:	03f00793          	li	a5,63
ffffffc050403668:	00e7f663          	bgeu	a5,a4,ffffffc050403674 <XEmacPs_SetHash+0x1a6>
ffffffc05040366c:	47bd                	li	a5,15
ffffffc05040366e:	fef43423          	sd	a5,-24(s0)
ffffffc050403672:	a055                	j	ffffffc050403716 <XEmacPs_SetHash+0x248>
ffffffc050403674:	fd442783          	lw	a5,-44(s0)
ffffffc050403678:	0007871b          	sext.w	a4,a5
ffffffc05040367c:	47fd                	li	a5,31
ffffffc05040367e:	04e7e563          	bltu	a5,a4,ffffffc0504036c8 <XEmacPs_SetHash+0x1fa>
ffffffc050403682:	fc843783          	ld	a5,-56(s0)
ffffffc050403686:	679c                	ld	a5,8(a5)
ffffffc050403688:	08078793          	addi	a5,a5,128
ffffffc05040368c:	853e                	mv	a0,a5
ffffffc05040368e:	b85ff0ef          	jal	ra,ffffffc050403212 <Xil_In32>
ffffffc050403692:	87aa                	mv	a5,a0
ffffffc050403694:	fcf42823          	sw	a5,-48(s0)
ffffffc050403698:	fd442783          	lw	a5,-44(s0)
ffffffc05040369c:	4705                	li	a4,1
ffffffc05040369e:	00f717bb          	sllw	a5,a4,a5
ffffffc0504036a2:	0007871b          	sext.w	a4,a5
ffffffc0504036a6:	fd042783          	lw	a5,-48(s0)
ffffffc0504036aa:	8fd9                	or	a5,a5,a4
ffffffc0504036ac:	fcf42823          	sw	a5,-48(s0)
ffffffc0504036b0:	fc843783          	ld	a5,-56(s0)
ffffffc0504036b4:	679c                	ld	a5,8(a5)
ffffffc0504036b6:	08078793          	addi	a5,a5,128
ffffffc0504036ba:	fd042703          	lw	a4,-48(s0)
ffffffc0504036be:	85ba                	mv	a1,a4
ffffffc0504036c0:	853e                	mv	a0,a5
ffffffc0504036c2:	b25ff0ef          	jal	ra,ffffffc0504031e6 <Xil_Out32>
ffffffc0504036c6:	a0b1                	j	ffffffc050403712 <XEmacPs_SetHash+0x244>
ffffffc0504036c8:	fc843783          	ld	a5,-56(s0)
ffffffc0504036cc:	679c                	ld	a5,8(a5)
ffffffc0504036ce:	08478793          	addi	a5,a5,132
ffffffc0504036d2:	853e                	mv	a0,a5
ffffffc0504036d4:	b3fff0ef          	jal	ra,ffffffc050403212 <Xil_In32>
ffffffc0504036d8:	87aa                	mv	a5,a0
ffffffc0504036da:	fcf42823          	sw	a5,-48(s0)
ffffffc0504036de:	fd442783          	lw	a5,-44(s0)
ffffffc0504036e2:	3781                	addiw	a5,a5,-32
ffffffc0504036e4:	2781                	sext.w	a5,a5
ffffffc0504036e6:	873e                	mv	a4,a5
ffffffc0504036e8:	4785                	li	a5,1
ffffffc0504036ea:	00e797bb          	sllw	a5,a5,a4
ffffffc0504036ee:	0007871b          	sext.w	a4,a5
ffffffc0504036f2:	fd042783          	lw	a5,-48(s0)
ffffffc0504036f6:	8fd9                	or	a5,a5,a4
ffffffc0504036f8:	fcf42823          	sw	a5,-48(s0)
ffffffc0504036fc:	fc843783          	ld	a5,-56(s0)
ffffffc050403700:	679c                	ld	a5,8(a5)
ffffffc050403702:	08478793          	addi	a5,a5,132
ffffffc050403706:	fd042703          	lw	a4,-48(s0)
ffffffc05040370a:	85ba                	mv	a1,a4
ffffffc05040370c:	853e                	mv	a0,a5
ffffffc05040370e:	ad9ff0ef          	jal	ra,ffffffc0504031e6 <Xil_Out32>
ffffffc050403712:	fe043423          	sd	zero,-24(s0)
ffffffc050403716:	fe843783          	ld	a5,-24(s0)
ffffffc05040371a:	853e                	mv	a0,a5
ffffffc05040371c:	70e2                	ld	ra,56(sp)
ffffffc05040371e:	7442                	ld	s0,48(sp)
ffffffc050403720:	6121                	addi	sp,sp,64
ffffffc050403722:	8082                	ret

ffffffc050403724 <XEmacPs_DeleteHash>:
ffffffc050403724:	7139                	addi	sp,sp,-64
ffffffc050403726:	fc06                	sd	ra,56(sp)
ffffffc050403728:	f822                	sd	s0,48(sp)
ffffffc05040372a:	0080                	addi	s0,sp,64
ffffffc05040372c:	fca43423          	sd	a0,-56(s0)
ffffffc050403730:	fcb43023          	sd	a1,-64(s0)
ffffffc050403734:	fc043783          	ld	a5,-64(s0)
ffffffc050403738:	fef43023          	sd	a5,-32(s0)
ffffffc05040373c:	fc843783          	ld	a5,-56(s0)
ffffffc050403740:	4f9c                	lw	a5,24(a5)
ffffffc050403742:	873e                	mv	a4,a5
ffffffc050403744:	222227b7          	lui	a5,0x22222
ffffffc050403748:	22278793          	addi	a5,a5,546 # 22222222 <_start-0xffffffc02e1dddde>
ffffffc05040374c:	00f71663          	bne	a4,a5,ffffffc050403758 <XEmacPs_DeleteHash+0x34>
ffffffc050403750:	4795                	li	a5,5
ffffffc050403752:	fef43423          	sd	a5,-24(s0)
ffffffc050403756:	a40d                	j	ffffffc050403978 <XEmacPs_DeleteHash+0x254>
ffffffc050403758:	fe043783          	ld	a5,-32(s0)
ffffffc05040375c:	0007c783          	lbu	a5,0(a5)
ffffffc050403760:	03f7f793          	andi	a5,a5,63
ffffffc050403764:	fcf40fa3          	sb	a5,-33(s0)
ffffffc050403768:	fe043783          	ld	a5,-32(s0)
ffffffc05040376c:	0007c783          	lbu	a5,0(a5)
ffffffc050403770:	0067d79b          	srliw	a5,a5,0x6
ffffffc050403774:	0ff7f713          	andi	a4,a5,255
ffffffc050403778:	fe043783          	ld	a5,-32(s0)
ffffffc05040377c:	0785                	addi	a5,a5,1
ffffffc05040377e:	0007c783          	lbu	a5,0(a5)
ffffffc050403782:	0027979b          	slliw	a5,a5,0x2
ffffffc050403786:	0ff7f793          	andi	a5,a5,255
ffffffc05040378a:	03c7f793          	andi	a5,a5,60
ffffffc05040378e:	0ff7f793          	andi	a5,a5,255
ffffffc050403792:	8fd9                	or	a5,a5,a4
ffffffc050403794:	fcf40f23          	sb	a5,-34(s0)
ffffffc050403798:	fe043783          	ld	a5,-32(s0)
ffffffc05040379c:	0785                	addi	a5,a5,1
ffffffc05040379e:	0007c783          	lbu	a5,0(a5)
ffffffc0504037a2:	0047d79b          	srliw	a5,a5,0x4
ffffffc0504037a6:	0ff7f713          	andi	a4,a5,255
ffffffc0504037aa:	fe043783          	ld	a5,-32(s0)
ffffffc0504037ae:	0789                	addi	a5,a5,2
ffffffc0504037b0:	0007c783          	lbu	a5,0(a5)
ffffffc0504037b4:	0047979b          	slliw	a5,a5,0x4
ffffffc0504037b8:	0ff7f793          	andi	a5,a5,255
ffffffc0504037bc:	0307f793          	andi	a5,a5,48
ffffffc0504037c0:	0ff7f793          	andi	a5,a5,255
ffffffc0504037c4:	8fd9                	or	a5,a5,a4
ffffffc0504037c6:	fcf40ea3          	sb	a5,-35(s0)
ffffffc0504037ca:	fe043783          	ld	a5,-32(s0)
ffffffc0504037ce:	0789                	addi	a5,a5,2
ffffffc0504037d0:	0007c783          	lbu	a5,0(a5)
ffffffc0504037d4:	0027d79b          	srliw	a5,a5,0x2
ffffffc0504037d8:	fcf40e23          	sb	a5,-36(s0)
ffffffc0504037dc:	fe043783          	ld	a5,-32(s0)
ffffffc0504037e0:	078d                	addi	a5,a5,3
ffffffc0504037e2:	0007c783          	lbu	a5,0(a5)
ffffffc0504037e6:	03f7f793          	andi	a5,a5,63
ffffffc0504037ea:	fcf40da3          	sb	a5,-37(s0)
ffffffc0504037ee:	fe043783          	ld	a5,-32(s0)
ffffffc0504037f2:	078d                	addi	a5,a5,3
ffffffc0504037f4:	0007c783          	lbu	a5,0(a5)
ffffffc0504037f8:	0067d79b          	srliw	a5,a5,0x6
ffffffc0504037fc:	0ff7f713          	andi	a4,a5,255
ffffffc050403800:	fe043783          	ld	a5,-32(s0)
ffffffc050403804:	0791                	addi	a5,a5,4
ffffffc050403806:	0007c783          	lbu	a5,0(a5)
ffffffc05040380a:	0027979b          	slliw	a5,a5,0x2
ffffffc05040380e:	0ff7f793          	andi	a5,a5,255
ffffffc050403812:	03c7f793          	andi	a5,a5,60
ffffffc050403816:	0ff7f793          	andi	a5,a5,255
ffffffc05040381a:	8fd9                	or	a5,a5,a4
ffffffc05040381c:	fcf40d23          	sb	a5,-38(s0)
ffffffc050403820:	fe043783          	ld	a5,-32(s0)
ffffffc050403824:	0791                	addi	a5,a5,4
ffffffc050403826:	0007c783          	lbu	a5,0(a5)
ffffffc05040382a:	0047d79b          	srliw	a5,a5,0x4
ffffffc05040382e:	0ff7f713          	andi	a4,a5,255
ffffffc050403832:	fe043783          	ld	a5,-32(s0)
ffffffc050403836:	0795                	addi	a5,a5,5
ffffffc050403838:	0007c783          	lbu	a5,0(a5)
ffffffc05040383c:	0047979b          	slliw	a5,a5,0x4
ffffffc050403840:	0ff7f793          	andi	a5,a5,255
ffffffc050403844:	0307f793          	andi	a5,a5,48
ffffffc050403848:	0ff7f793          	andi	a5,a5,255
ffffffc05040384c:	8fd9                	or	a5,a5,a4
ffffffc05040384e:	fcf40ca3          	sb	a5,-39(s0)
ffffffc050403852:	fe043783          	ld	a5,-32(s0)
ffffffc050403856:	0795                	addi	a5,a5,5
ffffffc050403858:	0007c783          	lbu	a5,0(a5)
ffffffc05040385c:	0027d79b          	srliw	a5,a5,0x2
ffffffc050403860:	fcf40c23          	sb	a5,-40(s0)
ffffffc050403864:	fdf44703          	lbu	a4,-33(s0)
ffffffc050403868:	fde44783          	lbu	a5,-34(s0)
ffffffc05040386c:	8fb9                	xor	a5,a5,a4
ffffffc05040386e:	0ff7f713          	andi	a4,a5,255
ffffffc050403872:	fdd44783          	lbu	a5,-35(s0)
ffffffc050403876:	8fb9                	xor	a5,a5,a4
ffffffc050403878:	0ff7f713          	andi	a4,a5,255
ffffffc05040387c:	fdc44783          	lbu	a5,-36(s0)
ffffffc050403880:	8fb9                	xor	a5,a5,a4
ffffffc050403882:	0ff7f713          	andi	a4,a5,255
ffffffc050403886:	fdb44783          	lbu	a5,-37(s0)
ffffffc05040388a:	8fb9                	xor	a5,a5,a4
ffffffc05040388c:	0ff7f713          	andi	a4,a5,255
ffffffc050403890:	fda44783          	lbu	a5,-38(s0)
ffffffc050403894:	8fb9                	xor	a5,a5,a4
ffffffc050403896:	0ff7f713          	andi	a4,a5,255
ffffffc05040389a:	fd944783          	lbu	a5,-39(s0)
ffffffc05040389e:	8fb9                	xor	a5,a5,a4
ffffffc0504038a0:	0ff7f713          	andi	a4,a5,255
ffffffc0504038a4:	fd844783          	lbu	a5,-40(s0)
ffffffc0504038a8:	8fb9                	xor	a5,a5,a4
ffffffc0504038aa:	0ff7f793          	andi	a5,a5,255
ffffffc0504038ae:	fcf42a23          	sw	a5,-44(s0)
ffffffc0504038b2:	fd442783          	lw	a5,-44(s0)
ffffffc0504038b6:	0007871b          	sext.w	a4,a5
ffffffc0504038ba:	03f00793          	li	a5,63
ffffffc0504038be:	00e7f663          	bgeu	a5,a4,ffffffc0504038ca <XEmacPs_DeleteHash+0x1a6>
ffffffc0504038c2:	47bd                	li	a5,15
ffffffc0504038c4:	fef43423          	sd	a5,-24(s0)
ffffffc0504038c8:	a845                	j	ffffffc050403978 <XEmacPs_DeleteHash+0x254>
ffffffc0504038ca:	fd442783          	lw	a5,-44(s0)
ffffffc0504038ce:	0007871b          	sext.w	a4,a5
ffffffc0504038d2:	47fd                	li	a5,31
ffffffc0504038d4:	04e7e863          	bltu	a5,a4,ffffffc050403924 <XEmacPs_DeleteHash+0x200>
ffffffc0504038d8:	fc843783          	ld	a5,-56(s0)
ffffffc0504038dc:	679c                	ld	a5,8(a5)
ffffffc0504038de:	08078793          	addi	a5,a5,128
ffffffc0504038e2:	853e                	mv	a0,a5
ffffffc0504038e4:	92fff0ef          	jal	ra,ffffffc050403212 <Xil_In32>
ffffffc0504038e8:	87aa                	mv	a5,a0
ffffffc0504038ea:	fcf42823          	sw	a5,-48(s0)
ffffffc0504038ee:	fd442783          	lw	a5,-44(s0)
ffffffc0504038f2:	4705                	li	a4,1
ffffffc0504038f4:	00f717bb          	sllw	a5,a4,a5
ffffffc0504038f8:	2781                	sext.w	a5,a5
ffffffc0504038fa:	fff7c793          	not	a5,a5
ffffffc0504038fe:	0007871b          	sext.w	a4,a5
ffffffc050403902:	fd042783          	lw	a5,-48(s0)
ffffffc050403906:	8ff9                	and	a5,a5,a4
ffffffc050403908:	fcf42823          	sw	a5,-48(s0)
ffffffc05040390c:	fc843783          	ld	a5,-56(s0)
ffffffc050403910:	679c                	ld	a5,8(a5)
ffffffc050403912:	08078793          	addi	a5,a5,128
ffffffc050403916:	fd042703          	lw	a4,-48(s0)
ffffffc05040391a:	85ba                	mv	a1,a4
ffffffc05040391c:	853e                	mv	a0,a5
ffffffc05040391e:	8c9ff0ef          	jal	ra,ffffffc0504031e6 <Xil_Out32>
ffffffc050403922:	a889                	j	ffffffc050403974 <XEmacPs_DeleteHash+0x250>
ffffffc050403924:	fc843783          	ld	a5,-56(s0)
ffffffc050403928:	679c                	ld	a5,8(a5)
ffffffc05040392a:	08478793          	addi	a5,a5,132
ffffffc05040392e:	853e                	mv	a0,a5
ffffffc050403930:	8e3ff0ef          	jal	ra,ffffffc050403212 <Xil_In32>
ffffffc050403934:	87aa                	mv	a5,a0
ffffffc050403936:	fcf42823          	sw	a5,-48(s0)
ffffffc05040393a:	fd442783          	lw	a5,-44(s0)
ffffffc05040393e:	3781                	addiw	a5,a5,-32
ffffffc050403940:	2781                	sext.w	a5,a5
ffffffc050403942:	873e                	mv	a4,a5
ffffffc050403944:	4785                	li	a5,1
ffffffc050403946:	00e797bb          	sllw	a5,a5,a4
ffffffc05040394a:	2781                	sext.w	a5,a5
ffffffc05040394c:	fff7c793          	not	a5,a5
ffffffc050403950:	0007871b          	sext.w	a4,a5
ffffffc050403954:	fd042783          	lw	a5,-48(s0)
ffffffc050403958:	8ff9                	and	a5,a5,a4
ffffffc05040395a:	fcf42823          	sw	a5,-48(s0)
ffffffc05040395e:	fc843783          	ld	a5,-56(s0)
ffffffc050403962:	679c                	ld	a5,8(a5)
ffffffc050403964:	08478793          	addi	a5,a5,132
ffffffc050403968:	fd042703          	lw	a4,-48(s0)
ffffffc05040396c:	85ba                	mv	a1,a4
ffffffc05040396e:	853e                	mv	a0,a5
ffffffc050403970:	877ff0ef          	jal	ra,ffffffc0504031e6 <Xil_Out32>
ffffffc050403974:	fe043423          	sd	zero,-24(s0)
ffffffc050403978:	fe843783          	ld	a5,-24(s0)
ffffffc05040397c:	853e                	mv	a0,a5
ffffffc05040397e:	70e2                	ld	ra,56(sp)
ffffffc050403980:	7442                	ld	s0,48(sp)
ffffffc050403982:	6121                	addi	sp,sp,64
ffffffc050403984:	8082                	ret

ffffffc050403986 <XEmacPs_ClearHash>:
ffffffc050403986:	1101                	addi	sp,sp,-32
ffffffc050403988:	ec06                	sd	ra,24(sp)
ffffffc05040398a:	e822                	sd	s0,16(sp)
ffffffc05040398c:	1000                	addi	s0,sp,32
ffffffc05040398e:	fea43423          	sd	a0,-24(s0)
ffffffc050403992:	fe843783          	ld	a5,-24(s0)
ffffffc050403996:	679c                	ld	a5,8(a5)
ffffffc050403998:	08078793          	addi	a5,a5,128
ffffffc05040399c:	4581                	li	a1,0
ffffffc05040399e:	853e                	mv	a0,a5
ffffffc0504039a0:	847ff0ef          	jal	ra,ffffffc0504031e6 <Xil_Out32>
ffffffc0504039a4:	fe843783          	ld	a5,-24(s0)
ffffffc0504039a8:	679c                	ld	a5,8(a5)
ffffffc0504039aa:	08478793          	addi	a5,a5,132
ffffffc0504039ae:	4581                	li	a1,0
ffffffc0504039b0:	853e                	mv	a0,a5
ffffffc0504039b2:	835ff0ef          	jal	ra,ffffffc0504031e6 <Xil_Out32>
ffffffc0504039b6:	0001                	nop
ffffffc0504039b8:	60e2                	ld	ra,24(sp)
ffffffc0504039ba:	6442                	ld	s0,16(sp)
ffffffc0504039bc:	6105                	addi	sp,sp,32
ffffffc0504039be:	8082                	ret

ffffffc0504039c0 <XEmacPs_GetHash>:
ffffffc0504039c0:	7139                	addi	sp,sp,-64
ffffffc0504039c2:	fc06                	sd	ra,56(sp)
ffffffc0504039c4:	f822                	sd	s0,48(sp)
ffffffc0504039c6:	f426                	sd	s1,40(sp)
ffffffc0504039c8:	0080                	addi	s0,sp,64
ffffffc0504039ca:	fca43423          	sd	a0,-56(s0)
ffffffc0504039ce:	fcb43023          	sd	a1,-64(s0)
ffffffc0504039d2:	fc043783          	ld	a5,-64(s0)
ffffffc0504039d6:	fcf43c23          	sd	a5,-40(s0)
ffffffc0504039da:	fc843783          	ld	a5,-56(s0)
ffffffc0504039de:	679c                	ld	a5,8(a5)
ffffffc0504039e0:	08078793          	addi	a5,a5,128
ffffffc0504039e4:	853e                	mv	a0,a5
ffffffc0504039e6:	82dff0ef          	jal	ra,ffffffc050403212 <Xil_In32>
ffffffc0504039ea:	87aa                	mv	a5,a0
ffffffc0504039ec:	0007871b          	sext.w	a4,a5
ffffffc0504039f0:	fd843783          	ld	a5,-40(s0)
ffffffc0504039f4:	c398                	sw	a4,0(a5)
ffffffc0504039f6:	fc843783          	ld	a5,-56(s0)
ffffffc0504039fa:	679c                	ld	a5,8(a5)
ffffffc0504039fc:	08478713          	addi	a4,a5,132
ffffffc050403a00:	fd843783          	ld	a5,-40(s0)
ffffffc050403a04:	00478493          	addi	s1,a5,4
ffffffc050403a08:	853a                	mv	a0,a4
ffffffc050403a0a:	809ff0ef          	jal	ra,ffffffc050403212 <Xil_In32>
ffffffc050403a0e:	87aa                	mv	a5,a0
ffffffc050403a10:	2781                	sext.w	a5,a5
ffffffc050403a12:	c09c                	sw	a5,0(s1)
ffffffc050403a14:	0001                	nop
ffffffc050403a16:	70e2                	ld	ra,56(sp)
ffffffc050403a18:	7442                	ld	s0,48(sp)
ffffffc050403a1a:	74a2                	ld	s1,40(sp)
ffffffc050403a1c:	6121                	addi	sp,sp,64
ffffffc050403a1e:	8082                	ret

ffffffc050403a20 <XEmacPs_SetTypeIdCheck>:
ffffffc050403a20:	7179                	addi	sp,sp,-48
ffffffc050403a22:	f406                	sd	ra,40(sp)
ffffffc050403a24:	f022                	sd	s0,32(sp)
ffffffc050403a26:	1800                	addi	s0,sp,48
ffffffc050403a28:	fca43c23          	sd	a0,-40(s0)
ffffffc050403a2c:	87ae                	mv	a5,a1
ffffffc050403a2e:	8732                	mv	a4,a2
ffffffc050403a30:	fcf42a23          	sw	a5,-44(s0)
ffffffc050403a34:	87ba                	mv	a5,a4
ffffffc050403a36:	fcf409a3          	sb	a5,-45(s0)
ffffffc050403a3a:	fd344783          	lbu	a5,-45(s0)
ffffffc050403a3e:	fef403a3          	sb	a5,-25(s0)
ffffffc050403a42:	fd843783          	ld	a5,-40(s0)
ffffffc050403a46:	4f9c                	lw	a5,24(a5)
ffffffc050403a48:	873e                	mv	a4,a5
ffffffc050403a4a:	222227b7          	lui	a5,0x22222
ffffffc050403a4e:	22278793          	addi	a5,a5,546 # 22222222 <_start-0xffffffc02e1dddde>
ffffffc050403a52:	00f71663          	bne	a4,a5,ffffffc050403a5e <XEmacPs_SetTypeIdCheck+0x3e>
ffffffc050403a56:	4795                	li	a5,5
ffffffc050403a58:	fef43423          	sd	a5,-24(s0)
ffffffc050403a5c:	a82d                	j	ffffffc050403a96 <XEmacPs_SetTypeIdCheck+0x76>
ffffffc050403a5e:	fe744783          	lbu	a5,-25(s0)
ffffffc050403a62:	37fd                	addiw	a5,a5,-1
ffffffc050403a64:	fef403a3          	sb	a5,-25(s0)
ffffffc050403a68:	fd843783          	ld	a5,-40(s0)
ffffffc050403a6c:	6798                	ld	a4,8(a5)
ffffffc050403a6e:	fe744783          	lbu	a5,-25(s0)
ffffffc050403a72:	2781                	sext.w	a5,a5
ffffffc050403a74:	02a7879b          	addiw	a5,a5,42
ffffffc050403a78:	2781                	sext.w	a5,a5
ffffffc050403a7a:	0027979b          	slliw	a5,a5,0x2
ffffffc050403a7e:	2781                	sext.w	a5,a5
ffffffc050403a80:	1782                	slli	a5,a5,0x20
ffffffc050403a82:	9381                	srli	a5,a5,0x20
ffffffc050403a84:	97ba                	add	a5,a5,a4
ffffffc050403a86:	fd442703          	lw	a4,-44(s0)
ffffffc050403a8a:	85ba                	mv	a1,a4
ffffffc050403a8c:	853e                	mv	a0,a5
ffffffc050403a8e:	f58ff0ef          	jal	ra,ffffffc0504031e6 <Xil_Out32>
ffffffc050403a92:	fe043423          	sd	zero,-24(s0)
ffffffc050403a96:	fe843783          	ld	a5,-24(s0)
ffffffc050403a9a:	853e                	mv	a0,a5
ffffffc050403a9c:	70a2                	ld	ra,40(sp)
ffffffc050403a9e:	7402                	ld	s0,32(sp)
ffffffc050403aa0:	6145                	addi	sp,sp,48
ffffffc050403aa2:	8082                	ret

ffffffc050403aa4 <XEmacPs_SetOptions>:
ffffffc050403aa4:	7139                	addi	sp,sp,-64
ffffffc050403aa6:	fc06                	sd	ra,56(sp)
ffffffc050403aa8:	f822                	sd	s0,48(sp)
ffffffc050403aaa:	0080                	addi	s0,sp,64
ffffffc050403aac:	fca43423          	sd	a0,-56(s0)
ffffffc050403ab0:	87ae                	mv	a5,a1
ffffffc050403ab2:	fcf42223          	sw	a5,-60(s0)
ffffffc050403ab6:	fc442783          	lw	a5,-60(s0)
ffffffc050403aba:	85be                	mv	a1,a5
ffffffc050403abc:	00009517          	auipc	a0,0x9
ffffffc050403ac0:	45450513          	addi	a0,a0,1108 # ffffffc05040cf10 <__FUNCTION__.1870+0x50>
ffffffc050403ac4:	527080ef          	jal	ra,ffffffc05040c7ea <printk>
ffffffc050403ac8:	fc843783          	ld	a5,-56(s0)
ffffffc050403acc:	4f9c                	lw	a5,24(a5)
ffffffc050403ace:	873e                	mv	a4,a5
ffffffc050403ad0:	222227b7          	lui	a5,0x22222
ffffffc050403ad4:	22278793          	addi	a5,a5,546 # 22222222 <_start-0xffffffc02e1dddde>
ffffffc050403ad8:	00f71663          	bne	a4,a5,ffffffc050403ae4 <XEmacPs_SetOptions+0x40>
ffffffc050403adc:	4795                	li	a5,5
ffffffc050403ade:	fef43023          	sd	a5,-32(s0)
ffffffc050403ae2:	a4c5                	j	ffffffc050403dc2 <XEmacPs_SetOptions+0x31e>
ffffffc050403ae4:	fc843783          	ld	a5,-56(s0)
ffffffc050403ae8:	679c                	ld	a5,8(a5)
ffffffc050403aea:	0791                	addi	a5,a5,4
ffffffc050403aec:	853e                	mv	a0,a5
ffffffc050403aee:	f24ff0ef          	jal	ra,ffffffc050403212 <Xil_In32>
ffffffc050403af2:	87aa                	mv	a5,a0
ffffffc050403af4:	fcf42e23          	sw	a5,-36(s0)
ffffffc050403af8:	fdc42783          	lw	a5,-36(s0)
ffffffc050403afc:	fef42623          	sw	a5,-20(s0)
ffffffc050403b00:	fc442783          	lw	a5,-60(s0)
ffffffc050403b04:	8b89                	andi	a5,a5,2
ffffffc050403b06:	2781                	sext.w	a5,a5
ffffffc050403b08:	c799                	beqz	a5,ffffffc050403b16 <XEmacPs_SetOptions+0x72>
ffffffc050403b0a:	fec42783          	lw	a5,-20(s0)
ffffffc050403b0e:	1007e793          	ori	a5,a5,256
ffffffc050403b12:	fef42623          	sw	a5,-20(s0)
ffffffc050403b16:	fc442783          	lw	a5,-60(s0)
ffffffc050403b1a:	8b91                	andi	a5,a5,4
ffffffc050403b1c:	2781                	sext.w	a5,a5
ffffffc050403b1e:	c799                	beqz	a5,ffffffc050403b2c <XEmacPs_SetOptions+0x88>
ffffffc050403b20:	fec42783          	lw	a5,-20(s0)
ffffffc050403b24:	0047e793          	ori	a5,a5,4
ffffffc050403b28:	fef42623          	sw	a5,-20(s0)
ffffffc050403b2c:	fc442783          	lw	a5,-60(s0)
ffffffc050403b30:	0207f793          	andi	a5,a5,32
ffffffc050403b34:	2781                	sext.w	a5,a5
ffffffc050403b36:	cb81                	beqz	a5,ffffffc050403b46 <XEmacPs_SetOptions+0xa2>
ffffffc050403b38:	fec42703          	lw	a4,-20(s0)
ffffffc050403b3c:	000207b7          	lui	a5,0x20
ffffffc050403b40:	8fd9                	or	a5,a5,a4
ffffffc050403b42:	fef42623          	sw	a5,-20(s0)
ffffffc050403b46:	fc442783          	lw	a5,-60(s0)
ffffffc050403b4a:	0807f793          	andi	a5,a5,128
ffffffc050403b4e:	2781                	sext.w	a5,a5
ffffffc050403b50:	c799                	beqz	a5,ffffffc050403b5e <XEmacPs_SetOptions+0xba>
ffffffc050403b52:	fec42703          	lw	a4,-20(s0)
ffffffc050403b56:	67c1                	lui	a5,0x10
ffffffc050403b58:	8fd9                	or	a5,a5,a4
ffffffc050403b5a:	fef42623          	sw	a5,-20(s0)
ffffffc050403b5e:	fc442783          	lw	a5,-60(s0)
ffffffc050403b62:	8bc1                	andi	a5,a5,16
ffffffc050403b64:	2781                	sext.w	a5,a5
ffffffc050403b66:	c799                	beqz	a5,ffffffc050403b74 <XEmacPs_SetOptions+0xd0>
ffffffc050403b68:	fec42703          	lw	a4,-20(s0)
ffffffc050403b6c:	6789                	lui	a5,0x2
ffffffc050403b6e:	8fd9                	or	a5,a5,a4
ffffffc050403b70:	fef42623          	sw	a5,-20(s0)
ffffffc050403b74:	fc442783          	lw	a5,-60(s0)
ffffffc050403b78:	8b85                	andi	a5,a5,1
ffffffc050403b7a:	2781                	sext.w	a5,a5
ffffffc050403b7c:	c799                	beqz	a5,ffffffc050403b8a <XEmacPs_SetOptions+0xe6>
ffffffc050403b7e:	fec42783          	lw	a5,-20(s0)
ffffffc050403b82:	0107e793          	ori	a5,a5,16
ffffffc050403b86:	fef42623          	sw	a5,-20(s0)
ffffffc050403b8a:	fc442783          	lw	a5,-60(s0)
ffffffc050403b8e:	4007f793          	andi	a5,a5,1024
ffffffc050403b92:	2781                	sext.w	a5,a5
ffffffc050403b94:	c799                	beqz	a5,ffffffc050403ba2 <XEmacPs_SetOptions+0xfe>
ffffffc050403b96:	fec42783          	lw	a5,-20(s0)
ffffffc050403b9a:	fdf7f793          	andi	a5,a5,-33
ffffffc050403b9e:	fef42623          	sw	a5,-20(s0)
ffffffc050403ba2:	fc442703          	lw	a4,-60(s0)
ffffffc050403ba6:	6785                	lui	a5,0x1
ffffffc050403ba8:	80078793          	addi	a5,a5,-2048 # 800 <_start-0xffffffc0503ff800>
ffffffc050403bac:	8ff9                	and	a5,a5,a4
ffffffc050403bae:	2781                	sext.w	a5,a5
ffffffc050403bb0:	c799                	beqz	a5,ffffffc050403bbe <XEmacPs_SetOptions+0x11a>
ffffffc050403bb2:	fec42783          	lw	a5,-20(s0)
ffffffc050403bb6:	0407e793          	ori	a5,a5,64
ffffffc050403bba:	fef42623          	sw	a5,-20(s0)
ffffffc050403bbe:	fc442703          	lw	a4,-60(s0)
ffffffc050403bc2:	6785                	lui	a5,0x1
ffffffc050403bc4:	8ff9                	and	a5,a5,a4
ffffffc050403bc6:	2781                	sext.w	a5,a5
ffffffc050403bc8:	cb81                	beqz	a5,ffffffc050403bd8 <XEmacPs_SetOptions+0x134>
ffffffc050403bca:	fec42703          	lw	a4,-20(s0)
ffffffc050403bce:	010007b7          	lui	a5,0x1000
ffffffc050403bd2:	8fd9                	or	a5,a5,a4
ffffffc050403bd4:	fef42623          	sw	a5,-20(s0)
ffffffc050403bd8:	fc442703          	lw	a4,-60(s0)
ffffffc050403bdc:	6791                	lui	a5,0x4
ffffffc050403bde:	8ff9                	and	a5,a5,a4
ffffffc050403be0:	2781                	sext.w	a5,a5
ffffffc050403be2:	cfc5                	beqz	a5,ffffffc050403c9a <XEmacPs_SetOptions+0x1f6>
ffffffc050403be4:	fc843783          	ld	a5,-56(s0)
ffffffc050403be8:	1387a783          	lw	a5,312(a5) # 4138 <_start-0xffffffc0503fbec8>
ffffffc050403bec:	873e                	mv	a4,a5
ffffffc050403bee:	4789                	li	a5,2
ffffffc050403bf0:	0ae7f563          	bgeu	a5,a4,ffffffc050403c9a <XEmacPs_SetOptions+0x1f6>
ffffffc050403bf4:	fec42783          	lw	a5,-20(s0)
ffffffc050403bf8:	0087e793          	ori	a5,a5,8
ffffffc050403bfc:	fef42623          	sw	a5,-20(s0)
ffffffc050403c00:	fc843783          	ld	a5,-56(s0)
ffffffc050403c04:	679c                	ld	a5,8(a5)
ffffffc050403c06:	04878713          	addi	a4,a5,72
ffffffc050403c0a:	678d                	lui	a5,0x3
ffffffc050403c0c:	80078593          	addi	a1,a5,-2048 # 2800 <_start-0xffffffc0503fd800>
ffffffc050403c10:	853a                	mv	a0,a4
ffffffc050403c12:	dd4ff0ef          	jal	ra,ffffffc0504031e6 <Xil_Out32>
ffffffc050403c16:	fc843783          	ld	a5,-56(s0)
ffffffc050403c1a:	679c                	ld	a5,8(a5)
ffffffc050403c1c:	07c1                	addi	a5,a5,16
ffffffc050403c1e:	853e                	mv	a0,a5
ffffffc050403c20:	df2ff0ef          	jal	ra,ffffffc050403212 <Xil_In32>
ffffffc050403c24:	87aa                	mv	a5,a0
ffffffc050403c26:	fcf42c23          	sw	a5,-40(s0)
ffffffc050403c2a:	fd842703          	lw	a4,-40(s0)
ffffffc050403c2e:	ff0107b7          	lui	a5,0xff010
ffffffc050403c32:	17fd                	addi	a5,a5,-1
ffffffc050403c34:	8ff9                	and	a5,a5,a4
ffffffc050403c36:	fcf42c23          	sw	a5,-40(s0)
ffffffc050403c3a:	fd842703          	lw	a4,-40(s0)
ffffffc050403c3e:	00a007b7          	lui	a5,0xa00
ffffffc050403c42:	8fd9                	or	a5,a5,a4
ffffffc050403c44:	fcf42c23          	sw	a5,-40(s0)
ffffffc050403c48:	fc843783          	ld	a5,-56(s0)
ffffffc050403c4c:	679c                	ld	a5,8(a5)
ffffffc050403c4e:	07c1                	addi	a5,a5,16
ffffffc050403c50:	fd842703          	lw	a4,-40(s0)
ffffffc050403c54:	85ba                	mv	a1,a4
ffffffc050403c56:	853e                	mv	a0,a5
ffffffc050403c58:	d8eff0ef          	jal	ra,ffffffc0504031e6 <Xil_Out32>
ffffffc050403c5c:	fc843783          	ld	a5,-56(s0)
ffffffc050403c60:	670d                	lui	a4,0x3
ffffffc050403c62:	80070713          	addi	a4,a4,-2048 # 2800 <_start-0xffffffc0503fd800>
ffffffc050403c66:	14e7a023          	sw	a4,320(a5) # a00140 <_start-0xffffffc04f9ffec0>
ffffffc050403c6a:	fc843783          	ld	a5,-56(s0)
ffffffc050403c6e:	670d                	lui	a4,0x3
ffffffc050403c70:	81270713          	addi	a4,a4,-2030 # 2812 <_start-0xffffffc0503fd7ee>
ffffffc050403c74:	14e7a223          	sw	a4,324(a5)
ffffffc050403c78:	fc843783          	ld	a5,-56(s0)
ffffffc050403c7c:	1447a783          	lw	a5,324(a5)
ffffffc050403c80:	27c9                	addiw	a5,a5,18
ffffffc050403c82:	0007871b          	sext.w	a4,a5
ffffffc050403c86:	fc843783          	ld	a5,-56(s0)
ffffffc050403c8a:	14e7a423          	sw	a4,328(a5)
ffffffc050403c8e:	fc843783          	ld	a5,-56(s0)
ffffffc050403c92:	6711                	lui	a4,0x4
ffffffc050403c94:	177d                	addi	a4,a4,-1
ffffffc050403c96:	12e7ae23          	sw	a4,316(a5)
ffffffc050403c9a:	fc442703          	lw	a4,-60(s0)
ffffffc050403c9e:	67a1                	lui	a5,0x8
ffffffc050403ca0:	8ff9                	and	a5,a5,a4
ffffffc050403ca2:	2781                	sext.w	a5,a5
ffffffc050403ca4:	c395                	beqz	a5,ffffffc050403cc8 <XEmacPs_SetOptions+0x224>
ffffffc050403ca6:	fc843783          	ld	a5,-56(s0)
ffffffc050403caa:	1387a783          	lw	a5,312(a5) # 8138 <_start-0xffffffc0503f7ec8>
ffffffc050403cae:	873e                	mv	a4,a5
ffffffc050403cb0:	4789                	li	a5,2
ffffffc050403cb2:	00e7fb63          	bgeu	a5,a4,ffffffc050403cc8 <XEmacPs_SetOptions+0x224>
ffffffc050403cb6:	fec42703          	lw	a4,-20(s0)
ffffffc050403cba:	080017b7          	lui	a5,0x8001
ffffffc050403cbe:	80078793          	addi	a5,a5,-2048 # 8000800 <_start-0xffffffc0483ff800>
ffffffc050403cc2:	8fd9                	or	a5,a5,a4
ffffffc050403cc4:	fef42623          	sw	a5,-20(s0)
ffffffc050403cc8:	fdc42703          	lw	a4,-36(s0)
ffffffc050403ccc:	fec42783          	lw	a5,-20(s0)
ffffffc050403cd0:	2701                	sext.w	a4,a4
ffffffc050403cd2:	2781                	sext.w	a5,a5
ffffffc050403cd4:	00f70c63          	beq	a4,a5,ffffffc050403cec <XEmacPs_SetOptions+0x248>
ffffffc050403cd8:	fc843783          	ld	a5,-56(s0)
ffffffc050403cdc:	679c                	ld	a5,8(a5)
ffffffc050403cde:	0791                	addi	a5,a5,4
ffffffc050403ce0:	fec42703          	lw	a4,-20(s0)
ffffffc050403ce4:	85ba                	mv	a1,a4
ffffffc050403ce6:	853e                	mv	a0,a5
ffffffc050403ce8:	cfeff0ef          	jal	ra,ffffffc0504031e6 <Xil_Out32>
ffffffc050403cec:	fc442703          	lw	a4,-60(s0)
ffffffc050403cf0:	6789                	lui	a5,0x2
ffffffc050403cf2:	8ff9                	and	a5,a5,a4
ffffffc050403cf4:	2781                	sext.w	a5,a5
ffffffc050403cf6:	cf8d                	beqz	a5,ffffffc050403d30 <XEmacPs_SetOptions+0x28c>
ffffffc050403cf8:	fc843783          	ld	a5,-56(s0)
ffffffc050403cfc:	679c                	ld	a5,8(a5)
ffffffc050403cfe:	07c1                	addi	a5,a5,16
ffffffc050403d00:	853e                	mv	a0,a5
ffffffc050403d02:	d10ff0ef          	jal	ra,ffffffc050403212 <Xil_In32>
ffffffc050403d06:	87aa                	mv	a5,a0
ffffffc050403d08:	fcf42c23          	sw	a5,-40(s0)
ffffffc050403d0c:	fd842703          	lw	a4,-40(s0)
ffffffc050403d10:	6785                	lui	a5,0x1
ffffffc050403d12:	80078793          	addi	a5,a5,-2048 # 800 <_start-0xffffffc0503ff800>
ffffffc050403d16:	8fd9                	or	a5,a5,a4
ffffffc050403d18:	fcf42c23          	sw	a5,-40(s0)
ffffffc050403d1c:	fc843783          	ld	a5,-56(s0)
ffffffc050403d20:	679c                	ld	a5,8(a5)
ffffffc050403d22:	07c1                	addi	a5,a5,16
ffffffc050403d24:	fd842703          	lw	a4,-40(s0)
ffffffc050403d28:	85ba                	mv	a1,a4
ffffffc050403d2a:	853e                	mv	a0,a5
ffffffc050403d2c:	cbaff0ef          	jal	ra,ffffffc0504031e6 <Xil_Out32>
ffffffc050403d30:	fc442783          	lw	a5,-60(s0)
ffffffc050403d34:	1007f793          	andi	a5,a5,256
ffffffc050403d38:	2781                	sext.w	a5,a5
ffffffc050403d3a:	cb8d                	beqz	a5,ffffffc050403d6c <XEmacPs_SetOptions+0x2c8>
ffffffc050403d3c:	fc843783          	ld	a5,-56(s0)
ffffffc050403d40:	679c                	ld	a5,8(a5)
ffffffc050403d42:	853e                	mv	a0,a5
ffffffc050403d44:	cceff0ef          	jal	ra,ffffffc050403212 <Xil_In32>
ffffffc050403d48:	87aa                	mv	a5,a0
ffffffc050403d4a:	fcf42c23          	sw	a5,-40(s0)
ffffffc050403d4e:	fd842783          	lw	a5,-40(s0)
ffffffc050403d52:	0087e793          	ori	a5,a5,8
ffffffc050403d56:	fcf42c23          	sw	a5,-40(s0)
ffffffc050403d5a:	fc843783          	ld	a5,-56(s0)
ffffffc050403d5e:	679c                	ld	a5,8(a5)
ffffffc050403d60:	fd842703          	lw	a4,-40(s0)
ffffffc050403d64:	85ba                	mv	a1,a4
ffffffc050403d66:	853e                	mv	a0,a5
ffffffc050403d68:	c7eff0ef          	jal	ra,ffffffc0504031e6 <Xil_Out32>
ffffffc050403d6c:	fc442783          	lw	a5,-60(s0)
ffffffc050403d70:	2007f793          	andi	a5,a5,512
ffffffc050403d74:	2781                	sext.w	a5,a5
ffffffc050403d76:	cb8d                	beqz	a5,ffffffc050403da8 <XEmacPs_SetOptions+0x304>
ffffffc050403d78:	fc843783          	ld	a5,-56(s0)
ffffffc050403d7c:	679c                	ld	a5,8(a5)
ffffffc050403d7e:	853e                	mv	a0,a5
ffffffc050403d80:	c92ff0ef          	jal	ra,ffffffc050403212 <Xil_In32>
ffffffc050403d84:	87aa                	mv	a5,a0
ffffffc050403d86:	fcf42c23          	sw	a5,-40(s0)
ffffffc050403d8a:	fd842783          	lw	a5,-40(s0)
ffffffc050403d8e:	0047e793          	ori	a5,a5,4
ffffffc050403d92:	fcf42c23          	sw	a5,-40(s0)
ffffffc050403d96:	fc843783          	ld	a5,-56(s0)
ffffffc050403d9a:	679c                	ld	a5,8(a5)
ffffffc050403d9c:	fd842703          	lw	a4,-40(s0)
ffffffc050403da0:	85ba                	mv	a1,a4
ffffffc050403da2:	853e                	mv	a0,a5
ffffffc050403da4:	c42ff0ef          	jal	ra,ffffffc0504031e6 <Xil_Out32>
ffffffc050403da8:	fc843783          	ld	a5,-56(s0)
ffffffc050403dac:	5398                	lw	a4,32(a5)
ffffffc050403dae:	fc442783          	lw	a5,-60(s0)
ffffffc050403db2:	8fd9                	or	a5,a5,a4
ffffffc050403db4:	0007871b          	sext.w	a4,a5
ffffffc050403db8:	fc843783          	ld	a5,-56(s0)
ffffffc050403dbc:	d398                	sw	a4,32(a5)
ffffffc050403dbe:	fe043023          	sd	zero,-32(s0)
ffffffc050403dc2:	fe043783          	ld	a5,-32(s0)
ffffffc050403dc6:	853e                	mv	a0,a5
ffffffc050403dc8:	70e2                	ld	ra,56(sp)
ffffffc050403dca:	7442                	ld	s0,48(sp)
ffffffc050403dcc:	6121                	addi	sp,sp,64
ffffffc050403dce:	8082                	ret

ffffffc050403dd0 <XEmacPs_ClearOptions>:
ffffffc050403dd0:	7139                	addi	sp,sp,-64
ffffffc050403dd2:	fc06                	sd	ra,56(sp)
ffffffc050403dd4:	f822                	sd	s0,48(sp)
ffffffc050403dd6:	0080                	addi	s0,sp,64
ffffffc050403dd8:	fca43423          	sd	a0,-56(s0)
ffffffc050403ddc:	87ae                	mv	a5,a1
ffffffc050403dde:	fcf42223          	sw	a5,-60(s0)
ffffffc050403de2:	fc843783          	ld	a5,-56(s0)
ffffffc050403de6:	4f9c                	lw	a5,24(a5)
ffffffc050403de8:	873e                	mv	a4,a5
ffffffc050403dea:	222227b7          	lui	a5,0x22222
ffffffc050403dee:	22278793          	addi	a5,a5,546 # 22222222 <_start-0xffffffc02e1dddde>
ffffffc050403df2:	00f71663          	bne	a4,a5,ffffffc050403dfe <XEmacPs_ClearOptions+0x2e>
ffffffc050403df6:	4795                	li	a5,5
ffffffc050403df8:	fef43023          	sd	a5,-32(s0)
ffffffc050403dfc:	a4e1                	j	ffffffc0504040c4 <XEmacPs_ClearOptions+0x2f4>
ffffffc050403dfe:	fc843783          	ld	a5,-56(s0)
ffffffc050403e02:	679c                	ld	a5,8(a5)
ffffffc050403e04:	0791                	addi	a5,a5,4
ffffffc050403e06:	853e                	mv	a0,a5
ffffffc050403e08:	c0aff0ef          	jal	ra,ffffffc050403212 <Xil_In32>
ffffffc050403e0c:	87aa                	mv	a5,a0
ffffffc050403e0e:	fcf42e23          	sw	a5,-36(s0)
ffffffc050403e12:	fdc42783          	lw	a5,-36(s0)
ffffffc050403e16:	fef42623          	sw	a5,-20(s0)
ffffffc050403e1a:	fc442783          	lw	a5,-60(s0)
ffffffc050403e1e:	8b89                	andi	a5,a5,2
ffffffc050403e20:	2781                	sext.w	a5,a5
ffffffc050403e22:	c799                	beqz	a5,ffffffc050403e30 <XEmacPs_ClearOptions+0x60>
ffffffc050403e24:	fec42783          	lw	a5,-20(s0)
ffffffc050403e28:	eff7f793          	andi	a5,a5,-257
ffffffc050403e2c:	fef42623          	sw	a5,-20(s0)
ffffffc050403e30:	fc442783          	lw	a5,-60(s0)
ffffffc050403e34:	8b91                	andi	a5,a5,4
ffffffc050403e36:	2781                	sext.w	a5,a5
ffffffc050403e38:	c791                	beqz	a5,ffffffc050403e44 <XEmacPs_ClearOptions+0x74>
ffffffc050403e3a:	fec42783          	lw	a5,-20(s0)
ffffffc050403e3e:	9bed                	andi	a5,a5,-5
ffffffc050403e40:	fef42623          	sw	a5,-20(s0)
ffffffc050403e44:	fc442783          	lw	a5,-60(s0)
ffffffc050403e48:	0207f793          	andi	a5,a5,32
ffffffc050403e4c:	2781                	sext.w	a5,a5
ffffffc050403e4e:	cb81                	beqz	a5,ffffffc050403e5e <XEmacPs_ClearOptions+0x8e>
ffffffc050403e50:	fec42703          	lw	a4,-20(s0)
ffffffc050403e54:	7781                	lui	a5,0xfffe0
ffffffc050403e56:	17fd                	addi	a5,a5,-1
ffffffc050403e58:	8ff9                	and	a5,a5,a4
ffffffc050403e5a:	fef42623          	sw	a5,-20(s0)
ffffffc050403e5e:	fc442783          	lw	a5,-60(s0)
ffffffc050403e62:	0807f793          	andi	a5,a5,128
ffffffc050403e66:	2781                	sext.w	a5,a5
ffffffc050403e68:	cb81                	beqz	a5,ffffffc050403e78 <XEmacPs_ClearOptions+0xa8>
ffffffc050403e6a:	fec42703          	lw	a4,-20(s0)
ffffffc050403e6e:	77c1                	lui	a5,0xffff0
ffffffc050403e70:	17fd                	addi	a5,a5,-1
ffffffc050403e72:	8ff9                	and	a5,a5,a4
ffffffc050403e74:	fef42623          	sw	a5,-20(s0)
ffffffc050403e78:	fc442783          	lw	a5,-60(s0)
ffffffc050403e7c:	8bc1                	andi	a5,a5,16
ffffffc050403e7e:	2781                	sext.w	a5,a5
ffffffc050403e80:	cb81                	beqz	a5,ffffffc050403e90 <XEmacPs_ClearOptions+0xc0>
ffffffc050403e82:	fec42703          	lw	a4,-20(s0)
ffffffc050403e86:	77f9                	lui	a5,0xffffe
ffffffc050403e88:	17fd                	addi	a5,a5,-1
ffffffc050403e8a:	8ff9                	and	a5,a5,a4
ffffffc050403e8c:	fef42623          	sw	a5,-20(s0)
ffffffc050403e90:	fc442783          	lw	a5,-60(s0)
ffffffc050403e94:	8b85                	andi	a5,a5,1
ffffffc050403e96:	2781                	sext.w	a5,a5
ffffffc050403e98:	c791                	beqz	a5,ffffffc050403ea4 <XEmacPs_ClearOptions+0xd4>
ffffffc050403e9a:	fec42783          	lw	a5,-20(s0)
ffffffc050403e9e:	9bbd                	andi	a5,a5,-17
ffffffc050403ea0:	fef42623          	sw	a5,-20(s0)
ffffffc050403ea4:	fc442783          	lw	a5,-60(s0)
ffffffc050403ea8:	4007f793          	andi	a5,a5,1024
ffffffc050403eac:	2781                	sext.w	a5,a5
ffffffc050403eae:	c799                	beqz	a5,ffffffc050403ebc <XEmacPs_ClearOptions+0xec>
ffffffc050403eb0:	fec42783          	lw	a5,-20(s0)
ffffffc050403eb4:	0207e793          	ori	a5,a5,32
ffffffc050403eb8:	fef42623          	sw	a5,-20(s0)
ffffffc050403ebc:	fc442703          	lw	a4,-60(s0)
ffffffc050403ec0:	6785                	lui	a5,0x1
ffffffc050403ec2:	80078793          	addi	a5,a5,-2048 # 800 <_start-0xffffffc0503ff800>
ffffffc050403ec6:	8ff9                	and	a5,a5,a4
ffffffc050403ec8:	2781                	sext.w	a5,a5
ffffffc050403eca:	c799                	beqz	a5,ffffffc050403ed8 <XEmacPs_ClearOptions+0x108>
ffffffc050403ecc:	fec42783          	lw	a5,-20(s0)
ffffffc050403ed0:	fbf7f793          	andi	a5,a5,-65
ffffffc050403ed4:	fef42623          	sw	a5,-20(s0)
ffffffc050403ed8:	fc442703          	lw	a4,-60(s0)
ffffffc050403edc:	6785                	lui	a5,0x1
ffffffc050403ede:	8ff9                	and	a5,a5,a4
ffffffc050403ee0:	2781                	sext.w	a5,a5
ffffffc050403ee2:	cb89                	beqz	a5,ffffffc050403ef4 <XEmacPs_ClearOptions+0x124>
ffffffc050403ee4:	fec42703          	lw	a4,-20(s0)
ffffffc050403ee8:	ff0007b7          	lui	a5,0xff000
ffffffc050403eec:	17fd                	addi	a5,a5,-1
ffffffc050403eee:	8ff9                	and	a5,a5,a4
ffffffc050403ef0:	fef42623          	sw	a5,-20(s0)
ffffffc050403ef4:	fc442703          	lw	a4,-60(s0)
ffffffc050403ef8:	6791                	lui	a5,0x4
ffffffc050403efa:	8ff9                	and	a5,a5,a4
ffffffc050403efc:	2781                	sext.w	a5,a5
ffffffc050403efe:	cfd1                	beqz	a5,ffffffc050403f9a <XEmacPs_ClearOptions+0x1ca>
ffffffc050403f00:	fc843783          	ld	a5,-56(s0)
ffffffc050403f04:	1387a783          	lw	a5,312(a5) # 4138 <_start-0xffffffc0503fbec8>
ffffffc050403f08:	873e                	mv	a4,a5
ffffffc050403f0a:	4789                	li	a5,2
ffffffc050403f0c:	08e7f763          	bgeu	a5,a4,ffffffc050403f9a <XEmacPs_ClearOptions+0x1ca>
ffffffc050403f10:	fec42783          	lw	a5,-20(s0)
ffffffc050403f14:	9bdd                	andi	a5,a5,-9
ffffffc050403f16:	fef42623          	sw	a5,-20(s0)
ffffffc050403f1a:	fc843783          	ld	a5,-56(s0)
ffffffc050403f1e:	679c                	ld	a5,8(a5)
ffffffc050403f20:	07c1                	addi	a5,a5,16
ffffffc050403f22:	853e                	mv	a0,a5
ffffffc050403f24:	aeeff0ef          	jal	ra,ffffffc050403212 <Xil_In32>
ffffffc050403f28:	87aa                	mv	a5,a0
ffffffc050403f2a:	fcf42c23          	sw	a5,-40(s0)
ffffffc050403f2e:	fd842703          	lw	a4,-40(s0)
ffffffc050403f32:	ff0107b7          	lui	a5,0xff010
ffffffc050403f36:	17fd                	addi	a5,a5,-1
ffffffc050403f38:	8ff9                	and	a5,a5,a4
ffffffc050403f3a:	fcf42c23          	sw	a5,-40(s0)
ffffffc050403f3e:	fd842703          	lw	a4,-40(s0)
ffffffc050403f42:	001807b7          	lui	a5,0x180
ffffffc050403f46:	8fd9                	or	a5,a5,a4
ffffffc050403f48:	fcf42c23          	sw	a5,-40(s0)
ffffffc050403f4c:	fc843783          	ld	a5,-56(s0)
ffffffc050403f50:	679c                	ld	a5,8(a5)
ffffffc050403f52:	07c1                	addi	a5,a5,16
ffffffc050403f54:	fd842703          	lw	a4,-40(s0)
ffffffc050403f58:	85ba                	mv	a1,a4
ffffffc050403f5a:	853e                	mv	a0,a5
ffffffc050403f5c:	a8aff0ef          	jal	ra,ffffffc0504031e6 <Xil_Out32>
ffffffc050403f60:	fc843783          	ld	a5,-56(s0)
ffffffc050403f64:	5dc00713          	li	a4,1500
ffffffc050403f68:	14e7a023          	sw	a4,320(a5) # 180140 <_start-0xffffffc05027fec0>
ffffffc050403f6c:	fc843783          	ld	a5,-56(s0)
ffffffc050403f70:	5ee00713          	li	a4,1518
ffffffc050403f74:	14e7a223          	sw	a4,324(a5)
ffffffc050403f78:	fc843783          	ld	a5,-56(s0)
ffffffc050403f7c:	1447a783          	lw	a5,324(a5)
ffffffc050403f80:	27c9                	addiw	a5,a5,18
ffffffc050403f82:	0007871b          	sext.w	a4,a5
ffffffc050403f86:	fc843783          	ld	a5,-56(s0)
ffffffc050403f8a:	14e7a423          	sw	a4,328(a5)
ffffffc050403f8e:	fc843783          	ld	a5,-56(s0)
ffffffc050403f92:	6709                	lui	a4,0x2
ffffffc050403f94:	177d                	addi	a4,a4,-1
ffffffc050403f96:	12e7ae23          	sw	a4,316(a5)
ffffffc050403f9a:	fc442703          	lw	a4,-60(s0)
ffffffc050403f9e:	67a1                	lui	a5,0x8
ffffffc050403fa0:	8ff9                	and	a5,a5,a4
ffffffc050403fa2:	2781                	sext.w	a5,a5
ffffffc050403fa4:	c395                	beqz	a5,ffffffc050403fc8 <XEmacPs_ClearOptions+0x1f8>
ffffffc050403fa6:	fc843783          	ld	a5,-56(s0)
ffffffc050403faa:	1387a783          	lw	a5,312(a5) # 8138 <_start-0xffffffc0503f7ec8>
ffffffc050403fae:	873e                	mv	a4,a5
ffffffc050403fb0:	4789                	li	a5,2
ffffffc050403fb2:	00e7fb63          	bgeu	a5,a4,ffffffc050403fc8 <XEmacPs_ClearOptions+0x1f8>
ffffffc050403fb6:	fec42703          	lw	a4,-20(s0)
ffffffc050403fba:	f7fff7b7          	lui	a5,0xf7fff
ffffffc050403fbe:	7ff78793          	addi	a5,a5,2047 # fffffffff7fff7ff <__BSS_END__+0x3fa73fd1ff>
ffffffc050403fc2:	8ff9                	and	a5,a5,a4
ffffffc050403fc4:	fef42623          	sw	a5,-20(s0)
ffffffc050403fc8:	fdc42703          	lw	a4,-36(s0)
ffffffc050403fcc:	fec42783          	lw	a5,-20(s0)
ffffffc050403fd0:	2701                	sext.w	a4,a4
ffffffc050403fd2:	2781                	sext.w	a5,a5
ffffffc050403fd4:	00f70c63          	beq	a4,a5,ffffffc050403fec <XEmacPs_ClearOptions+0x21c>
ffffffc050403fd8:	fc843783          	ld	a5,-56(s0)
ffffffc050403fdc:	679c                	ld	a5,8(a5)
ffffffc050403fde:	0791                	addi	a5,a5,4
ffffffc050403fe0:	fec42703          	lw	a4,-20(s0)
ffffffc050403fe4:	85ba                	mv	a1,a4
ffffffc050403fe6:	853e                	mv	a0,a5
ffffffc050403fe8:	9feff0ef          	jal	ra,ffffffc0504031e6 <Xil_Out32>
ffffffc050403fec:	fc442703          	lw	a4,-60(s0)
ffffffc050403ff0:	6789                	lui	a5,0x2
ffffffc050403ff2:	8ff9                	and	a5,a5,a4
ffffffc050403ff4:	2781                	sext.w	a5,a5
ffffffc050403ff6:	cf8d                	beqz	a5,ffffffc050404030 <XEmacPs_ClearOptions+0x260>
ffffffc050403ff8:	fc843783          	ld	a5,-56(s0)
ffffffc050403ffc:	679c                	ld	a5,8(a5)
ffffffc050403ffe:	07c1                	addi	a5,a5,16
ffffffc050404000:	853e                	mv	a0,a5
ffffffc050404002:	a10ff0ef          	jal	ra,ffffffc050403212 <Xil_In32>
ffffffc050404006:	87aa                	mv	a5,a0
ffffffc050404008:	fcf42c23          	sw	a5,-40(s0)
ffffffc05040400c:	fd842703          	lw	a4,-40(s0)
ffffffc050404010:	77fd                	lui	a5,0xfffff
ffffffc050404012:	7ff78793          	addi	a5,a5,2047 # fffffffffffff7ff <__BSS_END__+0x3faf3fd1ff>
ffffffc050404016:	8ff9                	and	a5,a5,a4
ffffffc050404018:	fcf42c23          	sw	a5,-40(s0)
ffffffc05040401c:	fc843783          	ld	a5,-56(s0)
ffffffc050404020:	679c                	ld	a5,8(a5)
ffffffc050404022:	07c1                	addi	a5,a5,16
ffffffc050404024:	fd842703          	lw	a4,-40(s0)
ffffffc050404028:	85ba                	mv	a1,a4
ffffffc05040402a:	853e                	mv	a0,a5
ffffffc05040402c:	9baff0ef          	jal	ra,ffffffc0504031e6 <Xil_Out32>
ffffffc050404030:	fc442783          	lw	a5,-60(s0)
ffffffc050404034:	1007f793          	andi	a5,a5,256
ffffffc050404038:	2781                	sext.w	a5,a5
ffffffc05040403a:	cb85                	beqz	a5,ffffffc05040406a <XEmacPs_ClearOptions+0x29a>
ffffffc05040403c:	fc843783          	ld	a5,-56(s0)
ffffffc050404040:	679c                	ld	a5,8(a5)
ffffffc050404042:	853e                	mv	a0,a5
ffffffc050404044:	9ceff0ef          	jal	ra,ffffffc050403212 <Xil_In32>
ffffffc050404048:	87aa                	mv	a5,a0
ffffffc05040404a:	fcf42c23          	sw	a5,-40(s0)
ffffffc05040404e:	fd842783          	lw	a5,-40(s0)
ffffffc050404052:	9bdd                	andi	a5,a5,-9
ffffffc050404054:	fcf42c23          	sw	a5,-40(s0)
ffffffc050404058:	fc843783          	ld	a5,-56(s0)
ffffffc05040405c:	679c                	ld	a5,8(a5)
ffffffc05040405e:	fd842703          	lw	a4,-40(s0)
ffffffc050404062:	85ba                	mv	a1,a4
ffffffc050404064:	853e                	mv	a0,a5
ffffffc050404066:	980ff0ef          	jal	ra,ffffffc0504031e6 <Xil_Out32>
ffffffc05040406a:	fc442783          	lw	a5,-60(s0)
ffffffc05040406e:	2007f793          	andi	a5,a5,512
ffffffc050404072:	2781                	sext.w	a5,a5
ffffffc050404074:	cb85                	beqz	a5,ffffffc0504040a4 <XEmacPs_ClearOptions+0x2d4>
ffffffc050404076:	fc843783          	ld	a5,-56(s0)
ffffffc05040407a:	679c                	ld	a5,8(a5)
ffffffc05040407c:	853e                	mv	a0,a5
ffffffc05040407e:	994ff0ef          	jal	ra,ffffffc050403212 <Xil_In32>
ffffffc050404082:	87aa                	mv	a5,a0
ffffffc050404084:	fcf42c23          	sw	a5,-40(s0)
ffffffc050404088:	fd842783          	lw	a5,-40(s0)
ffffffc05040408c:	9bed                	andi	a5,a5,-5
ffffffc05040408e:	fcf42c23          	sw	a5,-40(s0)
ffffffc050404092:	fc843783          	ld	a5,-56(s0)
ffffffc050404096:	679c                	ld	a5,8(a5)
ffffffc050404098:	fd842703          	lw	a4,-40(s0)
ffffffc05040409c:	85ba                	mv	a1,a4
ffffffc05040409e:	853e                	mv	a0,a5
ffffffc0504040a0:	946ff0ef          	jal	ra,ffffffc0504031e6 <Xil_Out32>
ffffffc0504040a4:	fc843783          	ld	a5,-56(s0)
ffffffc0504040a8:	5398                	lw	a4,32(a5)
ffffffc0504040aa:	fc442783          	lw	a5,-60(s0)
ffffffc0504040ae:	fff7c793          	not	a5,a5
ffffffc0504040b2:	2781                	sext.w	a5,a5
ffffffc0504040b4:	8ff9                	and	a5,a5,a4
ffffffc0504040b6:	0007871b          	sext.w	a4,a5
ffffffc0504040ba:	fc843783          	ld	a5,-56(s0)
ffffffc0504040be:	d398                	sw	a4,32(a5)
ffffffc0504040c0:	fe043023          	sd	zero,-32(s0)
ffffffc0504040c4:	fe043783          	ld	a5,-32(s0)
ffffffc0504040c8:	853e                	mv	a0,a5
ffffffc0504040ca:	70e2                	ld	ra,56(sp)
ffffffc0504040cc:	7442                	ld	s0,48(sp)
ffffffc0504040ce:	6121                	addi	sp,sp,64
ffffffc0504040d0:	8082                	ret

ffffffc0504040d2 <XEmacPs_GetOptions>:
ffffffc0504040d2:	1101                	addi	sp,sp,-32
ffffffc0504040d4:	ec22                	sd	s0,24(sp)
ffffffc0504040d6:	1000                	addi	s0,sp,32
ffffffc0504040d8:	fea43423          	sd	a0,-24(s0)
ffffffc0504040dc:	fe843783          	ld	a5,-24(s0)
ffffffc0504040e0:	539c                	lw	a5,32(a5)
ffffffc0504040e2:	853e                	mv	a0,a5
ffffffc0504040e4:	6462                	ld	s0,24(sp)
ffffffc0504040e6:	6105                	addi	sp,sp,32
ffffffc0504040e8:	8082                	ret

ffffffc0504040ea <XEmacPs_SendPausePacket>:
ffffffc0504040ea:	7179                	addi	sp,sp,-48
ffffffc0504040ec:	f406                	sd	ra,40(sp)
ffffffc0504040ee:	f022                	sd	s0,32(sp)
ffffffc0504040f0:	1800                	addi	s0,sp,48
ffffffc0504040f2:	fca43c23          	sd	a0,-40(s0)
ffffffc0504040f6:	fd843783          	ld	a5,-40(s0)
ffffffc0504040fa:	4f9c                	lw	a5,24(a5)
ffffffc0504040fc:	873e                	mv	a4,a5
ffffffc0504040fe:	222227b7          	lui	a5,0x22222
ffffffc050404102:	22278793          	addi	a5,a5,546 # 22222222 <_start-0xffffffc02e1dddde>
ffffffc050404106:	00f70663          	beq	a4,a5,ffffffc050404112 <XEmacPs_SendPausePacket+0x28>
ffffffc05040410a:	4799                	li	a5,6
ffffffc05040410c:	fef43423          	sd	a5,-24(s0)
ffffffc050404110:	a82d                	j	ffffffc05040414a <XEmacPs_SendPausePacket+0x60>
ffffffc050404112:	fd843783          	ld	a5,-40(s0)
ffffffc050404116:	679c                	ld	a5,8(a5)
ffffffc050404118:	853e                	mv	a0,a5
ffffffc05040411a:	8f8ff0ef          	jal	ra,ffffffc050403212 <Xil_In32>
ffffffc05040411e:	87aa                	mv	a5,a0
ffffffc050404120:	fef42223          	sw	a5,-28(s0)
ffffffc050404124:	fe442703          	lw	a4,-28(s0)
ffffffc050404128:	6785                	lui	a5,0x1
ffffffc05040412a:	80078793          	addi	a5,a5,-2048 # 800 <_start-0xffffffc0503ff800>
ffffffc05040412e:	8fd9                	or	a5,a5,a4
ffffffc050404130:	fef42223          	sw	a5,-28(s0)
ffffffc050404134:	fd843783          	ld	a5,-40(s0)
ffffffc050404138:	679c                	ld	a5,8(a5)
ffffffc05040413a:	fe442703          	lw	a4,-28(s0)
ffffffc05040413e:	85ba                	mv	a1,a4
ffffffc050404140:	853e                	mv	a0,a5
ffffffc050404142:	8a4ff0ef          	jal	ra,ffffffc0504031e6 <Xil_Out32>
ffffffc050404146:	fe043423          	sd	zero,-24(s0)
ffffffc05040414a:	fe843783          	ld	a5,-24(s0)
ffffffc05040414e:	853e                	mv	a0,a5
ffffffc050404150:	70a2                	ld	ra,40(sp)
ffffffc050404152:	7402                	ld	s0,32(sp)
ffffffc050404154:	6145                	addi	sp,sp,48
ffffffc050404156:	8082                	ret

ffffffc050404158 <XEmacPs_GetOperatingSpeed>:
ffffffc050404158:	7179                	addi	sp,sp,-48
ffffffc05040415a:	f406                	sd	ra,40(sp)
ffffffc05040415c:	f022                	sd	s0,32(sp)
ffffffc05040415e:	1800                	addi	s0,sp,48
ffffffc050404160:	fca43c23          	sd	a0,-40(s0)
ffffffc050404164:	fd843783          	ld	a5,-40(s0)
ffffffc050404168:	679c                	ld	a5,8(a5)
ffffffc05040416a:	0791                	addi	a5,a5,4
ffffffc05040416c:	853e                	mv	a0,a5
ffffffc05040416e:	8a4ff0ef          	jal	ra,ffffffc050403212 <Xil_In32>
ffffffc050404172:	87aa                	mv	a5,a0
ffffffc050404174:	fef42423          	sw	a5,-24(s0)
ffffffc050404178:	fe842783          	lw	a5,-24(s0)
ffffffc05040417c:	4007f793          	andi	a5,a5,1024
ffffffc050404180:	2781                	sext.w	a5,a5
ffffffc050404182:	c791                	beqz	a5,ffffffc05040418e <XEmacPs_GetOperatingSpeed+0x36>
ffffffc050404184:	3e800793          	li	a5,1000
ffffffc050404188:	fef41723          	sh	a5,-18(s0)
ffffffc05040418c:	a831                	j	ffffffc0504041a8 <XEmacPs_GetOperatingSpeed+0x50>
ffffffc05040418e:	fe842783          	lw	a5,-24(s0)
ffffffc050404192:	8b85                	andi	a5,a5,1
ffffffc050404194:	2781                	sext.w	a5,a5
ffffffc050404196:	c791                	beqz	a5,ffffffc0504041a2 <XEmacPs_GetOperatingSpeed+0x4a>
ffffffc050404198:	06400793          	li	a5,100
ffffffc05040419c:	fef41723          	sh	a5,-18(s0)
ffffffc0504041a0:	a021                	j	ffffffc0504041a8 <XEmacPs_GetOperatingSpeed+0x50>
ffffffc0504041a2:	47a9                	li	a5,10
ffffffc0504041a4:	fef41723          	sh	a5,-18(s0)
ffffffc0504041a8:	fee45783          	lhu	a5,-18(s0)
ffffffc0504041ac:	853e                	mv	a0,a5
ffffffc0504041ae:	70a2                	ld	ra,40(sp)
ffffffc0504041b0:	7402                	ld	s0,32(sp)
ffffffc0504041b2:	6145                	addi	sp,sp,48
ffffffc0504041b4:	8082                	ret

ffffffc0504041b6 <XEmacPs_SetOperatingSpeed>:
ffffffc0504041b6:	7179                	addi	sp,sp,-48
ffffffc0504041b8:	f406                	sd	ra,40(sp)
ffffffc0504041ba:	f022                	sd	s0,32(sp)
ffffffc0504041bc:	1800                	addi	s0,sp,48
ffffffc0504041be:	fca43c23          	sd	a0,-40(s0)
ffffffc0504041c2:	87ae                	mv	a5,a1
ffffffc0504041c4:	fcf41b23          	sh	a5,-42(s0)
ffffffc0504041c8:	fd843783          	ld	a5,-40(s0)
ffffffc0504041cc:	679c                	ld	a5,8(a5)
ffffffc0504041ce:	0791                	addi	a5,a5,4
ffffffc0504041d0:	853e                	mv	a0,a5
ffffffc0504041d2:	840ff0ef          	jal	ra,ffffffc050403212 <Xil_In32>
ffffffc0504041d6:	87aa                	mv	a5,a0
ffffffc0504041d8:	fef42623          	sw	a5,-20(s0)
ffffffc0504041dc:	fec42783          	lw	a5,-20(s0)
ffffffc0504041e0:	bfe7f793          	andi	a5,a5,-1026
ffffffc0504041e4:	fef42623          	sw	a5,-20(s0)
ffffffc0504041e8:	fd645783          	lhu	a5,-42(s0)
ffffffc0504041ec:	2781                	sext.w	a5,a5
ffffffc0504041ee:	86be                	mv	a3,a5
ffffffc0504041f0:	3e800713          	li	a4,1000
ffffffc0504041f4:	02e68763          	beq	a3,a4,ffffffc050404222 <XEmacPs_SetOperatingSpeed+0x6c>
ffffffc0504041f8:	86be                	mv	a3,a5
ffffffc0504041fa:	3e800713          	li	a4,1000
ffffffc0504041fe:	02d74a63          	blt	a4,a3,ffffffc050404232 <XEmacPs_SetOperatingSpeed+0x7c>
ffffffc050404202:	86be                	mv	a3,a5
ffffffc050404204:	4729                	li	a4,10
ffffffc050404206:	02e68563          	beq	a3,a4,ffffffc050404230 <XEmacPs_SetOperatingSpeed+0x7a>
ffffffc05040420a:	873e                	mv	a4,a5
ffffffc05040420c:	06400793          	li	a5,100
ffffffc050404210:	02f71163          	bne	a4,a5,ffffffc050404232 <XEmacPs_SetOperatingSpeed+0x7c>
ffffffc050404214:	fec42783          	lw	a5,-20(s0)
ffffffc050404218:	0017e793          	ori	a5,a5,1
ffffffc05040421c:	fef42623          	sw	a5,-20(s0)
ffffffc050404220:	a809                	j	ffffffc050404232 <XEmacPs_SetOperatingSpeed+0x7c>
ffffffc050404222:	fec42783          	lw	a5,-20(s0)
ffffffc050404226:	4007e793          	ori	a5,a5,1024
ffffffc05040422a:	fef42623          	sw	a5,-20(s0)
ffffffc05040422e:	a011                	j	ffffffc050404232 <XEmacPs_SetOperatingSpeed+0x7c>
ffffffc050404230:	0001                	nop
ffffffc050404232:	fd843783          	ld	a5,-40(s0)
ffffffc050404236:	679c                	ld	a5,8(a5)
ffffffc050404238:	0791                	addi	a5,a5,4
ffffffc05040423a:	fec42703          	lw	a4,-20(s0)
ffffffc05040423e:	85ba                	mv	a1,a4
ffffffc050404240:	853e                	mv	a0,a5
ffffffc050404242:	fa5fe0ef          	jal	ra,ffffffc0504031e6 <Xil_Out32>
ffffffc050404246:	0001                	nop
ffffffc050404248:	70a2                	ld	ra,40(sp)
ffffffc05040424a:	7402                	ld	s0,32(sp)
ffffffc05040424c:	6145                	addi	sp,sp,48
ffffffc05040424e:	8082                	ret

ffffffc050404250 <XEmacPs_SetMdioDivisor>:
ffffffc050404250:	7179                	addi	sp,sp,-48
ffffffc050404252:	f406                	sd	ra,40(sp)
ffffffc050404254:	f022                	sd	s0,32(sp)
ffffffc050404256:	1800                	addi	s0,sp,48
ffffffc050404258:	fca43c23          	sd	a0,-40(s0)
ffffffc05040425c:	87ae                	mv	a5,a1
ffffffc05040425e:	fcf42a23          	sw	a5,-44(s0)
ffffffc050404262:	fd843783          	ld	a5,-40(s0)
ffffffc050404266:	679c                	ld	a5,8(a5)
ffffffc050404268:	0791                	addi	a5,a5,4
ffffffc05040426a:	853e                	mv	a0,a5
ffffffc05040426c:	fa7fe0ef          	jal	ra,ffffffc050403212 <Xil_In32>
ffffffc050404270:	87aa                	mv	a5,a0
ffffffc050404272:	fef42623          	sw	a5,-20(s0)
ffffffc050404276:	fec42703          	lw	a4,-20(s0)
ffffffc05040427a:	ffe407b7          	lui	a5,0xffe40
ffffffc05040427e:	17fd                	addi	a5,a5,-1
ffffffc050404280:	8ff9                	and	a5,a5,a4
ffffffc050404282:	fef42623          	sw	a5,-20(s0)
ffffffc050404286:	fd442783          	lw	a5,-44(s0)
ffffffc05040428a:	0127979b          	slliw	a5,a5,0x12
ffffffc05040428e:	0007871b          	sext.w	a4,a5
ffffffc050404292:	fec42783          	lw	a5,-20(s0)
ffffffc050404296:	8fd9                	or	a5,a5,a4
ffffffc050404298:	fef42623          	sw	a5,-20(s0)
ffffffc05040429c:	fd843783          	ld	a5,-40(s0)
ffffffc0504042a0:	679c                	ld	a5,8(a5)
ffffffc0504042a2:	0791                	addi	a5,a5,4
ffffffc0504042a4:	fec42703          	lw	a4,-20(s0)
ffffffc0504042a8:	85ba                	mv	a1,a4
ffffffc0504042aa:	853e                	mv	a0,a5
ffffffc0504042ac:	f3bfe0ef          	jal	ra,ffffffc0504031e6 <Xil_Out32>
ffffffc0504042b0:	0001                	nop
ffffffc0504042b2:	70a2                	ld	ra,40(sp)
ffffffc0504042b4:	7402                	ld	s0,32(sp)
ffffffc0504042b6:	6145                	addi	sp,sp,48
ffffffc0504042b8:	8082                	ret

ffffffc0504042ba <XEmacPs_PhyRead>:
ffffffc0504042ba:	715d                	addi	sp,sp,-80
ffffffc0504042bc:	e486                	sd	ra,72(sp)
ffffffc0504042be:	e0a2                	sd	s0,64(sp)
ffffffc0504042c0:	0880                	addi	s0,sp,80
ffffffc0504042c2:	fca43423          	sd	a0,-56(s0)
ffffffc0504042c6:	87ae                	mv	a5,a1
ffffffc0504042c8:	8732                	mv	a4,a2
ffffffc0504042ca:	fad43c23          	sd	a3,-72(s0)
ffffffc0504042ce:	fcf42223          	sw	a5,-60(s0)
ffffffc0504042d2:	87ba                	mv	a5,a4
ffffffc0504042d4:	fcf42023          	sw	a5,-64(s0)
ffffffc0504042d8:	fc843783          	ld	a5,-56(s0)
ffffffc0504042dc:	679c                	ld	a5,8(a5)
ffffffc0504042de:	07a1                	addi	a5,a5,8
ffffffc0504042e0:	853e                	mv	a0,a5
ffffffc0504042e2:	f31fe0ef          	jal	ra,ffffffc050403212 <Xil_In32>
ffffffc0504042e6:	87aa                	mv	a5,a0
ffffffc0504042e8:	2781                	sext.w	a5,a5
ffffffc0504042ea:	8b91                	andi	a5,a5,4
ffffffc0504042ec:	2781                	sext.w	a5,a5
ffffffc0504042ee:	e791                	bnez	a5,ffffffc0504042fa <XEmacPs_PhyRead+0x40>
ffffffc0504042f0:	3ec00793          	li	a5,1004
ffffffc0504042f4:	fef43423          	sd	a5,-24(s0)
ffffffc0504042f8:	a071                	j	ffffffc050404384 <XEmacPs_PhyRead+0xca>
ffffffc0504042fa:	fc442783          	lw	a5,-60(s0)
ffffffc0504042fe:	0177979b          	slliw	a5,a5,0x17
ffffffc050404302:	0007871b          	sext.w	a4,a5
ffffffc050404306:	fc042783          	lw	a5,-64(s0)
ffffffc05040430a:	0127979b          	slliw	a5,a5,0x12
ffffffc05040430e:	2781                	sext.w	a5,a5
ffffffc050404310:	8fd9                	or	a5,a5,a4
ffffffc050404312:	2781                	sext.w	a5,a5
ffffffc050404314:	873e                	mv	a4,a5
ffffffc050404316:	600207b7          	lui	a5,0x60020
ffffffc05040431a:	8fd9                	or	a5,a5,a4
ffffffc05040431c:	fef42223          	sw	a5,-28(s0)
ffffffc050404320:	fc843783          	ld	a5,-56(s0)
ffffffc050404324:	679c                	ld	a5,8(a5)
ffffffc050404326:	03478793          	addi	a5,a5,52 # 60020034 <_start-0xffffffbff03dffcc>
ffffffc05040432a:	fe442703          	lw	a4,-28(s0)
ffffffc05040432e:	85ba                	mv	a1,a4
ffffffc050404330:	853e                	mv	a0,a5
ffffffc050404332:	eb5fe0ef          	jal	ra,ffffffc0504031e6 <Xil_Out32>
ffffffc050404336:	fc843783          	ld	a5,-56(s0)
ffffffc05040433a:	679c                	ld	a5,8(a5)
ffffffc05040433c:	07a1                	addi	a5,a5,8
ffffffc05040433e:	853e                	mv	a0,a5
ffffffc050404340:	ed3fe0ef          	jal	ra,ffffffc050403212 <Xil_In32>
ffffffc050404344:	87aa                	mv	a5,a0
ffffffc050404346:	2781                	sext.w	a5,a5
ffffffc050404348:	fcf42e23          	sw	a5,-36(s0)
ffffffc05040434c:	fdc42783          	lw	a5,-36(s0)
ffffffc050404350:	fef42023          	sw	a5,-32(s0)
ffffffc050404354:	fe042783          	lw	a5,-32(s0)
ffffffc050404358:	8b91                	andi	a5,a5,4
ffffffc05040435a:	2781                	sext.w	a5,a5
ffffffc05040435c:	dfe9                	beqz	a5,ffffffc050404336 <XEmacPs_PhyRead+0x7c>
ffffffc05040435e:	fc843783          	ld	a5,-56(s0)
ffffffc050404362:	679c                	ld	a5,8(a5)
ffffffc050404364:	03478793          	addi	a5,a5,52
ffffffc050404368:	853e                	mv	a0,a5
ffffffc05040436a:	ea9fe0ef          	jal	ra,ffffffc050403212 <Xil_In32>
ffffffc05040436e:	87aa                	mv	a5,a0
ffffffc050404370:	2781                	sext.w	a5,a5
ffffffc050404372:	03079713          	slli	a4,a5,0x30
ffffffc050404376:	9341                	srli	a4,a4,0x30
ffffffc050404378:	fb843783          	ld	a5,-72(s0)
ffffffc05040437c:	00e79023          	sh	a4,0(a5)
ffffffc050404380:	fe043423          	sd	zero,-24(s0)
ffffffc050404384:	fe843783          	ld	a5,-24(s0)
ffffffc050404388:	853e                	mv	a0,a5
ffffffc05040438a:	60a6                	ld	ra,72(sp)
ffffffc05040438c:	6406                	ld	s0,64(sp)
ffffffc05040438e:	6161                	addi	sp,sp,80
ffffffc050404390:	8082                	ret

ffffffc050404392 <XEmacPs_PhyWrite>:
ffffffc050404392:	715d                	addi	sp,sp,-80
ffffffc050404394:	e486                	sd	ra,72(sp)
ffffffc050404396:	e0a2                	sd	s0,64(sp)
ffffffc050404398:	0880                	addi	s0,sp,80
ffffffc05040439a:	fca43423          	sd	a0,-56(s0)
ffffffc05040439e:	87ae                	mv	a5,a1
ffffffc0504043a0:	8736                	mv	a4,a3
ffffffc0504043a2:	fcf42223          	sw	a5,-60(s0)
ffffffc0504043a6:	87b2                	mv	a5,a2
ffffffc0504043a8:	fcf42023          	sw	a5,-64(s0)
ffffffc0504043ac:	87ba                	mv	a5,a4
ffffffc0504043ae:	faf41f23          	sh	a5,-66(s0)
ffffffc0504043b2:	fc843783          	ld	a5,-56(s0)
ffffffc0504043b6:	679c                	ld	a5,8(a5)
ffffffc0504043b8:	07a1                	addi	a5,a5,8
ffffffc0504043ba:	853e                	mv	a0,a5
ffffffc0504043bc:	e57fe0ef          	jal	ra,ffffffc050403212 <Xil_In32>
ffffffc0504043c0:	87aa                	mv	a5,a0
ffffffc0504043c2:	2781                	sext.w	a5,a5
ffffffc0504043c4:	8b91                	andi	a5,a5,4
ffffffc0504043c6:	2781                	sext.w	a5,a5
ffffffc0504043c8:	e791                	bnez	a5,ffffffc0504043d4 <XEmacPs_PhyWrite+0x42>
ffffffc0504043ca:	3ec00793          	li	a5,1004
ffffffc0504043ce:	fef43423          	sd	a5,-24(s0)
ffffffc0504043d2:	a89d                	j	ffffffc050404448 <XEmacPs_PhyWrite+0xb6>
ffffffc0504043d4:	fc442783          	lw	a5,-60(s0)
ffffffc0504043d8:	0177979b          	slliw	a5,a5,0x17
ffffffc0504043dc:	0007871b          	sext.w	a4,a5
ffffffc0504043e0:	fc042783          	lw	a5,-64(s0)
ffffffc0504043e4:	0127979b          	slliw	a5,a5,0x12
ffffffc0504043e8:	2781                	sext.w	a5,a5
ffffffc0504043ea:	8fd9                	or	a5,a5,a4
ffffffc0504043ec:	0007871b          	sext.w	a4,a5
ffffffc0504043f0:	fbe45783          	lhu	a5,-66(s0)
ffffffc0504043f4:	2781                	sext.w	a5,a5
ffffffc0504043f6:	8fd9                	or	a5,a5,a4
ffffffc0504043f8:	2781                	sext.w	a5,a5
ffffffc0504043fa:	873e                	mv	a4,a5
ffffffc0504043fc:	500207b7          	lui	a5,0x50020
ffffffc050404400:	8fd9                	or	a5,a5,a4
ffffffc050404402:	fef42223          	sw	a5,-28(s0)
ffffffc050404406:	fc843783          	ld	a5,-56(s0)
ffffffc05040440a:	679c                	ld	a5,8(a5)
ffffffc05040440c:	03478793          	addi	a5,a5,52 # 50020034 <_start-0xffffffc0003dffcc>
ffffffc050404410:	fe442703          	lw	a4,-28(s0)
ffffffc050404414:	85ba                	mv	a1,a4
ffffffc050404416:	853e                	mv	a0,a5
ffffffc050404418:	dcffe0ef          	jal	ra,ffffffc0504031e6 <Xil_Out32>
ffffffc05040441c:	fc843783          	ld	a5,-56(s0)
ffffffc050404420:	679c                	ld	a5,8(a5)
ffffffc050404422:	07a1                	addi	a5,a5,8
ffffffc050404424:	853e                	mv	a0,a5
ffffffc050404426:	dedfe0ef          	jal	ra,ffffffc050403212 <Xil_In32>
ffffffc05040442a:	87aa                	mv	a5,a0
ffffffc05040442c:	2781                	sext.w	a5,a5
ffffffc05040442e:	fcf42e23          	sw	a5,-36(s0)
ffffffc050404432:	fdc42783          	lw	a5,-36(s0)
ffffffc050404436:	fef42023          	sw	a5,-32(s0)
ffffffc05040443a:	fe042783          	lw	a5,-32(s0)
ffffffc05040443e:	8b91                	andi	a5,a5,4
ffffffc050404440:	2781                	sext.w	a5,a5
ffffffc050404442:	dfe9                	beqz	a5,ffffffc05040441c <XEmacPs_PhyWrite+0x8a>
ffffffc050404444:	fe043423          	sd	zero,-24(s0)
ffffffc050404448:	fe843783          	ld	a5,-24(s0)
ffffffc05040444c:	853e                	mv	a0,a5
ffffffc05040444e:	60a6                	ld	ra,72(sp)
ffffffc050404450:	6406                	ld	s0,64(sp)
ffffffc050404452:	6161                	addi	sp,sp,80
ffffffc050404454:	8082                	ret

ffffffc050404456 <XEmacPs_DMABLengthUpdate>:
ffffffc050404456:	7179                	addi	sp,sp,-48
ffffffc050404458:	f406                	sd	ra,40(sp)
ffffffc05040445a:	f022                	sd	s0,32(sp)
ffffffc05040445c:	1800                	addi	s0,sp,48
ffffffc05040445e:	fca43c23          	sd	a0,-40(s0)
ffffffc050404462:	87ae                	mv	a5,a1
ffffffc050404464:	fcf42a23          	sw	a5,-44(s0)
ffffffc050404468:	fe042623          	sw	zero,-20(s0)
ffffffc05040446c:	fd442783          	lw	a5,-44(s0)
ffffffc050404470:	0007871b          	sext.w	a4,a5
ffffffc050404474:	47c1                	li	a5,16
ffffffc050404476:	06f70263          	beq	a4,a5,ffffffc0504044da <XEmacPs_DMABLengthUpdate+0x84>
ffffffc05040447a:	fd442783          	lw	a5,-44(s0)
ffffffc05040447e:	0007871b          	sext.w	a4,a5
ffffffc050404482:	47c1                	li	a5,16
ffffffc050404484:	04e7cf63          	blt	a5,a4,ffffffc0504044e2 <XEmacPs_DMABLengthUpdate+0x8c>
ffffffc050404488:	fd442783          	lw	a5,-44(s0)
ffffffc05040448c:	0007871b          	sext.w	a4,a5
ffffffc050404490:	47a1                	li	a5,8
ffffffc050404492:	04f70063          	beq	a4,a5,ffffffc0504044d2 <XEmacPs_DMABLengthUpdate+0x7c>
ffffffc050404496:	fd442783          	lw	a5,-44(s0)
ffffffc05040449a:	0007871b          	sext.w	a4,a5
ffffffc05040449e:	47a1                	li	a5,8
ffffffc0504044a0:	04e7c163          	blt	a5,a4,ffffffc0504044e2 <XEmacPs_DMABLengthUpdate+0x8c>
ffffffc0504044a4:	fd442783          	lw	a5,-44(s0)
ffffffc0504044a8:	0007871b          	sext.w	a4,a5
ffffffc0504044ac:	4785                	li	a5,1
ffffffc0504044ae:	00f70a63          	beq	a4,a5,ffffffc0504044c2 <XEmacPs_DMABLengthUpdate+0x6c>
ffffffc0504044b2:	fd442783          	lw	a5,-44(s0)
ffffffc0504044b6:	0007871b          	sext.w	a4,a5
ffffffc0504044ba:	4791                	li	a5,4
ffffffc0504044bc:	00f70763          	beq	a4,a5,ffffffc0504044ca <XEmacPs_DMABLengthUpdate+0x74>
ffffffc0504044c0:	a00d                	j	ffffffc0504044e2 <XEmacPs_DMABLengthUpdate+0x8c>
ffffffc0504044c2:	4785                	li	a5,1
ffffffc0504044c4:	fef42623          	sw	a5,-20(s0)
ffffffc0504044c8:	a829                	j	ffffffc0504044e2 <XEmacPs_DMABLengthUpdate+0x8c>
ffffffc0504044ca:	4791                	li	a5,4
ffffffc0504044cc:	fef42623          	sw	a5,-20(s0)
ffffffc0504044d0:	a809                	j	ffffffc0504044e2 <XEmacPs_DMABLengthUpdate+0x8c>
ffffffc0504044d2:	47a1                	li	a5,8
ffffffc0504044d4:	fef42623          	sw	a5,-20(s0)
ffffffc0504044d8:	a029                	j	ffffffc0504044e2 <XEmacPs_DMABLengthUpdate+0x8c>
ffffffc0504044da:	47c1                	li	a5,16
ffffffc0504044dc:	fef42623          	sw	a5,-20(s0)
ffffffc0504044e0:	0001                	nop
ffffffc0504044e2:	fd843783          	ld	a5,-40(s0)
ffffffc0504044e6:	679c                	ld	a5,8(a5)
ffffffc0504044e8:	07c1                	addi	a5,a5,16
ffffffc0504044ea:	853e                	mv	a0,a5
ffffffc0504044ec:	d27fe0ef          	jal	ra,ffffffc050403212 <Xil_In32>
ffffffc0504044f0:	87aa                	mv	a5,a0
ffffffc0504044f2:	fef42423          	sw	a5,-24(s0)
ffffffc0504044f6:	fe842783          	lw	a5,-24(s0)
ffffffc0504044fa:	9b81                	andi	a5,a5,-32
ffffffc0504044fc:	fef42423          	sw	a5,-24(s0)
ffffffc050404500:	fe842703          	lw	a4,-24(s0)
ffffffc050404504:	fec42783          	lw	a5,-20(s0)
ffffffc050404508:	8fd9                	or	a5,a5,a4
ffffffc05040450a:	fef42423          	sw	a5,-24(s0)
ffffffc05040450e:	fd843783          	ld	a5,-40(s0)
ffffffc050404512:	679c                	ld	a5,8(a5)
ffffffc050404514:	07c1                	addi	a5,a5,16
ffffffc050404516:	fe842703          	lw	a4,-24(s0)
ffffffc05040451a:	85ba                	mv	a1,a4
ffffffc05040451c:	853e                	mv	a0,a5
ffffffc05040451e:	cc9fe0ef          	jal	ra,ffffffc0504031e6 <Xil_Out32>
ffffffc050404522:	0001                	nop
ffffffc050404524:	70a2                	ld	ra,40(sp)
ffffffc050404526:	7402                	ld	s0,32(sp)
ffffffc050404528:	6145                	addi	sp,sp,48
ffffffc05040452a:	8082                	ret

ffffffc05040452c <writel>:
ffffffc05040452c:	1101                	addi	sp,sp,-32
ffffffc05040452e:	ec22                	sd	s0,24(sp)
ffffffc050404530:	1000                	addi	s0,sp,32
ffffffc050404532:	87aa                	mv	a5,a0
ffffffc050404534:	feb43023          	sd	a1,-32(s0)
ffffffc050404538:	fef42623          	sw	a5,-20(s0)
ffffffc05040453c:	0550000f          	fence	ow,ow
ffffffc050404540:	fe043783          	ld	a5,-32(s0)
ffffffc050404544:	fec42703          	lw	a4,-20(s0)
ffffffc050404548:	c398                	sw	a4,0(a5)
ffffffc05040454a:	0001                	nop
ffffffc05040454c:	6462                	ld	s0,24(sp)
ffffffc05040454e:	6105                	addi	sp,sp,32
ffffffc050404550:	8082                	ret

ffffffc050404552 <readl>:
ffffffc050404552:	7179                	addi	sp,sp,-48
ffffffc050404554:	f422                	sd	s0,40(sp)
ffffffc050404556:	1800                	addi	s0,sp,48
ffffffc050404558:	fca43c23          	sd	a0,-40(s0)
ffffffc05040455c:	fd843783          	ld	a5,-40(s0)
ffffffc050404560:	439c                	lw	a5,0(a5)
ffffffc050404562:	fef42623          	sw	a5,-20(s0)
ffffffc050404566:	0aa0000f          	fence	ir,ir
ffffffc05040456a:	fec42783          	lw	a5,-20(s0)
ffffffc05040456e:	853e                	mv	a0,a5
ffffffc050404570:	7422                	ld	s0,40(sp)
ffffffc050404572:	6145                	addi	sp,sp,48
ffffffc050404574:	8082                	ret

ffffffc050404576 <Xil_Out32>:
ffffffc050404576:	1101                	addi	sp,sp,-32
ffffffc050404578:	ec06                	sd	ra,24(sp)
ffffffc05040457a:	e822                	sd	s0,16(sp)
ffffffc05040457c:	1000                	addi	s0,sp,32
ffffffc05040457e:	fea43423          	sd	a0,-24(s0)
ffffffc050404582:	87ae                	mv	a5,a1
ffffffc050404584:	fef42223          	sw	a5,-28(s0)
ffffffc050404588:	fe843703          	ld	a4,-24(s0)
ffffffc05040458c:	fe442783          	lw	a5,-28(s0)
ffffffc050404590:	85ba                	mv	a1,a4
ffffffc050404592:	853e                	mv	a0,a5
ffffffc050404594:	f99ff0ef          	jal	ra,ffffffc05040452c <writel>
ffffffc050404598:	0001                	nop
ffffffc05040459a:	60e2                	ld	ra,24(sp)
ffffffc05040459c:	6442                	ld	s0,16(sp)
ffffffc05040459e:	6105                	addi	sp,sp,32
ffffffc0504045a0:	8082                	ret

ffffffc0504045a2 <Xil_In32>:
ffffffc0504045a2:	1101                	addi	sp,sp,-32
ffffffc0504045a4:	ec06                	sd	ra,24(sp)
ffffffc0504045a6:	e822                	sd	s0,16(sp)
ffffffc0504045a8:	1000                	addi	s0,sp,32
ffffffc0504045aa:	fea43423          	sd	a0,-24(s0)
ffffffc0504045ae:	fe843783          	ld	a5,-24(s0)
ffffffc0504045b2:	853e                	mv	a0,a5
ffffffc0504045b4:	f9fff0ef          	jal	ra,ffffffc050404552 <readl>
ffffffc0504045b8:	87aa                	mv	a5,a0
ffffffc0504045ba:	2781                	sext.w	a5,a5
ffffffc0504045bc:	853e                	mv	a0,a5
ffffffc0504045be:	60e2                	ld	ra,24(sp)
ffffffc0504045c0:	6442                	ld	s0,16(sp)
ffffffc0504045c2:	6105                	addi	sp,sp,32
ffffffc0504045c4:	8082                	ret

ffffffc0504045c6 <Xil_EndianSwap16>:
ffffffc0504045c6:	1101                	addi	sp,sp,-32
ffffffc0504045c8:	ec22                	sd	s0,24(sp)
ffffffc0504045ca:	1000                	addi	s0,sp,32
ffffffc0504045cc:	87aa                	mv	a5,a0
ffffffc0504045ce:	fef41723          	sh	a5,-18(s0)
ffffffc0504045d2:	fee45783          	lhu	a5,-18(s0)
ffffffc0504045d6:	0087971b          	slliw	a4,a5,0x8
ffffffc0504045da:	0107979b          	slliw	a5,a5,0x10
ffffffc0504045de:	0107d79b          	srliw	a5,a5,0x10
ffffffc0504045e2:	0087d79b          	srliw	a5,a5,0x8
ffffffc0504045e6:	8fd9                	or	a5,a5,a4
ffffffc0504045e8:	17c2                	slli	a5,a5,0x30
ffffffc0504045ea:	93c1                	srli	a5,a5,0x30
ffffffc0504045ec:	853e                	mv	a0,a5
ffffffc0504045ee:	6462                	ld	s0,24(sp)
ffffffc0504045f0:	6105                	addi	sp,sp,32
ffffffc0504045f2:	8082                	ret

ffffffc0504045f4 <EmacPsUtilFrameHdrFormatMAC>:
ffffffc0504045f4:	7139                	addi	sp,sp,-64
ffffffc0504045f6:	fc22                	sd	s0,56(sp)
ffffffc0504045f8:	0080                	addi	s0,sp,64
ffffffc0504045fa:	fca43423          	sd	a0,-56(s0)
ffffffc0504045fe:	fcb43023          	sd	a1,-64(s0)
ffffffc050404602:	fc843783          	ld	a5,-56(s0)
ffffffc050404606:	fef43423          	sd	a5,-24(s0)
ffffffc05040460a:	00026797          	auipc	a5,0x26
ffffffc05040460e:	1d678793          	addi	a5,a5,470 # ffffffc05042a7e0 <EmacPsMAC>
ffffffc050404612:	fef43023          	sd	a5,-32(s0)
ffffffc050404616:	fc042e23          	sw	zero,-36(s0)
ffffffc05040461a:	a035                	j	ffffffc050404646 <EmacPsUtilFrameHdrFormatMAC+0x52>
ffffffc05040461c:	fc043703          	ld	a4,-64(s0)
ffffffc050404620:	00170793          	addi	a5,a4,1 # 2001 <_start-0xffffffc0503fdfff>
ffffffc050404624:	fcf43023          	sd	a5,-64(s0)
ffffffc050404628:	fe843783          	ld	a5,-24(s0)
ffffffc05040462c:	00178693          	addi	a3,a5,1
ffffffc050404630:	fed43423          	sd	a3,-24(s0)
ffffffc050404634:	00074703          	lbu	a4,0(a4)
ffffffc050404638:	00e78023          	sb	a4,0(a5)
ffffffc05040463c:	fdc42783          	lw	a5,-36(s0)
ffffffc050404640:	2785                	addiw	a5,a5,1
ffffffc050404642:	fcf42e23          	sw	a5,-36(s0)
ffffffc050404646:	fdc42783          	lw	a5,-36(s0)
ffffffc05040464a:	873e                	mv	a4,a5
ffffffc05040464c:	4795                	li	a5,5
ffffffc05040464e:	fce7f7e3          	bgeu	a5,a4,ffffffc05040461c <EmacPsUtilFrameHdrFormatMAC+0x28>
ffffffc050404652:	fc042e23          	sw	zero,-36(s0)
ffffffc050404656:	a035                	j	ffffffc050404682 <EmacPsUtilFrameHdrFormatMAC+0x8e>
ffffffc050404658:	fe043703          	ld	a4,-32(s0)
ffffffc05040465c:	00170793          	addi	a5,a4,1
ffffffc050404660:	fef43023          	sd	a5,-32(s0)
ffffffc050404664:	fe843783          	ld	a5,-24(s0)
ffffffc050404668:	00178693          	addi	a3,a5,1
ffffffc05040466c:	fed43423          	sd	a3,-24(s0)
ffffffc050404670:	00074703          	lbu	a4,0(a4)
ffffffc050404674:	00e78023          	sb	a4,0(a5)
ffffffc050404678:	fdc42783          	lw	a5,-36(s0)
ffffffc05040467c:	2785                	addiw	a5,a5,1
ffffffc05040467e:	fcf42e23          	sw	a5,-36(s0)
ffffffc050404682:	fdc42783          	lw	a5,-36(s0)
ffffffc050404686:	873e                	mv	a4,a5
ffffffc050404688:	4795                	li	a5,5
ffffffc05040468a:	fce7f7e3          	bgeu	a5,a4,ffffffc050404658 <EmacPsUtilFrameHdrFormatMAC+0x64>
ffffffc05040468e:	0001                	nop
ffffffc050404690:	0001                	nop
ffffffc050404692:	7462                	ld	s0,56(sp)
ffffffc050404694:	6121                	addi	sp,sp,64
ffffffc050404696:	8082                	ret

ffffffc050404698 <EmacPsUtilFrameHdrFormatType>:
ffffffc050404698:	7179                	addi	sp,sp,-48
ffffffc05040469a:	f406                	sd	ra,40(sp)
ffffffc05040469c:	f022                	sd	s0,32(sp)
ffffffc05040469e:	1800                	addi	s0,sp,48
ffffffc0504046a0:	fca43c23          	sd	a0,-40(s0)
ffffffc0504046a4:	87ae                	mv	a5,a1
ffffffc0504046a6:	fcf41b23          	sh	a5,-42(s0)
ffffffc0504046aa:	fd843783          	ld	a5,-40(s0)
ffffffc0504046ae:	fef43423          	sd	a5,-24(s0)
ffffffc0504046b2:	fe843783          	ld	a5,-24(s0)
ffffffc0504046b6:	07b1                	addi	a5,a5,12
ffffffc0504046b8:	fef43423          	sd	a5,-24(s0)
ffffffc0504046bc:	fd645783          	lhu	a5,-42(s0)
ffffffc0504046c0:	853e                	mv	a0,a5
ffffffc0504046c2:	f05ff0ef          	jal	ra,ffffffc0504045c6 <Xil_EndianSwap16>
ffffffc0504046c6:	87aa                	mv	a5,a0
ffffffc0504046c8:	fcf41b23          	sh	a5,-42(s0)
ffffffc0504046cc:	fe843783          	ld	a5,-24(s0)
ffffffc0504046d0:	fd645703          	lhu	a4,-42(s0)
ffffffc0504046d4:	00e79023          	sh	a4,0(a5)
ffffffc0504046d8:	0001                	nop
ffffffc0504046da:	70a2                	ld	ra,40(sp)
ffffffc0504046dc:	7402                	ld	s0,32(sp)
ffffffc0504046de:	6145                	addi	sp,sp,48
ffffffc0504046e0:	8082                	ret

ffffffc0504046e2 <EmacPsUtilFrameSetPayloadData>:
ffffffc0504046e2:	7139                	addi	sp,sp,-64
ffffffc0504046e4:	fc22                	sd	s0,56(sp)
ffffffc0504046e6:	0080                	addi	s0,sp,64
ffffffc0504046e8:	fca43423          	sd	a0,-56(s0)
ffffffc0504046ec:	87ae                	mv	a5,a1
ffffffc0504046ee:	fcf42223          	sw	a5,-60(s0)
ffffffc0504046f2:	fc442783          	lw	a5,-60(s0)
ffffffc0504046f6:	fef42623          	sw	a5,-20(s0)
ffffffc0504046fa:	fc041f23          	sh	zero,-34(s0)
ffffffc0504046fe:	fc843783          	ld	a5,-56(s0)
ffffffc050404702:	07b9                	addi	a5,a5,14
ffffffc050404704:	fef43023          	sd	a5,-32(s0)
ffffffc050404708:	a035                	j	ffffffc050404734 <EmacPsUtilFrameSetPayloadData+0x52>
ffffffc05040470a:	fde45703          	lhu	a4,-34(s0)
ffffffc05040470e:	0017079b          	addiw	a5,a4,1
ffffffc050404712:	fcf41f23          	sh	a5,-34(s0)
ffffffc050404716:	fe043783          	ld	a5,-32(s0)
ffffffc05040471a:	00178693          	addi	a3,a5,1
ffffffc05040471e:	fed43023          	sd	a3,-32(s0)
ffffffc050404722:	0ff77713          	andi	a4,a4,255
ffffffc050404726:	00e78023          	sb	a4,0(a5)
ffffffc05040472a:	fec42783          	lw	a5,-20(s0)
ffffffc05040472e:	37fd                	addiw	a5,a5,-1
ffffffc050404730:	fef42623          	sw	a5,-20(s0)
ffffffc050404734:	fec42783          	lw	a5,-20(s0)
ffffffc050404738:	2781                	sext.w	a5,a5
ffffffc05040473a:	cbad                	beqz	a5,ffffffc0504047ac <EmacPsUtilFrameSetPayloadData+0xca>
ffffffc05040473c:	fde45783          	lhu	a5,-34(s0)
ffffffc050404740:	0007871b          	sext.w	a4,a5
ffffffc050404744:	0ff00793          	li	a5,255
ffffffc050404748:	fce7f1e3          	bgeu	a5,a4,ffffffc05040470a <EmacPsUtilFrameSetPayloadData+0x28>
ffffffc05040474c:	a085                	j	ffffffc0504047ac <EmacPsUtilFrameSetPayloadData+0xca>
ffffffc05040474e:	fde45783          	lhu	a5,-34(s0)
ffffffc050404752:	0087d79b          	srliw	a5,a5,0x8
ffffffc050404756:	03079693          	slli	a3,a5,0x30
ffffffc05040475a:	92c1                	srli	a3,a3,0x30
ffffffc05040475c:	fe043783          	ld	a5,-32(s0)
ffffffc050404760:	00178713          	addi	a4,a5,1
ffffffc050404764:	fee43023          	sd	a4,-32(s0)
ffffffc050404768:	0ff6f713          	andi	a4,a3,255
ffffffc05040476c:	00e78023          	sb	a4,0(a5)
ffffffc050404770:	fec42783          	lw	a5,-20(s0)
ffffffc050404774:	37fd                	addiw	a5,a5,-1
ffffffc050404776:	fef42623          	sw	a5,-20(s0)
ffffffc05040477a:	fec42783          	lw	a5,-20(s0)
ffffffc05040477e:	2781                	sext.w	a5,a5
ffffffc050404780:	cb9d                	beqz	a5,ffffffc0504047b6 <EmacPsUtilFrameSetPayloadData+0xd4>
ffffffc050404782:	fde45703          	lhu	a4,-34(s0)
ffffffc050404786:	0017079b          	addiw	a5,a4,1
ffffffc05040478a:	fcf41f23          	sh	a5,-34(s0)
ffffffc05040478e:	fe043783          	ld	a5,-32(s0)
ffffffc050404792:	00178693          	addi	a3,a5,1
ffffffc050404796:	fed43023          	sd	a3,-32(s0)
ffffffc05040479a:	0ff77713          	andi	a4,a4,255
ffffffc05040479e:	00e78023          	sb	a4,0(a5)
ffffffc0504047a2:	fec42783          	lw	a5,-20(s0)
ffffffc0504047a6:	37fd                	addiw	a5,a5,-1
ffffffc0504047a8:	fef42623          	sw	a5,-20(s0)
ffffffc0504047ac:	fec42783          	lw	a5,-20(s0)
ffffffc0504047b0:	2781                	sext.w	a5,a5
ffffffc0504047b2:	ffd1                	bnez	a5,ffffffc05040474e <EmacPsUtilFrameSetPayloadData+0x6c>
ffffffc0504047b4:	a011                	j	ffffffc0504047b8 <EmacPsUtilFrameSetPayloadData+0xd6>
ffffffc0504047b6:	0001                	nop
ffffffc0504047b8:	0001                	nop
ffffffc0504047ba:	7462                	ld	s0,56(sp)
ffffffc0504047bc:	6121                	addi	sp,sp,64
ffffffc0504047be:	8082                	ret

ffffffc0504047c0 <EmacPsUtilFrameVerify>:
ffffffc0504047c0:	7139                	addi	sp,sp,-64
ffffffc0504047c2:	fc06                	sd	ra,56(sp)
ffffffc0504047c4:	f822                	sd	s0,48(sp)
ffffffc0504047c6:	0080                	addi	s0,sp,64
ffffffc0504047c8:	fca43423          	sd	a0,-56(s0)
ffffffc0504047cc:	fcb43023          	sd	a1,-64(s0)
ffffffc0504047d0:	fc843783          	ld	a5,-56(s0)
ffffffc0504047d4:	fcf43c23          	sd	a5,-40(s0)
ffffffc0504047d8:	fc043783          	ld	a5,-64(s0)
ffffffc0504047dc:	fef43423          	sd	a5,-24(s0)
ffffffc0504047e0:	fe843783          	ld	a5,-24(s0)
ffffffc0504047e4:	00c7d783          	lhu	a5,12(a5)
ffffffc0504047e8:	fef41323          	sh	a5,-26(s0)
ffffffc0504047ec:	fe645783          	lhu	a5,-26(s0)
ffffffc0504047f0:	853e                	mv	a0,a5
ffffffc0504047f2:	dd5ff0ef          	jal	ra,ffffffc0504045c6 <Xil_EndianSwap16>
ffffffc0504047f6:	87aa                	mv	a5,a0
ffffffc0504047f8:	fef41323          	sh	a5,-26(s0)
ffffffc0504047fc:	fe041223          	sh	zero,-28(s0)
ffffffc050404800:	fe843783          	ld	a5,-24(s0)
ffffffc050404804:	07b9                	addi	a5,a5,14
ffffffc050404806:	fef43423          	sd	a5,-24(s0)
ffffffc05040480a:	a81d                	j	ffffffc050404840 <EmacPsUtilFrameVerify+0x80>
ffffffc05040480c:	fe843783          	ld	a5,-24(s0)
ffffffc050404810:	00178713          	addi	a4,a5,1
ffffffc050404814:	fee43423          	sd	a4,-24(s0)
ffffffc050404818:	0007c683          	lbu	a3,0(a5)
ffffffc05040481c:	fe445783          	lhu	a5,-28(s0)
ffffffc050404820:	0017871b          	addiw	a4,a5,1
ffffffc050404824:	fee41223          	sh	a4,-28(s0)
ffffffc050404828:	0ff7f793          	andi	a5,a5,255
ffffffc05040482c:	8736                	mv	a4,a3
ffffffc05040482e:	00f70463          	beq	a4,a5,ffffffc050404836 <EmacPsUtilFrameVerify+0x76>
ffffffc050404832:	4785                	li	a5,1
ffffffc050404834:	a04d                	j	ffffffc0504048d6 <EmacPsUtilFrameVerify+0x116>
ffffffc050404836:	fe645783          	lhu	a5,-26(s0)
ffffffc05040483a:	37fd                	addiw	a5,a5,-1
ffffffc05040483c:	fef41323          	sh	a5,-26(s0)
ffffffc050404840:	fe645783          	lhu	a5,-26(s0)
ffffffc050404844:	2781                	sext.w	a5,a5
ffffffc050404846:	c3c9                	beqz	a5,ffffffc0504048c8 <EmacPsUtilFrameVerify+0x108>
ffffffc050404848:	fe445783          	lhu	a5,-28(s0)
ffffffc05040484c:	0007871b          	sext.w	a4,a5
ffffffc050404850:	0ff00793          	li	a5,255
ffffffc050404854:	fae7fce3          	bgeu	a5,a4,ffffffc05040480c <EmacPsUtilFrameVerify+0x4c>
ffffffc050404858:	a885                	j	ffffffc0504048c8 <EmacPsUtilFrameVerify+0x108>
ffffffc05040485a:	fe843783          	ld	a5,-24(s0)
ffffffc05040485e:	00178713          	addi	a4,a5,1
ffffffc050404862:	fee43423          	sd	a4,-24(s0)
ffffffc050404866:	0007c703          	lbu	a4,0(a5)
ffffffc05040486a:	fe445783          	lhu	a5,-28(s0)
ffffffc05040486e:	0087d79b          	srliw	a5,a5,0x8
ffffffc050404872:	17c2                	slli	a5,a5,0x30
ffffffc050404874:	93c1                	srli	a5,a5,0x30
ffffffc050404876:	0ff7f793          	andi	a5,a5,255
ffffffc05040487a:	00f70463          	beq	a4,a5,ffffffc050404882 <EmacPsUtilFrameVerify+0xc2>
ffffffc05040487e:	4785                	li	a5,1
ffffffc050404880:	a899                	j	ffffffc0504048d6 <EmacPsUtilFrameVerify+0x116>
ffffffc050404882:	fe645783          	lhu	a5,-26(s0)
ffffffc050404886:	37fd                	addiw	a5,a5,-1
ffffffc050404888:	fef41323          	sh	a5,-26(s0)
ffffffc05040488c:	fe645783          	lhu	a5,-26(s0)
ffffffc050404890:	2781                	sext.w	a5,a5
ffffffc050404892:	c3a1                	beqz	a5,ffffffc0504048d2 <EmacPsUtilFrameVerify+0x112>
ffffffc050404894:	fe843783          	ld	a5,-24(s0)
ffffffc050404898:	00178713          	addi	a4,a5,1
ffffffc05040489c:	fee43423          	sd	a4,-24(s0)
ffffffc0504048a0:	0007c683          	lbu	a3,0(a5)
ffffffc0504048a4:	fe445783          	lhu	a5,-28(s0)
ffffffc0504048a8:	0017871b          	addiw	a4,a5,1
ffffffc0504048ac:	fee41223          	sh	a4,-28(s0)
ffffffc0504048b0:	0ff7f793          	andi	a5,a5,255
ffffffc0504048b4:	8736                	mv	a4,a3
ffffffc0504048b6:	00f70463          	beq	a4,a5,ffffffc0504048be <EmacPsUtilFrameVerify+0xfe>
ffffffc0504048ba:	4785                	li	a5,1
ffffffc0504048bc:	a829                	j	ffffffc0504048d6 <EmacPsUtilFrameVerify+0x116>
ffffffc0504048be:	fe645783          	lhu	a5,-26(s0)
ffffffc0504048c2:	37fd                	addiw	a5,a5,-1
ffffffc0504048c4:	fef41323          	sh	a5,-26(s0)
ffffffc0504048c8:	fe645783          	lhu	a5,-26(s0)
ffffffc0504048cc:	2781                	sext.w	a5,a5
ffffffc0504048ce:	f7d1                	bnez	a5,ffffffc05040485a <EmacPsUtilFrameVerify+0x9a>
ffffffc0504048d0:	a011                	j	ffffffc0504048d4 <EmacPsUtilFrameVerify+0x114>
ffffffc0504048d2:	0001                	nop
ffffffc0504048d4:	4781                	li	a5,0
ffffffc0504048d6:	853e                	mv	a0,a5
ffffffc0504048d8:	70e2                	ld	ra,56(sp)
ffffffc0504048da:	7442                	ld	s0,48(sp)
ffffffc0504048dc:	6121                	addi	sp,sp,64
ffffffc0504048de:	8082                	ret

ffffffc0504048e0 <EmacPsUtilFrameMemClear>:
ffffffc0504048e0:	7179                	addi	sp,sp,-48
ffffffc0504048e2:	f422                	sd	s0,40(sp)
ffffffc0504048e4:	1800                	addi	s0,sp,48
ffffffc0504048e6:	fca43c23          	sd	a0,-40(s0)
ffffffc0504048ea:	fd843783          	ld	a5,-40(s0)
ffffffc0504048ee:	fef43423          	sd	a5,-24(s0)
ffffffc0504048f2:	18000793          	li	a5,384
ffffffc0504048f6:	fef42223          	sw	a5,-28(s0)
ffffffc0504048fa:	a821                	j	ffffffc050404912 <EmacPsUtilFrameMemClear+0x32>
ffffffc0504048fc:	fe843783          	ld	a5,-24(s0)
ffffffc050404900:	00478713          	addi	a4,a5,4
ffffffc050404904:	fee43423          	sd	a4,-24(s0)
ffffffc050404908:	deadc737          	lui	a4,0xdeadc
ffffffc05040490c:	eef70713          	addi	a4,a4,-273 # ffffffffdeadbeef <__BSS_END__+0x3f8ded98ef>
ffffffc050404910:	c398                	sw	a4,0(a5)
ffffffc050404912:	fe442783          	lw	a5,-28(s0)
ffffffc050404916:	fff7871b          	addiw	a4,a5,-1
ffffffc05040491a:	fee42223          	sw	a4,-28(s0)
ffffffc05040491e:	fff9                	bnez	a5,ffffffc0504048fc <EmacPsUtilFrameMemClear+0x1c>
ffffffc050404920:	0001                	nop
ffffffc050404922:	0001                	nop
ffffffc050404924:	7422                	ld	s0,40(sp)
ffffffc050404926:	6145                	addi	sp,sp,48
ffffffc050404928:	8082                	ret

ffffffc05040492a <EmacPsUtilstrncpy>:
ffffffc05040492a:	7179                	addi	sp,sp,-48
ffffffc05040492c:	f422                	sd	s0,40(sp)
ffffffc05040492e:	1800                	addi	s0,sp,48
ffffffc050404930:	fea43423          	sd	a0,-24(s0)
ffffffc050404934:	feb43023          	sd	a1,-32(s0)
ffffffc050404938:	87b2                	mv	a5,a2
ffffffc05040493a:	fcf42e23          	sw	a5,-36(s0)
ffffffc05040493e:	fe043703          	ld	a4,-32(s0)
ffffffc050404942:	00170793          	addi	a5,a4,1
ffffffc050404946:	fef43023          	sd	a5,-32(s0)
ffffffc05040494a:	fe843783          	ld	a5,-24(s0)
ffffffc05040494e:	00178693          	addi	a3,a5,1
ffffffc050404952:	fed43423          	sd	a3,-24(s0)
ffffffc050404956:	00074703          	lbu	a4,0(a4)
ffffffc05040495a:	00e78023          	sb	a4,0(a5)
ffffffc05040495e:	fdc42783          	lw	a5,-36(s0)
ffffffc050404962:	37fd                	addiw	a5,a5,-1
ffffffc050404964:	fcf42e23          	sw	a5,-36(s0)
ffffffc050404968:	fdc42783          	lw	a5,-36(s0)
ffffffc05040496c:	2781                	sext.w	a5,a5
ffffffc05040496e:	fbe1                	bnez	a5,ffffffc05040493e <EmacPsUtilstrncpy+0x14>
ffffffc050404970:	0001                	nop
ffffffc050404972:	0001                	nop
ffffffc050404974:	7422                	ld	s0,40(sp)
ffffffc050404976:	6145                	addi	sp,sp,48
ffffffc050404978:	8082                	ret

ffffffc05040497a <EmacPsUtilEnterLocalLoopback>:
ffffffc05040497a:	7179                	addi	sp,sp,-48
ffffffc05040497c:	f406                	sd	ra,40(sp)
ffffffc05040497e:	f022                	sd	s0,32(sp)
ffffffc050404980:	1800                	addi	s0,sp,48
ffffffc050404982:	fca43c23          	sd	a0,-40(s0)
ffffffc050404986:	fd843783          	ld	a5,-40(s0)
ffffffc05040498a:	679c                	ld	a5,8(a5)
ffffffc05040498c:	853e                	mv	a0,a5
ffffffc05040498e:	c15ff0ef          	jal	ra,ffffffc0504045a2 <Xil_In32>
ffffffc050404992:	87aa                	mv	a5,a0
ffffffc050404994:	fef42623          	sw	a5,-20(s0)
ffffffc050404998:	fd843783          	ld	a5,-40(s0)
ffffffc05040499c:	6798                	ld	a4,8(a5)
ffffffc05040499e:	fec42783          	lw	a5,-20(s0)
ffffffc0504049a2:	0027e793          	ori	a5,a5,2
ffffffc0504049a6:	2781                	sext.w	a5,a5
ffffffc0504049a8:	85be                	mv	a1,a5
ffffffc0504049aa:	853a                	mv	a0,a4
ffffffc0504049ac:	bcbff0ef          	jal	ra,ffffffc050404576 <Xil_Out32>
ffffffc0504049b0:	0001                	nop
ffffffc0504049b2:	70a2                	ld	ra,40(sp)
ffffffc0504049b4:	7402                	ld	s0,32(sp)
ffffffc0504049b6:	6145                	addi	sp,sp,48
ffffffc0504049b8:	8082                	ret

ffffffc0504049ba <XEmacPsDetectPHY>:
ffffffc0504049ba:	7179                	addi	sp,sp,-48
ffffffc0504049bc:	f406                	sd	ra,40(sp)
ffffffc0504049be:	f022                	sd	s0,32(sp)
ffffffc0504049c0:	1800                	addi	s0,sp,48
ffffffc0504049c2:	fca43c23          	sd	a0,-40(s0)
ffffffc0504049c6:	fe042623          	sw	zero,-20(s0)
ffffffc0504049ca:	a069                	j	ffffffc050404a54 <XEmacPsDetectPHY+0x9a>
ffffffc0504049cc:	fe640713          	addi	a4,s0,-26
ffffffc0504049d0:	fec42783          	lw	a5,-20(s0)
ffffffc0504049d4:	86ba                	mv	a3,a4
ffffffc0504049d6:	4609                	li	a2,2
ffffffc0504049d8:	85be                	mv	a1,a5
ffffffc0504049da:	fd843503          	ld	a0,-40(s0)
ffffffc0504049de:	8ddff0ef          	jal	ra,ffffffc0504042ba <XEmacPs_PhyRead>
ffffffc0504049e2:	87aa                	mv	a5,a0
ffffffc0504049e4:	fef42423          	sw	a5,-24(s0)
ffffffc0504049e8:	fe440713          	addi	a4,s0,-28
ffffffc0504049ec:	fec42783          	lw	a5,-20(s0)
ffffffc0504049f0:	86ba                	mv	a3,a4
ffffffc0504049f2:	460d                	li	a2,3
ffffffc0504049f4:	85be                	mv	a1,a5
ffffffc0504049f6:	fd843503          	ld	a0,-40(s0)
ffffffc0504049fa:	8c1ff0ef          	jal	ra,ffffffc0504042ba <XEmacPs_PhyRead>
ffffffc0504049fe:	87aa                	mv	a5,a0
ffffffc050404a00:	0007871b          	sext.w	a4,a5
ffffffc050404a04:	fe842783          	lw	a5,-24(s0)
ffffffc050404a08:	8fd9                	or	a5,a5,a4
ffffffc050404a0a:	2781                	sext.w	a5,a5
ffffffc050404a0c:	fef42423          	sw	a5,-24(s0)
ffffffc050404a10:	fe842783          	lw	a5,-24(s0)
ffffffc050404a14:	2781                	sext.w	a5,a5
ffffffc050404a16:	eb95                	bnez	a5,ffffffc050404a4a <XEmacPsDetectPHY+0x90>
ffffffc050404a18:	fe645783          	lhu	a5,-26(s0)
ffffffc050404a1c:	c79d                	beqz	a5,ffffffc050404a4a <XEmacPsDetectPHY+0x90>
ffffffc050404a1e:	fe645783          	lhu	a5,-26(s0)
ffffffc050404a22:	0007871b          	sext.w	a4,a5
ffffffc050404a26:	67c1                	lui	a5,0x10
ffffffc050404a28:	17fd                	addi	a5,a5,-1
ffffffc050404a2a:	02f70063          	beq	a4,a5,ffffffc050404a4a <XEmacPsDetectPHY+0x90>
ffffffc050404a2e:	fe445783          	lhu	a5,-28(s0)
ffffffc050404a32:	cf81                	beqz	a5,ffffffc050404a4a <XEmacPsDetectPHY+0x90>
ffffffc050404a34:	fe445783          	lhu	a5,-28(s0)
ffffffc050404a38:	0007871b          	sext.w	a4,a5
ffffffc050404a3c:	67c1                	lui	a5,0x10
ffffffc050404a3e:	17fd                	addi	a5,a5,-1
ffffffc050404a40:	00f70563          	beq	a4,a5,ffffffc050404a4a <XEmacPsDetectPHY+0x90>
ffffffc050404a44:	fec42783          	lw	a5,-20(s0)
ffffffc050404a48:	a839                	j	ffffffc050404a66 <XEmacPsDetectPHY+0xac>
ffffffc050404a4a:	fec42783          	lw	a5,-20(s0)
ffffffc050404a4e:	2785                	addiw	a5,a5,1
ffffffc050404a50:	fef42623          	sw	a5,-20(s0)
ffffffc050404a54:	fec42783          	lw	a5,-20(s0)
ffffffc050404a58:	0007871b          	sext.w	a4,a5
ffffffc050404a5c:	47fd                	li	a5,31
ffffffc050404a5e:	f6e7f7e3          	bgeu	a5,a4,ffffffc0504049cc <XEmacPsDetectPHY+0x12>
ffffffc050404a62:	fec42783          	lw	a5,-20(s0)
ffffffc050404a66:	853e                	mv	a0,a5
ffffffc050404a68:	70a2                	ld	ra,40(sp)
ffffffc050404a6a:	7402                	ld	s0,32(sp)
ffffffc050404a6c:	6145                	addi	sp,sp,48
ffffffc050404a6e:	8082                	ret

ffffffc050404a70 <EmacPsUtilMarvellPhyLoopback>:
ffffffc050404a70:	7139                	addi	sp,sp,-64
ffffffc050404a72:	fc06                	sd	ra,56(sp)
ffffffc050404a74:	f822                	sd	s0,48(sp)
ffffffc050404a76:	0080                	addi	s0,sp,64
ffffffc050404a78:	fca43423          	sd	a0,-56(s0)
ffffffc050404a7c:	87ae                	mv	a5,a1
ffffffc050404a7e:	8732                	mv	a4,a2
ffffffc050404a80:	fcf42223          	sw	a5,-60(s0)
ffffffc050404a84:	87ba                	mv	a5,a4
ffffffc050404a86:	fcf42023          	sw	a5,-64(s0)
ffffffc050404a8a:	fc041f23          	sh	zero,-34(s0)
ffffffc050404a8e:	fc041e23          	sh	zero,-36(s0)
ffffffc050404a92:	fe041723          	sh	zero,-18(s0)
ffffffc050404a96:	fc442783          	lw	a5,-60(s0)
ffffffc050404a9a:	0007871b          	sext.w	a4,a5
ffffffc050404a9e:	3e800793          	li	a5,1000
ffffffc050404aa2:	08f70063          	beq	a4,a5,ffffffc050404b22 <EmacPsUtilMarvellPhyLoopback+0xb2>
ffffffc050404aa6:	fc442783          	lw	a5,-60(s0)
ffffffc050404aaa:	0007871b          	sext.w	a4,a5
ffffffc050404aae:	3e800793          	li	a5,1000
ffffffc050404ab2:	08e7e963          	bltu	a5,a4,ffffffc050404b44 <EmacPsUtilMarvellPhyLoopback+0xd4>
ffffffc050404ab6:	fc442783          	lw	a5,-60(s0)
ffffffc050404aba:	0007871b          	sext.w	a4,a5
ffffffc050404abe:	47a9                	li	a5,10
ffffffc050404ac0:	00f70b63          	beq	a4,a5,ffffffc050404ad6 <EmacPsUtilMarvellPhyLoopback+0x66>
ffffffc050404ac4:	fc442783          	lw	a5,-60(s0)
ffffffc050404ac8:	0007871b          	sext.w	a4,a5
ffffffc050404acc:	06400793          	li	a5,100
ffffffc050404ad0:	02f70463          	beq	a4,a5,ffffffc050404af8 <EmacPsUtilMarvellPhyLoopback+0x88>
ffffffc050404ad4:	a885                	j	ffffffc050404b44 <EmacPsUtilMarvellPhyLoopback+0xd4>
ffffffc050404ad6:	fde45783          	lhu	a5,-34(s0)
ffffffc050404ada:	1007e793          	ori	a5,a5,256
ffffffc050404ade:	17c2                	slli	a5,a5,0x30
ffffffc050404ae0:	93c1                	srli	a5,a5,0x30
ffffffc050404ae2:	fcf41f23          	sh	a5,-34(s0)
ffffffc050404ae6:	fdc45783          	lhu	a5,-36(s0)
ffffffc050404aea:	0307e793          	ori	a5,a5,48
ffffffc050404aee:	17c2                	slli	a5,a5,0x30
ffffffc050404af0:	93c1                	srli	a5,a5,0x30
ffffffc050404af2:	fcf41e23          	sh	a5,-36(s0)
ffffffc050404af6:	a8b9                	j	ffffffc050404b54 <EmacPsUtilMarvellPhyLoopback+0xe4>
ffffffc050404af8:	fde45703          	lhu	a4,-34(s0)
ffffffc050404afc:	6789                	lui	a5,0x2
ffffffc050404afe:	10078793          	addi	a5,a5,256 # 2100 <_start-0xffffffc0503fdf00>
ffffffc050404b02:	8fd9                	or	a5,a5,a4
ffffffc050404b04:	17c2                	slli	a5,a5,0x30
ffffffc050404b06:	93c1                	srli	a5,a5,0x30
ffffffc050404b08:	fcf41f23          	sh	a5,-34(s0)
ffffffc050404b0c:	fdc45703          	lhu	a4,-36(s0)
ffffffc050404b10:	6789                	lui	a5,0x2
ffffffc050404b12:	03078793          	addi	a5,a5,48 # 2030 <_start-0xffffffc0503fdfd0>
ffffffc050404b16:	8fd9                	or	a5,a5,a4
ffffffc050404b18:	17c2                	slli	a5,a5,0x30
ffffffc050404b1a:	93c1                	srli	a5,a5,0x30
ffffffc050404b1c:	fcf41e23          	sh	a5,-36(s0)
ffffffc050404b20:	a815                	j	ffffffc050404b54 <EmacPsUtilMarvellPhyLoopback+0xe4>
ffffffc050404b22:	fde45783          	lhu	a5,-34(s0)
ffffffc050404b26:	1407e793          	ori	a5,a5,320
ffffffc050404b2a:	17c2                	slli	a5,a5,0x30
ffffffc050404b2c:	93c1                	srli	a5,a5,0x30
ffffffc050404b2e:	fcf41f23          	sh	a5,-34(s0)
ffffffc050404b32:	fdc45783          	lhu	a5,-36(s0)
ffffffc050404b36:	0707e793          	ori	a5,a5,112
ffffffc050404b3a:	17c2                	slli	a5,a5,0x30
ffffffc050404b3c:	93c1                	srli	a5,a5,0x30
ffffffc050404b3e:	fcf41e23          	sh	a5,-36(s0)
ffffffc050404b42:	a809                	j	ffffffc050404b54 <EmacPsUtilMarvellPhyLoopback+0xe4>
ffffffc050404b44:	00008517          	auipc	a0,0x8
ffffffc050404b48:	3e450513          	addi	a0,a0,996 # ffffffc05040cf28 <__FUNCTION__.1870+0x68>
ffffffc050404b4c:	79b000ef          	jal	ra,ffffffc050405ae6 <EmacPsUtilErrorTrap>
ffffffc050404b50:	4785                	li	a5,1
ffffffc050404b52:	a26d                	j	ffffffc050404cfc <EmacPsUtilMarvellPhyLoopback+0x28c>
ffffffc050404b54:	fde45703          	lhu	a4,-34(s0)
ffffffc050404b58:	fc042783          	lw	a5,-64(s0)
ffffffc050404b5c:	86ba                	mv	a3,a4
ffffffc050404b5e:	4601                	li	a2,0
ffffffc050404b60:	85be                	mv	a1,a5
ffffffc050404b62:	fc843503          	ld	a0,-56(s0)
ffffffc050404b66:	82dff0ef          	jal	ra,ffffffc050404392 <XEmacPs_PhyWrite>
ffffffc050404b6a:	fea43023          	sd	a0,-32(s0)
ffffffc050404b6e:	fde40713          	addi	a4,s0,-34
ffffffc050404b72:	fc042783          	lw	a5,-64(s0)
ffffffc050404b76:	86ba                	mv	a3,a4
ffffffc050404b78:	4601                	li	a2,0
ffffffc050404b7a:	85be                	mv	a1,a5
ffffffc050404b7c:	fc843503          	ld	a0,-56(s0)
ffffffc050404b80:	f3aff0ef          	jal	ra,ffffffc0504042ba <XEmacPs_PhyRead>
ffffffc050404b84:	fea43023          	sd	a0,-32(s0)
ffffffc050404b88:	fe043783          	ld	a5,-32(s0)
ffffffc050404b8c:	cb89                	beqz	a5,ffffffc050404b9e <EmacPsUtilMarvellPhyLoopback+0x12e>
ffffffc050404b8e:	00008517          	auipc	a0,0x8
ffffffc050404b92:	3ba50513          	addi	a0,a0,954 # ffffffc05040cf48 <__FUNCTION__.1870+0x88>
ffffffc050404b96:	751000ef          	jal	ra,ffffffc050405ae6 <EmacPsUtilErrorTrap>
ffffffc050404b9a:	4785                	li	a5,1
ffffffc050404b9c:	a285                	j	ffffffc050404cfc <EmacPsUtilMarvellPhyLoopback+0x28c>
ffffffc050404b9e:	4789                	li	a5,2
ffffffc050404ba0:	fef41723          	sh	a5,-18(s0)
ffffffc050404ba4:	fee45703          	lhu	a4,-18(s0)
ffffffc050404ba8:	fc042783          	lw	a5,-64(s0)
ffffffc050404bac:	86ba                	mv	a3,a4
ffffffc050404bae:	4659                	li	a2,22
ffffffc050404bb0:	85be                	mv	a1,a5
ffffffc050404bb2:	fc843503          	ld	a0,-56(s0)
ffffffc050404bb6:	fdcff0ef          	jal	ra,ffffffc050404392 <XEmacPs_PhyWrite>
ffffffc050404bba:	fea43023          	sd	a0,-32(s0)
ffffffc050404bbe:	fdc45703          	lhu	a4,-36(s0)
ffffffc050404bc2:	fc042783          	lw	a5,-64(s0)
ffffffc050404bc6:	86ba                	mv	a3,a4
ffffffc050404bc8:	4655                	li	a2,21
ffffffc050404bca:	85be                	mv	a1,a5
ffffffc050404bcc:	fc843503          	ld	a0,-56(s0)
ffffffc050404bd0:	fc2ff0ef          	jal	ra,ffffffc050404392 <XEmacPs_PhyWrite>
ffffffc050404bd4:	fea43023          	sd	a0,-32(s0)
ffffffc050404bd8:	fdc40713          	addi	a4,s0,-36
ffffffc050404bdc:	fc042783          	lw	a5,-64(s0)
ffffffc050404be0:	86ba                	mv	a3,a4
ffffffc050404be2:	4655                	li	a2,21
ffffffc050404be4:	85be                	mv	a1,a5
ffffffc050404be6:	fc843503          	ld	a0,-56(s0)
ffffffc050404bea:	ed0ff0ef          	jal	ra,ffffffc0504042ba <XEmacPs_PhyRead>
ffffffc050404bee:	fea43023          	sd	a0,-32(s0)
ffffffc050404bf2:	fe043783          	ld	a5,-32(s0)
ffffffc050404bf6:	cb89                	beqz	a5,ffffffc050404c08 <EmacPsUtilMarvellPhyLoopback+0x198>
ffffffc050404bf8:	00008517          	auipc	a0,0x8
ffffffc050404bfc:	36850513          	addi	a0,a0,872 # ffffffc05040cf60 <__FUNCTION__.1870+0xa0>
ffffffc050404c00:	6e7000ef          	jal	ra,ffffffc050405ae6 <EmacPsUtilErrorTrap>
ffffffc050404c04:	4785                	li	a5,1
ffffffc050404c06:	a8dd                	j	ffffffc050404cfc <EmacPsUtilMarvellPhyLoopback+0x28c>
ffffffc050404c08:	fe041723          	sh	zero,-18(s0)
ffffffc050404c0c:	fee45703          	lhu	a4,-18(s0)
ffffffc050404c10:	fc042783          	lw	a5,-64(s0)
ffffffc050404c14:	86ba                	mv	a3,a4
ffffffc050404c16:	4659                	li	a2,22
ffffffc050404c18:	85be                	mv	a1,a5
ffffffc050404c1a:	fc843503          	ld	a0,-56(s0)
ffffffc050404c1e:	f74ff0ef          	jal	ra,ffffffc050404392 <XEmacPs_PhyWrite>
ffffffc050404c22:	fea43023          	sd	a0,-32(s0)
ffffffc050404c26:	fde40713          	addi	a4,s0,-34
ffffffc050404c2a:	fc042783          	lw	a5,-64(s0)
ffffffc050404c2e:	86ba                	mv	a3,a4
ffffffc050404c30:	4601                	li	a2,0
ffffffc050404c32:	85be                	mv	a1,a5
ffffffc050404c34:	fc843503          	ld	a0,-56(s0)
ffffffc050404c38:	e82ff0ef          	jal	ra,ffffffc0504042ba <XEmacPs_PhyRead>
ffffffc050404c3c:	fea43023          	sd	a0,-32(s0)
ffffffc050404c40:	fde45703          	lhu	a4,-34(s0)
ffffffc050404c44:	77e1                	lui	a5,0xffff8
ffffffc050404c46:	8fd9                	or	a5,a5,a4
ffffffc050404c48:	17c2                	slli	a5,a5,0x30
ffffffc050404c4a:	93c1                	srli	a5,a5,0x30
ffffffc050404c4c:	fcf41f23          	sh	a5,-34(s0)
ffffffc050404c50:	fde45703          	lhu	a4,-34(s0)
ffffffc050404c54:	fc042783          	lw	a5,-64(s0)
ffffffc050404c58:	86ba                	mv	a3,a4
ffffffc050404c5a:	4601                	li	a2,0
ffffffc050404c5c:	85be                	mv	a1,a5
ffffffc050404c5e:	fc843503          	ld	a0,-56(s0)
ffffffc050404c62:	f30ff0ef          	jal	ra,ffffffc050404392 <XEmacPs_PhyWrite>
ffffffc050404c66:	fea43023          	sd	a0,-32(s0)
ffffffc050404c6a:	fde40713          	addi	a4,s0,-34
ffffffc050404c6e:	fc042783          	lw	a5,-64(s0)
ffffffc050404c72:	86ba                	mv	a3,a4
ffffffc050404c74:	4601                	li	a2,0
ffffffc050404c76:	85be                	mv	a1,a5
ffffffc050404c78:	fc843503          	ld	a0,-56(s0)
ffffffc050404c7c:	e3eff0ef          	jal	ra,ffffffc0504042ba <XEmacPs_PhyRead>
ffffffc050404c80:	fea43023          	sd	a0,-32(s0)
ffffffc050404c84:	fe043783          	ld	a5,-32(s0)
ffffffc050404c88:	cb89                	beqz	a5,ffffffc050404c9a <EmacPsUtilMarvellPhyLoopback+0x22a>
ffffffc050404c8a:	00008517          	auipc	a0,0x8
ffffffc050404c8e:	2f650513          	addi	a0,a0,758 # ffffffc05040cf80 <__FUNCTION__.1870+0xc0>
ffffffc050404c92:	655000ef          	jal	ra,ffffffc050405ae6 <EmacPsUtilErrorTrap>
ffffffc050404c96:	4785                	li	a5,1
ffffffc050404c98:	a095                	j	ffffffc050404cfc <EmacPsUtilMarvellPhyLoopback+0x28c>
ffffffc050404c9a:	fde45703          	lhu	a4,-34(s0)
ffffffc050404c9e:	6791                	lui	a5,0x4
ffffffc050404ca0:	8fd9                	or	a5,a5,a4
ffffffc050404ca2:	17c2                	slli	a5,a5,0x30
ffffffc050404ca4:	93c1                	srli	a5,a5,0x30
ffffffc050404ca6:	fcf41f23          	sh	a5,-34(s0)
ffffffc050404caa:	fde45703          	lhu	a4,-34(s0)
ffffffc050404cae:	fc042783          	lw	a5,-64(s0)
ffffffc050404cb2:	86ba                	mv	a3,a4
ffffffc050404cb4:	4601                	li	a2,0
ffffffc050404cb6:	85be                	mv	a1,a5
ffffffc050404cb8:	fc843503          	ld	a0,-56(s0)
ffffffc050404cbc:	ed6ff0ef          	jal	ra,ffffffc050404392 <XEmacPs_PhyWrite>
ffffffc050404cc0:	fea43023          	sd	a0,-32(s0)
ffffffc050404cc4:	fde40713          	addi	a4,s0,-34
ffffffc050404cc8:	fc042783          	lw	a5,-64(s0)
ffffffc050404ccc:	86ba                	mv	a3,a4
ffffffc050404cce:	4601                	li	a2,0
ffffffc050404cd0:	85be                	mv	a1,a5
ffffffc050404cd2:	fc843503          	ld	a0,-56(s0)
ffffffc050404cd6:	de4ff0ef          	jal	ra,ffffffc0504042ba <XEmacPs_PhyRead>
ffffffc050404cda:	fea43023          	sd	a0,-32(s0)
ffffffc050404cde:	fe043783          	ld	a5,-32(s0)
ffffffc050404ce2:	cb89                	beqz	a5,ffffffc050404cf4 <EmacPsUtilMarvellPhyLoopback+0x284>
ffffffc050404ce4:	00008517          	auipc	a0,0x8
ffffffc050404ce8:	2ac50513          	addi	a0,a0,684 # ffffffc05040cf90 <__FUNCTION__.1870+0xd0>
ffffffc050404cec:	5fb000ef          	jal	ra,ffffffc050405ae6 <EmacPsUtilErrorTrap>
ffffffc050404cf0:	4785                	li	a5,1
ffffffc050404cf2:	a029                	j	ffffffc050404cfc <EmacPsUtilMarvellPhyLoopback+0x28c>
ffffffc050404cf4:	4505                	li	a0,1
ffffffc050404cf6:	491000ef          	jal	ra,ffffffc050405986 <EmacpsDelay>
ffffffc050404cfa:	4781                	li	a5,0
ffffffc050404cfc:	853e                	mv	a0,a5
ffffffc050404cfe:	70e2                	ld	ra,56(sp)
ffffffc050404d00:	7442                	ld	s0,48(sp)
ffffffc050404d02:	6121                	addi	sp,sp,64
ffffffc050404d04:	8082                	ret

ffffffc050404d06 <EmacPsUtilTiPhyLoopback>:
ffffffc050404d06:	7139                	addi	sp,sp,-64
ffffffc050404d08:	fc06                	sd	ra,56(sp)
ffffffc050404d0a:	f822                	sd	s0,48(sp)
ffffffc050404d0c:	0080                	addi	s0,sp,64
ffffffc050404d0e:	fca43423          	sd	a0,-56(s0)
ffffffc050404d12:	87ae                	mv	a5,a1
ffffffc050404d14:	8732                	mv	a4,a2
ffffffc050404d16:	fcf42223          	sw	a5,-60(s0)
ffffffc050404d1a:	87ba                	mv	a5,a4
ffffffc050404d1c:	fcf42023          	sw	a5,-64(s0)
ffffffc050404d20:	fc041f23          	sh	zero,-34(s0)
ffffffc050404d24:	fe041623          	sh	zero,-20(s0)
ffffffc050404d28:	0a800793          	li	a5,168
ffffffc050404d2c:	fef41723          	sh	a5,-18(s0)
ffffffc050404d30:	fc442783          	lw	a5,-60(s0)
ffffffc050404d34:	0007871b          	sext.w	a4,a5
ffffffc050404d38:	3e800793          	li	a5,1000
ffffffc050404d3c:	04f70e63          	beq	a4,a5,ffffffc050404d98 <EmacPsUtilTiPhyLoopback+0x92>
ffffffc050404d40:	fc442783          	lw	a5,-60(s0)
ffffffc050404d44:	0007871b          	sext.w	a4,a5
ffffffc050404d48:	3e800793          	li	a5,1000
ffffffc050404d4c:	04e7ef63          	bltu	a5,a4,ffffffc050404daa <EmacPsUtilTiPhyLoopback+0xa4>
ffffffc050404d50:	fc442783          	lw	a5,-60(s0)
ffffffc050404d54:	0007871b          	sext.w	a4,a5
ffffffc050404d58:	47a9                	li	a5,10
ffffffc050404d5a:	00f70b63          	beq	a4,a5,ffffffc050404d70 <EmacPsUtilTiPhyLoopback+0x6a>
ffffffc050404d5e:	fc442783          	lw	a5,-60(s0)
ffffffc050404d62:	0007871b          	sext.w	a4,a5
ffffffc050404d66:	06400793          	li	a5,100
ffffffc050404d6a:	00f70c63          	beq	a4,a5,ffffffc050404d82 <EmacPsUtilTiPhyLoopback+0x7c>
ffffffc050404d6e:	a835                	j	ffffffc050404daa <EmacPsUtilTiPhyLoopback+0xa4>
ffffffc050404d70:	fde45783          	lhu	a5,-34(s0)
ffffffc050404d74:	1007e793          	ori	a5,a5,256
ffffffc050404d78:	17c2                	slli	a5,a5,0x30
ffffffc050404d7a:	93c1                	srli	a5,a5,0x30
ffffffc050404d7c:	fcf41f23          	sh	a5,-34(s0)
ffffffc050404d80:	a82d                	j	ffffffc050404dba <EmacPsUtilTiPhyLoopback+0xb4>
ffffffc050404d82:	fde45703          	lhu	a4,-34(s0)
ffffffc050404d86:	6789                	lui	a5,0x2
ffffffc050404d88:	10078793          	addi	a5,a5,256 # 2100 <_start-0xffffffc0503fdf00>
ffffffc050404d8c:	8fd9                	or	a5,a5,a4
ffffffc050404d8e:	17c2                	slli	a5,a5,0x30
ffffffc050404d90:	93c1                	srli	a5,a5,0x30
ffffffc050404d92:	fcf41f23          	sh	a5,-34(s0)
ffffffc050404d96:	a015                	j	ffffffc050404dba <EmacPsUtilTiPhyLoopback+0xb4>
ffffffc050404d98:	fde45783          	lhu	a5,-34(s0)
ffffffc050404d9c:	1407e793          	ori	a5,a5,320
ffffffc050404da0:	17c2                	slli	a5,a5,0x30
ffffffc050404da2:	93c1                	srli	a5,a5,0x30
ffffffc050404da4:	fcf41f23          	sh	a5,-34(s0)
ffffffc050404da8:	a809                	j	ffffffc050404dba <EmacPsUtilTiPhyLoopback+0xb4>
ffffffc050404daa:	00008517          	auipc	a0,0x8
ffffffc050404dae:	17e50513          	addi	a0,a0,382 # ffffffc05040cf28 <__FUNCTION__.1870+0x68>
ffffffc050404db2:	535000ef          	jal	ra,ffffffc050405ae6 <EmacPsUtilErrorTrap>
ffffffc050404db6:	4785                	li	a5,1
ffffffc050404db8:	a9e9                	j	ffffffc050405292 <EmacPsUtilTiPhyLoopback+0x58c>
ffffffc050404dba:	fde45783          	lhu	a5,-34(s0)
ffffffc050404dbe:	fef41623          	sh	a5,-20(s0)
ffffffc050404dc2:	fde45703          	lhu	a4,-34(s0)
ffffffc050404dc6:	fc042783          	lw	a5,-64(s0)
ffffffc050404dca:	86ba                	mv	a3,a4
ffffffc050404dcc:	4601                	li	a2,0
ffffffc050404dce:	85be                	mv	a1,a5
ffffffc050404dd0:	fc843503          	ld	a0,-56(s0)
ffffffc050404dd4:	dbeff0ef          	jal	ra,ffffffc050404392 <XEmacPs_PhyWrite>
ffffffc050404dd8:	fea43023          	sd	a0,-32(s0)
ffffffc050404ddc:	fde40713          	addi	a4,s0,-34
ffffffc050404de0:	fc042783          	lw	a5,-64(s0)
ffffffc050404de4:	86ba                	mv	a3,a4
ffffffc050404de6:	4601                	li	a2,0
ffffffc050404de8:	85be                	mv	a1,a5
ffffffc050404dea:	fc843503          	ld	a0,-56(s0)
ffffffc050404dee:	cccff0ef          	jal	ra,ffffffc0504042ba <XEmacPs_PhyRead>
ffffffc050404df2:	fea43023          	sd	a0,-32(s0)
ffffffc050404df6:	fe043783          	ld	a5,-32(s0)
ffffffc050404dfa:	cb89                	beqz	a5,ffffffc050404e0c <EmacPsUtilTiPhyLoopback+0x106>
ffffffc050404dfc:	00008517          	auipc	a0,0x8
ffffffc050404e00:	14c50513          	addi	a0,a0,332 # ffffffc05040cf48 <__FUNCTION__.1870+0x88>
ffffffc050404e04:	4e3000ef          	jal	ra,ffffffc050405ae6 <EmacPsUtilErrorTrap>
ffffffc050404e08:	4785                	li	a5,1
ffffffc050404e0a:	a161                	j	ffffffc050405292 <EmacPsUtilTiPhyLoopback+0x58c>
ffffffc050404e0c:	fde40713          	addi	a4,s0,-34
ffffffc050404e10:	fc042783          	lw	a5,-64(s0)
ffffffc050404e14:	86ba                	mv	a3,a4
ffffffc050404e16:	4605                	li	a2,1
ffffffc050404e18:	85be                	mv	a1,a5
ffffffc050404e1a:	fc843503          	ld	a0,-56(s0)
ffffffc050404e1e:	c9cff0ef          	jal	ra,ffffffc0504042ba <XEmacPs_PhyRead>
ffffffc050404e22:	fea43023          	sd	a0,-32(s0)
ffffffc050404e26:	fe043783          	ld	a5,-32(s0)
ffffffc050404e2a:	cb89                	beqz	a5,ffffffc050404e3c <EmacPsUtilTiPhyLoopback+0x136>
ffffffc050404e2c:	00008517          	auipc	a0,0x8
ffffffc050404e30:	11c50513          	addi	a0,a0,284 # ffffffc05040cf48 <__FUNCTION__.1870+0x88>
ffffffc050404e34:	4b3000ef          	jal	ra,ffffffc050405ae6 <EmacPsUtilErrorTrap>
ffffffc050404e38:	4785                	li	a5,1
ffffffc050404e3a:	a9a1                	j	ffffffc050405292 <EmacPsUtilTiPhyLoopback+0x58c>
ffffffc050404e3c:	fc042783          	lw	a5,-64(s0)
ffffffc050404e40:	46fd                	li	a3,31
ffffffc050404e42:	4635                	li	a2,13
ffffffc050404e44:	85be                	mv	a1,a5
ffffffc050404e46:	fc843503          	ld	a0,-56(s0)
ffffffc050404e4a:	d48ff0ef          	jal	ra,ffffffc050404392 <XEmacPs_PhyWrite>
ffffffc050404e4e:	fea43023          	sd	a0,-32(s0)
ffffffc050404e52:	fc042783          	lw	a5,-64(s0)
ffffffc050404e56:	0fe00693          	li	a3,254
ffffffc050404e5a:	4639                	li	a2,14
ffffffc050404e5c:	85be                	mv	a1,a5
ffffffc050404e5e:	fc843503          	ld	a0,-56(s0)
ffffffc050404e62:	d30ff0ef          	jal	ra,ffffffc050404392 <XEmacPs_PhyWrite>
ffffffc050404e66:	fea43023          	sd	a0,-32(s0)
ffffffc050404e6a:	fc042703          	lw	a4,-64(s0)
ffffffc050404e6e:	6791                	lui	a5,0x4
ffffffc050404e70:	01f78693          	addi	a3,a5,31 # 401f <_start-0xffffffc0503fbfe1>
ffffffc050404e74:	4635                	li	a2,13
ffffffc050404e76:	85ba                	mv	a1,a4
ffffffc050404e78:	fc843503          	ld	a0,-56(s0)
ffffffc050404e7c:	d16ff0ef          	jal	ra,ffffffc050404392 <XEmacPs_PhyWrite>
ffffffc050404e80:	fea43023          	sd	a0,-32(s0)
ffffffc050404e84:	fc042703          	lw	a4,-64(s0)
ffffffc050404e88:	67bd                	lui	a5,0xf
ffffffc050404e8a:	f2078693          	addi	a3,a5,-224 # ef20 <_start-0xffffffc0503f10e0>
ffffffc050404e8e:	4639                	li	a2,14
ffffffc050404e90:	85ba                	mv	a1,a4
ffffffc050404e92:	fc843503          	ld	a0,-56(s0)
ffffffc050404e96:	cfcff0ef          	jal	ra,ffffffc050404392 <XEmacPs_PhyWrite>
ffffffc050404e9a:	fea43023          	sd	a0,-32(s0)
ffffffc050404e9e:	fe043783          	ld	a5,-32(s0)
ffffffc050404ea2:	cb89                	beqz	a5,ffffffc050404eb4 <EmacPsUtilTiPhyLoopback+0x1ae>
ffffffc050404ea4:	00008517          	auipc	a0,0x8
ffffffc050404ea8:	0a450513          	addi	a0,a0,164 # ffffffc05040cf48 <__FUNCTION__.1870+0x88>
ffffffc050404eac:	43b000ef          	jal	ra,ffffffc050405ae6 <EmacPsUtilErrorTrap>
ffffffc050404eb0:	4785                	li	a5,1
ffffffc050404eb2:	a6c5                	j	ffffffc050405292 <EmacPsUtilTiPhyLoopback+0x58c>
ffffffc050404eb4:	fc042783          	lw	a5,-64(s0)
ffffffc050404eb8:	46fd                	li	a3,31
ffffffc050404eba:	4635                	li	a2,13
ffffffc050404ebc:	85be                	mv	a1,a5
ffffffc050404ebe:	fc843503          	ld	a0,-56(s0)
ffffffc050404ec2:	cd0ff0ef          	jal	ra,ffffffc050404392 <XEmacPs_PhyWrite>
ffffffc050404ec6:	fea43023          	sd	a0,-32(s0)
ffffffc050404eca:	fc042783          	lw	a5,-64(s0)
ffffffc050404ece:	0fe00693          	li	a3,254
ffffffc050404ed2:	4639                	li	a2,14
ffffffc050404ed4:	85be                	mv	a1,a5
ffffffc050404ed6:	fc843503          	ld	a0,-56(s0)
ffffffc050404eda:	cb8ff0ef          	jal	ra,ffffffc050404392 <XEmacPs_PhyWrite>
ffffffc050404ede:	fea43023          	sd	a0,-32(s0)
ffffffc050404ee2:	fc042703          	lw	a4,-64(s0)
ffffffc050404ee6:	6791                	lui	a5,0x4
ffffffc050404ee8:	01f78693          	addi	a3,a5,31 # 401f <_start-0xffffffc0503fbfe1>
ffffffc050404eec:	4635                	li	a2,13
ffffffc050404eee:	85ba                	mv	a1,a4
ffffffc050404ef0:	fc843503          	ld	a0,-56(s0)
ffffffc050404ef4:	c9eff0ef          	jal	ra,ffffffc050404392 <XEmacPs_PhyWrite>
ffffffc050404ef8:	fea43023          	sd	a0,-32(s0)
ffffffc050404efc:	fde40713          	addi	a4,s0,-34
ffffffc050404f00:	fc042783          	lw	a5,-64(s0)
ffffffc050404f04:	86ba                	mv	a3,a4
ffffffc050404f06:	4639                	li	a2,14
ffffffc050404f08:	85be                	mv	a1,a5
ffffffc050404f0a:	fc843503          	ld	a0,-56(s0)
ffffffc050404f0e:	bacff0ef          	jal	ra,ffffffc0504042ba <XEmacPs_PhyRead>
ffffffc050404f12:	fea43023          	sd	a0,-32(s0)
ffffffc050404f16:	fe043783          	ld	a5,-32(s0)
ffffffc050404f1a:	cb89                	beqz	a5,ffffffc050404f2c <EmacPsUtilTiPhyLoopback+0x226>
ffffffc050404f1c:	00008517          	auipc	a0,0x8
ffffffc050404f20:	02c50513          	addi	a0,a0,44 # ffffffc05040cf48 <__FUNCTION__.1870+0x88>
ffffffc050404f24:	3c3000ef          	jal	ra,ffffffc050405ae6 <EmacPsUtilErrorTrap>
ffffffc050404f28:	4785                	li	a5,1
ffffffc050404f2a:	a6a5                	j	ffffffc050405292 <EmacPsUtilTiPhyLoopback+0x58c>
ffffffc050404f2c:	fc042783          	lw	a5,-64(s0)
ffffffc050404f30:	6691                	lui	a3,0x4
ffffffc050404f32:	467d                	li	a2,31
ffffffc050404f34:	85be                	mv	a1,a5
ffffffc050404f36:	fc843503          	ld	a0,-56(s0)
ffffffc050404f3a:	c58ff0ef          	jal	ra,ffffffc050404392 <XEmacPs_PhyWrite>
ffffffc050404f3e:	fea43023          	sd	a0,-32(s0)
ffffffc050404f42:	fde40713          	addi	a4,s0,-34
ffffffc050404f46:	fc042783          	lw	a5,-64(s0)
ffffffc050404f4a:	86ba                	mv	a3,a4
ffffffc050404f4c:	4601                	li	a2,0
ffffffc050404f4e:	85be                	mv	a1,a5
ffffffc050404f50:	fc843503          	ld	a0,-56(s0)
ffffffc050404f54:	b66ff0ef          	jal	ra,ffffffc0504042ba <XEmacPs_PhyRead>
ffffffc050404f58:	fea43023          	sd	a0,-32(s0)
ffffffc050404f5c:	fe043783          	ld	a5,-32(s0)
ffffffc050404f60:	cb89                	beqz	a5,ffffffc050404f72 <EmacPsUtilTiPhyLoopback+0x26c>
ffffffc050404f62:	00008517          	auipc	a0,0x8
ffffffc050404f66:	fe650513          	addi	a0,a0,-26 # ffffffc05040cf48 <__FUNCTION__.1870+0x88>
ffffffc050404f6a:	37d000ef          	jal	ra,ffffffc050405ae6 <EmacPsUtilErrorTrap>
ffffffc050404f6e:	4785                	li	a5,1
ffffffc050404f70:	a60d                	j	ffffffc050405292 <EmacPsUtilTiPhyLoopback+0x58c>
ffffffc050404f72:	fde40713          	addi	a4,s0,-34
ffffffc050404f76:	fc042783          	lw	a5,-64(s0)
ffffffc050404f7a:	86ba                	mv	a3,a4
ffffffc050404f7c:	4601                	li	a2,0
ffffffc050404f7e:	85be                	mv	a1,a5
ffffffc050404f80:	fc843503          	ld	a0,-56(s0)
ffffffc050404f84:	b36ff0ef          	jal	ra,ffffffc0504042ba <XEmacPs_PhyRead>
ffffffc050404f88:	fea43023          	sd	a0,-32(s0)
ffffffc050404f8c:	fde45703          	lhu	a4,-34(s0)
ffffffc050404f90:	77e1                	lui	a5,0xffff8
ffffffc050404f92:	8fd9                	or	a5,a5,a4
ffffffc050404f94:	17c2                	slli	a5,a5,0x30
ffffffc050404f96:	93c1                	srli	a5,a5,0x30
ffffffc050404f98:	fcf41f23          	sh	a5,-34(s0)
ffffffc050404f9c:	fde45703          	lhu	a4,-34(s0)
ffffffc050404fa0:	fc042783          	lw	a5,-64(s0)
ffffffc050404fa4:	86ba                	mv	a3,a4
ffffffc050404fa6:	4601                	li	a2,0
ffffffc050404fa8:	85be                	mv	a1,a5
ffffffc050404faa:	fc843503          	ld	a0,-56(s0)
ffffffc050404fae:	be4ff0ef          	jal	ra,ffffffc050404392 <XEmacPs_PhyWrite>
ffffffc050404fb2:	fea43023          	sd	a0,-32(s0)
ffffffc050404fb6:	fde40713          	addi	a4,s0,-34
ffffffc050404fba:	fc042783          	lw	a5,-64(s0)
ffffffc050404fbe:	86ba                	mv	a3,a4
ffffffc050404fc0:	4601                	li	a2,0
ffffffc050404fc2:	85be                	mv	a1,a5
ffffffc050404fc4:	fc843503          	ld	a0,-56(s0)
ffffffc050404fc8:	af2ff0ef          	jal	ra,ffffffc0504042ba <XEmacPs_PhyRead>
ffffffc050404fcc:	fea43023          	sd	a0,-32(s0)
ffffffc050404fd0:	fe043783          	ld	a5,-32(s0)
ffffffc050404fd4:	cb89                	beqz	a5,ffffffc050404fe6 <EmacPsUtilTiPhyLoopback+0x2e0>
ffffffc050404fd6:	00008517          	auipc	a0,0x8
ffffffc050404fda:	faa50513          	addi	a0,a0,-86 # ffffffc05040cf80 <__FUNCTION__.1870+0xc0>
ffffffc050404fde:	309000ef          	jal	ra,ffffffc050405ae6 <EmacPsUtilErrorTrap>
ffffffc050404fe2:	4785                	li	a5,1
ffffffc050404fe4:	a47d                	j	ffffffc050405292 <EmacPsUtilTiPhyLoopback+0x58c>
ffffffc050404fe6:	4505                	li	a0,1
ffffffc050404fe8:	19f000ef          	jal	ra,ffffffc050405986 <EmacpsDelay>
ffffffc050404fec:	fec45703          	lhu	a4,-20(s0)
ffffffc050404ff0:	6791                	lui	a5,0x4
ffffffc050404ff2:	8fd9                	or	a5,a5,a4
ffffffc050404ff4:	17c2                	slli	a5,a5,0x30
ffffffc050404ff6:	93c1                	srli	a5,a5,0x30
ffffffc050404ff8:	fcf41f23          	sh	a5,-34(s0)
ffffffc050404ffc:	fde45703          	lhu	a4,-34(s0)
ffffffc050405000:	fc042783          	lw	a5,-64(s0)
ffffffc050405004:	86ba                	mv	a3,a4
ffffffc050405006:	4601                	li	a2,0
ffffffc050405008:	85be                	mv	a1,a5
ffffffc05040500a:	fc843503          	ld	a0,-56(s0)
ffffffc05040500e:	b84ff0ef          	jal	ra,ffffffc050404392 <XEmacPs_PhyWrite>
ffffffc050405012:	fea43023          	sd	a0,-32(s0)
ffffffc050405016:	fde40713          	addi	a4,s0,-34
ffffffc05040501a:	fc042783          	lw	a5,-64(s0)
ffffffc05040501e:	86ba                	mv	a3,a4
ffffffc050405020:	4601                	li	a2,0
ffffffc050405022:	85be                	mv	a1,a5
ffffffc050405024:	fc843503          	ld	a0,-56(s0)
ffffffc050405028:	a92ff0ef          	jal	ra,ffffffc0504042ba <XEmacPs_PhyRead>
ffffffc05040502c:	fea43023          	sd	a0,-32(s0)
ffffffc050405030:	fe043783          	ld	a5,-32(s0)
ffffffc050405034:	cb89                	beqz	a5,ffffffc050405046 <EmacPsUtilTiPhyLoopback+0x340>
ffffffc050405036:	00008517          	auipc	a0,0x8
ffffffc05040503a:	f5a50513          	addi	a0,a0,-166 # ffffffc05040cf90 <__FUNCTION__.1870+0xd0>
ffffffc05040503e:	2a9000ef          	jal	ra,ffffffc050405ae6 <EmacPsUtilErrorTrap>
ffffffc050405042:	4785                	li	a5,1
ffffffc050405044:	a4b9                	j	ffffffc050405292 <EmacPsUtilTiPhyLoopback+0x58c>
ffffffc050405046:	fc042703          	lw	a4,-64(s0)
ffffffc05040504a:	6795                	lui	a5,0x5
ffffffc05040504c:	04878693          	addi	a3,a5,72 # 5048 <_start-0xffffffc0503fafb8>
ffffffc050405050:	4641                	li	a2,16
ffffffc050405052:	85ba                	mv	a1,a4
ffffffc050405054:	fc843503          	ld	a0,-56(s0)
ffffffc050405058:	b3aff0ef          	jal	ra,ffffffc050404392 <XEmacPs_PhyWrite>
ffffffc05040505c:	fea43023          	sd	a0,-32(s0)
ffffffc050405060:	fde40713          	addi	a4,s0,-34
ffffffc050405064:	fc042783          	lw	a5,-64(s0)
ffffffc050405068:	86ba                	mv	a3,a4
ffffffc05040506a:	4641                	li	a2,16
ffffffc05040506c:	85be                	mv	a1,a5
ffffffc05040506e:	fc843503          	ld	a0,-56(s0)
ffffffc050405072:	a48ff0ef          	jal	ra,ffffffc0504042ba <XEmacPs_PhyRead>
ffffffc050405076:	fea43023          	sd	a0,-32(s0)
ffffffc05040507a:	fe043783          	ld	a5,-32(s0)
ffffffc05040507e:	cb89                	beqz	a5,ffffffc050405090 <EmacPsUtilTiPhyLoopback+0x38a>
ffffffc050405080:	00008517          	auipc	a0,0x8
ffffffc050405084:	f1050513          	addi	a0,a0,-240 # ffffffc05040cf90 <__FUNCTION__.1870+0xd0>
ffffffc050405088:	25f000ef          	jal	ra,ffffffc050405ae6 <EmacPsUtilErrorTrap>
ffffffc05040508c:	4785                	li	a5,1
ffffffc05040508e:	a411                	j	ffffffc050405292 <EmacPsUtilTiPhyLoopback+0x58c>
ffffffc050405090:	fc042783          	lw	a5,-64(s0)
ffffffc050405094:	46fd                	li	a3,31
ffffffc050405096:	4635                	li	a2,13
ffffffc050405098:	85be                	mv	a1,a5
ffffffc05040509a:	fc843503          	ld	a0,-56(s0)
ffffffc05040509e:	af4ff0ef          	jal	ra,ffffffc050404392 <XEmacPs_PhyWrite>
ffffffc0504050a2:	fc042783          	lw	a5,-64(s0)
ffffffc0504050a6:	08600693          	li	a3,134
ffffffc0504050aa:	4639                	li	a2,14
ffffffc0504050ac:	85be                	mv	a1,a5
ffffffc0504050ae:	fc843503          	ld	a0,-56(s0)
ffffffc0504050b2:	ae0ff0ef          	jal	ra,ffffffc050404392 <XEmacPs_PhyWrite>
ffffffc0504050b6:	fc042703          	lw	a4,-64(s0)
ffffffc0504050ba:	6791                	lui	a5,0x4
ffffffc0504050bc:	01f78693          	addi	a3,a5,31 # 401f <_start-0xffffffc0503fbfe1>
ffffffc0504050c0:	4635                	li	a2,13
ffffffc0504050c2:	85ba                	mv	a1,a4
ffffffc0504050c4:	fc843503          	ld	a0,-56(s0)
ffffffc0504050c8:	acaff0ef          	jal	ra,ffffffc050404392 <XEmacPs_PhyWrite>
ffffffc0504050cc:	007fb797          	auipc	a5,0x7fb
ffffffc0504050d0:	03c78793          	addi	a5,a5,60 # ffffffc050c00108 <Platform>
ffffffc0504050d4:	439c                	lw	a5,0(a5)
ffffffc0504050d6:	873e                	mv	a4,a5
ffffffc0504050d8:	67bd                	lui	a5,0xf
ffffffc0504050da:	8ff9                	and	a5,a5,a4
ffffffc0504050dc:	2781                	sext.w	a5,a5
ffffffc0504050de:	873e                	mv	a4,a5
ffffffc0504050e0:	6795                	lui	a5,0x5
ffffffc0504050e2:	00f71663          	bne	a4,a5,ffffffc0504050ee <EmacPsUtilTiPhyLoopback+0x3e8>
ffffffc0504050e6:	0ab00793          	li	a5,171
ffffffc0504050ea:	fef41723          	sh	a5,-18(s0)
ffffffc0504050ee:	fee45703          	lhu	a4,-18(s0)
ffffffc0504050f2:	fc042783          	lw	a5,-64(s0)
ffffffc0504050f6:	86ba                	mv	a3,a4
ffffffc0504050f8:	4639                	li	a2,14
ffffffc0504050fa:	85be                	mv	a1,a5
ffffffc0504050fc:	fc843503          	ld	a0,-56(s0)
ffffffc050405100:	a92ff0ef          	jal	ra,ffffffc050404392 <XEmacPs_PhyWrite>
ffffffc050405104:	fea43023          	sd	a0,-32(s0)
ffffffc050405108:	fe043783          	ld	a5,-32(s0)
ffffffc05040510c:	cb89                	beqz	a5,ffffffc05040511e <EmacPsUtilTiPhyLoopback+0x418>
ffffffc05040510e:	00008517          	auipc	a0,0x8
ffffffc050405112:	ea250513          	addi	a0,a0,-350 # ffffffc05040cfb0 <__FUNCTION__.1870+0xf0>
ffffffc050405116:	1d1000ef          	jal	ra,ffffffc050405ae6 <EmacPsUtilErrorTrap>
ffffffc05040511a:	4785                	li	a5,1
ffffffc05040511c:	aa9d                	j	ffffffc050405292 <EmacPsUtilTiPhyLoopback+0x58c>
ffffffc05040511e:	fc042783          	lw	a5,-64(s0)
ffffffc050405122:	46fd                	li	a3,31
ffffffc050405124:	4635                	li	a2,13
ffffffc050405126:	85be                	mv	a1,a5
ffffffc050405128:	fc843503          	ld	a0,-56(s0)
ffffffc05040512c:	a66ff0ef          	jal	ra,ffffffc050404392 <XEmacPs_PhyWrite>
ffffffc050405130:	fc042783          	lw	a5,-64(s0)
ffffffc050405134:	08600693          	li	a3,134
ffffffc050405138:	4639                	li	a2,14
ffffffc05040513a:	85be                	mv	a1,a5
ffffffc05040513c:	fc843503          	ld	a0,-56(s0)
ffffffc050405140:	a52ff0ef          	jal	ra,ffffffc050404392 <XEmacPs_PhyWrite>
ffffffc050405144:	fc042703          	lw	a4,-64(s0)
ffffffc050405148:	6791                	lui	a5,0x4
ffffffc05040514a:	01f78693          	addi	a3,a5,31 # 401f <_start-0xffffffc0503fbfe1>
ffffffc05040514e:	4635                	li	a2,13
ffffffc050405150:	85ba                	mv	a1,a4
ffffffc050405152:	fc843503          	ld	a0,-56(s0)
ffffffc050405156:	a3cff0ef          	jal	ra,ffffffc050404392 <XEmacPs_PhyWrite>
ffffffc05040515a:	fde40713          	addi	a4,s0,-34
ffffffc05040515e:	fc042783          	lw	a5,-64(s0)
ffffffc050405162:	86ba                	mv	a3,a4
ffffffc050405164:	4639                	li	a2,14
ffffffc050405166:	85be                	mv	a1,a5
ffffffc050405168:	fc843503          	ld	a0,-56(s0)
ffffffc05040516c:	94eff0ef          	jal	ra,ffffffc0504042ba <XEmacPs_PhyRead>
ffffffc050405170:	fea43023          	sd	a0,-32(s0)
ffffffc050405174:	fe043783          	ld	a5,-32(s0)
ffffffc050405178:	cb89                	beqz	a5,ffffffc05040518a <EmacPsUtilTiPhyLoopback+0x484>
ffffffc05040517a:	00008517          	auipc	a0,0x8
ffffffc05040517e:	e3650513          	addi	a0,a0,-458 # ffffffc05040cfb0 <__FUNCTION__.1870+0xf0>
ffffffc050405182:	165000ef          	jal	ra,ffffffc050405ae6 <EmacPsUtilErrorTrap>
ffffffc050405186:	4785                	li	a5,1
ffffffc050405188:	a229                	j	ffffffc050405292 <EmacPsUtilTiPhyLoopback+0x58c>
ffffffc05040518a:	fc042783          	lw	a5,-64(s0)
ffffffc05040518e:	46fd                	li	a3,31
ffffffc050405190:	4635                	li	a2,13
ffffffc050405192:	85be                	mv	a1,a5
ffffffc050405194:	fc843503          	ld	a0,-56(s0)
ffffffc050405198:	9faff0ef          	jal	ra,ffffffc050404392 <XEmacPs_PhyWrite>
ffffffc05040519c:	fc042783          	lw	a5,-64(s0)
ffffffc0504051a0:	03200693          	li	a3,50
ffffffc0504051a4:	4639                	li	a2,14
ffffffc0504051a6:	85be                	mv	a1,a5
ffffffc0504051a8:	fc843503          	ld	a0,-56(s0)
ffffffc0504051ac:	9e6ff0ef          	jal	ra,ffffffc050404392 <XEmacPs_PhyWrite>
ffffffc0504051b0:	fc042703          	lw	a4,-64(s0)
ffffffc0504051b4:	6791                	lui	a5,0x4
ffffffc0504051b6:	01f78693          	addi	a3,a5,31 # 401f <_start-0xffffffc0503fbfe1>
ffffffc0504051ba:	4635                	li	a2,13
ffffffc0504051bc:	85ba                	mv	a1,a4
ffffffc0504051be:	fc843503          	ld	a0,-56(s0)
ffffffc0504051c2:	9d0ff0ef          	jal	ra,ffffffc050404392 <XEmacPs_PhyWrite>
ffffffc0504051c6:	fc042783          	lw	a5,-64(s0)
ffffffc0504051ca:	0d300693          	li	a3,211
ffffffc0504051ce:	4639                	li	a2,14
ffffffc0504051d0:	85be                	mv	a1,a5
ffffffc0504051d2:	fc843503          	ld	a0,-56(s0)
ffffffc0504051d6:	9bcff0ef          	jal	ra,ffffffc050404392 <XEmacPs_PhyWrite>
ffffffc0504051da:	fea43023          	sd	a0,-32(s0)
ffffffc0504051de:	fe043783          	ld	a5,-32(s0)
ffffffc0504051e2:	cb89                	beqz	a5,ffffffc0504051f4 <EmacPsUtilTiPhyLoopback+0x4ee>
ffffffc0504051e4:	00008517          	auipc	a0,0x8
ffffffc0504051e8:	dcc50513          	addi	a0,a0,-564 # ffffffc05040cfb0 <__FUNCTION__.1870+0xf0>
ffffffc0504051ec:	0fb000ef          	jal	ra,ffffffc050405ae6 <EmacPsUtilErrorTrap>
ffffffc0504051f0:	4785                	li	a5,1
ffffffc0504051f2:	a045                	j	ffffffc050405292 <EmacPsUtilTiPhyLoopback+0x58c>
ffffffc0504051f4:	fc042783          	lw	a5,-64(s0)
ffffffc0504051f8:	46fd                	li	a3,31
ffffffc0504051fa:	4635                	li	a2,13
ffffffc0504051fc:	85be                	mv	a1,a5
ffffffc0504051fe:	fc843503          	ld	a0,-56(s0)
ffffffc050405202:	990ff0ef          	jal	ra,ffffffc050404392 <XEmacPs_PhyWrite>
ffffffc050405206:	fc042783          	lw	a5,-64(s0)
ffffffc05040520a:	03200693          	li	a3,50
ffffffc05040520e:	4639                	li	a2,14
ffffffc050405210:	85be                	mv	a1,a5
ffffffc050405212:	fc843503          	ld	a0,-56(s0)
ffffffc050405216:	97cff0ef          	jal	ra,ffffffc050404392 <XEmacPs_PhyWrite>
ffffffc05040521a:	fc042703          	lw	a4,-64(s0)
ffffffc05040521e:	6791                	lui	a5,0x4
ffffffc050405220:	01f78693          	addi	a3,a5,31 # 401f <_start-0xffffffc0503fbfe1>
ffffffc050405224:	4635                	li	a2,13
ffffffc050405226:	85ba                	mv	a1,a4
ffffffc050405228:	fc843503          	ld	a0,-56(s0)
ffffffc05040522c:	966ff0ef          	jal	ra,ffffffc050404392 <XEmacPs_PhyWrite>
ffffffc050405230:	fde40713          	addi	a4,s0,-34
ffffffc050405234:	fc042783          	lw	a5,-64(s0)
ffffffc050405238:	86ba                	mv	a3,a4
ffffffc05040523a:	4639                	li	a2,14
ffffffc05040523c:	85be                	mv	a1,a5
ffffffc05040523e:	fc843503          	ld	a0,-56(s0)
ffffffc050405242:	878ff0ef          	jal	ra,ffffffc0504042ba <XEmacPs_PhyRead>
ffffffc050405246:	fea43023          	sd	a0,-32(s0)
ffffffc05040524a:	fe043783          	ld	a5,-32(s0)
ffffffc05040524e:	cb89                	beqz	a5,ffffffc050405260 <EmacPsUtilTiPhyLoopback+0x55a>
ffffffc050405250:	00008517          	auipc	a0,0x8
ffffffc050405254:	d6050513          	addi	a0,a0,-672 # ffffffc05040cfb0 <__FUNCTION__.1870+0xf0>
ffffffc050405258:	08f000ef          	jal	ra,ffffffc050405ae6 <EmacPsUtilErrorTrap>
ffffffc05040525c:	4785                	li	a5,1
ffffffc05040525e:	a815                	j	ffffffc050405292 <EmacPsUtilTiPhyLoopback+0x58c>
ffffffc050405260:	fde40713          	addi	a4,s0,-34
ffffffc050405264:	fc042783          	lw	a5,-64(s0)
ffffffc050405268:	86ba                	mv	a3,a4
ffffffc05040526a:	4645                	li	a2,17
ffffffc05040526c:	85be                	mv	a1,a5
ffffffc05040526e:	fc843503          	ld	a0,-56(s0)
ffffffc050405272:	848ff0ef          	jal	ra,ffffffc0504042ba <XEmacPs_PhyRead>
ffffffc050405276:	fea43023          	sd	a0,-32(s0)
ffffffc05040527a:	fe043783          	ld	a5,-32(s0)
ffffffc05040527e:	cb89                	beqz	a5,ffffffc050405290 <EmacPsUtilTiPhyLoopback+0x58a>
ffffffc050405280:	00008517          	auipc	a0,0x8
ffffffc050405284:	d1050513          	addi	a0,a0,-752 # ffffffc05040cf90 <__FUNCTION__.1870+0xd0>
ffffffc050405288:	05f000ef          	jal	ra,ffffffc050405ae6 <EmacPsUtilErrorTrap>
ffffffc05040528c:	4785                	li	a5,1
ffffffc05040528e:	a011                	j	ffffffc050405292 <EmacPsUtilTiPhyLoopback+0x58c>
ffffffc050405290:	4781                	li	a5,0
ffffffc050405292:	853e                	mv	a0,a5
ffffffc050405294:	70e2                	ld	ra,56(sp)
ffffffc050405296:	7442                	ld	s0,48(sp)
ffffffc050405298:	6121                	addi	sp,sp,64
ffffffc05040529a:	8082                	ret

ffffffc05040529c <EmacPsUtilRtlPhyLoopback>:
ffffffc05040529c:	7179                	addi	sp,sp,-48
ffffffc05040529e:	f406                	sd	ra,40(sp)
ffffffc0504052a0:	f022                	sd	s0,32(sp)
ffffffc0504052a2:	1800                	addi	s0,sp,48
ffffffc0504052a4:	fca43c23          	sd	a0,-40(s0)
ffffffc0504052a8:	87ae                	mv	a5,a1
ffffffc0504052aa:	8732                	mv	a4,a2
ffffffc0504052ac:	fcf42a23          	sw	a5,-44(s0)
ffffffc0504052b0:	87ba                	mv	a5,a4
ffffffc0504052b2:	fcf42823          	sw	a5,-48(s0)
ffffffc0504052b6:	fe041323          	sh	zero,-26(s0)
ffffffc0504052ba:	fe041323          	sh	zero,-26(s0)
ffffffc0504052be:	fd442783          	lw	a5,-44(s0)
ffffffc0504052c2:	0007871b          	sext.w	a4,a5
ffffffc0504052c6:	3e800793          	li	a5,1000
ffffffc0504052ca:	04f70863          	beq	a4,a5,ffffffc05040531a <EmacPsUtilRtlPhyLoopback+0x7e>
ffffffc0504052ce:	fd442783          	lw	a5,-44(s0)
ffffffc0504052d2:	0007871b          	sext.w	a4,a5
ffffffc0504052d6:	3e800793          	li	a5,1000
ffffffc0504052da:	04e7e963          	bltu	a5,a4,ffffffc05040532c <EmacPsUtilRtlPhyLoopback+0x90>
ffffffc0504052de:	fd442783          	lw	a5,-44(s0)
ffffffc0504052e2:	0007871b          	sext.w	a4,a5
ffffffc0504052e6:	47a9                	li	a5,10
ffffffc0504052e8:	00f70b63          	beq	a4,a5,ffffffc0504052fe <EmacPsUtilRtlPhyLoopback+0x62>
ffffffc0504052ec:	fd442783          	lw	a5,-44(s0)
ffffffc0504052f0:	0007871b          	sext.w	a4,a5
ffffffc0504052f4:	06400793          	li	a5,100
ffffffc0504052f8:	00f70863          	beq	a4,a5,ffffffc050405308 <EmacPsUtilRtlPhyLoopback+0x6c>
ffffffc0504052fc:	a805                	j	ffffffc05040532c <EmacPsUtilRtlPhyLoopback+0x90>
ffffffc0504052fe:	fe645783          	lhu	a5,-26(s0)
ffffffc050405302:	fef41323          	sh	a5,-26(s0)
ffffffc050405306:	a81d                	j	ffffffc05040533c <EmacPsUtilRtlPhyLoopback+0xa0>
ffffffc050405308:	fe645703          	lhu	a4,-26(s0)
ffffffc05040530c:	6789                	lui	a5,0x2
ffffffc05040530e:	8fd9                	or	a5,a5,a4
ffffffc050405310:	17c2                	slli	a5,a5,0x30
ffffffc050405312:	93c1                	srli	a5,a5,0x30
ffffffc050405314:	fef41323          	sh	a5,-26(s0)
ffffffc050405318:	a015                	j	ffffffc05040533c <EmacPsUtilRtlPhyLoopback+0xa0>
ffffffc05040531a:	fe645783          	lhu	a5,-26(s0)
ffffffc05040531e:	0407e793          	ori	a5,a5,64
ffffffc050405322:	17c2                	slli	a5,a5,0x30
ffffffc050405324:	93c1                	srli	a5,a5,0x30
ffffffc050405326:	fef41323          	sh	a5,-26(s0)
ffffffc05040532a:	a809                	j	ffffffc05040533c <EmacPsUtilRtlPhyLoopback+0xa0>
ffffffc05040532c:	00008517          	auipc	a0,0x8
ffffffc050405330:	bfc50513          	addi	a0,a0,-1028 # ffffffc05040cf28 <__FUNCTION__.1870+0x68>
ffffffc050405334:	7b2000ef          	jal	ra,ffffffc050405ae6 <EmacPsUtilErrorTrap>
ffffffc050405338:	4785                	li	a5,1
ffffffc05040533a:	aea1                	j	ffffffc050405692 <EmacPsUtilRtlPhyLoopback+0x3f6>
ffffffc05040533c:	fe645783          	lhu	a5,-26(s0)
ffffffc050405340:	1007e793          	ori	a5,a5,256
ffffffc050405344:	17c2                	slli	a5,a5,0x30
ffffffc050405346:	93c1                	srli	a5,a5,0x30
ffffffc050405348:	fef41323          	sh	a5,-26(s0)
ffffffc05040534c:	fe645783          	lhu	a5,-26(s0)
ffffffc050405350:	2007e793          	ori	a5,a5,512
ffffffc050405354:	17c2                	slli	a5,a5,0x30
ffffffc050405356:	93c1                	srli	a5,a5,0x30
ffffffc050405358:	fef41323          	sh	a5,-26(s0)
ffffffc05040535c:	fe645703          	lhu	a4,-26(s0)
ffffffc050405360:	fd042783          	lw	a5,-48(s0)
ffffffc050405364:	86ba                	mv	a3,a4
ffffffc050405366:	4601                	li	a2,0
ffffffc050405368:	85be                	mv	a1,a5
ffffffc05040536a:	fd843503          	ld	a0,-40(s0)
ffffffc05040536e:	824ff0ef          	jal	ra,ffffffc050404392 <XEmacPs_PhyWrite>
ffffffc050405372:	fea43423          	sd	a0,-24(s0)
ffffffc050405376:	fe640713          	addi	a4,s0,-26
ffffffc05040537a:	fd042783          	lw	a5,-48(s0)
ffffffc05040537e:	86ba                	mv	a3,a4
ffffffc050405380:	4601                	li	a2,0
ffffffc050405382:	85be                	mv	a1,a5
ffffffc050405384:	fd843503          	ld	a0,-40(s0)
ffffffc050405388:	f33fe0ef          	jal	ra,ffffffc0504042ba <XEmacPs_PhyRead>
ffffffc05040538c:	fea43423          	sd	a0,-24(s0)
ffffffc050405390:	fe843783          	ld	a5,-24(s0)
ffffffc050405394:	cb89                	beqz	a5,ffffffc0504053a6 <EmacPsUtilRtlPhyLoopback+0x10a>
ffffffc050405396:	00008517          	auipc	a0,0x8
ffffffc05040539a:	bea50513          	addi	a0,a0,-1046 # ffffffc05040cf80 <__FUNCTION__.1870+0xc0>
ffffffc05040539e:	748000ef          	jal	ra,ffffffc050405ae6 <EmacPsUtilErrorTrap>
ffffffc0504053a2:	4785                	li	a5,1
ffffffc0504053a4:	a4fd                	j	ffffffc050405692 <EmacPsUtilRtlPhyLoopback+0x3f6>
ffffffc0504053a6:	fe645783          	lhu	a5,-26(s0)
ffffffc0504053aa:	2781                	sext.w	a5,a5
ffffffc0504053ac:	85be                	mv	a1,a5
ffffffc0504053ae:	00008517          	auipc	a0,0x8
ffffffc0504053b2:	c1250513          	addi	a0,a0,-1006 # ffffffc05040cfc0 <__FUNCTION__.1870+0x100>
ffffffc0504053b6:	434070ef          	jal	ra,ffffffc05040c7ea <printk>
ffffffc0504053ba:	fd042703          	lw	a4,-48(s0)
ffffffc0504053be:	67a9                	lui	a5,0xa
ffffffc0504053c0:	f0178693          	addi	a3,a5,-255 # 9f01 <_start-0xffffffc0503f60ff>
ffffffc0504053c4:	4649                	li	a2,18
ffffffc0504053c6:	85ba                	mv	a1,a4
ffffffc0504053c8:	fd843503          	ld	a0,-40(s0)
ffffffc0504053cc:	fc7fe0ef          	jal	ra,ffffffc050404392 <XEmacPs_PhyWrite>
ffffffc0504053d0:	fea43423          	sd	a0,-24(s0)
ffffffc0504053d4:	fd042783          	lw	a5,-48(s0)
ffffffc0504053d8:	469d                	li	a3,7
ffffffc0504053da:	467d                	li	a2,31
ffffffc0504053dc:	85be                	mv	a1,a5
ffffffc0504053de:	fd843503          	ld	a0,-40(s0)
ffffffc0504053e2:	fb1fe0ef          	jal	ra,ffffffc050404392 <XEmacPs_PhyWrite>
ffffffc0504053e6:	fea43423          	sd	a0,-24(s0)
ffffffc0504053ea:	fd042783          	lw	a5,-48(s0)
ffffffc0504053ee:	0a400693          	li	a3,164
ffffffc0504053f2:	4679                	li	a2,30
ffffffc0504053f4:	85be                	mv	a1,a5
ffffffc0504053f6:	fd843503          	ld	a0,-40(s0)
ffffffc0504053fa:	f99fe0ef          	jal	ra,ffffffc050404392 <XEmacPs_PhyWrite>
ffffffc0504053fe:	fea43423          	sd	a0,-24(s0)
ffffffc050405402:	fe640713          	addi	a4,s0,-26
ffffffc050405406:	fd042783          	lw	a5,-48(s0)
ffffffc05040540a:	86ba                	mv	a3,a4
ffffffc05040540c:	4671                	li	a2,28
ffffffc05040540e:	85be                	mv	a1,a5
ffffffc050405410:	fd843503          	ld	a0,-40(s0)
ffffffc050405414:	ea7fe0ef          	jal	ra,ffffffc0504042ba <XEmacPs_PhyRead>
ffffffc050405418:	fea43423          	sd	a0,-24(s0)
ffffffc05040541c:	fe645783          	lhu	a5,-26(s0)
ffffffc050405420:	0067e793          	ori	a5,a5,6
ffffffc050405424:	17c2                	slli	a5,a5,0x30
ffffffc050405426:	93c1                	srli	a5,a5,0x30
ffffffc050405428:	fef41323          	sh	a5,-26(s0)
ffffffc05040542c:	fe645703          	lhu	a4,-26(s0)
ffffffc050405430:	77ed                	lui	a5,0xffffb
ffffffc050405432:	40078793          	addi	a5,a5,1024 # ffffffffffffb400 <__BSS_END__+0x3faf3f8e00>
ffffffc050405436:	8fd9                	or	a5,a5,a4
ffffffc050405438:	17c2                	slli	a5,a5,0x30
ffffffc05040543a:	93c1                	srli	a5,a5,0x30
ffffffc05040543c:	fef41323          	sh	a5,-26(s0)
ffffffc050405440:	fe645703          	lhu	a4,-26(s0)
ffffffc050405444:	fd042783          	lw	a5,-48(s0)
ffffffc050405448:	86ba                	mv	a3,a4
ffffffc05040544a:	4671                	li	a2,28
ffffffc05040544c:	85be                	mv	a1,a5
ffffffc05040544e:	fd843503          	ld	a0,-40(s0)
ffffffc050405452:	f41fe0ef          	jal	ra,ffffffc050404392 <XEmacPs_PhyWrite>
ffffffc050405456:	fea43423          	sd	a0,-24(s0)
ffffffc05040545a:	fd042783          	lw	a5,-48(s0)
ffffffc05040545e:	4681                	li	a3,0
ffffffc050405460:	467d                	li	a2,31
ffffffc050405462:	85be                	mv	a1,a5
ffffffc050405464:	fd843503          	ld	a0,-40(s0)
ffffffc050405468:	f2bfe0ef          	jal	ra,ffffffc050404392 <XEmacPs_PhyWrite>
ffffffc05040546c:	fea43423          	sd	a0,-24(s0)
ffffffc050405470:	fe640713          	addi	a4,s0,-26
ffffffc050405474:	fd042783          	lw	a5,-48(s0)
ffffffc050405478:	86ba                	mv	a3,a4
ffffffc05040547a:	4601                	li	a2,0
ffffffc05040547c:	85be                	mv	a1,a5
ffffffc05040547e:	fd843503          	ld	a0,-40(s0)
ffffffc050405482:	e39fe0ef          	jal	ra,ffffffc0504042ba <XEmacPs_PhyRead>
ffffffc050405486:	fea43423          	sd	a0,-24(s0)
ffffffc05040548a:	fe645703          	lhu	a4,-26(s0)
ffffffc05040548e:	6791                	lui	a5,0x4
ffffffc050405490:	8fd9                	or	a5,a5,a4
ffffffc050405492:	17c2                	slli	a5,a5,0x30
ffffffc050405494:	93c1                	srli	a5,a5,0x30
ffffffc050405496:	fef41323          	sh	a5,-26(s0)
ffffffc05040549a:	fe645703          	lhu	a4,-26(s0)
ffffffc05040549e:	fd042783          	lw	a5,-48(s0)
ffffffc0504054a2:	86ba                	mv	a3,a4
ffffffc0504054a4:	4601                	li	a2,0
ffffffc0504054a6:	85be                	mv	a1,a5
ffffffc0504054a8:	fd843503          	ld	a0,-40(s0)
ffffffc0504054ac:	ee7fe0ef          	jal	ra,ffffffc050404392 <XEmacPs_PhyWrite>
ffffffc0504054b0:	fea43423          	sd	a0,-24(s0)
ffffffc0504054b4:	fe640713          	addi	a4,s0,-26
ffffffc0504054b8:	fd042783          	lw	a5,-48(s0)
ffffffc0504054bc:	86ba                	mv	a3,a4
ffffffc0504054be:	4601                	li	a2,0
ffffffc0504054c0:	85be                	mv	a1,a5
ffffffc0504054c2:	fd843503          	ld	a0,-40(s0)
ffffffc0504054c6:	df5fe0ef          	jal	ra,ffffffc0504042ba <XEmacPs_PhyRead>
ffffffc0504054ca:	fea43423          	sd	a0,-24(s0)
ffffffc0504054ce:	fe843783          	ld	a5,-24(s0)
ffffffc0504054d2:	cb89                	beqz	a5,ffffffc0504054e4 <EmacPsUtilRtlPhyLoopback+0x248>
ffffffc0504054d4:	00008517          	auipc	a0,0x8
ffffffc0504054d8:	abc50513          	addi	a0,a0,-1348 # ffffffc05040cf90 <__FUNCTION__.1870+0xd0>
ffffffc0504054dc:	60a000ef          	jal	ra,ffffffc050405ae6 <EmacPsUtilErrorTrap>
ffffffc0504054e0:	4785                	li	a5,1
ffffffc0504054e2:	aa45                	j	ffffffc050405692 <EmacPsUtilRtlPhyLoopback+0x3f6>
ffffffc0504054e4:	00008517          	auipc	a0,0x8
ffffffc0504054e8:	b0450513          	addi	a0,a0,-1276 # ffffffc05040cfe8 <__FUNCTION__.1870+0x128>
ffffffc0504054ec:	2fe070ef          	jal	ra,ffffffc05040c7ea <printk>
ffffffc0504054f0:	fe640713          	addi	a4,s0,-26
ffffffc0504054f4:	fd042783          	lw	a5,-48(s0)
ffffffc0504054f8:	86ba                	mv	a3,a4
ffffffc0504054fa:	464d                	li	a2,19
ffffffc0504054fc:	85be                	mv	a1,a5
ffffffc0504054fe:	fd843503          	ld	a0,-40(s0)
ffffffc050405502:	db9fe0ef          	jal	ra,ffffffc0504042ba <XEmacPs_PhyRead>
ffffffc050405506:	fea43423          	sd	a0,-24(s0)
ffffffc05040550a:	00008517          	auipc	a0,0x8
ffffffc05040550e:	afe50513          	addi	a0,a0,-1282 # ffffffc05040d008 <__FUNCTION__.1870+0x148>
ffffffc050405512:	2d8070ef          	jal	ra,ffffffc05040c7ea <printk>
ffffffc050405516:	fe041223          	sh	zero,-28(s0)
ffffffc05040551a:	00008517          	auipc	a0,0x8
ffffffc05040551e:	b0650513          	addi	a0,a0,-1274 # ffffffc05040d020 <__FUNCTION__.1870+0x160>
ffffffc050405522:	2c8070ef          	jal	ra,ffffffc05040c7ea <printk>
ffffffc050405526:	4529                	li	a0,10
ffffffc050405528:	45e000ef          	jal	ra,ffffffc050405986 <EmacpsDelay>
ffffffc05040552c:	fe440713          	addi	a4,s0,-28
ffffffc050405530:	fd042783          	lw	a5,-48(s0)
ffffffc050405534:	86ba                	mv	a3,a4
ffffffc050405536:	4645                	li	a2,17
ffffffc050405538:	85be                	mv	a1,a5
ffffffc05040553a:	fd843503          	ld	a0,-40(s0)
ffffffc05040553e:	d7dfe0ef          	jal	ra,ffffffc0504042ba <XEmacPs_PhyRead>
ffffffc050405542:	fea43423          	sd	a0,-24(s0)
ffffffc050405546:	fe445783          	lhu	a5,-28(s0)
ffffffc05040554a:	0007871b          	sext.w	a4,a5
ffffffc05040554e:	6785                	lui	a5,0x1
ffffffc050405550:	c0078793          	addi	a5,a5,-1024 # c00 <_start-0xffffffc0503ff400>
ffffffc050405554:	8ff9                	and	a5,a5,a4
ffffffc050405556:	2781                	sext.w	a5,a5
ffffffc050405558:	873e                	mv	a4,a5
ffffffc05040555a:	6785                	lui	a5,0x1
ffffffc05040555c:	c0078793          	addi	a5,a5,-1024 # c00 <_start-0xffffffc0503ff400>
ffffffc050405560:	faf71de3          	bne	a4,a5,ffffffc05040551a <EmacPsUtilRtlPhyLoopback+0x27e>
ffffffc050405564:	00008517          	auipc	a0,0x8
ffffffc050405568:	ac450513          	addi	a0,a0,-1340 # ffffffc05040d028 <__FUNCTION__.1870+0x168>
ffffffc05040556c:	27e070ef          	jal	ra,ffffffc05040c7ea <printk>
ffffffc050405570:	fe041323          	sh	zero,-26(s0)
ffffffc050405574:	fe640713          	addi	a4,s0,-26
ffffffc050405578:	fd042783          	lw	a5,-48(s0)
ffffffc05040557c:	86ba                	mv	a3,a4
ffffffc05040557e:	4601                	li	a2,0
ffffffc050405580:	85be                	mv	a1,a5
ffffffc050405582:	fd843503          	ld	a0,-40(s0)
ffffffc050405586:	d35fe0ef          	jal	ra,ffffffc0504042ba <XEmacPs_PhyRead>
ffffffc05040558a:	fea43423          	sd	a0,-24(s0)
ffffffc05040558e:	fe843783          	ld	a5,-24(s0)
ffffffc050405592:	cb89                	beqz	a5,ffffffc0504055a4 <EmacPsUtilRtlPhyLoopback+0x308>
ffffffc050405594:	00008517          	auipc	a0,0x8
ffffffc050405598:	9fc50513          	addi	a0,a0,-1540 # ffffffc05040cf90 <__FUNCTION__.1870+0xd0>
ffffffc05040559c:	54a000ef          	jal	ra,ffffffc050405ae6 <EmacPsUtilErrorTrap>
ffffffc0504055a0:	4785                	li	a5,1
ffffffc0504055a2:	a8c5                	j	ffffffc050405692 <EmacPsUtilRtlPhyLoopback+0x3f6>
ffffffc0504055a4:	fe645783          	lhu	a5,-26(s0)
ffffffc0504055a8:	2781                	sext.w	a5,a5
ffffffc0504055aa:	85be                	mv	a1,a5
ffffffc0504055ac:	00008517          	auipc	a0,0x8
ffffffc0504055b0:	a8c50513          	addi	a0,a0,-1396 # ffffffc05040d038 <__FUNCTION__.1870+0x178>
ffffffc0504055b4:	236070ef          	jal	ra,ffffffc05040c7ea <printk>
ffffffc0504055b8:	fe041323          	sh	zero,-26(s0)
ffffffc0504055bc:	fe640713          	addi	a4,s0,-26
ffffffc0504055c0:	fd042783          	lw	a5,-48(s0)
ffffffc0504055c4:	86ba                	mv	a3,a4
ffffffc0504055c6:	4605                	li	a2,1
ffffffc0504055c8:	85be                	mv	a1,a5
ffffffc0504055ca:	fd843503          	ld	a0,-40(s0)
ffffffc0504055ce:	cedfe0ef          	jal	ra,ffffffc0504042ba <XEmacPs_PhyRead>
ffffffc0504055d2:	fea43423          	sd	a0,-24(s0)
ffffffc0504055d6:	fe843783          	ld	a5,-24(s0)
ffffffc0504055da:	cb89                	beqz	a5,ffffffc0504055ec <EmacPsUtilRtlPhyLoopback+0x350>
ffffffc0504055dc:	00008517          	auipc	a0,0x8
ffffffc0504055e0:	9b450513          	addi	a0,a0,-1612 # ffffffc05040cf90 <__FUNCTION__.1870+0xd0>
ffffffc0504055e4:	502000ef          	jal	ra,ffffffc050405ae6 <EmacPsUtilErrorTrap>
ffffffc0504055e8:	4785                	li	a5,1
ffffffc0504055ea:	a065                	j	ffffffc050405692 <EmacPsUtilRtlPhyLoopback+0x3f6>
ffffffc0504055ec:	fe645783          	lhu	a5,-26(s0)
ffffffc0504055f0:	2781                	sext.w	a5,a5
ffffffc0504055f2:	85be                	mv	a1,a5
ffffffc0504055f4:	00008517          	auipc	a0,0x8
ffffffc0504055f8:	a5450513          	addi	a0,a0,-1452 # ffffffc05040d048 <__FUNCTION__.1870+0x188>
ffffffc0504055fc:	1ee070ef          	jal	ra,ffffffc05040c7ea <printk>
ffffffc050405600:	fe041323          	sh	zero,-26(s0)
ffffffc050405604:	fe640713          	addi	a4,s0,-26
ffffffc050405608:	fd042783          	lw	a5,-48(s0)
ffffffc05040560c:	86ba                	mv	a3,a4
ffffffc05040560e:	4641                	li	a2,16
ffffffc050405610:	85be                	mv	a1,a5
ffffffc050405612:	fd843503          	ld	a0,-40(s0)
ffffffc050405616:	ca5fe0ef          	jal	ra,ffffffc0504042ba <XEmacPs_PhyRead>
ffffffc05040561a:	fea43423          	sd	a0,-24(s0)
ffffffc05040561e:	fe843783          	ld	a5,-24(s0)
ffffffc050405622:	cb89                	beqz	a5,ffffffc050405634 <EmacPsUtilRtlPhyLoopback+0x398>
ffffffc050405624:	00008517          	auipc	a0,0x8
ffffffc050405628:	96c50513          	addi	a0,a0,-1684 # ffffffc05040cf90 <__FUNCTION__.1870+0xd0>
ffffffc05040562c:	4ba000ef          	jal	ra,ffffffc050405ae6 <EmacPsUtilErrorTrap>
ffffffc050405630:	4785                	li	a5,1
ffffffc050405632:	a085                	j	ffffffc050405692 <EmacPsUtilRtlPhyLoopback+0x3f6>
ffffffc050405634:	fe645783          	lhu	a5,-26(s0)
ffffffc050405638:	2781                	sext.w	a5,a5
ffffffc05040563a:	85be                	mv	a1,a5
ffffffc05040563c:	00008517          	auipc	a0,0x8
ffffffc050405640:	a1c50513          	addi	a0,a0,-1508 # ffffffc05040d058 <__FUNCTION__.1870+0x198>
ffffffc050405644:	1a6070ef          	jal	ra,ffffffc05040c7ea <printk>
ffffffc050405648:	fe041323          	sh	zero,-26(s0)
ffffffc05040564c:	fe640713          	addi	a4,s0,-26
ffffffc050405650:	fd042783          	lw	a5,-48(s0)
ffffffc050405654:	86ba                	mv	a3,a4
ffffffc050405656:	4645                	li	a2,17
ffffffc050405658:	85be                	mv	a1,a5
ffffffc05040565a:	fd843503          	ld	a0,-40(s0)
ffffffc05040565e:	c5dfe0ef          	jal	ra,ffffffc0504042ba <XEmacPs_PhyRead>
ffffffc050405662:	fea43423          	sd	a0,-24(s0)
ffffffc050405666:	fe843783          	ld	a5,-24(s0)
ffffffc05040566a:	cb89                	beqz	a5,ffffffc05040567c <EmacPsUtilRtlPhyLoopback+0x3e0>
ffffffc05040566c:	00008517          	auipc	a0,0x8
ffffffc050405670:	92450513          	addi	a0,a0,-1756 # ffffffc05040cf90 <__FUNCTION__.1870+0xd0>
ffffffc050405674:	472000ef          	jal	ra,ffffffc050405ae6 <EmacPsUtilErrorTrap>
ffffffc050405678:	4785                	li	a5,1
ffffffc05040567a:	a821                	j	ffffffc050405692 <EmacPsUtilRtlPhyLoopback+0x3f6>
ffffffc05040567c:	fe645783          	lhu	a5,-26(s0)
ffffffc050405680:	2781                	sext.w	a5,a5
ffffffc050405682:	85be                	mv	a1,a5
ffffffc050405684:	00008517          	auipc	a0,0x8
ffffffc050405688:	9e450513          	addi	a0,a0,-1564 # ffffffc05040d068 <__FUNCTION__.1870+0x1a8>
ffffffc05040568c:	15e070ef          	jal	ra,ffffffc05040c7ea <printk>
ffffffc050405690:	4781                	li	a5,0
ffffffc050405692:	853e                	mv	a0,a5
ffffffc050405694:	70a2                	ld	ra,40(sp)
ffffffc050405696:	7402                	ld	s0,32(sp)
ffffffc050405698:	6145                	addi	sp,sp,48
ffffffc05040569a:	8082                	ret

ffffffc05040569c <EmacPsUtilRtlPhyInit>:
ffffffc05040569c:	715d                	addi	sp,sp,-80
ffffffc05040569e:	e486                	sd	ra,72(sp)
ffffffc0504056a0:	e0a2                	sd	s0,64(sp)
ffffffc0504056a2:	0880                	addi	s0,sp,80
ffffffc0504056a4:	fca43423          	sd	a0,-56(s0)
ffffffc0504056a8:	fcb43023          	sd	a1,-64(s0)
ffffffc0504056ac:	87b2                	mv	a5,a2
ffffffc0504056ae:	faf42e23          	sw	a5,-68(s0)
ffffffc0504056b2:	fc041f23          	sh	zero,-34(s0)
ffffffc0504056b6:	fbc42783          	lw	a5,-68(s0)
ffffffc0504056ba:	14100693          	li	a3,321
ffffffc0504056be:	4611                	li	a2,4
ffffffc0504056c0:	85be                	mv	a1,a5
ffffffc0504056c2:	fc843503          	ld	a0,-56(s0)
ffffffc0504056c6:	ccdfe0ef          	jal	ra,ffffffc050404392 <XEmacPs_PhyWrite>
ffffffc0504056ca:	fea43423          	sd	a0,-24(s0)
ffffffc0504056ce:	77e5                	lui	a5,0xffff9
ffffffc0504056d0:	fcf41f23          	sh	a5,-34(s0)
ffffffc0504056d4:	fde45703          	lhu	a4,-34(s0)
ffffffc0504056d8:	fbc42783          	lw	a5,-68(s0)
ffffffc0504056dc:	86ba                	mv	a3,a4
ffffffc0504056de:	4601                	li	a2,0
ffffffc0504056e0:	85be                	mv	a1,a5
ffffffc0504056e2:	fc843503          	ld	a0,-56(s0)
ffffffc0504056e6:	cadfe0ef          	jal	ra,ffffffc050404392 <XEmacPs_PhyWrite>
ffffffc0504056ea:	fea43423          	sd	a0,-24(s0)
ffffffc0504056ee:	fde40713          	addi	a4,s0,-34
ffffffc0504056f2:	fbc42783          	lw	a5,-68(s0)
ffffffc0504056f6:	86ba                	mv	a3,a4
ffffffc0504056f8:	4601                	li	a2,0
ffffffc0504056fa:	85be                	mv	a1,a5
ffffffc0504056fc:	fc843503          	ld	a0,-56(s0)
ffffffc050405700:	bbbfe0ef          	jal	ra,ffffffc0504042ba <XEmacPs_PhyRead>
ffffffc050405704:	fea43423          	sd	a0,-24(s0)
ffffffc050405708:	fe843783          	ld	a5,-24(s0)
ffffffc05040570c:	cb89                	beqz	a5,ffffffc05040571e <EmacPsUtilRtlPhyInit+0x82>
ffffffc05040570e:	00008517          	auipc	a0,0x8
ffffffc050405712:	87250513          	addi	a0,a0,-1934 # ffffffc05040cf80 <__FUNCTION__.1870+0xc0>
ffffffc050405716:	3d0000ef          	jal	ra,ffffffc050405ae6 <EmacPsUtilErrorTrap>
ffffffc05040571a:	4785                	li	a5,1
ffffffc05040571c:	a485                	j	ffffffc05040597c <EmacPsUtilRtlPhyInit+0x2e0>
ffffffc05040571e:	fde45783          	lhu	a5,-34(s0)
ffffffc050405722:	2781                	sext.w	a5,a5
ffffffc050405724:	85be                	mv	a1,a5
ffffffc050405726:	00008517          	auipc	a0,0x8
ffffffc05040572a:	89a50513          	addi	a0,a0,-1894 # ffffffc05040cfc0 <__FUNCTION__.1870+0x100>
ffffffc05040572e:	0bc070ef          	jal	ra,ffffffc05040c7ea <printk>
ffffffc050405732:	fbc42703          	lw	a4,-68(s0)
ffffffc050405736:	67a9                	lui	a5,0xa
ffffffc050405738:	f0178693          	addi	a3,a5,-255 # 9f01 <_start-0xffffffc0503f60ff>
ffffffc05040573c:	4649                	li	a2,18
ffffffc05040573e:	85ba                	mv	a1,a4
ffffffc050405740:	fc843503          	ld	a0,-56(s0)
ffffffc050405744:	c4ffe0ef          	jal	ra,ffffffc050404392 <XEmacPs_PhyWrite>
ffffffc050405748:	fea43423          	sd	a0,-24(s0)
ffffffc05040574c:	fbc42783          	lw	a5,-68(s0)
ffffffc050405750:	469d                	li	a3,7
ffffffc050405752:	467d                	li	a2,31
ffffffc050405754:	85be                	mv	a1,a5
ffffffc050405756:	fc843503          	ld	a0,-56(s0)
ffffffc05040575a:	c39fe0ef          	jal	ra,ffffffc050404392 <XEmacPs_PhyWrite>
ffffffc05040575e:	fea43423          	sd	a0,-24(s0)
ffffffc050405762:	fbc42783          	lw	a5,-68(s0)
ffffffc050405766:	0a400693          	li	a3,164
ffffffc05040576a:	4679                	li	a2,30
ffffffc05040576c:	85be                	mv	a1,a5
ffffffc05040576e:	fc843503          	ld	a0,-56(s0)
ffffffc050405772:	c21fe0ef          	jal	ra,ffffffc050404392 <XEmacPs_PhyWrite>
ffffffc050405776:	fea43423          	sd	a0,-24(s0)
ffffffc05040577a:	fde40713          	addi	a4,s0,-34
ffffffc05040577e:	fbc42783          	lw	a5,-68(s0)
ffffffc050405782:	86ba                	mv	a3,a4
ffffffc050405784:	4671                	li	a2,28
ffffffc050405786:	85be                	mv	a1,a5
ffffffc050405788:	fc843503          	ld	a0,-56(s0)
ffffffc05040578c:	b2ffe0ef          	jal	ra,ffffffc0504042ba <XEmacPs_PhyRead>
ffffffc050405790:	fea43423          	sd	a0,-24(s0)
ffffffc050405794:	fde45783          	lhu	a5,-34(s0)
ffffffc050405798:	0067e793          	ori	a5,a5,6
ffffffc05040579c:	17c2                	slli	a5,a5,0x30
ffffffc05040579e:	93c1                	srli	a5,a5,0x30
ffffffc0504057a0:	fcf41f23          	sh	a5,-34(s0)
ffffffc0504057a4:	fde45703          	lhu	a4,-34(s0)
ffffffc0504057a8:	fbc42783          	lw	a5,-68(s0)
ffffffc0504057ac:	86ba                	mv	a3,a4
ffffffc0504057ae:	4671                	li	a2,28
ffffffc0504057b0:	85be                	mv	a1,a5
ffffffc0504057b2:	fc843503          	ld	a0,-56(s0)
ffffffc0504057b6:	bddfe0ef          	jal	ra,ffffffc050404392 <XEmacPs_PhyWrite>
ffffffc0504057ba:	fea43423          	sd	a0,-24(s0)
ffffffc0504057be:	fbc42783          	lw	a5,-68(s0)
ffffffc0504057c2:	4681                	li	a3,0
ffffffc0504057c4:	467d                	li	a2,31
ffffffc0504057c6:	85be                	mv	a1,a5
ffffffc0504057c8:	fc843503          	ld	a0,-56(s0)
ffffffc0504057cc:	bc7fe0ef          	jal	ra,ffffffc050404392 <XEmacPs_PhyWrite>
ffffffc0504057d0:	fea43423          	sd	a0,-24(s0)
ffffffc0504057d4:	fde40713          	addi	a4,s0,-34
ffffffc0504057d8:	fbc42783          	lw	a5,-68(s0)
ffffffc0504057dc:	86ba                	mv	a3,a4
ffffffc0504057de:	464d                	li	a2,19
ffffffc0504057e0:	85be                	mv	a1,a5
ffffffc0504057e2:	fc843503          	ld	a0,-56(s0)
ffffffc0504057e6:	ad5fe0ef          	jal	ra,ffffffc0504042ba <XEmacPs_PhyRead>
ffffffc0504057ea:	fea43423          	sd	a0,-24(s0)
ffffffc0504057ee:	00008517          	auipc	a0,0x8
ffffffc0504057f2:	88a50513          	addi	a0,a0,-1910 # ffffffc05040d078 <__FUNCTION__.1870+0x1b8>
ffffffc0504057f6:	7f5060ef          	jal	ra,ffffffc05040c7ea <printk>
ffffffc0504057fa:	fc041e23          	sh	zero,-36(s0)
ffffffc0504057fe:	00008517          	auipc	a0,0x8
ffffffc050405802:	89a50513          	addi	a0,a0,-1894 # ffffffc05040d098 <__FUNCTION__.1870+0x1d8>
ffffffc050405806:	7e5060ef          	jal	ra,ffffffc05040c7ea <printk>
ffffffc05040580a:	4529                	li	a0,10
ffffffc05040580c:	17a000ef          	jal	ra,ffffffc050405986 <EmacpsDelay>
ffffffc050405810:	fdc40713          	addi	a4,s0,-36
ffffffc050405814:	fbc42783          	lw	a5,-68(s0)
ffffffc050405818:	86ba                	mv	a3,a4
ffffffc05040581a:	4645                	li	a2,17
ffffffc05040581c:	85be                	mv	a1,a5
ffffffc05040581e:	fc843503          	ld	a0,-56(s0)
ffffffc050405822:	a99fe0ef          	jal	ra,ffffffc0504042ba <XEmacPs_PhyRead>
ffffffc050405826:	fea43423          	sd	a0,-24(s0)
ffffffc05040582a:	fdc45783          	lhu	a5,-36(s0)
ffffffc05040582e:	0007871b          	sext.w	a4,a5
ffffffc050405832:	6785                	lui	a5,0x1
ffffffc050405834:	c0078793          	addi	a5,a5,-1024 # c00 <_start-0xffffffc0503ff400>
ffffffc050405838:	8ff9                	and	a5,a5,a4
ffffffc05040583a:	2781                	sext.w	a5,a5
ffffffc05040583c:	873e                	mv	a4,a5
ffffffc05040583e:	6785                	lui	a5,0x1
ffffffc050405840:	c0078793          	addi	a5,a5,-1024 # c00 <_start-0xffffffc0503ff400>
ffffffc050405844:	faf71de3          	bne	a4,a5,ffffffc0504057fe <EmacPsUtilRtlPhyInit+0x162>
ffffffc050405848:	00007517          	auipc	a0,0x7
ffffffc05040584c:	7e050513          	addi	a0,a0,2016 # ffffffc05040d028 <__FUNCTION__.1870+0x168>
ffffffc050405850:	79b060ef          	jal	ra,ffffffc05040c7ea <printk>
ffffffc050405854:	00008517          	auipc	a0,0x8
ffffffc050405858:	84c50513          	addi	a0,a0,-1972 # ffffffc05040d0a0 <__FUNCTION__.1870+0x1e0>
ffffffc05040585c:	78f060ef          	jal	ra,ffffffc05040c7ea <printk>
ffffffc050405860:	fc041d23          	sh	zero,-38(s0)
ffffffc050405864:	00008517          	auipc	a0,0x8
ffffffc050405868:	83450513          	addi	a0,a0,-1996 # ffffffc05040d098 <__FUNCTION__.1870+0x1d8>
ffffffc05040586c:	77f060ef          	jal	ra,ffffffc05040c7ea <printk>
ffffffc050405870:	4529                	li	a0,10
ffffffc050405872:	114000ef          	jal	ra,ffffffc050405986 <EmacpsDelay>
ffffffc050405876:	fda40713          	addi	a4,s0,-38
ffffffc05040587a:	fbc42783          	lw	a5,-68(s0)
ffffffc05040587e:	86ba                	mv	a3,a4
ffffffc050405880:	4605                	li	a2,1
ffffffc050405882:	85be                	mv	a1,a5
ffffffc050405884:	fc843503          	ld	a0,-56(s0)
ffffffc050405888:	a33fe0ef          	jal	ra,ffffffc0504042ba <XEmacPs_PhyRead>
ffffffc05040588c:	fea43423          	sd	a0,-24(s0)
ffffffc050405890:	fda45783          	lhu	a5,-38(s0)
ffffffc050405894:	2781                	sext.w	a5,a5
ffffffc050405896:	0207f793          	andi	a5,a5,32
ffffffc05040589a:	2781                	sext.w	a5,a5
ffffffc05040589c:	d7e1                	beqz	a5,ffffffc050405864 <EmacPsUtilRtlPhyInit+0x1c8>
ffffffc05040589e:	00007517          	auipc	a0,0x7
ffffffc0504058a2:	78a50513          	addi	a0,a0,1930 # ffffffc05040d028 <__FUNCTION__.1870+0x168>
ffffffc0504058a6:	745060ef          	jal	ra,ffffffc05040c7ea <printk>
ffffffc0504058aa:	fdc40713          	addi	a4,s0,-36
ffffffc0504058ae:	fbc42783          	lw	a5,-68(s0)
ffffffc0504058b2:	86ba                	mv	a3,a4
ffffffc0504058b4:	4645                	li	a2,17
ffffffc0504058b6:	85be                	mv	a1,a5
ffffffc0504058b8:	fc843503          	ld	a0,-56(s0)
ffffffc0504058bc:	9fffe0ef          	jal	ra,ffffffc0504042ba <XEmacPs_PhyRead>
ffffffc0504058c0:	fea43423          	sd	a0,-24(s0)
ffffffc0504058c4:	fdc45783          	lhu	a5,-36(s0)
ffffffc0504058c8:	2781                	sext.w	a5,a5
ffffffc0504058ca:	873e                	mv	a4,a5
ffffffc0504058cc:	67b1                	lui	a5,0xc
ffffffc0504058ce:	8ff9                	and	a5,a5,a4
ffffffc0504058d0:	fef42223          	sw	a5,-28(s0)
ffffffc0504058d4:	fe442783          	lw	a5,-28(s0)
ffffffc0504058d8:	0007871b          	sext.w	a4,a5
ffffffc0504058dc:	67a1                	lui	a5,0x8
ffffffc0504058de:	04f70063          	beq	a4,a5,ffffffc05040591e <EmacPsUtilRtlPhyInit+0x282>
ffffffc0504058e2:	fe442783          	lw	a5,-28(s0)
ffffffc0504058e6:	0007871b          	sext.w	a4,a5
ffffffc0504058ea:	67a1                	lui	a5,0x8
ffffffc0504058ec:	02e7ef63          	bltu	a5,a4,ffffffc05040592a <EmacPsUtilRtlPhyInit+0x28e>
ffffffc0504058f0:	fe442783          	lw	a5,-28(s0)
ffffffc0504058f4:	2781                	sext.w	a5,a5
ffffffc0504058f6:	cb89                	beqz	a5,ffffffc050405908 <EmacPsUtilRtlPhyInit+0x26c>
ffffffc0504058f8:	fe442783          	lw	a5,-28(s0)
ffffffc0504058fc:	0007871b          	sext.w	a4,a5
ffffffc050405900:	6791                	lui	a5,0x4
ffffffc050405902:	00f70863          	beq	a4,a5,ffffffc050405912 <EmacPsUtilRtlPhyInit+0x276>
ffffffc050405906:	a015                	j	ffffffc05040592a <EmacPsUtilRtlPhyInit+0x28e>
ffffffc050405908:	fc043783          	ld	a5,-64(s0)
ffffffc05040590c:	4729                	li	a4,10
ffffffc05040590e:	c398                	sw	a4,0(a5)
ffffffc050405910:	a02d                	j	ffffffc05040593a <EmacPsUtilRtlPhyInit+0x29e>
ffffffc050405912:	fc043783          	ld	a5,-64(s0)
ffffffc050405916:	06400713          	li	a4,100
ffffffc05040591a:	c398                	sw	a4,0(a5)
ffffffc05040591c:	a839                	j	ffffffc05040593a <EmacPsUtilRtlPhyInit+0x29e>
ffffffc05040591e:	fc043783          	ld	a5,-64(s0)
ffffffc050405922:	3e800713          	li	a4,1000
ffffffc050405926:	c398                	sw	a4,0(a5)
ffffffc050405928:	a809                	j	ffffffc05040593a <EmacPsUtilRtlPhyInit+0x29e>
ffffffc05040592a:	00007517          	auipc	a0,0x7
ffffffc05040592e:	7a650513          	addi	a0,a0,1958 # ffffffc05040d0d0 <__FUNCTION__.1870+0x210>
ffffffc050405932:	6b9060ef          	jal	ra,ffffffc05040c7ea <printk>
ffffffc050405936:	4785                	li	a5,1
ffffffc050405938:	a091                	j	ffffffc05040597c <EmacPsUtilRtlPhyInit+0x2e0>
ffffffc05040593a:	fdc45783          	lhu	a5,-36(s0)
ffffffc05040593e:	2781                	sext.w	a5,a5
ffffffc050405940:	873e                	mv	a4,a5
ffffffc050405942:	6789                	lui	a5,0x2
ffffffc050405944:	8ff9                	and	a5,a5,a4
ffffffc050405946:	fef42023          	sw	a5,-32(s0)
ffffffc05040594a:	fc043783          	ld	a5,-64(s0)
ffffffc05040594e:	4398                	lw	a4,0(a5)
ffffffc050405950:	fe042783          	lw	a5,-32(s0)
ffffffc050405954:	2781                	sext.w	a5,a5
ffffffc050405956:	e791                	bnez	a5,ffffffc050405962 <EmacPsUtilRtlPhyInit+0x2c6>
ffffffc050405958:	00007797          	auipc	a5,0x7
ffffffc05040595c:	79078793          	addi	a5,a5,1936 # ffffffc05040d0e8 <__FUNCTION__.1870+0x228>
ffffffc050405960:	a029                	j	ffffffc05040596a <EmacPsUtilRtlPhyInit+0x2ce>
ffffffc050405962:	00007797          	auipc	a5,0x7
ffffffc050405966:	78e78793          	addi	a5,a5,1934 # ffffffc05040d0f0 <__FUNCTION__.1870+0x230>
ffffffc05040596a:	863e                	mv	a2,a5
ffffffc05040596c:	85ba                	mv	a1,a4
ffffffc05040596e:	00007517          	auipc	a0,0x7
ffffffc050405972:	78a50513          	addi	a0,a0,1930 # ffffffc05040d0f8 <__FUNCTION__.1870+0x238>
ffffffc050405976:	675060ef          	jal	ra,ffffffc05040c7ea <printk>
ffffffc05040597a:	4781                	li	a5,0
ffffffc05040597c:	853e                	mv	a0,a5
ffffffc05040597e:	60a6                	ld	ra,72(sp)
ffffffc050405980:	6406                	ld	s0,64(sp)
ffffffc050405982:	6161                	addi	sp,sp,80
ffffffc050405984:	8082                	ret

ffffffc050405986 <EmacpsDelay>:
ffffffc050405986:	7179                	addi	sp,sp,-48
ffffffc050405988:	f422                	sd	s0,40(sp)
ffffffc05040598a:	1800                	addi	s0,sp,48
ffffffc05040598c:	87aa                	mv	a5,a0
ffffffc05040598e:	fcf42e23          	sw	a5,-36(s0)
ffffffc050405992:	fe043423          	sd	zero,-24(s0)
ffffffc050405996:	a031                	j	ffffffc0504059a2 <EmacpsDelay+0x1c>
ffffffc050405998:	fe843783          	ld	a5,-24(s0)
ffffffc05040599c:	0785                	addi	a5,a5,1
ffffffc05040599e:	fef43423          	sd	a5,-24(s0)
ffffffc0504059a2:	fdc42703          	lw	a4,-36(s0)
ffffffc0504059a6:	87ba                	mv	a5,a4
ffffffc0504059a8:	0107979b          	slliw	a5,a5,0x10
ffffffc0504059ac:	9f99                	subw	a5,a5,a4
ffffffc0504059ae:	2781                	sext.w	a5,a5
ffffffc0504059b0:	1782                	slli	a5,a5,0x20
ffffffc0504059b2:	9381                	srli	a5,a5,0x20
ffffffc0504059b4:	fe843703          	ld	a4,-24(s0)
ffffffc0504059b8:	fef760e3          	bltu	a4,a5,ffffffc050405998 <EmacpsDelay+0x12>
ffffffc0504059bc:	0001                	nop
ffffffc0504059be:	0001                	nop
ffffffc0504059c0:	7422                	ld	s0,40(sp)
ffffffc0504059c2:	6145                	addi	sp,sp,48
ffffffc0504059c4:	8082                	ret

ffffffc0504059c6 <EmacPsUtilEnterLoopback>:
ffffffc0504059c6:	7179                	addi	sp,sp,-48
ffffffc0504059c8:	f406                	sd	ra,40(sp)
ffffffc0504059ca:	f022                	sd	s0,32(sp)
ffffffc0504059cc:	1800                	addi	s0,sp,48
ffffffc0504059ce:	fca43c23          	sd	a0,-40(s0)
ffffffc0504059d2:	87ae                	mv	a5,a1
ffffffc0504059d4:	fcf42a23          	sw	a5,-44(s0)
ffffffc0504059d8:	fd843503          	ld	a0,-40(s0)
ffffffc0504059dc:	fdffe0ef          	jal	ra,ffffffc0504049ba <XEmacPsDetectPHY>
ffffffc0504059e0:	87aa                	mv	a5,a0
ffffffc0504059e2:	fef42223          	sw	a5,-28(s0)
ffffffc0504059e6:	fe442783          	lw	a5,-28(s0)
ffffffc0504059ea:	0007871b          	sext.w	a4,a5
ffffffc0504059ee:	47fd                	li	a5,31
ffffffc0504059f0:	00e7fa63          	bgeu	a5,a4,ffffffc050405a04 <EmacPsUtilEnterLoopback+0x3e>
ffffffc0504059f4:	00007517          	auipc	a0,0x7
ffffffc0504059f8:	72c50513          	addi	a0,a0,1836 # ffffffc05040d120 <__FUNCTION__.1870+0x260>
ffffffc0504059fc:	0ea000ef          	jal	ra,ffffffc050405ae6 <EmacPsUtilErrorTrap>
ffffffc050405a00:	4785                	li	a5,1
ffffffc050405a02:	a8e9                	j	ffffffc050405adc <EmacPsUtilEnterLoopback+0x116>
ffffffc050405a04:	fe240713          	addi	a4,s0,-30
ffffffc050405a08:	fe442783          	lw	a5,-28(s0)
ffffffc050405a0c:	86ba                	mv	a3,a4
ffffffc050405a0e:	4609                	li	a2,2
ffffffc050405a10:	85be                	mv	a1,a5
ffffffc050405a12:	fd843503          	ld	a0,-40(s0)
ffffffc050405a16:	8a5fe0ef          	jal	ra,ffffffc0504042ba <XEmacPs_PhyRead>
ffffffc050405a1a:	87aa                	mv	a5,a0
ffffffc050405a1c:	c799                	beqz	a5,ffffffc050405a2a <EmacPsUtilEnterLoopback+0x64>
ffffffc050405a1e:	00007517          	auipc	a0,0x7
ffffffc050405a22:	71a50513          	addi	a0,a0,1818 # ffffffc05040d138 <__FUNCTION__.1870+0x278>
ffffffc050405a26:	0c0000ef          	jal	ra,ffffffc050405ae6 <EmacPsUtilErrorTrap>
ffffffc050405a2a:	fe245783          	lhu	a5,-30(s0)
ffffffc050405a2e:	0007871b          	sext.w	a4,a5
ffffffc050405a32:	14100793          	li	a5,321
ffffffc050405a36:	00f71f63          	bne	a4,a5,ffffffc050405a54 <EmacPsUtilEnterLoopback+0x8e>
ffffffc050405a3a:	fe442703          	lw	a4,-28(s0)
ffffffc050405a3e:	fd442783          	lw	a5,-44(s0)
ffffffc050405a42:	863a                	mv	a2,a4
ffffffc050405a44:	85be                	mv	a1,a5
ffffffc050405a46:	fd843503          	ld	a0,-40(s0)
ffffffc050405a4a:	826ff0ef          	jal	ra,ffffffc050404a70 <EmacPsUtilMarvellPhyLoopback>
ffffffc050405a4e:	fea43423          	sd	a0,-24(s0)
ffffffc050405a52:	a88d                	j	ffffffc050405ac4 <EmacPsUtilEnterLoopback+0xfe>
ffffffc050405a54:	fe245783          	lhu	a5,-30(s0)
ffffffc050405a58:	0007871b          	sext.w	a4,a5
ffffffc050405a5c:	6789                	lui	a5,0x2
ffffffc050405a5e:	00f71f63          	bne	a4,a5,ffffffc050405a7c <EmacPsUtilEnterLoopback+0xb6>
ffffffc050405a62:	fe442703          	lw	a4,-28(s0)
ffffffc050405a66:	fd442783          	lw	a5,-44(s0)
ffffffc050405a6a:	863a                	mv	a2,a4
ffffffc050405a6c:	85be                	mv	a1,a5
ffffffc050405a6e:	fd843503          	ld	a0,-40(s0)
ffffffc050405a72:	a94ff0ef          	jal	ra,ffffffc050404d06 <EmacPsUtilTiPhyLoopback>
ffffffc050405a76:	fea43423          	sd	a0,-24(s0)
ffffffc050405a7a:	a0a9                	j	ffffffc050405ac4 <EmacPsUtilEnterLoopback+0xfe>
ffffffc050405a7c:	fe245783          	lhu	a5,-30(s0)
ffffffc050405a80:	0007871b          	sext.w	a4,a5
ffffffc050405a84:	47f1                	li	a5,28
ffffffc050405a86:	00f71f63          	bne	a4,a5,ffffffc050405aa4 <EmacPsUtilEnterLoopback+0xde>
ffffffc050405a8a:	fe442703          	lw	a4,-28(s0)
ffffffc050405a8e:	fd442783          	lw	a5,-44(s0)
ffffffc050405a92:	863a                	mv	a2,a4
ffffffc050405a94:	85be                	mv	a1,a5
ffffffc050405a96:	fd843503          	ld	a0,-40(s0)
ffffffc050405a9a:	803ff0ef          	jal	ra,ffffffc05040529c <EmacPsUtilRtlPhyLoopback>
ffffffc050405a9e:	fea43423          	sd	a0,-24(s0)
ffffffc050405aa2:	a00d                	j	ffffffc050405ac4 <EmacPsUtilEnterLoopback+0xfe>
ffffffc050405aa4:	fe245783          	lhu	a5,-30(s0)
ffffffc050405aa8:	2781                	sext.w	a5,a5
ffffffc050405aaa:	85be                	mv	a1,a5
ffffffc050405aac:	00007517          	auipc	a0,0x7
ffffffc050405ab0:	69c50513          	addi	a0,a0,1692 # ffffffc05040d148 <__FUNCTION__.1870+0x288>
ffffffc050405ab4:	537060ef          	jal	ra,ffffffc05040c7ea <printk>
ffffffc050405ab8:	00007517          	auipc	a0,0x7
ffffffc050405abc:	6a850513          	addi	a0,a0,1704 # ffffffc05040d160 <__FUNCTION__.1870+0x2a0>
ffffffc050405ac0:	026000ef          	jal	ra,ffffffc050405ae6 <EmacPsUtilErrorTrap>
ffffffc050405ac4:	fe843783          	ld	a5,-24(s0)
ffffffc050405ac8:	cb89                	beqz	a5,ffffffc050405ada <EmacPsUtilEnterLoopback+0x114>
ffffffc050405aca:	00007517          	auipc	a0,0x7
ffffffc050405ace:	4c650513          	addi	a0,a0,1222 # ffffffc05040cf90 <__FUNCTION__.1870+0xd0>
ffffffc050405ad2:	014000ef          	jal	ra,ffffffc050405ae6 <EmacPsUtilErrorTrap>
ffffffc050405ad6:	4785                	li	a5,1
ffffffc050405ad8:	a011                	j	ffffffc050405adc <EmacPsUtilEnterLoopback+0x116>
ffffffc050405ada:	4781                	li	a5,0
ffffffc050405adc:	853e                	mv	a0,a5
ffffffc050405ade:	70a2                	ld	ra,40(sp)
ffffffc050405ae0:	7402                	ld	s0,32(sp)
ffffffc050405ae2:	6145                	addi	sp,sp,48
ffffffc050405ae4:	8082                	ret

ffffffc050405ae6 <EmacPsUtilErrorTrap>:
ffffffc050405ae6:	1101                	addi	sp,sp,-32
ffffffc050405ae8:	ec06                	sd	ra,24(sp)
ffffffc050405aea:	e822                	sd	s0,16(sp)
ffffffc050405aec:	1000                	addi	s0,sp,32
ffffffc050405aee:	fea43423          	sd	a0,-24(s0)
ffffffc050405af2:	001fc797          	auipc	a5,0x1fc
ffffffc050405af6:	af678793          	addi	a5,a5,-1290 # ffffffc0506015e8 <Count.1710>
ffffffc050405afa:	439c                	lw	a5,0(a5)
ffffffc050405afc:	2785                	addiw	a5,a5,1
ffffffc050405afe:	0007871b          	sext.w	a4,a5
ffffffc050405b02:	001fc797          	auipc	a5,0x1fc
ffffffc050405b06:	ae678793          	addi	a5,a5,-1306 # ffffffc0506015e8 <Count.1710>
ffffffc050405b0a:	c398                	sw	a4,0(a5)
ffffffc050405b0c:	fe843583          	ld	a1,-24(s0)
ffffffc050405b10:	00007517          	auipc	a0,0x7
ffffffc050405b14:	66850513          	addi	a0,a0,1640 # ffffffc05040d178 <__FUNCTION__.1870+0x2b8>
ffffffc050405b18:	4d3060ef          	jal	ra,ffffffc05040c7ea <printk>
ffffffc050405b1c:	a001                	j	ffffffc050405b1c <EmacPsUtilErrorTrap+0x36>

ffffffc050405b1e <writel>:
ffffffc050405b1e:	1101                	addi	sp,sp,-32
ffffffc050405b20:	ec22                	sd	s0,24(sp)
ffffffc050405b22:	1000                	addi	s0,sp,32
ffffffc050405b24:	87aa                	mv	a5,a0
ffffffc050405b26:	feb43023          	sd	a1,-32(s0)
ffffffc050405b2a:	fef42623          	sw	a5,-20(s0)
ffffffc050405b2e:	0550000f          	fence	ow,ow
ffffffc050405b32:	fe043783          	ld	a5,-32(s0)
ffffffc050405b36:	fec42703          	lw	a4,-20(s0)
ffffffc050405b3a:	c398                	sw	a4,0(a5)
ffffffc050405b3c:	0001                	nop
ffffffc050405b3e:	6462                	ld	s0,24(sp)
ffffffc050405b40:	6105                	addi	sp,sp,32
ffffffc050405b42:	8082                	ret

ffffffc050405b44 <readl>:
ffffffc050405b44:	7179                	addi	sp,sp,-48
ffffffc050405b46:	f422                	sd	s0,40(sp)
ffffffc050405b48:	1800                	addi	s0,sp,48
ffffffc050405b4a:	fca43c23          	sd	a0,-40(s0)
ffffffc050405b4e:	fd843783          	ld	a5,-40(s0)
ffffffc050405b52:	439c                	lw	a5,0(a5)
ffffffc050405b54:	fef42623          	sw	a5,-20(s0)
ffffffc050405b58:	0aa0000f          	fence	ir,ir
ffffffc050405b5c:	fec42783          	lw	a5,-20(s0)
ffffffc050405b60:	853e                	mv	a0,a5
ffffffc050405b62:	7422                	ld	s0,40(sp)
ffffffc050405b64:	6145                	addi	sp,sp,48
ffffffc050405b66:	8082                	ret

ffffffc050405b68 <Xil_Out32>:
ffffffc050405b68:	1101                	addi	sp,sp,-32
ffffffc050405b6a:	ec06                	sd	ra,24(sp)
ffffffc050405b6c:	e822                	sd	s0,16(sp)
ffffffc050405b6e:	1000                	addi	s0,sp,32
ffffffc050405b70:	fea43423          	sd	a0,-24(s0)
ffffffc050405b74:	87ae                	mv	a5,a1
ffffffc050405b76:	fef42223          	sw	a5,-28(s0)
ffffffc050405b7a:	fe843703          	ld	a4,-24(s0)
ffffffc050405b7e:	fe442783          	lw	a5,-28(s0)
ffffffc050405b82:	85ba                	mv	a1,a4
ffffffc050405b84:	853e                	mv	a0,a5
ffffffc050405b86:	f99ff0ef          	jal	ra,ffffffc050405b1e <writel>
ffffffc050405b8a:	0001                	nop
ffffffc050405b8c:	60e2                	ld	ra,24(sp)
ffffffc050405b8e:	6442                	ld	s0,16(sp)
ffffffc050405b90:	6105                	addi	sp,sp,32
ffffffc050405b92:	8082                	ret

ffffffc050405b94 <Xil_In32>:
ffffffc050405b94:	1101                	addi	sp,sp,-32
ffffffc050405b96:	ec06                	sd	ra,24(sp)
ffffffc050405b98:	e822                	sd	s0,16(sp)
ffffffc050405b9a:	1000                	addi	s0,sp,32
ffffffc050405b9c:	fea43423          	sd	a0,-24(s0)
ffffffc050405ba0:	fe843783          	ld	a5,-24(s0)
ffffffc050405ba4:	853e                	mv	a0,a5
ffffffc050405ba6:	f9fff0ef          	jal	ra,ffffffc050405b44 <readl>
ffffffc050405baa:	87aa                	mv	a5,a0
ffffffc050405bac:	2781                	sext.w	a5,a5
ffffffc050405bae:	853e                	mv	a0,a5
ffffffc050405bb0:	60e2                	ld	ra,24(sp)
ffffffc050405bb2:	6442                	ld	s0,16(sp)
ffffffc050405bb4:	6105                	addi	sp,sp,32
ffffffc050405bb6:	8082                	ret

ffffffc050405bb8 <XEmacPs_ResetHw>:
ffffffc050405bb8:	7179                	addi	sp,sp,-48
ffffffc050405bba:	f406                	sd	ra,40(sp)
ffffffc050405bbc:	f022                	sd	s0,32(sp)
ffffffc050405bbe:	1800                	addi	s0,sp,48
ffffffc050405bc0:	87aa                	mv	a5,a0
ffffffc050405bc2:	fcf42e23          	sw	a5,-36(s0)
ffffffc050405bc6:	fdc42783          	lw	a5,-36(s0)
ffffffc050405bca:	02c7879b          	addiw	a5,a5,44
ffffffc050405bce:	2781                	sext.w	a5,a5
ffffffc050405bd0:	1782                	slli	a5,a5,0x20
ffffffc050405bd2:	9381                	srli	a5,a5,0x20
ffffffc050405bd4:	4581                	li	a1,0
ffffffc050405bd6:	853e                	mv	a0,a5
ffffffc050405bd8:	f91ff0ef          	jal	ra,ffffffc050405b68 <Xil_Out32>
ffffffc050405bdc:	fdc46783          	lwu	a5,-36(s0)
ffffffc050405be0:	853e                	mv	a0,a5
ffffffc050405be2:	fb3ff0ef          	jal	ra,ffffffc050405b94 <Xil_In32>
ffffffc050405be6:	87aa                	mv	a5,a0
ffffffc050405be8:	fef42623          	sw	a5,-20(s0)
ffffffc050405bec:	fec42783          	lw	a5,-20(s0)
ffffffc050405bf0:	bf17f793          	andi	a5,a5,-1039
ffffffc050405bf4:	fef42623          	sw	a5,-20(s0)
ffffffc050405bf8:	fec42703          	lw	a4,-20(s0)
ffffffc050405bfc:	000407b7          	lui	a5,0x40
ffffffc050405c00:	02078793          	addi	a5,a5,32 # 40020 <_start-0xffffffc0503bffe0>
ffffffc050405c04:	8fd9                	or	a5,a5,a4
ffffffc050405c06:	fef42623          	sw	a5,-20(s0)
ffffffc050405c0a:	fdc46783          	lwu	a5,-36(s0)
ffffffc050405c0e:	fec42703          	lw	a4,-20(s0)
ffffffc050405c12:	85ba                	mv	a1,a4
ffffffc050405c14:	853e                	mv	a0,a5
ffffffc050405c16:	f53ff0ef          	jal	ra,ffffffc050405b68 <Xil_Out32>
ffffffc050405c1a:	fdc42783          	lw	a5,-36(s0)
ffffffc050405c1e:	0247879b          	addiw	a5,a5,36
ffffffc050405c22:	2781                	sext.w	a5,a5
ffffffc050405c24:	02079713          	slli	a4,a5,0x20
ffffffc050405c28:	9301                	srli	a4,a4,0x20
ffffffc050405c2a:	67a1                	lui	a5,0x8
ffffffc050405c2c:	fff78593          	addi	a1,a5,-1 # 7fff <_start-0xffffffc0503f8001>
ffffffc050405c30:	853a                	mv	a0,a4
ffffffc050405c32:	f37ff0ef          	jal	ra,ffffffc050405b68 <Xil_Out32>
ffffffc050405c36:	fdc42783          	lw	a5,-36(s0)
ffffffc050405c3a:	27d1                	addiw	a5,a5,20
ffffffc050405c3c:	2781                	sext.w	a5,a5
ffffffc050405c3e:	1782                	slli	a5,a5,0x20
ffffffc050405c40:	9381                	srli	a5,a5,0x20
ffffffc050405c42:	17f00593          	li	a1,383
ffffffc050405c46:	853e                	mv	a0,a5
ffffffc050405c48:	f21ff0ef          	jal	ra,ffffffc050405b68 <Xil_Out32>
ffffffc050405c4c:	fdc42783          	lw	a5,-36(s0)
ffffffc050405c50:	0207879b          	addiw	a5,a5,32
ffffffc050405c54:	2781                	sext.w	a5,a5
ffffffc050405c56:	1782                	slli	a5,a5,0x20
ffffffc050405c58:	9381                	srli	a5,a5,0x20
ffffffc050405c5a:	4589                	li	a1,2
ffffffc050405c5c:	853e                	mv	a0,a5
ffffffc050405c5e:	f0bff0ef          	jal	ra,ffffffc050405b68 <Xil_Out32>
ffffffc050405c62:	fdc42783          	lw	a5,-36(s0)
ffffffc050405c66:	27f1                	addiw	a5,a5,28
ffffffc050405c68:	2781                	sext.w	a5,a5
ffffffc050405c6a:	1782                	slli	a5,a5,0x20
ffffffc050405c6c:	9381                	srli	a5,a5,0x20
ffffffc050405c6e:	4581                	li	a1,0
ffffffc050405c70:	853e                	mv	a0,a5
ffffffc050405c72:	ef7ff0ef          	jal	ra,ffffffc050405b68 <Xil_Out32>
ffffffc050405c76:	fdc42783          	lw	a5,-36(s0)
ffffffc050405c7a:	27e1                	addiw	a5,a5,24
ffffffc050405c7c:	2781                	sext.w	a5,a5
ffffffc050405c7e:	1782                	slli	a5,a5,0x20
ffffffc050405c80:	9381                	srli	a5,a5,0x20
ffffffc050405c82:	4581                	li	a1,0
ffffffc050405c84:	853e                	mv	a0,a5
ffffffc050405c86:	ee3ff0ef          	jal	ra,ffffffc050405b68 <Xil_Out32>
ffffffc050405c8a:	fdc42783          	lw	a5,-36(s0)
ffffffc050405c8e:	2791                	addiw	a5,a5,4
ffffffc050405c90:	2781                	sext.w	a5,a5
ffffffc050405c92:	1782                	slli	a5,a5,0x20
ffffffc050405c94:	9381                	srli	a5,a5,0x20
ffffffc050405c96:	000805b7          	lui	a1,0x80
ffffffc050405c9a:	853e                	mv	a0,a5
ffffffc050405c9c:	ecdff0ef          	jal	ra,ffffffc050405b68 <Xil_Out32>
ffffffc050405ca0:	fdc42783          	lw	a5,-36(s0)
ffffffc050405ca4:	0807879b          	addiw	a5,a5,128
ffffffc050405ca8:	2781                	sext.w	a5,a5
ffffffc050405caa:	1782                	slli	a5,a5,0x20
ffffffc050405cac:	9381                	srli	a5,a5,0x20
ffffffc050405cae:	4581                	li	a1,0
ffffffc050405cb0:	853e                	mv	a0,a5
ffffffc050405cb2:	eb7ff0ef          	jal	ra,ffffffc050405b68 <Xil_Out32>
ffffffc050405cb6:	fdc42783          	lw	a5,-36(s0)
ffffffc050405cba:	0847879b          	addiw	a5,a5,132
ffffffc050405cbe:	2781                	sext.w	a5,a5
ffffffc050405cc0:	1782                	slli	a5,a5,0x20
ffffffc050405cc2:	9381                	srli	a5,a5,0x20
ffffffc050405cc4:	4581                	li	a1,0
ffffffc050405cc6:	853e                	mv	a0,a5
ffffffc050405cc8:	ea1ff0ef          	jal	ra,ffffffc050405b68 <Xil_Out32>
ffffffc050405ccc:	0001                	nop
ffffffc050405cce:	70a2                	ld	ra,40(sp)
ffffffc050405cd0:	7402                	ld	s0,32(sp)
ffffffc050405cd2:	6145                	addi	sp,sp,48
ffffffc050405cd4:	8082                	ret

ffffffc050405cd6 <writel>:
ffffffc050405cd6:	1101                	addi	sp,sp,-32
ffffffc050405cd8:	ec22                	sd	s0,24(sp)
ffffffc050405cda:	1000                	addi	s0,sp,32
ffffffc050405cdc:	87aa                	mv	a5,a0
ffffffc050405cde:	feb43023          	sd	a1,-32(s0)
ffffffc050405ce2:	fef42623          	sw	a5,-20(s0)
ffffffc050405ce6:	0550000f          	fence	ow,ow
ffffffc050405cea:	fe043783          	ld	a5,-32(s0)
ffffffc050405cee:	fec42703          	lw	a4,-20(s0)
ffffffc050405cf2:	c398                	sw	a4,0(a5)
ffffffc050405cf4:	0001                	nop
ffffffc050405cf6:	6462                	ld	s0,24(sp)
ffffffc050405cf8:	6105                	addi	sp,sp,32
ffffffc050405cfa:	8082                	ret

ffffffc050405cfc <readl>:
ffffffc050405cfc:	7179                	addi	sp,sp,-48
ffffffc050405cfe:	f422                	sd	s0,40(sp)
ffffffc050405d00:	1800                	addi	s0,sp,48
ffffffc050405d02:	fca43c23          	sd	a0,-40(s0)
ffffffc050405d06:	fd843783          	ld	a5,-40(s0)
ffffffc050405d0a:	439c                	lw	a5,0(a5)
ffffffc050405d0c:	fef42623          	sw	a5,-20(s0)
ffffffc050405d10:	0aa0000f          	fence	ir,ir
ffffffc050405d14:	fec42783          	lw	a5,-20(s0)
ffffffc050405d18:	853e                	mv	a0,a5
ffffffc050405d1a:	7422                	ld	s0,40(sp)
ffffffc050405d1c:	6145                	addi	sp,sp,48
ffffffc050405d1e:	8082                	ret

ffffffc050405d20 <Xil_Out32>:
ffffffc050405d20:	1101                	addi	sp,sp,-32
ffffffc050405d22:	ec06                	sd	ra,24(sp)
ffffffc050405d24:	e822                	sd	s0,16(sp)
ffffffc050405d26:	1000                	addi	s0,sp,32
ffffffc050405d28:	fea43423          	sd	a0,-24(s0)
ffffffc050405d2c:	87ae                	mv	a5,a1
ffffffc050405d2e:	fef42223          	sw	a5,-28(s0)
ffffffc050405d32:	fe843703          	ld	a4,-24(s0)
ffffffc050405d36:	fe442783          	lw	a5,-28(s0)
ffffffc050405d3a:	85ba                	mv	a1,a4
ffffffc050405d3c:	853e                	mv	a0,a5
ffffffc050405d3e:	f99ff0ef          	jal	ra,ffffffc050405cd6 <writel>
ffffffc050405d42:	0001                	nop
ffffffc050405d44:	60e2                	ld	ra,24(sp)
ffffffc050405d46:	6442                	ld	s0,16(sp)
ffffffc050405d48:	6105                	addi	sp,sp,32
ffffffc050405d4a:	8082                	ret

ffffffc050405d4c <Xil_In32>:
ffffffc050405d4c:	1101                	addi	sp,sp,-32
ffffffc050405d4e:	ec06                	sd	ra,24(sp)
ffffffc050405d50:	e822                	sd	s0,16(sp)
ffffffc050405d52:	1000                	addi	s0,sp,32
ffffffc050405d54:	fea43423          	sd	a0,-24(s0)
ffffffc050405d58:	fe843783          	ld	a5,-24(s0)
ffffffc050405d5c:	853e                	mv	a0,a5
ffffffc050405d5e:	f9fff0ef          	jal	ra,ffffffc050405cfc <readl>
ffffffc050405d62:	87aa                	mv	a5,a0
ffffffc050405d64:	2781                	sext.w	a5,a5
ffffffc050405d66:	853e                	mv	a0,a5
ffffffc050405d68:	60e2                	ld	ra,24(sp)
ffffffc050405d6a:	6442                	ld	s0,16(sp)
ffffffc050405d6c:	6105                	addi	sp,sp,32
ffffffc050405d6e:	8082                	ret

ffffffc050405d70 <XEmacPs_SetHandler>:
ffffffc050405d70:	7139                	addi	sp,sp,-64
ffffffc050405d72:	fc22                	sd	s0,56(sp)
ffffffc050405d74:	0080                	addi	s0,sp,64
ffffffc050405d76:	fca43c23          	sd	a0,-40(s0)
ffffffc050405d7a:	87ae                	mv	a5,a1
ffffffc050405d7c:	fcc43423          	sd	a2,-56(s0)
ffffffc050405d80:	fcd43023          	sd	a3,-64(s0)
ffffffc050405d84:	fcf42a23          	sw	a5,-44(s0)
ffffffc050405d88:	fd442783          	lw	a5,-44(s0)
ffffffc050405d8c:	0007871b          	sext.w	a4,a5
ffffffc050405d90:	478d                	li	a5,3
ffffffc050405d92:	06f70663          	beq	a4,a5,ffffffc050405dfe <XEmacPs_SetHandler+0x8e>
ffffffc050405d96:	fd442783          	lw	a5,-44(s0)
ffffffc050405d9a:	0007871b          	sext.w	a4,a5
ffffffc050405d9e:	478d                	li	a5,3
ffffffc050405da0:	06e7ee63          	bltu	a5,a4,ffffffc050405e1c <XEmacPs_SetHandler+0xac>
ffffffc050405da4:	fd442783          	lw	a5,-44(s0)
ffffffc050405da8:	0007871b          	sext.w	a4,a5
ffffffc050405dac:	4785                	li	a5,1
ffffffc050405dae:	00f70a63          	beq	a4,a5,ffffffc050405dc2 <XEmacPs_SetHandler+0x52>
ffffffc050405db2:	fd442783          	lw	a5,-44(s0)
ffffffc050405db6:	0007871b          	sext.w	a4,a5
ffffffc050405dba:	4789                	li	a5,2
ffffffc050405dbc:	02f70263          	beq	a4,a5,ffffffc050405de0 <XEmacPs_SetHandler+0x70>
ffffffc050405dc0:	a8b1                	j	ffffffc050405e1c <XEmacPs_SetHandler+0xac>
ffffffc050405dc2:	fe043423          	sd	zero,-24(s0)
ffffffc050405dc6:	fc843703          	ld	a4,-56(s0)
ffffffc050405dca:	fd843783          	ld	a5,-40(s0)
ffffffc050405dce:	10e7b423          	sd	a4,264(a5)
ffffffc050405dd2:	fd843783          	ld	a5,-40(s0)
ffffffc050405dd6:	fc043703          	ld	a4,-64(s0)
ffffffc050405dda:	10e7bc23          	sd	a4,280(a5)
ffffffc050405dde:	a099                	j	ffffffc050405e24 <XEmacPs_SetHandler+0xb4>
ffffffc050405de0:	fe043423          	sd	zero,-24(s0)
ffffffc050405de4:	fc843703          	ld	a4,-56(s0)
ffffffc050405de8:	fd843783          	ld	a5,-40(s0)
ffffffc050405dec:	10e7b823          	sd	a4,272(a5)
ffffffc050405df0:	fd843783          	ld	a5,-40(s0)
ffffffc050405df4:	fc043703          	ld	a4,-64(s0)
ffffffc050405df8:	12e7b023          	sd	a4,288(a5)
ffffffc050405dfc:	a025                	j	ffffffc050405e24 <XEmacPs_SetHandler+0xb4>
ffffffc050405dfe:	fe043423          	sd	zero,-24(s0)
ffffffc050405e02:	fc843703          	ld	a4,-56(s0)
ffffffc050405e06:	fd843783          	ld	a5,-40(s0)
ffffffc050405e0a:	12e7b423          	sd	a4,296(a5)
ffffffc050405e0e:	fd843783          	ld	a5,-40(s0)
ffffffc050405e12:	fc043703          	ld	a4,-64(s0)
ffffffc050405e16:	12e7b823          	sd	a4,304(a5)
ffffffc050405e1a:	a029                	j	ffffffc050405e24 <XEmacPs_SetHandler+0xb4>
ffffffc050405e1c:	47bd                	li	a5,15
ffffffc050405e1e:	fef43423          	sd	a5,-24(s0)
ffffffc050405e22:	0001                	nop
ffffffc050405e24:	fe843783          	ld	a5,-24(s0)
ffffffc050405e28:	853e                	mv	a0,a5
ffffffc050405e2a:	7462                	ld	s0,56(sp)
ffffffc050405e2c:	6121                	addi	sp,sp,64
ffffffc050405e2e:	8082                	ret

ffffffc050405e30 <XEmacPs_IntrHandler>:
ffffffc050405e30:	7139                	addi	sp,sp,-64
ffffffc050405e32:	fc06                	sd	ra,56(sp)
ffffffc050405e34:	f822                	sd	s0,48(sp)
ffffffc050405e36:	0080                	addi	s0,sp,64
ffffffc050405e38:	fca43423          	sd	a0,-56(s0)
ffffffc050405e3c:	fc843783          	ld	a5,-56(s0)
ffffffc050405e40:	fef43423          	sd	a5,-24(s0)
ffffffc050405e44:	fe843783          	ld	a5,-24(s0)
ffffffc050405e48:	679c                	ld	a5,8(a5)
ffffffc050405e4a:	02478793          	addi	a5,a5,36
ffffffc050405e4e:	853e                	mv	a0,a5
ffffffc050405e50:	efdff0ef          	jal	ra,ffffffc050405d4c <Xil_In32>
ffffffc050405e54:	87aa                	mv	a5,a0
ffffffc050405e56:	fef42223          	sw	a5,-28(s0)
ffffffc050405e5a:	fe843783          	ld	a5,-24(s0)
ffffffc050405e5e:	679c                	ld	a5,8(a5)
ffffffc050405e60:	02478793          	addi	a5,a5,36
ffffffc050405e64:	fe442703          	lw	a4,-28(s0)
ffffffc050405e68:	85ba                	mv	a1,a4
ffffffc050405e6a:	853e                	mv	a0,a5
ffffffc050405e6c:	eb5ff0ef          	jal	ra,ffffffc050405d20 <Xil_Out32>
ffffffc050405e70:	fe442783          	lw	a5,-28(s0)
ffffffc050405e74:	8b89                	andi	a5,a5,2
ffffffc050405e76:	2781                	sext.w	a5,a5
ffffffc050405e78:	c785                	beqz	a5,ffffffc050405ea0 <XEmacPs_IntrHandler+0x70>
ffffffc050405e7a:	fe843783          	ld	a5,-24(s0)
ffffffc050405e7e:	679c                	ld	a5,8(a5)
ffffffc050405e80:	02078793          	addi	a5,a5,32
ffffffc050405e84:	458d                	li	a1,3
ffffffc050405e86:	853e                	mv	a0,a5
ffffffc050405e88:	e99ff0ef          	jal	ra,ffffffc050405d20 <Xil_Out32>
ffffffc050405e8c:	fe843783          	ld	a5,-24(s0)
ffffffc050405e90:	1107b703          	ld	a4,272(a5)
ffffffc050405e94:	fe843783          	ld	a5,-24(s0)
ffffffc050405e98:	1207b783          	ld	a5,288(a5)
ffffffc050405e9c:	853e                	mv	a0,a5
ffffffc050405e9e:	9702                	jalr	a4
ffffffc050405ea0:	fe442783          	lw	a5,-28(s0)
ffffffc050405ea4:	0807f793          	andi	a5,a5,128
ffffffc050405ea8:	2781                	sext.w	a5,a5
ffffffc050405eaa:	c785                	beqz	a5,ffffffc050405ed2 <XEmacPs_IntrHandler+0xa2>
ffffffc050405eac:	fe843783          	ld	a5,-24(s0)
ffffffc050405eb0:	679c                	ld	a5,8(a5)
ffffffc050405eb2:	07d1                	addi	a5,a5,20
ffffffc050405eb4:	02100593          	li	a1,33
ffffffc050405eb8:	853e                	mv	a0,a5
ffffffc050405eba:	e67ff0ef          	jal	ra,ffffffc050405d20 <Xil_Out32>
ffffffc050405ebe:	fe843783          	ld	a5,-24(s0)
ffffffc050405ec2:	1087b703          	ld	a4,264(a5)
ffffffc050405ec6:	fe843783          	ld	a5,-24(s0)
ffffffc050405eca:	1187b783          	ld	a5,280(a5)
ffffffc050405ece:	853e                	mv	a0,a5
ffffffc050405ed0:	9702                	jalr	a4
ffffffc050405ed2:	fe442703          	lw	a4,-28(s0)
ffffffc050405ed6:	6785                	lui	a5,0x1
ffffffc050405ed8:	c0478793          	addi	a5,a5,-1020 # c04 <_start-0xffffffc0503ff3fc>
ffffffc050405edc:	8ff9                	and	a5,a5,a4
ffffffc050405ede:	2781                	sext.w	a5,a5
ffffffc050405ee0:	c7d9                	beqz	a5,ffffffc050405f6e <XEmacPs_IntrHandler+0x13e>
ffffffc050405ee2:	fe843783          	ld	a5,-24(s0)
ffffffc050405ee6:	679c                	ld	a5,8(a5)
ffffffc050405ee8:	02078793          	addi	a5,a5,32
ffffffc050405eec:	853e                	mv	a0,a5
ffffffc050405eee:	e5fff0ef          	jal	ra,ffffffc050405d4c <Xil_In32>
ffffffc050405ef2:	87aa                	mv	a5,a0
ffffffc050405ef4:	fef42023          	sw	a5,-32(s0)
ffffffc050405ef8:	fe843783          	ld	a5,-24(s0)
ffffffc050405efc:	679c                	ld	a5,8(a5)
ffffffc050405efe:	02078793          	addi	a5,a5,32
ffffffc050405f02:	fe042703          	lw	a4,-32(s0)
ffffffc050405f06:	85ba                	mv	a1,a4
ffffffc050405f08:	853e                	mv	a0,a5
ffffffc050405f0a:	e17ff0ef          	jal	ra,ffffffc050405d20 <Xil_Out32>
ffffffc050405f0e:	fe442783          	lw	a5,-28(s0)
ffffffc050405f12:	8b91                	andi	a5,a5,4
ffffffc050405f14:	2781                	sext.w	a5,a5
ffffffc050405f16:	cb95                	beqz	a5,ffffffc050405f4a <XEmacPs_IntrHandler+0x11a>
ffffffc050405f18:	fe843783          	ld	a5,-24(s0)
ffffffc050405f1c:	679c                	ld	a5,8(a5)
ffffffc050405f1e:	853e                	mv	a0,a5
ffffffc050405f20:	e2dff0ef          	jal	ra,ffffffc050405d4c <Xil_In32>
ffffffc050405f24:	87aa                	mv	a5,a0
ffffffc050405f26:	fcf42e23          	sw	a5,-36(s0)
ffffffc050405f2a:	fdc42703          	lw	a4,-36(s0)
ffffffc050405f2e:	000407b7          	lui	a5,0x40
ffffffc050405f32:	8fd9                	or	a5,a5,a4
ffffffc050405f34:	fcf42e23          	sw	a5,-36(s0)
ffffffc050405f38:	fe843783          	ld	a5,-24(s0)
ffffffc050405f3c:	679c                	ld	a5,8(a5)
ffffffc050405f3e:	fdc42703          	lw	a4,-36(s0)
ffffffc050405f42:	85ba                	mv	a1,a4
ffffffc050405f44:	853e                	mv	a0,a5
ffffffc050405f46:	ddbff0ef          	jal	ra,ffffffc050405d20 <Xil_Out32>
ffffffc050405f4a:	fe042783          	lw	a5,-32(s0)
ffffffc050405f4e:	2781                	sext.w	a5,a5
ffffffc050405f50:	cf99                	beqz	a5,ffffffc050405f6e <XEmacPs_IntrHandler+0x13e>
ffffffc050405f52:	fe843783          	ld	a5,-24(s0)
ffffffc050405f56:	1287b683          	ld	a3,296(a5) # 40128 <_start-0xffffffc0503bfed8>
ffffffc050405f5a:	fe843783          	ld	a5,-24(s0)
ffffffc050405f5e:	1307b783          	ld	a5,304(a5)
ffffffc050405f62:	fe042703          	lw	a4,-32(s0)
ffffffc050405f66:	863a                	mv	a2,a4
ffffffc050405f68:	4589                	li	a1,2
ffffffc050405f6a:	853e                	mv	a0,a5
ffffffc050405f6c:	9682                	jalr	a3
ffffffc050405f6e:	fe442783          	lw	a5,-28(s0)
ffffffc050405f72:	0707f793          	andi	a5,a5,112
ffffffc050405f76:	2781                	sext.w	a5,a5
ffffffc050405f78:	cfa9                	beqz	a5,ffffffc050405fd2 <XEmacPs_IntrHandler+0x1a2>
ffffffc050405f7a:	fe442783          	lw	a5,-28(s0)
ffffffc050405f7e:	0807f793          	andi	a5,a5,128
ffffffc050405f82:	2781                	sext.w	a5,a5
ffffffc050405f84:	e399                	bnez	a5,ffffffc050405f8a <XEmacPs_IntrHandler+0x15a>
ffffffc050405f86:	4785                	li	a5,1
ffffffc050405f88:	a011                	j	ffffffc050405f8c <XEmacPs_IntrHandler+0x15c>
ffffffc050405f8a:	4781                	li	a5,0
ffffffc050405f8c:	c3b9                	beqz	a5,ffffffc050405fd2 <XEmacPs_IntrHandler+0x1a2>
ffffffc050405f8e:	fe843783          	ld	a5,-24(s0)
ffffffc050405f92:	679c                	ld	a5,8(a5)
ffffffc050405f94:	07d1                	addi	a5,a5,20
ffffffc050405f96:	853e                	mv	a0,a5
ffffffc050405f98:	db5ff0ef          	jal	ra,ffffffc050405d4c <Xil_In32>
ffffffc050405f9c:	87aa                	mv	a5,a0
ffffffc050405f9e:	fef42023          	sw	a5,-32(s0)
ffffffc050405fa2:	fe843783          	ld	a5,-24(s0)
ffffffc050405fa6:	679c                	ld	a5,8(a5)
ffffffc050405fa8:	07d1                	addi	a5,a5,20
ffffffc050405faa:	fe042703          	lw	a4,-32(s0)
ffffffc050405fae:	85ba                	mv	a1,a4
ffffffc050405fb0:	853e                	mv	a0,a5
ffffffc050405fb2:	d6fff0ef          	jal	ra,ffffffc050405d20 <Xil_Out32>
ffffffc050405fb6:	fe843783          	ld	a5,-24(s0)
ffffffc050405fba:	1287b683          	ld	a3,296(a5)
ffffffc050405fbe:	fe843783          	ld	a5,-24(s0)
ffffffc050405fc2:	1307b783          	ld	a5,304(a5)
ffffffc050405fc6:	fe042703          	lw	a4,-32(s0)
ffffffc050405fca:	863a                	mv	a2,a4
ffffffc050405fcc:	4585                	li	a1,1
ffffffc050405fce:	853e                	mv	a0,a5
ffffffc050405fd0:	9682                	jalr	a3
ffffffc050405fd2:	0001                	nop
ffffffc050405fd4:	70e2                	ld	ra,56(sp)
ffffffc050405fd6:	7442                	ld	s0,48(sp)
ffffffc050405fd8:	6121                	addi	sp,sp,64
ffffffc050405fda:	8082                	ret

ffffffc050405fdc <writel>:
ffffffc050405fdc:	1101                	addi	sp,sp,-32
ffffffc050405fde:	ec22                	sd	s0,24(sp)
ffffffc050405fe0:	1000                	addi	s0,sp,32
ffffffc050405fe2:	87aa                	mv	a5,a0
ffffffc050405fe4:	feb43023          	sd	a1,-32(s0)
ffffffc050405fe8:	fef42623          	sw	a5,-20(s0)
ffffffc050405fec:	0550000f          	fence	ow,ow
ffffffc050405ff0:	fe043783          	ld	a5,-32(s0)
ffffffc050405ff4:	fec42703          	lw	a4,-20(s0)
ffffffc050405ff8:	c398                	sw	a4,0(a5)
ffffffc050405ffa:	0001                	nop
ffffffc050405ffc:	6462                	ld	s0,24(sp)
ffffffc050405ffe:	6105                	addi	sp,sp,32
ffffffc050406000:	8082                	ret

ffffffc050406002 <readl>:
ffffffc050406002:	7179                	addi	sp,sp,-48
ffffffc050406004:	f422                	sd	s0,40(sp)
ffffffc050406006:	1800                	addi	s0,sp,48
ffffffc050406008:	fca43c23          	sd	a0,-40(s0)
ffffffc05040600c:	fd843783          	ld	a5,-40(s0)
ffffffc050406010:	439c                	lw	a5,0(a5)
ffffffc050406012:	fef42623          	sw	a5,-20(s0)
ffffffc050406016:	0aa0000f          	fence	ir,ir
ffffffc05040601a:	fec42783          	lw	a5,-20(s0)
ffffffc05040601e:	853e                	mv	a0,a5
ffffffc050406020:	7422                	ld	s0,40(sp)
ffffffc050406022:	6145                	addi	sp,sp,48
ffffffc050406024:	8082                	ret

ffffffc050406026 <local_flush_dcache_all>:
ffffffc050406026:	1141                	addi	sp,sp,-16
ffffffc050406028:	e422                	sd	s0,8(sp)
ffffffc05040602a:	0800                	addi	s0,sp,16
ffffffc05040602c:	0ff0000f          	fence
ffffffc050406030:	0001                	nop
ffffffc050406032:	6422                	ld	s0,8(sp)
ffffffc050406034:	0141                	addi	sp,sp,16
ffffffc050406036:	8082                	ret

ffffffc050406038 <kva2pa>:
ffffffc050406038:	1101                	addi	sp,sp,-32
ffffffc05040603a:	ec22                	sd	s0,24(sp)
ffffffc05040603c:	1000                	addi	s0,sp,32
ffffffc05040603e:	fea43423          	sd	a0,-24(s0)
ffffffc050406042:	fe843703          	ld	a4,-24(s0)
ffffffc050406046:	4785                	li	a5,1
ffffffc050406048:	179a                	slli	a5,a5,0x26
ffffffc05040604a:	97ba                	add	a5,a5,a4
ffffffc05040604c:	853e                	mv	a0,a5
ffffffc05040604e:	6462                	ld	s0,24(sp)
ffffffc050406050:	6105                	addi	sp,sp,32
ffffffc050406052:	8082                	ret

ffffffc050406054 <Xil_Out32>:
ffffffc050406054:	1101                	addi	sp,sp,-32
ffffffc050406056:	ec06                	sd	ra,24(sp)
ffffffc050406058:	e822                	sd	s0,16(sp)
ffffffc05040605a:	1000                	addi	s0,sp,32
ffffffc05040605c:	fea43423          	sd	a0,-24(s0)
ffffffc050406060:	87ae                	mv	a5,a1
ffffffc050406062:	fef42223          	sw	a5,-28(s0)
ffffffc050406066:	fe843703          	ld	a4,-24(s0)
ffffffc05040606a:	fe442783          	lw	a5,-28(s0)
ffffffc05040606e:	85ba                	mv	a1,a4
ffffffc050406070:	853e                	mv	a0,a5
ffffffc050406072:	f6bff0ef          	jal	ra,ffffffc050405fdc <writel>
ffffffc050406076:	0001                	nop
ffffffc050406078:	60e2                	ld	ra,24(sp)
ffffffc05040607a:	6442                	ld	s0,16(sp)
ffffffc05040607c:	6105                	addi	sp,sp,32
ffffffc05040607e:	8082                	ret

ffffffc050406080 <Xil_In32>:
ffffffc050406080:	1101                	addi	sp,sp,-32
ffffffc050406082:	ec06                	sd	ra,24(sp)
ffffffc050406084:	e822                	sd	s0,16(sp)
ffffffc050406086:	1000                	addi	s0,sp,32
ffffffc050406088:	fea43423          	sd	a0,-24(s0)
ffffffc05040608c:	fe843783          	ld	a5,-24(s0)
ffffffc050406090:	853e                	mv	a0,a5
ffffffc050406092:	f71ff0ef          	jal	ra,ffffffc050406002 <readl>
ffffffc050406096:	87aa                	mv	a5,a0
ffffffc050406098:	2781                	sext.w	a5,a5
ffffffc05040609a:	853e                	mv	a0,a5
ffffffc05040609c:	60e2                	ld	ra,24(sp)
ffffffc05040609e:	6442                	ld	s0,16(sp)
ffffffc0504060a0:	6105                	addi	sp,sp,32
ffffffc0504060a2:	8082                	ret

ffffffc0504060a4 <Xil_DCacheFlushRange>:
ffffffc0504060a4:	1101                	addi	sp,sp,-32
ffffffc0504060a6:	ec06                	sd	ra,24(sp)
ffffffc0504060a8:	e822                	sd	s0,16(sp)
ffffffc0504060aa:	1000                	addi	s0,sp,32
ffffffc0504060ac:	fea43423          	sd	a0,-24(s0)
ffffffc0504060b0:	feb43023          	sd	a1,-32(s0)
ffffffc0504060b4:	f73ff0ef          	jal	ra,ffffffc050406026 <local_flush_dcache_all>
ffffffc0504060b8:	0001                	nop
ffffffc0504060ba:	60e2                	ld	ra,24(sp)
ffffffc0504060bc:	6442                	ld	s0,16(sp)
ffffffc0504060be:	6105                	addi	sp,sp,32
ffffffc0504060c0:	8082                	ret

ffffffc0504060c2 <Xil_DCacheInvalidateRange>:
ffffffc0504060c2:	1101                	addi	sp,sp,-32
ffffffc0504060c4:	ec06                	sd	ra,24(sp)
ffffffc0504060c6:	e822                	sd	s0,16(sp)
ffffffc0504060c8:	1000                	addi	s0,sp,32
ffffffc0504060ca:	fea43423          	sd	a0,-24(s0)
ffffffc0504060ce:	feb43023          	sd	a1,-32(s0)
ffffffc0504060d2:	f55ff0ef          	jal	ra,ffffffc050406026 <local_flush_dcache_all>
ffffffc0504060d6:	0001                	nop
ffffffc0504060d8:	60e2                	ld	ra,24(sp)
ffffffc0504060da:	6442                	ld	s0,16(sp)
ffffffc0504060dc:	6105                	addi	sp,sp,32
ffffffc0504060de:	8082                	ret

ffffffc0504060e0 <xemacps_example_main>:
ffffffc0504060e0:	1101                	addi	sp,sp,-32
ffffffc0504060e2:	ec06                	sd	ra,24(sp)
ffffffc0504060e4:	e822                	sd	s0,16(sp)
ffffffc0504060e6:	1000                	addi	s0,sp,32
ffffffc0504060e8:	00007517          	auipc	a0,0x7
ffffffc0504060ec:	0a050513          	addi	a0,a0,160 # ffffffc05040d188 <__FUNCTION__.1870+0x2c8>
ffffffc0504060f0:	6fa060ef          	jal	ra,ffffffc05040c7ea <printk>
ffffffc0504060f4:	00208517          	auipc	a0,0x208
ffffffc0504060f8:	ccc50513          	addi	a0,a0,-820 # ffffffc05060ddc0 <EmacPsInstance>
ffffffc0504060fc:	11d000ef          	jal	ra,ffffffc050406a18 <EmacPsDmaIntrExample>
ffffffc050406100:	fea43423          	sd	a0,-24(s0)
ffffffc050406104:	fe843783          	ld	a5,-24(s0)
ffffffc050406108:	cb89                	beqz	a5,ffffffc05040611a <xemacps_example_main+0x3a>
ffffffc05040610a:	00007517          	auipc	a0,0x7
ffffffc05040610e:	09650513          	addi	a0,a0,150 # ffffffc05040d1a0 <__FUNCTION__.1870+0x2e0>
ffffffc050406112:	9d5ff0ef          	jal	ra,ffffffc050405ae6 <EmacPsUtilErrorTrap>
ffffffc050406116:	4785                	li	a5,1
ffffffc050406118:	a801                	j	ffffffc050406128 <xemacps_example_main+0x48>
ffffffc05040611a:	00007517          	auipc	a0,0x7
ffffffc05040611e:	0ae50513          	addi	a0,a0,174 # ffffffc05040d1c8 <__FUNCTION__.1870+0x308>
ffffffc050406122:	6c8060ef          	jal	ra,ffffffc05040c7ea <printk>
ffffffc050406126:	4781                	li	a5,0
ffffffc050406128:	853e                	mv	a0,a5
ffffffc05040612a:	60e2                	ld	ra,24(sp)
ffffffc05040612c:	6442                	ld	s0,16(sp)
ffffffc05040612e:	6105                	addi	sp,sp,32
ffffffc050406130:	8082                	ret

ffffffc050406132 <EmacPsSetupBD>:
ffffffc050406132:	7179                	addi	sp,sp,-48
ffffffc050406134:	f422                	sd	s0,40(sp)
ffffffc050406136:	1800                	addi	s0,sp,48
ffffffc050406138:	fca43c23          	sd	a0,-40(s0)
ffffffc05040613c:	fe042623          	sw	zero,-20(s0)
ffffffc050406140:	a091                	j	ffffffc050406184 <EmacPsSetupBD+0x52>
ffffffc050406142:	007fa717          	auipc	a4,0x7fa
ffffffc050406146:	ebe70713          	addi	a4,a4,-322 # ffffffc050c00000 <RxBd_Ring>
ffffffc05040614a:	fec42783          	lw	a5,-20(s0)
ffffffc05040614e:	078e                	slli	a5,a5,0x3
ffffffc050406150:	97ba                	add	a5,a5,a4
ffffffc050406152:	0007a223          	sw	zero,4(a5)
ffffffc050406156:	007fa717          	auipc	a4,0x7fa
ffffffc05040615a:	eaa70713          	addi	a4,a4,-342 # ffffffc050c00000 <RxBd_Ring>
ffffffc05040615e:	fec42783          	lw	a5,-20(s0)
ffffffc050406162:	078e                	slli	a5,a5,0x3
ffffffc050406164:	97ba                	add	a5,a5,a4
ffffffc050406166:	43d8                	lw	a4,4(a5)
ffffffc050406168:	007fa697          	auipc	a3,0x7fa
ffffffc05040616c:	e9868693          	addi	a3,a3,-360 # ffffffc050c00000 <RxBd_Ring>
ffffffc050406170:	fec42783          	lw	a5,-20(s0)
ffffffc050406174:	078e                	slli	a5,a5,0x3
ffffffc050406176:	97b6                	add	a5,a5,a3
ffffffc050406178:	c398                	sw	a4,0(a5)
ffffffc05040617a:	fec42783          	lw	a5,-20(s0)
ffffffc05040617e:	2785                	addiw	a5,a5,1
ffffffc050406180:	fef42623          	sw	a5,-20(s0)
ffffffc050406184:	fec42783          	lw	a5,-20(s0)
ffffffc050406188:	0007871b          	sext.w	a4,a5
ffffffc05040618c:	47fd                	li	a5,31
ffffffc05040618e:	fae7dae3          	bge	a5,a4,ffffffc050406142 <EmacPsSetupBD+0x10>
ffffffc050406192:	007fa797          	auipc	a5,0x7fa
ffffffc050406196:	fae78793          	addi	a5,a5,-82 # ffffffc050c00140 <TxBd_Ring>
ffffffc05040619a:	0007a223          	sw	zero,4(a5)
ffffffc05040619e:	007fa797          	auipc	a5,0x7fa
ffffffc0504061a2:	fa278793          	addi	a5,a5,-94 # ffffffc050c00140 <TxBd_Ring>
ffffffc0504061a6:	43d8                	lw	a4,4(a5)
ffffffc0504061a8:	007fa797          	auipc	a5,0x7fa
ffffffc0504061ac:	f9878793          	addi	a5,a5,-104 # ffffffc050c00140 <TxBd_Ring>
ffffffc0504061b0:	c398                	sw	a4,0(a5)
ffffffc0504061b2:	4781                	li	a5,0
ffffffc0504061b4:	853e                	mv	a0,a5
ffffffc0504061b6:	7422                	ld	s0,40(sp)
ffffffc0504061b8:	6145                	addi	sp,sp,48
ffffffc0504061ba:	8082                	ret

ffffffc0504061bc <EmacPsInitPhy>:
ffffffc0504061bc:	7179                	addi	sp,sp,-48
ffffffc0504061be:	f406                	sd	ra,40(sp)
ffffffc0504061c0:	f022                	sd	s0,32(sp)
ffffffc0504061c2:	1800                	addi	s0,sp,48
ffffffc0504061c4:	fca43c23          	sd	a0,-40(s0)
ffffffc0504061c8:	fcb43823          	sd	a1,-48(s0)
ffffffc0504061cc:	fd843503          	ld	a0,-40(s0)
ffffffc0504061d0:	feafe0ef          	jal	ra,ffffffc0504049ba <XEmacPsDetectPHY>
ffffffc0504061d4:	87aa                	mv	a5,a0
ffffffc0504061d6:	fef42223          	sw	a5,-28(s0)
ffffffc0504061da:	fe442783          	lw	a5,-28(s0)
ffffffc0504061de:	0007871b          	sext.w	a4,a5
ffffffc0504061e2:	47fd                	li	a5,31
ffffffc0504061e4:	00e7fa63          	bgeu	a5,a4,ffffffc0504061f8 <EmacPsInitPhy+0x3c>
ffffffc0504061e8:	00007517          	auipc	a0,0x7
ffffffc0504061ec:	01050513          	addi	a0,a0,16 # ffffffc05040d1f8 <__FUNCTION__.1870+0x338>
ffffffc0504061f0:	8f7ff0ef          	jal	ra,ffffffc050405ae6 <EmacPsUtilErrorTrap>
ffffffc0504061f4:	4785                	li	a5,1
ffffffc0504061f6:	a87d                	j	ffffffc0504062b4 <EmacPsInitPhy+0xf8>
ffffffc0504061f8:	fe240713          	addi	a4,s0,-30
ffffffc0504061fc:	fe442783          	lw	a5,-28(s0)
ffffffc050406200:	86ba                	mv	a3,a4
ffffffc050406202:	4609                	li	a2,2
ffffffc050406204:	85be                	mv	a1,a5
ffffffc050406206:	fd843503          	ld	a0,-40(s0)
ffffffc05040620a:	8b0fe0ef          	jal	ra,ffffffc0504042ba <XEmacPs_PhyRead>
ffffffc05040620e:	87aa                	mv	a5,a0
ffffffc050406210:	c799                	beqz	a5,ffffffc05040621e <EmacPsInitPhy+0x62>
ffffffc050406212:	00007517          	auipc	a0,0x7
ffffffc050406216:	ffe50513          	addi	a0,a0,-2 # ffffffc05040d210 <__FUNCTION__.1870+0x350>
ffffffc05040621a:	8cdff0ef          	jal	ra,ffffffc050405ae6 <EmacPsUtilErrorTrap>
ffffffc05040621e:	fe040713          	addi	a4,s0,-32
ffffffc050406222:	fe442783          	lw	a5,-28(s0)
ffffffc050406226:	86ba                	mv	a3,a4
ffffffc050406228:	460d                	li	a2,3
ffffffc05040622a:	85be                	mv	a1,a5
ffffffc05040622c:	fd843503          	ld	a0,-40(s0)
ffffffc050406230:	88afe0ef          	jal	ra,ffffffc0504042ba <XEmacPs_PhyRead>
ffffffc050406234:	87aa                	mv	a5,a0
ffffffc050406236:	c799                	beqz	a5,ffffffc050406244 <EmacPsInitPhy+0x88>
ffffffc050406238:	00007517          	auipc	a0,0x7
ffffffc05040623c:	fd850513          	addi	a0,a0,-40 # ffffffc05040d210 <__FUNCTION__.1870+0x350>
ffffffc050406240:	8a7ff0ef          	jal	ra,ffffffc050405ae6 <EmacPsUtilErrorTrap>
ffffffc050406244:	fe245783          	lhu	a5,-30(s0)
ffffffc050406248:	2781                	sext.w	a5,a5
ffffffc05040624a:	0107979b          	slliw	a5,a5,0x10
ffffffc05040624e:	0007871b          	sext.w	a4,a5
ffffffc050406252:	fe045783          	lhu	a5,-32(s0)
ffffffc050406256:	2781                	sext.w	a5,a5
ffffffc050406258:	8fd9                	or	a5,a5,a4
ffffffc05040625a:	2781                	sext.w	a5,a5
ffffffc05040625c:	85be                	mv	a1,a5
ffffffc05040625e:	00007517          	auipc	a0,0x7
ffffffc050406262:	fc250513          	addi	a0,a0,-62 # ffffffc05040d220 <__FUNCTION__.1870+0x360>
ffffffc050406266:	584060ef          	jal	ra,ffffffc05040c7ea <printk>
ffffffc05040626a:	fe245783          	lhu	a5,-30(s0)
ffffffc05040626e:	0007871b          	sext.w	a4,a5
ffffffc050406272:	47f1                	li	a5,28
ffffffc050406274:	00f71e63          	bne	a4,a5,ffffffc050406290 <EmacPsInitPhy+0xd4>
ffffffc050406278:	fe442783          	lw	a5,-28(s0)
ffffffc05040627c:	863e                	mv	a2,a5
ffffffc05040627e:	fd043583          	ld	a1,-48(s0)
ffffffc050406282:	fd843503          	ld	a0,-40(s0)
ffffffc050406286:	c16ff0ef          	jal	ra,ffffffc05040569c <EmacPsUtilRtlPhyInit>
ffffffc05040628a:	fea43423          	sd	a0,-24(s0)
ffffffc05040628e:	a039                	j	ffffffc05040629c <EmacPsInitPhy+0xe0>
ffffffc050406290:	00007517          	auipc	a0,0x7
ffffffc050406294:	fa850513          	addi	a0,a0,-88 # ffffffc05040d238 <__FUNCTION__.1870+0x378>
ffffffc050406298:	84fff0ef          	jal	ra,ffffffc050405ae6 <EmacPsUtilErrorTrap>
ffffffc05040629c:	fe843783          	ld	a5,-24(s0)
ffffffc0504062a0:	cb89                	beqz	a5,ffffffc0504062b2 <EmacPsInitPhy+0xf6>
ffffffc0504062a2:	00007517          	auipc	a0,0x7
ffffffc0504062a6:	fae50513          	addi	a0,a0,-82 # ffffffc05040d250 <__FUNCTION__.1870+0x390>
ffffffc0504062aa:	83dff0ef          	jal	ra,ffffffc050405ae6 <EmacPsUtilErrorTrap>
ffffffc0504062ae:	4785                	li	a5,1
ffffffc0504062b0:	a011                	j	ffffffc0504062b4 <EmacPsInitPhy+0xf8>
ffffffc0504062b2:	4781                	li	a5,0
ffffffc0504062b4:	853e                	mv	a0,a5
ffffffc0504062b6:	70a2                	ld	ra,40(sp)
ffffffc0504062b8:	7402                	ld	s0,32(sp)
ffffffc0504062ba:	6145                	addi	sp,sp,48
ffffffc0504062bc:	8082                	ret

ffffffc0504062be <EmacPsSetupDevice>:
ffffffc0504062be:	7179                	addi	sp,sp,-48
ffffffc0504062c0:	f406                	sd	ra,40(sp)
ffffffc0504062c2:	f022                	sd	s0,32(sp)
ffffffc0504062c4:	1800                	addi	s0,sp,48
ffffffc0504062c6:	fca43c23          	sd	a0,-40(s0)
ffffffc0504062ca:	007fa797          	auipc	a5,0x7fa
ffffffc0504062ce:	e8678793          	addi	a5,a5,-378 # ffffffc050c00150 <xemacps_config>
ffffffc0504062d2:	fef43423          	sd	a5,-24(s0)
ffffffc0504062d6:	fe843783          	ld	a5,-24(s0)
ffffffc0504062da:	679c                	ld	a5,8(a5)
ffffffc0504062dc:	863e                	mv	a2,a5
ffffffc0504062de:	fe843583          	ld	a1,-24(s0)
ffffffc0504062e2:	fd843503          	ld	a0,-40(s0)
ffffffc0504062e6:	030010ef          	jal	ra,ffffffc050407316 <XEmacPs_CfgInitialize>
ffffffc0504062ea:	fea43023          	sd	a0,-32(s0)
ffffffc0504062ee:	fe043783          	ld	a5,-32(s0)
ffffffc0504062f2:	cb89                	beqz	a5,ffffffc050406304 <EmacPsSetupDevice+0x46>
ffffffc0504062f4:	00007517          	auipc	a0,0x7
ffffffc0504062f8:	f7c50513          	addi	a0,a0,-132 # ffffffc05040d270 <__FUNCTION__.1870+0x3b0>
ffffffc0504062fc:	feaff0ef          	jal	ra,ffffffc050405ae6 <EmacPsUtilErrorTrap>
ffffffc050406300:	4785                	li	a5,1
ffffffc050406302:	a215                	j	ffffffc050406426 <EmacPsSetupDevice+0x168>
ffffffc050406304:	00007517          	auipc	a0,0x7
ffffffc050406308:	f8450513          	addi	a0,a0,-124 # ffffffc05040d288 <__FUNCTION__.1870+0x3c8>
ffffffc05040630c:	4de060ef          	jal	ra,ffffffc05040c7ea <printk>
ffffffc050406310:	fe843783          	ld	a5,-24(s0)
ffffffc050406314:	679c                	ld	a5,8(a5)
ffffffc050406316:	0fc78793          	addi	a5,a5,252
ffffffc05040631a:	853e                	mv	a0,a5
ffffffc05040631c:	d65ff0ef          	jal	ra,ffffffc050406080 <Xil_In32>
ffffffc050406320:	87aa                	mv	a5,a0
ffffffc050406322:	2781                	sext.w	a5,a5
ffffffc050406324:	0107d79b          	srliw	a5,a5,0x10
ffffffc050406328:	2781                	sext.w	a5,a5
ffffffc05040632a:	873e                	mv	a4,a5
ffffffc05040632c:	6785                	lui	a5,0x1
ffffffc05040632e:	17fd                	addi	a5,a5,-1
ffffffc050406330:	8ff9                	and	a5,a5,a4
ffffffc050406332:	0007871b          	sext.w	a4,a5
ffffffc050406336:	003fb797          	auipc	a5,0x3fb
ffffffc05040633a:	91a78793          	addi	a5,a5,-1766 # ffffffc050800c50 <GemVersion>
ffffffc05040633e:	c398                	sw	a4,0(a5)
ffffffc050406340:	003fb797          	auipc	a5,0x3fb
ffffffc050406344:	91078793          	addi	a5,a5,-1776 # ffffffc050800c50 <GemVersion>
ffffffc050406348:	439c                	lw	a5,0(a5)
ffffffc05040634a:	85be                	mv	a1,a5
ffffffc05040634c:	00007517          	auipc	a0,0x7
ffffffc050406350:	f6450513          	addi	a0,a0,-156 # ffffffc05040d2b0 <__FUNCTION__.1870+0x3f0>
ffffffc050406354:	496060ef          	jal	ra,ffffffc05040c7ea <printk>
ffffffc050406358:	007fa797          	auipc	a5,0x7fa
ffffffc05040635c:	db078793          	addi	a5,a5,-592 # ffffffc050c00108 <Platform>
ffffffc050406360:	6715                	lui	a4,0x5
ffffffc050406362:	c398                	sw	a4,0(a5)
ffffffc050406364:	fd843503          	ld	a0,-40(s0)
ffffffc050406368:	1c2010ef          	jal	ra,ffffffc05040752a <XEmacPs_Reset>
ffffffc05040636c:	4605                	li	a2,1
ffffffc05040636e:	00024597          	auipc	a1,0x24
ffffffc050406372:	47258593          	addi	a1,a1,1138 # ffffffc05042a7e0 <EmacPsMAC>
ffffffc050406376:	fd843503          	ld	a0,-40(s0)
ffffffc05040637a:	ebdfc0ef          	jal	ra,ffffffc050403236 <XEmacPs_SetMacAddress>
ffffffc05040637e:	fea43023          	sd	a0,-32(s0)
ffffffc050406382:	fe043783          	ld	a5,-32(s0)
ffffffc050406386:	cb89                	beqz	a5,ffffffc050406398 <EmacPsSetupDevice+0xda>
ffffffc050406388:	00007517          	auipc	a0,0x7
ffffffc05040638c:	f4050513          	addi	a0,a0,-192 # ffffffc05040d2c8 <__FUNCTION__.1870+0x408>
ffffffc050406390:	f56ff0ef          	jal	ra,ffffffc050405ae6 <EmacPsUtilErrorTrap>
ffffffc050406394:	4785                	li	a5,1
ffffffc050406396:	a841                	j	ffffffc050406426 <EmacPsSetupDevice+0x168>
ffffffc050406398:	00007517          	auipc	a0,0x7
ffffffc05040639c:	f5050513          	addi	a0,a0,-176 # ffffffc05040d2e8 <__FUNCTION__.1870+0x428>
ffffffc0504063a0:	44a060ef          	jal	ra,ffffffc05040c7ea <printk>
ffffffc0504063a4:	fd843683          	ld	a3,-40(s0)
ffffffc0504063a8:	00001617          	auipc	a2,0x1
ffffffc0504063ac:	b8c60613          	addi	a2,a2,-1140 # ffffffc050406f34 <XEmacPsSendHandler>
ffffffc0504063b0:	4585                	li	a1,1
ffffffc0504063b2:	fd843503          	ld	a0,-40(s0)
ffffffc0504063b6:	9bbff0ef          	jal	ra,ffffffc050405d70 <XEmacPs_SetHandler>
ffffffc0504063ba:	fea43023          	sd	a0,-32(s0)
ffffffc0504063be:	fd843683          	ld	a3,-40(s0)
ffffffc0504063c2:	00001617          	auipc	a2,0x1
ffffffc0504063c6:	ba860613          	addi	a2,a2,-1112 # ffffffc050406f6a <XEmacPsRecvHandler>
ffffffc0504063ca:	4589                	li	a1,2
ffffffc0504063cc:	fd843503          	ld	a0,-40(s0)
ffffffc0504063d0:	9a1ff0ef          	jal	ra,ffffffc050405d70 <XEmacPs_SetHandler>
ffffffc0504063d4:	872a                	mv	a4,a0
ffffffc0504063d6:	fe043783          	ld	a5,-32(s0)
ffffffc0504063da:	8fd9                	or	a5,a5,a4
ffffffc0504063dc:	fef43023          	sd	a5,-32(s0)
ffffffc0504063e0:	fd843683          	ld	a3,-40(s0)
ffffffc0504063e4:	00001617          	auipc	a2,0x1
ffffffc0504063e8:	bd260613          	addi	a2,a2,-1070 # ffffffc050406fb6 <XEmacPsErrorHandler>
ffffffc0504063ec:	458d                	li	a1,3
ffffffc0504063ee:	fd843503          	ld	a0,-40(s0)
ffffffc0504063f2:	97fff0ef          	jal	ra,ffffffc050405d70 <XEmacPs_SetHandler>
ffffffc0504063f6:	872a                	mv	a4,a0
ffffffc0504063f8:	fe043783          	ld	a5,-32(s0)
ffffffc0504063fc:	8fd9                	or	a5,a5,a4
ffffffc0504063fe:	fef43023          	sd	a5,-32(s0)
ffffffc050406402:	fe043783          	ld	a5,-32(s0)
ffffffc050406406:	cb89                	beqz	a5,ffffffc050406418 <EmacPsSetupDevice+0x15a>
ffffffc050406408:	00007517          	auipc	a0,0x7
ffffffc05040640c:	ef850513          	addi	a0,a0,-264 # ffffffc05040d300 <__FUNCTION__.1870+0x440>
ffffffc050406410:	ed6ff0ef          	jal	ra,ffffffc050405ae6 <EmacPsUtilErrorTrap>
ffffffc050406414:	4785                	li	a5,1
ffffffc050406416:	a801                	j	ffffffc050406426 <EmacPsSetupDevice+0x168>
ffffffc050406418:	00007517          	auipc	a0,0x7
ffffffc05040641c:	f0850513          	addi	a0,a0,-248 # ffffffc05040d320 <__FUNCTION__.1870+0x460>
ffffffc050406420:	3ca060ef          	jal	ra,ffffffc05040c7ea <printk>
ffffffc050406424:	4781                	li	a5,0
ffffffc050406426:	853e                	mv	a0,a5
ffffffc050406428:	70a2                	ld	ra,40(sp)
ffffffc05040642a:	7402                	ld	s0,32(sp)
ffffffc05040642c:	6145                	addi	sp,sp,48
ffffffc05040642e:	8082                	ret

ffffffc050406430 <EmacPsInit>:
ffffffc050406430:	7179                	addi	sp,sp,-48
ffffffc050406432:	f406                	sd	ra,40(sp)
ffffffc050406434:	f022                	sd	s0,32(sp)
ffffffc050406436:	1800                	addi	s0,sp,48
ffffffc050406438:	fca43c23          	sd	a0,-40(s0)
ffffffc05040643c:	fe043423          	sd	zero,-24(s0)
ffffffc050406440:	fd843503          	ld	a0,-40(s0)
ffffffc050406444:	e7bff0ef          	jal	ra,ffffffc0504062be <EmacPsSetupDevice>
ffffffc050406448:	fea43423          	sd	a0,-24(s0)
ffffffc05040644c:	fe843783          	ld	a5,-24(s0)
ffffffc050406450:	c799                	beqz	a5,ffffffc05040645e <EmacPsInit+0x2e>
ffffffc050406452:	00007517          	auipc	a0,0x7
ffffffc050406456:	eee50513          	addi	a0,a0,-274 # ffffffc05040d340 <__FUNCTION__.1870+0x480>
ffffffc05040645a:	390060ef          	jal	ra,ffffffc05040c7ea <printk>
ffffffc05040645e:	fd843503          	ld	a0,-40(s0)
ffffffc050406462:	cd1ff0ef          	jal	ra,ffffffc050406132 <EmacPsSetupBD>
ffffffc050406466:	fea43423          	sd	a0,-24(s0)
ffffffc05040646a:	fe843783          	ld	a5,-24(s0)
ffffffc05040646e:	c799                	beqz	a5,ffffffc05040647c <EmacPsInit+0x4c>
ffffffc050406470:	00007517          	auipc	a0,0x7
ffffffc050406474:	ee850513          	addi	a0,a0,-280 # ffffffc05040d358 <__FUNCTION__.1870+0x498>
ffffffc050406478:	372060ef          	jal	ra,ffffffc05040c7ea <printk>
ffffffc05040647c:	003fa797          	auipc	a5,0x3fa
ffffffc050406480:	7d478793          	addi	a5,a5,2004 # ffffffc050800c50 <GemVersion>
ffffffc050406484:	439c                	lw	a5,0(a5)
ffffffc050406486:	873e                	mv	a4,a5
ffffffc050406488:	4789                	li	a5,2
ffffffc05040648a:	06f71363          	bne	a4,a5,ffffffc0504064f0 <EmacPsInit+0xc0>
ffffffc05040648e:	459d                	li	a1,7
ffffffc050406490:	fd843503          	ld	a0,-40(s0)
ffffffc050406494:	dbdfd0ef          	jal	ra,ffffffc050404250 <XEmacPs_SetMdioDivisor>
ffffffc050406498:	4505                	li	a0,1
ffffffc05040649a:	cecff0ef          	jal	ra,ffffffc050405986 <EmacpsDelay>
ffffffc05040649e:	3e800793          	li	a5,1000
ffffffc0504064a2:	fef42223          	sw	a5,-28(s0)
ffffffc0504064a6:	fe440793          	addi	a5,s0,-28
ffffffc0504064aa:	85be                	mv	a1,a5
ffffffc0504064ac:	fd843503          	ld	a0,-40(s0)
ffffffc0504064b0:	d0dff0ef          	jal	ra,ffffffc0504061bc <EmacPsInitPhy>
ffffffc0504064b4:	87aa                	mv	a5,a0
ffffffc0504064b6:	c799                	beqz	a5,ffffffc0504064c4 <EmacPsInit+0x94>
ffffffc0504064b8:	00007517          	auipc	a0,0x7
ffffffc0504064bc:	eb850513          	addi	a0,a0,-328 # ffffffc05040d370 <__FUNCTION__.1870+0x4b0>
ffffffc0504064c0:	e26ff0ef          	jal	ra,ffffffc050405ae6 <EmacPsUtilErrorTrap>
ffffffc0504064c4:	fe442783          	lw	a5,-28(s0)
ffffffc0504064c8:	17c2                	slli	a5,a5,0x30
ffffffc0504064ca:	93c1                	srli	a5,a5,0x30
ffffffc0504064cc:	85be                	mv	a1,a5
ffffffc0504064ce:	fd843503          	ld	a0,-40(s0)
ffffffc0504064d2:	ce5fd0ef          	jal	ra,ffffffc0504041b6 <XEmacPs_SetOperatingSpeed>
ffffffc0504064d6:	fe442783          	lw	a5,-28(s0)
ffffffc0504064da:	85be                	mv	a1,a5
ffffffc0504064dc:	fd843503          	ld	a0,-40(s0)
ffffffc0504064e0:	423000ef          	jal	ra,ffffffc050407102 <XEmacPsClkSetup>
ffffffc0504064e4:	00007517          	auipc	a0,0x7
ffffffc0504064e8:	ea450513          	addi	a0,a0,-348 # ffffffc05040d388 <__FUNCTION__.1870+0x4c8>
ffffffc0504064ec:	2fe060ef          	jal	ra,ffffffc05040c7ea <printk>
ffffffc0504064f0:	fd843783          	ld	a5,-40(s0)
ffffffc0504064f4:	679c                	ld	a5,8(a5)
ffffffc0504064f6:	02478713          	addi	a4,a5,36
ffffffc0504064fa:	67a1                	lui	a5,0x8
ffffffc0504064fc:	fff78593          	addi	a1,a5,-1 # 7fff <_start-0xffffffc0503f8001>
ffffffc050406500:	853a                	mv	a0,a4
ffffffc050406502:	b53ff0ef          	jal	ra,ffffffc050406054 <Xil_Out32>
ffffffc050406506:	fe843783          	ld	a5,-24(s0)
ffffffc05040650a:	853e                	mv	a0,a5
ffffffc05040650c:	70a2                	ld	ra,40(sp)
ffffffc05040650e:	7402                	ld	s0,32(sp)
ffffffc050406510:	6145                	addi	sp,sp,48
ffffffc050406512:	8082                	ret

ffffffc050406514 <EmacPsSend>:
ffffffc050406514:	715d                	addi	sp,sp,-80
ffffffc050406516:	e486                	sd	ra,72(sp)
ffffffc050406518:	e0a2                	sd	s0,64(sp)
ffffffc05040651a:	fc26                	sd	s1,56(sp)
ffffffc05040651c:	0880                	addi	s0,sp,80
ffffffc05040651e:	fca43423          	sd	a0,-56(s0)
ffffffc050406522:	fcb43023          	sd	a1,-64(s0)
ffffffc050406526:	fac43c23          	sd	a2,-72(s0)
ffffffc05040652a:	fc043c23          	sd	zero,-40(s0)
ffffffc05040652e:	fc043783          	ld	a5,-64(s0)
ffffffc050406532:	853e                	mv	a0,a5
ffffffc050406534:	b05ff0ef          	jal	ra,ffffffc050406038 <kva2pa>
ffffffc050406538:	87aa                	mv	a5,a0
ffffffc05040653a:	0007871b          	sext.w	a4,a5
ffffffc05040653e:	007fa797          	auipc	a5,0x7fa
ffffffc050406542:	c0278793          	addi	a5,a5,-1022 # ffffffc050c00140 <TxBd_Ring>
ffffffc050406546:	c398                	sw	a4,0(a5)
ffffffc050406548:	007fa797          	auipc	a5,0x7fa
ffffffc05040654c:	bf878793          	addi	a5,a5,-1032 # ffffffc050c00140 <TxBd_Ring>
ffffffc050406550:	0791                	addi	a5,a5,4
ffffffc050406552:	439c                	lw	a5,0(a5)
ffffffc050406554:	873e                	mv	a4,a5
ffffffc050406556:	77f1                	lui	a5,0xffffc
ffffffc050406558:	8ff9                	and	a5,a5,a4
ffffffc05040655a:	0007869b          	sext.w	a3,a5
ffffffc05040655e:	fb843783          	ld	a5,-72(s0)
ffffffc050406562:	0007861b          	sext.w	a2,a5
ffffffc050406566:	007fa797          	auipc	a5,0x7fa
ffffffc05040656a:	bda78793          	addi	a5,a5,-1062 # ffffffc050c00140 <TxBd_Ring>
ffffffc05040656e:	0791                	addi	a5,a5,4
ffffffc050406570:	873e                	mv	a4,a5
ffffffc050406572:	87b2                	mv	a5,a2
ffffffc050406574:	8fd5                	or	a5,a5,a3
ffffffc050406576:	2781                	sext.w	a5,a5
ffffffc050406578:	c31c                	sw	a5,0(a4)
ffffffc05040657a:	007fa797          	auipc	a5,0x7fa
ffffffc05040657e:	bc678793          	addi	a5,a5,-1082 # ffffffc050c00140 <TxBd_Ring>
ffffffc050406582:	0791                	addi	a5,a5,4
ffffffc050406584:	4394                	lw	a3,0(a5)
ffffffc050406586:	007fa797          	auipc	a5,0x7fa
ffffffc05040658a:	bba78793          	addi	a5,a5,-1094 # ffffffc050c00140 <TxBd_Ring>
ffffffc05040658e:	0791                	addi	a5,a5,4
ffffffc050406590:	873e                	mv	a4,a5
ffffffc050406592:	800007b7          	lui	a5,0x80000
ffffffc050406596:	fff7c793          	not	a5,a5
ffffffc05040659a:	8ff5                	and	a5,a5,a3
ffffffc05040659c:	2781                	sext.w	a5,a5
ffffffc05040659e:	c31c                	sw	a5,0(a4)
ffffffc0504065a0:	007fa797          	auipc	a5,0x7fa
ffffffc0504065a4:	ba078793          	addi	a5,a5,-1120 # ffffffc050c00140 <TxBd_Ring>
ffffffc0504065a8:	0791                	addi	a5,a5,4
ffffffc0504065aa:	4394                	lw	a3,0(a5)
ffffffc0504065ac:	007fa797          	auipc	a5,0x7fa
ffffffc0504065b0:	b9478793          	addi	a5,a5,-1132 # ffffffc050c00140 <TxBd_Ring>
ffffffc0504065b4:	0791                	addi	a5,a5,4
ffffffc0504065b6:	873e                	mv	a4,a5
ffffffc0504065b8:	67a1                	lui	a5,0x8
ffffffc0504065ba:	8fd5                	or	a5,a5,a3
ffffffc0504065bc:	2781                	sext.w	a5,a5
ffffffc0504065be:	c31c                	sw	a5,0(a4)
ffffffc0504065c0:	007fa797          	auipc	a5,0x7fa
ffffffc0504065c4:	b8078793          	addi	a5,a5,-1152 # ffffffc050c00140 <TxBd_Ring>
ffffffc0504065c8:	853e                	mv	a0,a5
ffffffc0504065ca:	a6fff0ef          	jal	ra,ffffffc050406038 <kva2pa>
ffffffc0504065ce:	87aa                	mv	a5,a0
ffffffc0504065d0:	fcf42a23          	sw	a5,-44(s0)
ffffffc0504065d4:	fc843783          	ld	a5,-56(s0)
ffffffc0504065d8:	679c                	ld	a5,8(a5)
ffffffc0504065da:	07f1                	addi	a5,a5,28
ffffffc0504065dc:	fd442703          	lw	a4,-44(s0)
ffffffc0504065e0:	85ba                	mv	a1,a4
ffffffc0504065e2:	853e                	mv	a0,a5
ffffffc0504065e4:	a71ff0ef          	jal	ra,ffffffc050406054 <Xil_Out32>
ffffffc0504065e8:	04000593          	li	a1,64
ffffffc0504065ec:	4501                	li	a0,0
ffffffc0504065ee:	ab7ff0ef          	jal	ra,ffffffc0504060a4 <Xil_DCacheFlushRange>
ffffffc0504065f2:	fc843783          	ld	a5,-56(s0)
ffffffc0504065f6:	539c                	lw	a5,32(a5)
ffffffc0504065f8:	1007f793          	andi	a5,a5,256
ffffffc0504065fc:	2781                	sext.w	a5,a5
ffffffc0504065fe:	cb9d                	beqz	a5,ffffffc050406634 <EmacPsSend+0x120>
ffffffc050406600:	fc843783          	ld	a5,-56(s0)
ffffffc050406604:	679c                	ld	a5,8(a5)
ffffffc050406606:	853e                	mv	a0,a5
ffffffc050406608:	a79ff0ef          	jal	ra,ffffffc050406080 <Xil_In32>
ffffffc05040660c:	87aa                	mv	a5,a0
ffffffc05040660e:	fcf42823          	sw	a5,-48(s0)
ffffffc050406612:	fd042783          	lw	a5,-48(s0)
ffffffc050406616:	8ba1                	andi	a5,a5,8
ffffffc050406618:	2781                	sext.w	a5,a5
ffffffc05040661a:	ef89                	bnez	a5,ffffffc050406634 <EmacPsSend+0x120>
ffffffc05040661c:	fc843783          	ld	a5,-56(s0)
ffffffc050406620:	6798                	ld	a4,8(a5)
ffffffc050406622:	fd042783          	lw	a5,-48(s0)
ffffffc050406626:	0087e793          	ori	a5,a5,8
ffffffc05040662a:	2781                	sext.w	a5,a5
ffffffc05040662c:	85be                	mv	a1,a5
ffffffc05040662e:	853a                	mv	a0,a4
ffffffc050406630:	a25ff0ef          	jal	ra,ffffffc050406054 <Xil_Out32>
ffffffc050406634:	fc843783          	ld	a5,-56(s0)
ffffffc050406638:	6784                	ld	s1,8(a5)
ffffffc05040663a:	fc843783          	ld	a5,-56(s0)
ffffffc05040663e:	679c                	ld	a5,8(a5)
ffffffc050406640:	853e                	mv	a0,a5
ffffffc050406642:	a3fff0ef          	jal	ra,ffffffc050406080 <Xil_In32>
ffffffc050406646:	87aa                	mv	a5,a0
ffffffc050406648:	2781                	sext.w	a5,a5
ffffffc05040664a:	2007e793          	ori	a5,a5,512
ffffffc05040664e:	2781                	sext.w	a5,a5
ffffffc050406650:	85be                	mv	a1,a5
ffffffc050406652:	8526                	mv	a0,s1
ffffffc050406654:	a01ff0ef          	jal	ra,ffffffc050406054 <Xil_Out32>
ffffffc050406658:	fd843783          	ld	a5,-40(s0)
ffffffc05040665c:	853e                	mv	a0,a5
ffffffc05040665e:	60a6                	ld	ra,72(sp)
ffffffc050406660:	6406                	ld	s0,64(sp)
ffffffc050406662:	74e2                	ld	s1,56(sp)
ffffffc050406664:	6161                	addi	sp,sp,80
ffffffc050406666:	8082                	ret

ffffffc050406668 <EmacPsWaitSend>:
ffffffc050406668:	7139                	addi	sp,sp,-64
ffffffc05040666a:	fc06                	sd	ra,56(sp)
ffffffc05040666c:	f822                	sd	s0,48(sp)
ffffffc05040666e:	0080                	addi	s0,sp,64
ffffffc050406670:	fca43423          	sd	a0,-56(s0)
ffffffc050406674:	fe043023          	sd	zero,-32(s0)
ffffffc050406678:	fe042623          	sw	zero,-20(s0)
ffffffc05040667c:	fc042e23          	sw	zero,-36(s0)
ffffffc050406680:	a049                	j	ffffffc050406702 <EmacPsWaitSend+0x9a>
ffffffc050406682:	fc843783          	ld	a5,-56(s0)
ffffffc050406686:	679c                	ld	a5,8(a5)
ffffffc050406688:	07d1                	addi	a5,a5,20
ffffffc05040668a:	853e                	mv	a0,a5
ffffffc05040668c:	9f5ff0ef          	jal	ra,ffffffc050406080 <Xil_In32>
ffffffc050406690:	87aa                	mv	a5,a0
ffffffc050406692:	fef42423          	sw	a5,-24(s0)
ffffffc050406696:	a081                	j	ffffffc0504066d6 <EmacPsWaitSend+0x6e>
ffffffc050406698:	c31f90ef          	jal	ra,ffffffc0504002c8 <get_current_cpu_id>
ffffffc05040669c:	87aa                	mv	a5,a0
ffffffc05040669e:	fcf43823          	sd	a5,-48(s0)
ffffffc0504066a2:	007fa717          	auipc	a4,0x7fa
ffffffc0504066a6:	f5670713          	addi	a4,a4,-170 # ffffffc050c005f8 <current_running>
ffffffc0504066aa:	fd043783          	ld	a5,-48(s0)
ffffffc0504066ae:	078e                	slli	a5,a5,0x3
ffffffc0504066b0:	97ba                	add	a5,a5,a4
ffffffc0504066b2:	639c                	ld	a5,0(a5)
ffffffc0504066b4:	00007597          	auipc	a1,0x7
ffffffc0504066b8:	27c58593          	addi	a1,a1,636 # ffffffc05040d930 <wait_send_queue>
ffffffc0504066bc:	853e                	mv	a0,a5
ffffffc0504066be:	3fb020ef          	jal	ra,ffffffc0504092b8 <do_block>
ffffffc0504066c2:	fc843783          	ld	a5,-56(s0)
ffffffc0504066c6:	679c                	ld	a5,8(a5)
ffffffc0504066c8:	07d1                	addi	a5,a5,20
ffffffc0504066ca:	853e                	mv	a0,a5
ffffffc0504066cc:	9b5ff0ef          	jal	ra,ffffffc050406080 <Xil_In32>
ffffffc0504066d0:	87aa                	mv	a5,a0
ffffffc0504066d2:	fef42423          	sw	a5,-24(s0)
ffffffc0504066d6:	fe842783          	lw	a5,-24(s0)
ffffffc0504066da:	0207f793          	andi	a5,a5,32
ffffffc0504066de:	2781                	sext.w	a5,a5
ffffffc0504066e0:	dfc5                	beqz	a5,ffffffc050406698 <EmacPsWaitSend+0x30>
ffffffc0504066e2:	00207797          	auipc	a5,0x207
ffffffc0504066e6:	6de78793          	addi	a5,a5,1758 # ffffffc05060ddc0 <EmacPsInstance>
ffffffc0504066ea:	679c                	ld	a5,8(a5)
ffffffc0504066ec:	07d1                	addi	a5,a5,20
ffffffc0504066ee:	02000593          	li	a1,32
ffffffc0504066f2:	853e                	mv	a0,a5
ffffffc0504066f4:	961ff0ef          	jal	ra,ffffffc050406054 <Xil_Out32>
ffffffc0504066f8:	fec42783          	lw	a5,-20(s0)
ffffffc0504066fc:	2785                	addiw	a5,a5,1
ffffffc0504066fe:	fef42623          	sw	a5,-20(s0)
ffffffc050406702:	fec42783          	lw	a5,-20(s0)
ffffffc050406706:	2781                	sext.w	a5,a5
ffffffc050406708:	dfad                	beqz	a5,ffffffc050406682 <EmacPsWaitSend+0x1a>
ffffffc05040670a:	007fa797          	auipc	a5,0x7fa
ffffffc05040670e:	9f678793          	addi	a5,a5,-1546 # ffffffc050c00100 <FramesTx>
ffffffc050406712:	439c                	lw	a5,0(a5)
ffffffc050406714:	2781                	sext.w	a5,a5
ffffffc050406716:	37fd                	addiw	a5,a5,-1
ffffffc050406718:	0007871b          	sext.w	a4,a5
ffffffc05040671c:	007fa797          	auipc	a5,0x7fa
ffffffc050406720:	9e478793          	addi	a5,a5,-1564 # ffffffc050c00100 <FramesTx>
ffffffc050406724:	c398                	sw	a4,0(a5)
ffffffc050406726:	04000593          	li	a1,64
ffffffc05040672a:	4501                	li	a0,0
ffffffc05040672c:	979ff0ef          	jal	ra,ffffffc0504060a4 <Xil_DCacheFlushRange>
ffffffc050406730:	fe043783          	ld	a5,-32(s0)
ffffffc050406734:	853e                	mv	a0,a5
ffffffc050406736:	70e2                	ld	ra,56(sp)
ffffffc050406738:	7442                	ld	s0,48(sp)
ffffffc05040673a:	6121                	addi	sp,sp,64
ffffffc05040673c:	8082                	ret

ffffffc05040673e <EmacPsRecv>:
ffffffc05040673e:	711d                	addi	sp,sp,-96
ffffffc050406740:	ec86                	sd	ra,88(sp)
ffffffc050406742:	e8a2                	sd	s0,80(sp)
ffffffc050406744:	1080                	addi	s0,sp,96
ffffffc050406746:	faa43c23          	sd	a0,-72(s0)
ffffffc05040674a:	fab43823          	sd	a1,-80(s0)
ffffffc05040674e:	87b2                	mv	a5,a2
ffffffc050406750:	faf42623          	sw	a5,-84(s0)
ffffffc050406754:	fc043c23          	sd	zero,-40(s0)
ffffffc050406758:	fb843783          	ld	a5,-72(s0)
ffffffc05040675c:	539c                	lw	a5,32(a5)
ffffffc05040675e:	2007f793          	andi	a5,a5,512
ffffffc050406762:	2781                	sext.w	a5,a5
ffffffc050406764:	cb91                	beqz	a5,ffffffc050406778 <EmacPsRecv+0x3a>
ffffffc050406766:	fb843783          	ld	a5,-72(s0)
ffffffc05040676a:	679c                	ld	a5,8(a5)
ffffffc05040676c:	853e                	mv	a0,a5
ffffffc05040676e:	913ff0ef          	jal	ra,ffffffc050406080 <Xil_In32>
ffffffc050406772:	87aa                	mv	a5,a0
ffffffc050406774:	fcf42a23          	sw	a5,-44(s0)
ffffffc050406778:	fb043783          	ld	a5,-80(s0)
ffffffc05040677c:	853e                	mv	a0,a5
ffffffc05040677e:	8bbff0ef          	jal	ra,ffffffc050406038 <kva2pa>
ffffffc050406782:	fea43023          	sd	a0,-32(s0)
ffffffc050406786:	fe042623          	sw	zero,-20(s0)
ffffffc05040678a:	a8f1                	j	ffffffc050406866 <EmacPsRecv+0x128>
ffffffc05040678c:	007fa717          	auipc	a4,0x7fa
ffffffc050406790:	87470713          	addi	a4,a4,-1932 # ffffffc050c00000 <RxBd_Ring>
ffffffc050406794:	fec42783          	lw	a5,-20(s0)
ffffffc050406798:	078e                	slli	a5,a5,0x3
ffffffc05040679a:	97ba                	add	a5,a5,a4
ffffffc05040679c:	0007a223          	sw	zero,4(a5)
ffffffc0504067a0:	007fa717          	auipc	a4,0x7fa
ffffffc0504067a4:	86070713          	addi	a4,a4,-1952 # ffffffc050c00000 <RxBd_Ring>
ffffffc0504067a8:	fec42783          	lw	a5,-20(s0)
ffffffc0504067ac:	078e                	slli	a5,a5,0x3
ffffffc0504067ae:	97ba                	add	a5,a5,a4
ffffffc0504067b0:	43d8                	lw	a4,4(a5)
ffffffc0504067b2:	007fa697          	auipc	a3,0x7fa
ffffffc0504067b6:	84e68693          	addi	a3,a3,-1970 # ffffffc050c00000 <RxBd_Ring>
ffffffc0504067ba:	fec42783          	lw	a5,-20(s0)
ffffffc0504067be:	078e                	slli	a5,a5,0x3
ffffffc0504067c0:	97b6                	add	a5,a5,a3
ffffffc0504067c2:	c398                	sw	a4,0(a5)
ffffffc0504067c4:	007fa717          	auipc	a4,0x7fa
ffffffc0504067c8:	83c70713          	addi	a4,a4,-1988 # ffffffc050c00000 <RxBd_Ring>
ffffffc0504067cc:	fec42783          	lw	a5,-20(s0)
ffffffc0504067d0:	078e                	slli	a5,a5,0x3
ffffffc0504067d2:	97ba                	add	a5,a5,a4
ffffffc0504067d4:	439c                	lw	a5,0(a5)
ffffffc0504067d6:	8b8d                	andi	a5,a5,3
ffffffc0504067d8:	0007871b          	sext.w	a4,a5
ffffffc0504067dc:	fe043783          	ld	a5,-32(s0)
ffffffc0504067e0:	2781                	sext.w	a5,a5
ffffffc0504067e2:	8fd9                	or	a5,a5,a4
ffffffc0504067e4:	0007871b          	sext.w	a4,a5
ffffffc0504067e8:	007fa697          	auipc	a3,0x7fa
ffffffc0504067ec:	81868693          	addi	a3,a3,-2024 # ffffffc050c00000 <RxBd_Ring>
ffffffc0504067f0:	fec42783          	lw	a5,-20(s0)
ffffffc0504067f4:	078e                	slli	a5,a5,0x3
ffffffc0504067f6:	97b6                	add	a5,a5,a3
ffffffc0504067f8:	c398                	sw	a4,0(a5)
ffffffc0504067fa:	007fa717          	auipc	a4,0x7fa
ffffffc0504067fe:	80670713          	addi	a4,a4,-2042 # ffffffc050c00000 <RxBd_Ring>
ffffffc050406802:	fec42783          	lw	a5,-20(s0)
ffffffc050406806:	078e                	slli	a5,a5,0x3
ffffffc050406808:	97ba                	add	a5,a5,a4
ffffffc05040680a:	439c                	lw	a5,0(a5)
ffffffc05040680c:	9bf9                	andi	a5,a5,-2
ffffffc05040680e:	0007871b          	sext.w	a4,a5
ffffffc050406812:	007f9697          	auipc	a3,0x7f9
ffffffc050406816:	7ee68693          	addi	a3,a3,2030 # ffffffc050c00000 <RxBd_Ring>
ffffffc05040681a:	fec42783          	lw	a5,-20(s0)
ffffffc05040681e:	078e                	slli	a5,a5,0x3
ffffffc050406820:	97b6                	add	a5,a5,a3
ffffffc050406822:	c398                	sw	a4,0(a5)
ffffffc050406824:	fac42783          	lw	a5,-84(s0)
ffffffc050406828:	37fd                	addiw	a5,a5,-1
ffffffc05040682a:	0007871b          	sext.w	a4,a5
ffffffc05040682e:	fec42783          	lw	a5,-20(s0)
ffffffc050406832:	2781                	sext.w	a5,a5
ffffffc050406834:	00e79e63          	bne	a5,a4,ffffffc050406850 <EmacPsRecv+0x112>
ffffffc050406838:	fec42783          	lw	a5,-20(s0)
ffffffc05040683c:	00379713          	slli	a4,a5,0x3
ffffffc050406840:	007f9797          	auipc	a5,0x7f9
ffffffc050406844:	7c078793          	addi	a5,a5,1984 # ffffffc050c00000 <RxBd_Ring>
ffffffc050406848:	97ba                	add	a5,a5,a4
ffffffc05040684a:	853e                	mv	a0,a5
ffffffc05040684c:	87dfc0ef          	jal	ra,ffffffc0504030c8 <XEmacPs_BdSetRxWrap>
ffffffc050406850:	fe043783          	ld	a5,-32(s0)
ffffffc050406854:	60078793          	addi	a5,a5,1536
ffffffc050406858:	fef43023          	sd	a5,-32(s0)
ffffffc05040685c:	fec42783          	lw	a5,-20(s0)
ffffffc050406860:	2785                	addiw	a5,a5,1
ffffffc050406862:	fef42623          	sw	a5,-20(s0)
ffffffc050406866:	fec42703          	lw	a4,-20(s0)
ffffffc05040686a:	fac42783          	lw	a5,-84(s0)
ffffffc05040686e:	2701                	sext.w	a4,a4
ffffffc050406870:	2781                	sext.w	a5,a5
ffffffc050406872:	f0f74de3          	blt	a4,a5,ffffffc05040678c <EmacPsRecv+0x4e>
ffffffc050406876:	04000593          	li	a1,64
ffffffc05040687a:	4501                	li	a0,0
ffffffc05040687c:	829ff0ef          	jal	ra,ffffffc0504060a4 <Xil_DCacheFlushRange>
ffffffc050406880:	007f9797          	auipc	a5,0x7f9
ffffffc050406884:	78078793          	addi	a5,a5,1920 # ffffffc050c00000 <RxBd_Ring>
ffffffc050406888:	853e                	mv	a0,a5
ffffffc05040688a:	faeff0ef          	jal	ra,ffffffc050406038 <kva2pa>
ffffffc05040688e:	87aa                	mv	a5,a0
ffffffc050406890:	fcf42823          	sw	a5,-48(s0)
ffffffc050406894:	fb843783          	ld	a5,-72(s0)
ffffffc050406898:	679c                	ld	a5,8(a5)
ffffffc05040689a:	07e1                	addi	a5,a5,24
ffffffc05040689c:	fd042703          	lw	a4,-48(s0)
ffffffc0504068a0:	85ba                	mv	a1,a4
ffffffc0504068a2:	853e                	mv	a0,a5
ffffffc0504068a4:	fb0ff0ef          	jal	ra,ffffffc050406054 <Xil_Out32>
ffffffc0504068a8:	fb843783          	ld	a5,-72(s0)
ffffffc0504068ac:	539c                	lw	a5,32(a5)
ffffffc0504068ae:	2007f793          	andi	a5,a5,512
ffffffc0504068b2:	2781                	sext.w	a5,a5
ffffffc0504068b4:	cb9d                	beqz	a5,ffffffc0504068ea <EmacPsRecv+0x1ac>
ffffffc0504068b6:	fb843783          	ld	a5,-72(s0)
ffffffc0504068ba:	679c                	ld	a5,8(a5)
ffffffc0504068bc:	853e                	mv	a0,a5
ffffffc0504068be:	fc2ff0ef          	jal	ra,ffffffc050406080 <Xil_In32>
ffffffc0504068c2:	87aa                	mv	a5,a0
ffffffc0504068c4:	fcf42623          	sw	a5,-52(s0)
ffffffc0504068c8:	fcc42783          	lw	a5,-52(s0)
ffffffc0504068cc:	8b91                	andi	a5,a5,4
ffffffc0504068ce:	2781                	sext.w	a5,a5
ffffffc0504068d0:	ef89                	bnez	a5,ffffffc0504068ea <EmacPsRecv+0x1ac>
ffffffc0504068d2:	fb843783          	ld	a5,-72(s0)
ffffffc0504068d6:	6798                	ld	a4,8(a5)
ffffffc0504068d8:	fcc42783          	lw	a5,-52(s0)
ffffffc0504068dc:	0047e793          	ori	a5,a5,4
ffffffc0504068e0:	2781                	sext.w	a5,a5
ffffffc0504068e2:	85be                	mv	a1,a5
ffffffc0504068e4:	853a                	mv	a0,a4
ffffffc0504068e6:	f6eff0ef          	jal	ra,ffffffc050406054 <Xil_Out32>
ffffffc0504068ea:	fd843783          	ld	a5,-40(s0)
ffffffc0504068ee:	853e                	mv	a0,a5
ffffffc0504068f0:	60e6                	ld	ra,88(sp)
ffffffc0504068f2:	6446                	ld	s0,80(sp)
ffffffc0504068f4:	6125                	addi	sp,sp,96
ffffffc0504068f6:	8082                	ret

ffffffc0504068f8 <EmacPsWaitRecv>:
ffffffc0504068f8:	711d                	addi	sp,sp,-96
ffffffc0504068fa:	ec86                	sd	ra,88(sp)
ffffffc0504068fc:	e8a2                	sd	s0,80(sp)
ffffffc0504068fe:	1080                	addi	s0,sp,96
ffffffc050406900:	faa43c23          	sd	a0,-72(s0)
ffffffc050406904:	87ae                	mv	a5,a1
ffffffc050406906:	fac43423          	sd	a2,-88(s0)
ffffffc05040690a:	faf42a23          	sw	a5,-76(s0)
ffffffc05040690e:	fc043c23          	sd	zero,-40(s0)
ffffffc050406912:	fc042a23          	sw	zero,-44(s0)
ffffffc050406916:	fe042623          	sw	zero,-20(s0)
ffffffc05040691a:	fe042423          	sw	zero,-24(s0)
ffffffc05040691e:	a059                	j	ffffffc0504069a4 <EmacPsWaitRecv+0xac>
ffffffc050406920:	007f9717          	auipc	a4,0x7f9
ffffffc050406924:	6e070713          	addi	a4,a4,1760 # ffffffc050c00000 <RxBd_Ring>
ffffffc050406928:	fe842783          	lw	a5,-24(s0)
ffffffc05040692c:	078e                	slli	a5,a5,0x3
ffffffc05040692e:	97ba                	add	a5,a5,a4
ffffffc050406930:	439c                	lw	a5,0(a5)
ffffffc050406932:	2781                	sext.w	a5,a5
ffffffc050406934:	8b85                	andi	a5,a5,1
ffffffc050406936:	fef42623          	sw	a5,-20(s0)
ffffffc05040693a:	a8a1                	j	ffffffc050406992 <EmacPsWaitRecv+0x9a>
ffffffc05040693c:	98df90ef          	jal	ra,ffffffc0504002c8 <get_current_cpu_id>
ffffffc050406940:	87aa                	mv	a5,a0
ffffffc050406942:	fcf43423          	sd	a5,-56(s0)
ffffffc050406946:	007fa717          	auipc	a4,0x7fa
ffffffc05040694a:	cb270713          	addi	a4,a4,-846 # ffffffc050c005f8 <current_running>
ffffffc05040694e:	fc843783          	ld	a5,-56(s0)
ffffffc050406952:	078e                	slli	a5,a5,0x3
ffffffc050406954:	97ba                	add	a5,a5,a4
ffffffc050406956:	639c                	ld	a5,0(a5)
ffffffc050406958:	00007597          	auipc	a1,0x7
ffffffc05040695c:	fc858593          	addi	a1,a1,-56 # ffffffc05040d920 <wait_recv_queue>
ffffffc050406960:	853e                	mv	a0,a5
ffffffc050406962:	157020ef          	jal	ra,ffffffc0504092b8 <do_block>
ffffffc050406966:	fb843783          	ld	a5,-72(s0)
ffffffc05040696a:	679c                	ld	a5,8(a5)
ffffffc05040696c:	02078793          	addi	a5,a5,32
ffffffc050406970:	4589                	li	a1,2
ffffffc050406972:	853e                	mv	a0,a5
ffffffc050406974:	ee0ff0ef          	jal	ra,ffffffc050406054 <Xil_Out32>
ffffffc050406978:	007f9717          	auipc	a4,0x7f9
ffffffc05040697c:	68870713          	addi	a4,a4,1672 # ffffffc050c00000 <RxBd_Ring>
ffffffc050406980:	fe842783          	lw	a5,-24(s0)
ffffffc050406984:	078e                	slli	a5,a5,0x3
ffffffc050406986:	97ba                	add	a5,a5,a4
ffffffc050406988:	439c                	lw	a5,0(a5)
ffffffc05040698a:	2781                	sext.w	a5,a5
ffffffc05040698c:	8b85                	andi	a5,a5,1
ffffffc05040698e:	fef42623          	sw	a5,-20(s0)
ffffffc050406992:	fec42783          	lw	a5,-20(s0)
ffffffc050406996:	2781                	sext.w	a5,a5
ffffffc050406998:	d3d5                	beqz	a5,ffffffc05040693c <EmacPsWaitRecv+0x44>
ffffffc05040699a:	fe842783          	lw	a5,-24(s0)
ffffffc05040699e:	2785                	addiw	a5,a5,1
ffffffc0504069a0:	fef42423          	sw	a5,-24(s0)
ffffffc0504069a4:	fe842703          	lw	a4,-24(s0)
ffffffc0504069a8:	fb442783          	lw	a5,-76(s0)
ffffffc0504069ac:	2701                	sext.w	a4,a4
ffffffc0504069ae:	2781                	sext.w	a5,a5
ffffffc0504069b0:	f6f718e3          	bne	a4,a5,ffffffc050406920 <EmacPsWaitRecv+0x28>
ffffffc0504069b4:	04000593          	li	a1,64
ffffffc0504069b8:	4501                	li	a0,0
ffffffc0504069ba:	eeaff0ef          	jal	ra,ffffffc0504060a4 <Xil_DCacheFlushRange>
ffffffc0504069be:	fe042223          	sw	zero,-28(s0)
ffffffc0504069c2:	a825                	j	ffffffc0504069fa <EmacPsWaitRecv+0x102>
ffffffc0504069c4:	fe442783          	lw	a5,-28(s0)
ffffffc0504069c8:	00379713          	slli	a4,a5,0x3
ffffffc0504069cc:	007f9797          	auipc	a5,0x7f9
ffffffc0504069d0:	63478793          	addi	a5,a5,1588 # ffffffc050c00000 <RxBd_Ring>
ffffffc0504069d4:	97ba                	add	a5,a5,a4
ffffffc0504069d6:	0791                	addi	a5,a5,4
ffffffc0504069d8:	4394                	lw	a3,0(a5)
ffffffc0504069da:	fe442783          	lw	a5,-28(s0)
ffffffc0504069de:	078a                	slli	a5,a5,0x2
ffffffc0504069e0:	fa843703          	ld	a4,-88(s0)
ffffffc0504069e4:	97ba                	add	a5,a5,a4
ffffffc0504069e6:	6709                	lui	a4,0x2
ffffffc0504069e8:	177d                	addi	a4,a4,-1
ffffffc0504069ea:	8f75                	and	a4,a4,a3
ffffffc0504069ec:	2701                	sext.w	a4,a4
ffffffc0504069ee:	c398                	sw	a4,0(a5)
ffffffc0504069f0:	fe442783          	lw	a5,-28(s0)
ffffffc0504069f4:	2785                	addiw	a5,a5,1
ffffffc0504069f6:	fef42223          	sw	a5,-28(s0)
ffffffc0504069fa:	fe442703          	lw	a4,-28(s0)
ffffffc0504069fe:	fb442783          	lw	a5,-76(s0)
ffffffc050406a02:	2701                	sext.w	a4,a4
ffffffc050406a04:	2781                	sext.w	a5,a5
ffffffc050406a06:	faf74fe3          	blt	a4,a5,ffffffc0504069c4 <EmacPsWaitRecv+0xcc>
ffffffc050406a0a:	fd843783          	ld	a5,-40(s0)
ffffffc050406a0e:	853e                	mv	a0,a5
ffffffc050406a10:	60e6                	ld	ra,88(sp)
ffffffc050406a12:	6446                	ld	s0,80(sp)
ffffffc050406a14:	6125                	addi	sp,sp,96
ffffffc050406a16:	8082                	ret

ffffffc050406a18 <EmacPsDmaIntrExample>:
ffffffc050406a18:	7179                	addi	sp,sp,-48
ffffffc050406a1a:	f406                	sd	ra,40(sp)
ffffffc050406a1c:	f022                	sd	s0,32(sp)
ffffffc050406a1e:	1800                	addi	s0,sp,48
ffffffc050406a20:	fca43c23          	sd	a0,-40(s0)
ffffffc050406a24:	fd843503          	ld	a0,-40(s0)
ffffffc050406a28:	a09ff0ef          	jal	ra,ffffffc050406430 <EmacPsInit>
ffffffc050406a2c:	fea43423          	sd	a0,-24(s0)
ffffffc050406a30:	00007517          	auipc	a0,0x7
ffffffc050406a34:	97850513          	addi	a0,a0,-1672 # ffffffc05040d3a8 <__FUNCTION__.1870+0x4e8>
ffffffc050406a38:	5b3050ef          	jal	ra,ffffffc05040c7ea <printk>
ffffffc050406a3c:	fd843503          	ld	a0,-40(s0)
ffffffc050406a40:	032000ef          	jal	ra,ffffffc050406a72 <EmacPsDmaSingleFrameIntrExample>
ffffffc050406a44:	fea43423          	sd	a0,-24(s0)
ffffffc050406a48:	fe843783          	ld	a5,-24(s0)
ffffffc050406a4c:	c399                	beqz	a5,ffffffc050406a52 <EmacPsDmaIntrExample+0x3a>
ffffffc050406a4e:	4785                	li	a5,1
ffffffc050406a50:	a821                	j	ffffffc050406a68 <EmacPsDmaIntrExample+0x50>
ffffffc050406a52:	00007517          	auipc	a0,0x7
ffffffc050406a56:	99650513          	addi	a0,a0,-1642 # ffffffc05040d3e8 <__FUNCTION__.1870+0x528>
ffffffc050406a5a:	591050ef          	jal	ra,ffffffc05040c7ea <printk>
ffffffc050406a5e:	fd843503          	ld	a0,-40(s0)
ffffffc050406a62:	25d000ef          	jal	ra,ffffffc0504074be <XEmacPs_Stop>
ffffffc050406a66:	4781                	li	a5,0
ffffffc050406a68:	853e                	mv	a0,a5
ffffffc050406a6a:	70a2                	ld	ra,40(sp)
ffffffc050406a6c:	7402                	ld	s0,32(sp)
ffffffc050406a6e:	6145                	addi	sp,sp,48
ffffffc050406a70:	8082                	ret

ffffffc050406a72 <EmacPsDmaSingleFrameIntrExample>:
ffffffc050406a72:	7139                	addi	sp,sp,-64
ffffffc050406a74:	fc06                	sd	ra,56(sp)
ffffffc050406a76:	f822                	sd	s0,48(sp)
ffffffc050406a78:	0080                	addi	s0,sp,64
ffffffc050406a7a:	fca43423          	sd	a0,-56(s0)
ffffffc050406a7e:	3e800793          	li	a5,1000
ffffffc050406a82:	fef42023          	sw	a5,-32(s0)
ffffffc050406a86:	007f9797          	auipc	a5,0x7f9
ffffffc050406a8a:	68678793          	addi	a5,a5,1670 # ffffffc050c0010c <FramesRx>
ffffffc050406a8e:	0007a023          	sw	zero,0(a5)
ffffffc050406a92:	007f9797          	auipc	a5,0x7f9
ffffffc050406a96:	66e78793          	addi	a5,a5,1646 # ffffffc050c00100 <FramesTx>
ffffffc050406a9a:	0007a023          	sw	zero,0(a5)
ffffffc050406a9e:	007f9797          	auipc	a5,0x7f9
ffffffc050406aa2:	66678793          	addi	a5,a5,1638 # ffffffc050c00104 <DeviceErrors>
ffffffc050406aa6:	0007a023          	sw	zero,0(a5)
ffffffc050406aaa:	fe042783          	lw	a5,-32(s0)
ffffffc050406aae:	27b9                	addiw	a5,a5,14
ffffffc050406ab0:	0007871b          	sext.w	a4,a5
ffffffc050406ab4:	007f9797          	auipc	a5,0x7f9
ffffffc050406ab8:	69478793          	addi	a5,a5,1684 # ffffffc050c00148 <TxFrameLength>
ffffffc050406abc:	c398                	sw	a4,0(a5)
ffffffc050406abe:	00024597          	auipc	a1,0x24
ffffffc050406ac2:	d2a58593          	addi	a1,a1,-726 # ffffffc05042a7e8 <BroadcastMAC>
ffffffc050406ac6:	003fa517          	auipc	a0,0x3fa
ffffffc050406aca:	b7a50513          	addi	a0,a0,-1158 # ffffffc050800640 <TxFrame>
ffffffc050406ace:	b27fd0ef          	jal	ra,ffffffc0504045f4 <EmacPsUtilFrameHdrFormatMAC>
ffffffc050406ad2:	fe042783          	lw	a5,-32(s0)
ffffffc050406ad6:	17c2                	slli	a5,a5,0x30
ffffffc050406ad8:	93c1                	srli	a5,a5,0x30
ffffffc050406ada:	85be                	mv	a1,a5
ffffffc050406adc:	003fa517          	auipc	a0,0x3fa
ffffffc050406ae0:	b6450513          	addi	a0,a0,-1180 # ffffffc050800640 <TxFrame>
ffffffc050406ae4:	bb5fd0ef          	jal	ra,ffffffc050404698 <EmacPsUtilFrameHdrFormatType>
ffffffc050406ae8:	fe042783          	lw	a5,-32(s0)
ffffffc050406aec:	85be                	mv	a1,a5
ffffffc050406aee:	003fa517          	auipc	a0,0x3fa
ffffffc050406af2:	b5250513          	addi	a0,a0,-1198 # ffffffc050800640 <TxFrame>
ffffffc050406af6:	bedfd0ef          	jal	ra,ffffffc0504046e2 <EmacPsUtilFrameSetPayloadData>
ffffffc050406afa:	00007517          	auipc	a0,0x7
ffffffc050406afe:	92e50513          	addi	a0,a0,-1746 # ffffffc05040d428 <__FUNCTION__.1870+0x568>
ffffffc050406b02:	4e9050ef          	jal	ra,ffffffc05040c7ea <printk>
ffffffc050406b06:	003fa797          	auipc	a5,0x3fa
ffffffc050406b0a:	b3a78793          	addi	a5,a5,-1222 # ffffffc050800640 <TxFrame>
ffffffc050406b0e:	60000593          	li	a1,1536
ffffffc050406b12:	853e                	mv	a0,a5
ffffffc050406b14:	d90ff0ef          	jal	ra,ffffffc0504060a4 <Xil_DCacheFlushRange>
ffffffc050406b18:	003f9517          	auipc	a0,0x3f9
ffffffc050406b1c:	4e850513          	addi	a0,a0,1256 # ffffffc050800000 <RxFrame>
ffffffc050406b20:	dc1fd0ef          	jal	ra,ffffffc0504048e0 <EmacPsUtilFrameMemClear>
ffffffc050406b24:	00007517          	auipc	a0,0x7
ffffffc050406b28:	92c50513          	addi	a0,a0,-1748 # ffffffc05040d450 <__FUNCTION__.1870+0x590>
ffffffc050406b2c:	4bf050ef          	jal	ra,ffffffc05040c7ea <printk>
ffffffc050406b30:	003f9797          	auipc	a5,0x3f9
ffffffc050406b34:	4d078793          	addi	a5,a5,1232 # ffffffc050800000 <RxFrame>
ffffffc050406b38:	60000593          	li	a1,1536
ffffffc050406b3c:	853e                	mv	a0,a5
ffffffc050406b3e:	d66ff0ef          	jal	ra,ffffffc0504060a4 <Xil_DCacheFlushRange>
ffffffc050406b42:	4605                	li	a2,1
ffffffc050406b44:	003f9597          	auipc	a1,0x3f9
ffffffc050406b48:	4bc58593          	addi	a1,a1,1212 # ffffffc050800000 <RxFrame>
ffffffc050406b4c:	fc843503          	ld	a0,-56(s0)
ffffffc050406b50:	befff0ef          	jal	ra,ffffffc05040673e <EmacPsRecv>
ffffffc050406b54:	007f9797          	auipc	a5,0x7f9
ffffffc050406b58:	5f478793          	addi	a5,a5,1524 # ffffffc050c00148 <TxFrameLength>
ffffffc050406b5c:	439c                	lw	a5,0(a5)
ffffffc050406b5e:	1782                	slli	a5,a5,0x20
ffffffc050406b60:	9381                	srli	a5,a5,0x20
ffffffc050406b62:	863e                	mv	a2,a5
ffffffc050406b64:	003fa597          	auipc	a1,0x3fa
ffffffc050406b68:	adc58593          	addi	a1,a1,-1316 # ffffffc050800640 <TxFrame>
ffffffc050406b6c:	fc843503          	ld	a0,-56(s0)
ffffffc050406b70:	9a5ff0ef          	jal	ra,ffffffc050406514 <EmacPsSend>
ffffffc050406b74:	fc843503          	ld	a0,-56(s0)
ffffffc050406b78:	af1ff0ef          	jal	ra,ffffffc050406668 <EmacPsWaitSend>
ffffffc050406b7c:	fdc40793          	addi	a5,s0,-36
ffffffc050406b80:	863e                	mv	a2,a5
ffffffc050406b82:	4585                	li	a1,1
ffffffc050406b84:	fc843503          	ld	a0,-56(s0)
ffffffc050406b88:	d71ff0ef          	jal	ra,ffffffc0504068f8 <EmacPsWaitRecv>
ffffffc050406b8c:	003f9597          	auipc	a1,0x3f9
ffffffc050406b90:	47458593          	addi	a1,a1,1140 # ffffffc050800000 <RxFrame>
ffffffc050406b94:	003fa517          	auipc	a0,0x3fa
ffffffc050406b98:	aac50513          	addi	a0,a0,-1364 # ffffffc050800640 <TxFrame>
ffffffc050406b9c:	c25fd0ef          	jal	ra,ffffffc0504047c0 <EmacPsUtilFrameVerify>
ffffffc050406ba0:	87aa                	mv	a5,a0
ffffffc050406ba2:	10078363          	beqz	a5,ffffffc050406ca8 <EmacPsDmaSingleFrameIntrExample+0x236>
ffffffc050406ba6:	fe042623          	sw	zero,-20(s0)
ffffffc050406baa:	a8c1                	j	ffffffc050406c7a <EmacPsDmaSingleFrameIntrExample+0x208>
ffffffc050406bac:	00007517          	auipc	a0,0x7
ffffffc050406bb0:	8cc50513          	addi	a0,a0,-1844 # ffffffc05040d478 <__FUNCTION__.1870+0x5b8>
ffffffc050406bb4:	437050ef          	jal	ra,ffffffc05040c7ea <printk>
ffffffc050406bb8:	fe042423          	sw	zero,-24(s0)
ffffffc050406bbc:	a83d                	j	ffffffc050406bfa <EmacPsDmaSingleFrameIntrExample+0x188>
ffffffc050406bbe:	fec42783          	lw	a5,-20(s0)
ffffffc050406bc2:	0047979b          	slliw	a5,a5,0x4
ffffffc050406bc6:	2781                	sext.w	a5,a5
ffffffc050406bc8:	fe842703          	lw	a4,-24(s0)
ffffffc050406bcc:	9fb9                	addw	a5,a5,a4
ffffffc050406bce:	2781                	sext.w	a5,a5
ffffffc050406bd0:	873e                	mv	a4,a5
ffffffc050406bd2:	003fa797          	auipc	a5,0x3fa
ffffffc050406bd6:	a6e78793          	addi	a5,a5,-1426 # ffffffc050800640 <TxFrame>
ffffffc050406bda:	97ba                	add	a5,a5,a4
ffffffc050406bdc:	0007c783          	lbu	a5,0(a5)
ffffffc050406be0:	2781                	sext.w	a5,a5
ffffffc050406be2:	85be                	mv	a1,a5
ffffffc050406be4:	00007517          	auipc	a0,0x7
ffffffc050406be8:	89c50513          	addi	a0,a0,-1892 # ffffffc05040d480 <__FUNCTION__.1870+0x5c0>
ffffffc050406bec:	3ff050ef          	jal	ra,ffffffc05040c7ea <printk>
ffffffc050406bf0:	fe842783          	lw	a5,-24(s0)
ffffffc050406bf4:	2785                	addiw	a5,a5,1
ffffffc050406bf6:	fef42423          	sw	a5,-24(s0)
ffffffc050406bfa:	fe842783          	lw	a5,-24(s0)
ffffffc050406bfe:	0007871b          	sext.w	a4,a5
ffffffc050406c02:	47bd                	li	a5,15
ffffffc050406c04:	fae7dde3          	bge	a5,a4,ffffffc050406bbe <EmacPsDmaSingleFrameIntrExample+0x14c>
ffffffc050406c08:	00007517          	auipc	a0,0x7
ffffffc050406c0c:	88050513          	addi	a0,a0,-1920 # ffffffc05040d488 <__FUNCTION__.1870+0x5c8>
ffffffc050406c10:	3db050ef          	jal	ra,ffffffc05040c7ea <printk>
ffffffc050406c14:	fe042223          	sw	zero,-28(s0)
ffffffc050406c18:	a83d                	j	ffffffc050406c56 <EmacPsDmaSingleFrameIntrExample+0x1e4>
ffffffc050406c1a:	fec42783          	lw	a5,-20(s0)
ffffffc050406c1e:	0047979b          	slliw	a5,a5,0x4
ffffffc050406c22:	2781                	sext.w	a5,a5
ffffffc050406c24:	fe442703          	lw	a4,-28(s0)
ffffffc050406c28:	9fb9                	addw	a5,a5,a4
ffffffc050406c2a:	2781                	sext.w	a5,a5
ffffffc050406c2c:	873e                	mv	a4,a5
ffffffc050406c2e:	003f9797          	auipc	a5,0x3f9
ffffffc050406c32:	3d278793          	addi	a5,a5,978 # ffffffc050800000 <RxFrame>
ffffffc050406c36:	97ba                	add	a5,a5,a4
ffffffc050406c38:	0007c783          	lbu	a5,0(a5)
ffffffc050406c3c:	2781                	sext.w	a5,a5
ffffffc050406c3e:	85be                	mv	a1,a5
ffffffc050406c40:	00007517          	auipc	a0,0x7
ffffffc050406c44:	84050513          	addi	a0,a0,-1984 # ffffffc05040d480 <__FUNCTION__.1870+0x5c0>
ffffffc050406c48:	3a3050ef          	jal	ra,ffffffc05040c7ea <printk>
ffffffc050406c4c:	fe442783          	lw	a5,-28(s0)
ffffffc050406c50:	2785                	addiw	a5,a5,1
ffffffc050406c52:	fef42223          	sw	a5,-28(s0)
ffffffc050406c56:	fe442783          	lw	a5,-28(s0)
ffffffc050406c5a:	0007871b          	sext.w	a4,a5
ffffffc050406c5e:	47bd                	li	a5,15
ffffffc050406c60:	fae7dde3          	bge	a5,a4,ffffffc050406c1a <EmacPsDmaSingleFrameIntrExample+0x1a8>
ffffffc050406c64:	00007517          	auipc	a0,0x7
ffffffc050406c68:	82c50513          	addi	a0,a0,-2004 # ffffffc05040d490 <__FUNCTION__.1870+0x5d0>
ffffffc050406c6c:	37f050ef          	jal	ra,ffffffc05040c7ea <printk>
ffffffc050406c70:	fec42783          	lw	a5,-20(s0)
ffffffc050406c74:	2785                	addiw	a5,a5,1
ffffffc050406c76:	fef42623          	sw	a5,-20(s0)
ffffffc050406c7a:	007f9797          	auipc	a5,0x7f9
ffffffc050406c7e:	4ce78793          	addi	a5,a5,1230 # ffffffc050c00148 <TxFrameLength>
ffffffc050406c82:	439c                	lw	a5,0(a5)
ffffffc050406c84:	0047d79b          	srliw	a5,a5,0x4
ffffffc050406c88:	2781                	sext.w	a5,a5
ffffffc050406c8a:	37fd                	addiw	a5,a5,-1
ffffffc050406c8c:	0007871b          	sext.w	a4,a5
ffffffc050406c90:	fec42783          	lw	a5,-20(s0)
ffffffc050406c94:	f0e7ece3          	bltu	a5,a4,ffffffc050406bac <EmacPsDmaSingleFrameIntrExample+0x13a>
ffffffc050406c98:	00007517          	auipc	a0,0x7
ffffffc050406c9c:	80050513          	addi	a0,a0,-2048 # ffffffc05040d498 <__FUNCTION__.1870+0x5d8>
ffffffc050406ca0:	e47fe0ef          	jal	ra,ffffffc050405ae6 <EmacPsUtilErrorTrap>
ffffffc050406ca4:	4785                	li	a5,1
ffffffc050406ca6:	a821                	j	ffffffc050406cbe <EmacPsDmaSingleFrameIntrExample+0x24c>
ffffffc050406ca8:	00007517          	auipc	a0,0x7
ffffffc050406cac:	80050513          	addi	a0,a0,-2048 # ffffffc05040d4a8 <__FUNCTION__.1870+0x5e8>
ffffffc050406cb0:	33b050ef          	jal	ra,ffffffc05040c7ea <printk>
ffffffc050406cb4:	fc843503          	ld	a0,-56(s0)
ffffffc050406cb8:	007000ef          	jal	ra,ffffffc0504074be <XEmacPs_Stop>
ffffffc050406cbc:	4781                	li	a5,0
ffffffc050406cbe:	853e                	mv	a0,a5
ffffffc050406cc0:	70e2                	ld	ra,56(sp)
ffffffc050406cc2:	7442                	ld	s0,48(sp)
ffffffc050406cc4:	6121                	addi	sp,sp,64
ffffffc050406cc6:	8082                	ret

ffffffc050406cc8 <EmacPsResetDevice>:
ffffffc050406cc8:	715d                	addi	sp,sp,-80
ffffffc050406cca:	e486                	sd	ra,72(sp)
ffffffc050406ccc:	e0a2                	sd	s0,64(sp)
ffffffc050406cce:	fc26                	sd	s1,56(sp)
ffffffc050406cd0:	0880                	addi	s0,sp,80
ffffffc050406cd2:	faa43c23          	sd	a0,-72(s0)
ffffffc050406cd6:	fc043c23          	sd	zero,-40(s0)
ffffffc050406cda:	fb843503          	ld	a0,-72(s0)
ffffffc050406cde:	7e0000ef          	jal	ra,ffffffc0504074be <XEmacPs_Stop>
ffffffc050406ce2:	fc840793          	addi	a5,s0,-56
ffffffc050406ce6:	4605                	li	a2,1
ffffffc050406ce8:	85be                	mv	a1,a5
ffffffc050406cea:	fb843503          	ld	a0,-72(s0)
ffffffc050406cee:	ecafc0ef          	jal	ra,ffffffc0504033b8 <XEmacPs_GetMacAddress>
ffffffc050406cf2:	fb843503          	ld	a0,-72(s0)
ffffffc050406cf6:	bdcfd0ef          	jal	ra,ffffffc0504040d2 <XEmacPs_GetOptions>
ffffffc050406cfa:	87aa                	mv	a5,a0
ffffffc050406cfc:	fcf42a23          	sw	a5,-44(s0)
ffffffc050406d00:	fb843503          	ld	a0,-72(s0)
ffffffc050406d04:	027000ef          	jal	ra,ffffffc05040752a <XEmacPs_Reset>
ffffffc050406d08:	fc840793          	addi	a5,s0,-56
ffffffc050406d0c:	4605                	li	a2,1
ffffffc050406d0e:	85be                	mv	a1,a5
ffffffc050406d10:	fb843503          	ld	a0,-72(s0)
ffffffc050406d14:	d22fc0ef          	jal	ra,ffffffc050403236 <XEmacPs_SetMacAddress>
ffffffc050406d18:	fd442783          	lw	a5,-44(s0)
ffffffc050406d1c:	85be                	mv	a1,a5
ffffffc050406d1e:	fb843503          	ld	a0,-72(s0)
ffffffc050406d22:	d83fc0ef          	jal	ra,ffffffc050403aa4 <XEmacPs_SetOptions>
ffffffc050406d26:	872a                	mv	a4,a0
ffffffc050406d28:	fd843783          	ld	a5,-40(s0)
ffffffc050406d2c:	8fd9                	or	a5,a5,a4
ffffffc050406d2e:	fcf43c23          	sd	a5,-40(s0)
ffffffc050406d32:	fd442783          	lw	a5,-44(s0)
ffffffc050406d36:	fff7c793          	not	a5,a5
ffffffc050406d3a:	2781                	sext.w	a5,a5
ffffffc050406d3c:	85be                	mv	a1,a5
ffffffc050406d3e:	fb843503          	ld	a0,-72(s0)
ffffffc050406d42:	88efd0ef          	jal	ra,ffffffc050403dd0 <XEmacPs_ClearOptions>
ffffffc050406d46:	872a                	mv	a4,a0
ffffffc050406d48:	fd843783          	ld	a5,-40(s0)
ffffffc050406d4c:	8fd9                	or	a5,a5,a4
ffffffc050406d4e:	fcf43c23          	sd	a5,-40(s0)
ffffffc050406d52:	fd843783          	ld	a5,-40(s0)
ffffffc050406d56:	cb89                	beqz	a5,ffffffc050406d68 <EmacPsResetDevice+0xa0>
ffffffc050406d58:	00006517          	auipc	a0,0x6
ffffffc050406d5c:	76850513          	addi	a0,a0,1896 # ffffffc05040d4c0 <__FUNCTION__.1870+0x600>
ffffffc050406d60:	d87fe0ef          	jal	ra,ffffffc050405ae6 <EmacPsUtilErrorTrap>
ffffffc050406d64:	4785                	li	a5,1
ffffffc050406d66:	a2c9                	j	ffffffc050406f28 <EmacPsResetDevice+0x260>
ffffffc050406d68:	fb843683          	ld	a3,-72(s0)
ffffffc050406d6c:	00000617          	auipc	a2,0x0
ffffffc050406d70:	1c860613          	addi	a2,a2,456 # ffffffc050406f34 <XEmacPsSendHandler>
ffffffc050406d74:	4585                	li	a1,1
ffffffc050406d76:	fb843503          	ld	a0,-72(s0)
ffffffc050406d7a:	ff7fe0ef          	jal	ra,ffffffc050405d70 <XEmacPs_SetHandler>
ffffffc050406d7e:	fca43c23          	sd	a0,-40(s0)
ffffffc050406d82:	fb843683          	ld	a3,-72(s0)
ffffffc050406d86:	00000617          	auipc	a2,0x0
ffffffc050406d8a:	1e460613          	addi	a2,a2,484 # ffffffc050406f6a <XEmacPsRecvHandler>
ffffffc050406d8e:	4589                	li	a1,2
ffffffc050406d90:	fb843503          	ld	a0,-72(s0)
ffffffc050406d94:	fddfe0ef          	jal	ra,ffffffc050405d70 <XEmacPs_SetHandler>
ffffffc050406d98:	872a                	mv	a4,a0
ffffffc050406d9a:	fd843783          	ld	a5,-40(s0)
ffffffc050406d9e:	8fd9                	or	a5,a5,a4
ffffffc050406da0:	fcf43c23          	sd	a5,-40(s0)
ffffffc050406da4:	fb843683          	ld	a3,-72(s0)
ffffffc050406da8:	00000617          	auipc	a2,0x0
ffffffc050406dac:	20e60613          	addi	a2,a2,526 # ffffffc050406fb6 <XEmacPsErrorHandler>
ffffffc050406db0:	458d                	li	a1,3
ffffffc050406db2:	fb843503          	ld	a0,-72(s0)
ffffffc050406db6:	fbbfe0ef          	jal	ra,ffffffc050405d70 <XEmacPs_SetHandler>
ffffffc050406dba:	872a                	mv	a4,a0
ffffffc050406dbc:	fd843783          	ld	a5,-40(s0)
ffffffc050406dc0:	8fd9                	or	a5,a5,a4
ffffffc050406dc2:	fcf43c23          	sd	a5,-40(s0)
ffffffc050406dc6:	fd843783          	ld	a5,-40(s0)
ffffffc050406dca:	cb89                	beqz	a5,ffffffc050406ddc <EmacPsResetDevice+0x114>
ffffffc050406dcc:	00006517          	auipc	a0,0x6
ffffffc050406dd0:	53450513          	addi	a0,a0,1332 # ffffffc05040d300 <__FUNCTION__.1870+0x440>
ffffffc050406dd4:	d13fe0ef          	jal	ra,ffffffc050405ae6 <EmacPsUtilErrorTrap>
ffffffc050406dd8:	4785                	li	a5,1
ffffffc050406dda:	a2b9                	j	ffffffc050406f28 <EmacPsResetDevice+0x260>
ffffffc050406ddc:	fc040793          	addi	a5,s0,-64
ffffffc050406de0:	4621                	li	a2,8
ffffffc050406de2:	4581                	li	a1,0
ffffffc050406de4:	853e                	mv	a0,a5
ffffffc050406de6:	04a050ef          	jal	ra,ffffffc05040be30 <memset>
ffffffc050406dea:	fb843783          	ld	a5,-72(s0)
ffffffc050406dee:	09878493          	addi	s1,a5,152
ffffffc050406df2:	003fa797          	auipc	a5,0x3fa
ffffffc050406df6:	e4e78793          	addi	a5,a5,-434 # ffffffc050800c40 <RxBdSpacePtr>
ffffffc050406dfa:	639c                	ld	a5,0(a5)
ffffffc050406dfc:	853e                	mv	a0,a5
ffffffc050406dfe:	a3aff0ef          	jal	ra,ffffffc050406038 <kva2pa>
ffffffc050406e02:	85aa                	mv	a1,a0
ffffffc050406e04:	003fa797          	auipc	a5,0x3fa
ffffffc050406e08:	e3c78793          	addi	a5,a5,-452 # ffffffc050800c40 <RxBdSpacePtr>
ffffffc050406e0c:	639c                	ld	a5,0(a5)
ffffffc050406e0e:	863e                	mv	a2,a5
ffffffc050406e10:	fb843783          	ld	a5,-72(s0)
ffffffc050406e14:	02878793          	addi	a5,a5,40
ffffffc050406e18:	02000713          	li	a4,32
ffffffc050406e1c:	04000693          	li	a3,64
ffffffc050406e20:	8526                	mv	a0,s1
ffffffc050406e22:	dccfb0ef          	jal	ra,ffffffc0504023ee <XEmacPs_BdRingCreate>
ffffffc050406e26:	fca43c23          	sd	a0,-40(s0)
ffffffc050406e2a:	fd843783          	ld	a5,-40(s0)
ffffffc050406e2e:	cb89                	beqz	a5,ffffffc050406e40 <EmacPsResetDevice+0x178>
ffffffc050406e30:	00006517          	auipc	a0,0x6
ffffffc050406e34:	6b850513          	addi	a0,a0,1720 # ffffffc05040d4e8 <__FUNCTION__.1870+0x628>
ffffffc050406e38:	caffe0ef          	jal	ra,ffffffc050405ae6 <EmacPsUtilErrorTrap>
ffffffc050406e3c:	4785                	li	a5,1
ffffffc050406e3e:	a0ed                	j	ffffffc050406f28 <EmacPsResetDevice+0x260>
ffffffc050406e40:	fb843783          	ld	a5,-72(s0)
ffffffc050406e44:	09878793          	addi	a5,a5,152
ffffffc050406e48:	fc040713          	addi	a4,s0,-64
ffffffc050406e4c:	4609                	li	a2,2
ffffffc050406e4e:	85ba                	mv	a1,a4
ffffffc050406e50:	853e                	mv	a0,a5
ffffffc050406e52:	fb0fb0ef          	jal	ra,ffffffc050402602 <XEmacPs_BdRingClone>
ffffffc050406e56:	fca43c23          	sd	a0,-40(s0)
ffffffc050406e5a:	fd843783          	ld	a5,-40(s0)
ffffffc050406e5e:	cb89                	beqz	a5,ffffffc050406e70 <EmacPsResetDevice+0x1a8>
ffffffc050406e60:	00006517          	auipc	a0,0x6
ffffffc050406e64:	6b850513          	addi	a0,a0,1720 # ffffffc05040d518 <__FUNCTION__.1870+0x658>
ffffffc050406e68:	c7ffe0ef          	jal	ra,ffffffc050405ae6 <EmacPsUtilErrorTrap>
ffffffc050406e6c:	4785                	li	a5,1
ffffffc050406e6e:	a86d                	j	ffffffc050406f28 <EmacPsResetDevice+0x260>
ffffffc050406e70:	fc040793          	addi	a5,s0,-64
ffffffc050406e74:	4621                	li	a2,8
ffffffc050406e76:	4581                	li	a1,0
ffffffc050406e78:	853e                	mv	a0,a5
ffffffc050406e7a:	7b7040ef          	jal	ra,ffffffc05040be30 <memset>
ffffffc050406e7e:	fc040793          	addi	a5,s0,-64
ffffffc050406e82:	0791                	addi	a5,a5,4
ffffffc050406e84:	4394                	lw	a3,0(a5)
ffffffc050406e86:	fc040793          	addi	a5,s0,-64
ffffffc050406e8a:	0791                	addi	a5,a5,4
ffffffc050406e8c:	873e                	mv	a4,a5
ffffffc050406e8e:	800007b7          	lui	a5,0x80000
ffffffc050406e92:	8fd5                	or	a5,a5,a3
ffffffc050406e94:	2781                	sext.w	a5,a5
ffffffc050406e96:	c31c                	sw	a5,0(a4)
ffffffc050406e98:	fb843783          	ld	a5,-72(s0)
ffffffc050406e9c:	02878493          	addi	s1,a5,40 # ffffffff80000028 <__BSS_END__+0x3f2f3fda28>
ffffffc050406ea0:	003fa797          	auipc	a5,0x3fa
ffffffc050406ea4:	db878793          	addi	a5,a5,-584 # ffffffc050800c58 <TxBdSpacePtr>
ffffffc050406ea8:	639c                	ld	a5,0(a5)
ffffffc050406eaa:	853e                	mv	a0,a5
ffffffc050406eac:	98cff0ef          	jal	ra,ffffffc050406038 <kva2pa>
ffffffc050406eb0:	85aa                	mv	a1,a0
ffffffc050406eb2:	003fa797          	auipc	a5,0x3fa
ffffffc050406eb6:	da678793          	addi	a5,a5,-602 # ffffffc050800c58 <TxBdSpacePtr>
ffffffc050406eba:	639c                	ld	a5,0(a5)
ffffffc050406ebc:	863e                	mv	a2,a5
ffffffc050406ebe:	fb843783          	ld	a5,-72(s0)
ffffffc050406ec2:	09878793          	addi	a5,a5,152
ffffffc050406ec6:	02000713          	li	a4,32
ffffffc050406eca:	04000693          	li	a3,64
ffffffc050406ece:	8526                	mv	a0,s1
ffffffc050406ed0:	d1efb0ef          	jal	ra,ffffffc0504023ee <XEmacPs_BdRingCreate>
ffffffc050406ed4:	fca43c23          	sd	a0,-40(s0)
ffffffc050406ed8:	fd843783          	ld	a5,-40(s0)
ffffffc050406edc:	cb89                	beqz	a5,ffffffc050406eee <EmacPsResetDevice+0x226>
ffffffc050406ede:	00006517          	auipc	a0,0x6
ffffffc050406ee2:	66a50513          	addi	a0,a0,1642 # ffffffc05040d548 <__FUNCTION__.1870+0x688>
ffffffc050406ee6:	c01fe0ef          	jal	ra,ffffffc050405ae6 <EmacPsUtilErrorTrap>
ffffffc050406eea:	4785                	li	a5,1
ffffffc050406eec:	a835                	j	ffffffc050406f28 <EmacPsResetDevice+0x260>
ffffffc050406eee:	fb843783          	ld	a5,-72(s0)
ffffffc050406ef2:	02878793          	addi	a5,a5,40
ffffffc050406ef6:	fc040713          	addi	a4,s0,-64
ffffffc050406efa:	4605                	li	a2,1
ffffffc050406efc:	85ba                	mv	a1,a4
ffffffc050406efe:	853e                	mv	a0,a5
ffffffc050406f00:	f02fb0ef          	jal	ra,ffffffc050402602 <XEmacPs_BdRingClone>
ffffffc050406f04:	fca43c23          	sd	a0,-40(s0)
ffffffc050406f08:	fd843783          	ld	a5,-40(s0)
ffffffc050406f0c:	cb89                	beqz	a5,ffffffc050406f1e <EmacPsResetDevice+0x256>
ffffffc050406f0e:	00006517          	auipc	a0,0x6
ffffffc050406f12:	66a50513          	addi	a0,a0,1642 # ffffffc05040d578 <__FUNCTION__.1870+0x6b8>
ffffffc050406f16:	bd1fe0ef          	jal	ra,ffffffc050405ae6 <EmacPsUtilErrorTrap>
ffffffc050406f1a:	4785                	li	a5,1
ffffffc050406f1c:	a031                	j	ffffffc050406f28 <EmacPsResetDevice+0x260>
ffffffc050406f1e:	fb843503          	ld	a0,-72(s0)
ffffffc050406f22:	484000ef          	jal	ra,ffffffc0504073a6 <XEmacPs_Start>
ffffffc050406f26:	4781                	li	a5,0
ffffffc050406f28:	853e                	mv	a0,a5
ffffffc050406f2a:	60a6                	ld	ra,72(sp)
ffffffc050406f2c:	6406                	ld	s0,64(sp)
ffffffc050406f2e:	74e2                	ld	s1,56(sp)
ffffffc050406f30:	6161                	addi	sp,sp,80
ffffffc050406f32:	8082                	ret

ffffffc050406f34 <XEmacPsSendHandler>:
ffffffc050406f34:	7179                	addi	sp,sp,-48
ffffffc050406f36:	f422                	sd	s0,40(sp)
ffffffc050406f38:	1800                	addi	s0,sp,48
ffffffc050406f3a:	fca43c23          	sd	a0,-40(s0)
ffffffc050406f3e:	fd843783          	ld	a5,-40(s0)
ffffffc050406f42:	fef43423          	sd	a5,-24(s0)
ffffffc050406f46:	007f9797          	auipc	a5,0x7f9
ffffffc050406f4a:	1ba78793          	addi	a5,a5,442 # ffffffc050c00100 <FramesTx>
ffffffc050406f4e:	439c                	lw	a5,0(a5)
ffffffc050406f50:	2781                	sext.w	a5,a5
ffffffc050406f52:	2785                	addiw	a5,a5,1
ffffffc050406f54:	0007871b          	sext.w	a4,a5
ffffffc050406f58:	007f9797          	auipc	a5,0x7f9
ffffffc050406f5c:	1a878793          	addi	a5,a5,424 # ffffffc050c00100 <FramesTx>
ffffffc050406f60:	c398                	sw	a4,0(a5)
ffffffc050406f62:	0001                	nop
ffffffc050406f64:	7422                	ld	s0,40(sp)
ffffffc050406f66:	6145                	addi	sp,sp,48
ffffffc050406f68:	8082                	ret

ffffffc050406f6a <XEmacPsRecvHandler>:
ffffffc050406f6a:	7179                	addi	sp,sp,-48
ffffffc050406f6c:	f406                	sd	ra,40(sp)
ffffffc050406f6e:	f022                	sd	s0,32(sp)
ffffffc050406f70:	1800                	addi	s0,sp,48
ffffffc050406f72:	fca43c23          	sd	a0,-40(s0)
ffffffc050406f76:	fd843783          	ld	a5,-40(s0)
ffffffc050406f7a:	fef43423          	sd	a5,-24(s0)
ffffffc050406f7e:	007f9797          	auipc	a5,0x7f9
ffffffc050406f82:	18e78793          	addi	a5,a5,398 # ffffffc050c0010c <FramesRx>
ffffffc050406f86:	439c                	lw	a5,0(a5)
ffffffc050406f88:	2781                	sext.w	a5,a5
ffffffc050406f8a:	2785                	addiw	a5,a5,1
ffffffc050406f8c:	0007871b          	sext.w	a4,a5
ffffffc050406f90:	007f9797          	auipc	a5,0x7f9
ffffffc050406f94:	17c78793          	addi	a5,a5,380 # ffffffc050c0010c <FramesRx>
ffffffc050406f98:	c398                	sw	a4,0(a5)
ffffffc050406f9a:	003f9797          	auipc	a5,0x3f9
ffffffc050406f9e:	06678793          	addi	a5,a5,102 # ffffffc050800000 <RxFrame>
ffffffc050406fa2:	60000593          	li	a1,1536
ffffffc050406fa6:	853e                	mv	a0,a5
ffffffc050406fa8:	91aff0ef          	jal	ra,ffffffc0504060c2 <Xil_DCacheInvalidateRange>
ffffffc050406fac:	0001                	nop
ffffffc050406fae:	70a2                	ld	ra,40(sp)
ffffffc050406fb0:	7402                	ld	s0,32(sp)
ffffffc050406fb2:	6145                	addi	sp,sp,48
ffffffc050406fb4:	8082                	ret

ffffffc050406fb6 <XEmacPsErrorHandler>:
ffffffc050406fb6:	7179                	addi	sp,sp,-48
ffffffc050406fb8:	f406                	sd	ra,40(sp)
ffffffc050406fba:	f022                	sd	s0,32(sp)
ffffffc050406fbc:	1800                	addi	s0,sp,48
ffffffc050406fbe:	fca43c23          	sd	a0,-40(s0)
ffffffc050406fc2:	87ae                	mv	a5,a1
ffffffc050406fc4:	8732                	mv	a4,a2
ffffffc050406fc6:	fcf40ba3          	sb	a5,-41(s0)
ffffffc050406fca:	87ba                	mv	a5,a4
ffffffc050406fcc:	fcf42823          	sw	a5,-48(s0)
ffffffc050406fd0:	fd843783          	ld	a5,-40(s0)
ffffffc050406fd4:	fef43423          	sd	a5,-24(s0)
ffffffc050406fd8:	007f9797          	auipc	a5,0x7f9
ffffffc050406fdc:	12c78793          	addi	a5,a5,300 # ffffffc050c00104 <DeviceErrors>
ffffffc050406fe0:	439c                	lw	a5,0(a5)
ffffffc050406fe2:	2781                	sext.w	a5,a5
ffffffc050406fe4:	2785                	addiw	a5,a5,1
ffffffc050406fe6:	0007871b          	sext.w	a4,a5
ffffffc050406fea:	007f9797          	auipc	a5,0x7f9
ffffffc050406fee:	11a78793          	addi	a5,a5,282 # ffffffc050c00104 <DeviceErrors>
ffffffc050406ff2:	c398                	sw	a4,0(a5)
ffffffc050406ff4:	fd744783          	lbu	a5,-41(s0)
ffffffc050406ff8:	0007871b          	sext.w	a4,a5
ffffffc050406ffc:	86ba                	mv	a3,a4
ffffffc050406ffe:	4785                	li	a5,1
ffffffc050407000:	04f68763          	beq	a3,a5,ffffffc05040704e <XEmacPsErrorHandler+0x98>
ffffffc050407004:	4789                	li	a5,2
ffffffc050407006:	0cf71c63          	bne	a4,a5,ffffffc0504070de <XEmacPsErrorHandler+0x128>
ffffffc05040700a:	fd042783          	lw	a5,-48(s0)
ffffffc05040700e:	8ba1                	andi	a5,a5,8
ffffffc050407010:	2781                	sext.w	a5,a5
ffffffc050407012:	c799                	beqz	a5,ffffffc050407020 <XEmacPsErrorHandler+0x6a>
ffffffc050407014:	00006517          	auipc	a0,0x6
ffffffc050407018:	59450513          	addi	a0,a0,1428 # ffffffc05040d5a8 <__FUNCTION__.1870+0x6e8>
ffffffc05040701c:	acbfe0ef          	jal	ra,ffffffc050405ae6 <EmacPsUtilErrorTrap>
ffffffc050407020:	fd042783          	lw	a5,-48(s0)
ffffffc050407024:	8b91                	andi	a5,a5,4
ffffffc050407026:	2781                	sext.w	a5,a5
ffffffc050407028:	c799                	beqz	a5,ffffffc050407036 <XEmacPsErrorHandler+0x80>
ffffffc05040702a:	00006517          	auipc	a0,0x6
ffffffc05040702e:	59650513          	addi	a0,a0,1430 # ffffffc05040d5c0 <__FUNCTION__.1870+0x700>
ffffffc050407032:	ab5fe0ef          	jal	ra,ffffffc050405ae6 <EmacPsUtilErrorTrap>
ffffffc050407036:	fd042783          	lw	a5,-48(s0)
ffffffc05040703a:	8b85                	andi	a5,a5,1
ffffffc05040703c:	2781                	sext.w	a5,a5
ffffffc05040703e:	cfc9                	beqz	a5,ffffffc0504070d8 <XEmacPsErrorHandler+0x122>
ffffffc050407040:	00006517          	auipc	a0,0x6
ffffffc050407044:	59850513          	addi	a0,a0,1432 # ffffffc05040d5d8 <__FUNCTION__.1870+0x718>
ffffffc050407048:	a9ffe0ef          	jal	ra,ffffffc050405ae6 <EmacPsUtilErrorTrap>
ffffffc05040704c:	a071                	j	ffffffc0504070d8 <XEmacPsErrorHandler+0x122>
ffffffc05040704e:	fd042783          	lw	a5,-48(s0)
ffffffc050407052:	1007f793          	andi	a5,a5,256
ffffffc050407056:	2781                	sext.w	a5,a5
ffffffc050407058:	c799                	beqz	a5,ffffffc050407066 <XEmacPsErrorHandler+0xb0>
ffffffc05040705a:	00006517          	auipc	a0,0x6
ffffffc05040705e:	59e50513          	addi	a0,a0,1438 # ffffffc05040d5f8 <__FUNCTION__.1870+0x738>
ffffffc050407062:	a85fe0ef          	jal	ra,ffffffc050405ae6 <EmacPsUtilErrorTrap>
ffffffc050407066:	fd042783          	lw	a5,-48(s0)
ffffffc05040706a:	0407f793          	andi	a5,a5,64
ffffffc05040706e:	2781                	sext.w	a5,a5
ffffffc050407070:	c799                	beqz	a5,ffffffc05040707e <XEmacPsErrorHandler+0xc8>
ffffffc050407072:	00006517          	auipc	a0,0x6
ffffffc050407076:	59e50513          	addi	a0,a0,1438 # ffffffc05040d610 <__FUNCTION__.1870+0x750>
ffffffc05040707a:	a6dfe0ef          	jal	ra,ffffffc050405ae6 <EmacPsUtilErrorTrap>
ffffffc05040707e:	fd042783          	lw	a5,-48(s0)
ffffffc050407082:	8bc1                	andi	a5,a5,16
ffffffc050407084:	2781                	sext.w	a5,a5
ffffffc050407086:	c799                	beqz	a5,ffffffc050407094 <XEmacPsErrorHandler+0xde>
ffffffc050407088:	00006517          	auipc	a0,0x6
ffffffc05040708c:	5a050513          	addi	a0,a0,1440 # ffffffc05040d628 <__FUNCTION__.1870+0x768>
ffffffc050407090:	a57fe0ef          	jal	ra,ffffffc050405ae6 <EmacPsUtilErrorTrap>
ffffffc050407094:	fd042783          	lw	a5,-48(s0)
ffffffc050407098:	8b91                	andi	a5,a5,4
ffffffc05040709a:	2781                	sext.w	a5,a5
ffffffc05040709c:	c799                	beqz	a5,ffffffc0504070aa <XEmacPsErrorHandler+0xf4>
ffffffc05040709e:	00006517          	auipc	a0,0x6
ffffffc0504070a2:	5aa50513          	addi	a0,a0,1450 # ffffffc05040d648 <__FUNCTION__.1870+0x788>
ffffffc0504070a6:	a41fe0ef          	jal	ra,ffffffc050405ae6 <EmacPsUtilErrorTrap>
ffffffc0504070aa:	fd042783          	lw	a5,-48(s0)
ffffffc0504070ae:	8b89                	andi	a5,a5,2
ffffffc0504070b0:	2781                	sext.w	a5,a5
ffffffc0504070b2:	c799                	beqz	a5,ffffffc0504070c0 <XEmacPsErrorHandler+0x10a>
ffffffc0504070b4:	00006517          	auipc	a0,0x6
ffffffc0504070b8:	5b450513          	addi	a0,a0,1460 # ffffffc05040d668 <__FUNCTION__.1870+0x7a8>
ffffffc0504070bc:	a2bfe0ef          	jal	ra,ffffffc050405ae6 <EmacPsUtilErrorTrap>
ffffffc0504070c0:	fd042783          	lw	a5,-48(s0)
ffffffc0504070c4:	8b85                	andi	a5,a5,1
ffffffc0504070c6:	2781                	sext.w	a5,a5
ffffffc0504070c8:	cb91                	beqz	a5,ffffffc0504070dc <XEmacPsErrorHandler+0x126>
ffffffc0504070ca:	00006517          	auipc	a0,0x6
ffffffc0504070ce:	5b650513          	addi	a0,a0,1462 # ffffffc05040d680 <__FUNCTION__.1870+0x7c0>
ffffffc0504070d2:	a15fe0ef          	jal	ra,ffffffc050405ae6 <EmacPsUtilErrorTrap>
ffffffc0504070d6:	a019                	j	ffffffc0504070dc <XEmacPsErrorHandler+0x126>
ffffffc0504070d8:	0001                	nop
ffffffc0504070da:	a011                	j	ffffffc0504070de <XEmacPsErrorHandler+0x128>
ffffffc0504070dc:	0001                	nop
ffffffc0504070de:	003fa797          	auipc	a5,0x3fa
ffffffc0504070e2:	b7278793          	addi	a5,a5,-1166 # ffffffc050800c50 <GemVersion>
ffffffc0504070e6:	439c                	lw	a5,0(a5)
ffffffc0504070e8:	873e                	mv	a4,a5
ffffffc0504070ea:	4789                	li	a5,2
ffffffc0504070ec:	00f71663          	bne	a4,a5,ffffffc0504070f8 <XEmacPsErrorHandler+0x142>
ffffffc0504070f0:	fe843503          	ld	a0,-24(s0)
ffffffc0504070f4:	bd5ff0ef          	jal	ra,ffffffc050406cc8 <EmacPsResetDevice>
ffffffc0504070f8:	0001                	nop
ffffffc0504070fa:	70a2                	ld	ra,40(sp)
ffffffc0504070fc:	7402                	ld	s0,32(sp)
ffffffc0504070fe:	6145                	addi	sp,sp,48
ffffffc050407100:	8082                	ret

ffffffc050407102 <XEmacPsClkSetup>:
ffffffc050407102:	7139                	addi	sp,sp,-64
ffffffc050407104:	fc06                	sd	ra,56(sp)
ffffffc050407106:	f822                	sd	s0,48(sp)
ffffffc050407108:	0080                	addi	s0,sp,64
ffffffc05040710a:	fca43423          	sd	a0,-56(s0)
ffffffc05040710e:	87ae                	mv	a5,a1
ffffffc050407110:	fcf42223          	sw	a5,-60(s0)
ffffffc050407114:	003fa797          	auipc	a5,0x3fa
ffffffc050407118:	b3c78793          	addi	a5,a5,-1220 # ffffffc050800c50 <GemVersion>
ffffffc05040711c:	439c                	lw	a5,0(a5)
ffffffc05040711e:	873e                	mv	a4,a5
ffffffc050407120:	4789                	li	a5,2
ffffffc050407122:	12f71a63          	bne	a4,a5,ffffffc050407256 <XEmacPsClkSetup+0x154>
ffffffc050407126:	003fa797          	auipc	a5,0x3fa
ffffffc05040712a:	b2278793          	addi	a5,a5,-1246 # ffffffc050800c48 <XPS_SYS_CTRL_BASEADDR>
ffffffc05040712e:	639c                	ld	a5,0(a5)
ffffffc050407130:	07a1                	addi	a5,a5,8
ffffffc050407132:	873e                	mv	a4,a5
ffffffc050407134:	67b9                	lui	a5,0xe
ffffffc050407136:	f0d78793          	addi	a5,a5,-243 # df0d <_start-0xffffffc0503f20f3>
ffffffc05040713a:	c31c                	sw	a5,0(a4)
ffffffc05040713c:	003fa797          	auipc	a5,0x3fa
ffffffc050407140:	b0c78793          	addi	a5,a5,-1268 # ffffffc050800c48 <XPS_SYS_CTRL_BASEADDR>
ffffffc050407144:	639c                	ld	a5,0(a5)
ffffffc050407146:	14078793          	addi	a5,a5,320
ffffffc05040714a:	439c                	lw	a5,0(a5)
ffffffc05040714c:	fcf42e23          	sw	a5,-36(s0)
ffffffc050407150:	fdc42703          	lw	a4,-36(s0)
ffffffc050407154:	fc0fc7b7          	lui	a5,0xfc0fc
ffffffc050407158:	0ff78793          	addi	a5,a5,255 # fffffffffc0fc0ff <__BSS_END__+0x3fab4f9aff>
ffffffc05040715c:	8ff9                	and	a5,a5,a4
ffffffc05040715e:	fcf42e23          	sw	a5,-36(s0)
ffffffc050407162:	fe042623          	sw	zero,-20(s0)
ffffffc050407166:	fe042423          	sw	zero,-24(s0)
ffffffc05040716a:	fc442783          	lw	a5,-60(s0)
ffffffc05040716e:	0007871b          	sext.w	a4,a5
ffffffc050407172:	3e800793          	li	a5,1000
ffffffc050407176:	04f70963          	beq	a4,a5,ffffffc0504071c8 <XEmacPsClkSetup+0xc6>
ffffffc05040717a:	fc442783          	lw	a5,-60(s0)
ffffffc05040717e:	0007871b          	sext.w	a4,a5
ffffffc050407182:	3e800793          	li	a5,1000
ffffffc050407186:	04e7e863          	bltu	a5,a4,ffffffc0504071d6 <XEmacPsClkSetup+0xd4>
ffffffc05040718a:	fc442783          	lw	a5,-60(s0)
ffffffc05040718e:	0007871b          	sext.w	a4,a5
ffffffc050407192:	47a9                	li	a5,10
ffffffc050407194:	00f70b63          	beq	a4,a5,ffffffc0504071aa <XEmacPsClkSetup+0xa8>
ffffffc050407198:	fc442783          	lw	a5,-60(s0)
ffffffc05040719c:	0007871b          	sext.w	a4,a5
ffffffc0504071a0:	06400793          	li	a5,100
ffffffc0504071a4:	00f70b63          	beq	a4,a5,ffffffc0504071ba <XEmacPsClkSetup+0xb8>
ffffffc0504071a8:	a03d                	j	ffffffc0504071d6 <XEmacPsClkSetup+0xd4>
ffffffc0504071aa:	03200793          	li	a5,50
ffffffc0504071ae:	fef42423          	sw	a5,-24(s0)
ffffffc0504071b2:	47a1                	li	a5,8
ffffffc0504071b4:	fef42623          	sw	a5,-20(s0)
ffffffc0504071b8:	a02d                	j	ffffffc0504071e2 <XEmacPsClkSetup+0xe0>
ffffffc0504071ba:	4795                	li	a5,5
ffffffc0504071bc:	fef42423          	sw	a5,-24(s0)
ffffffc0504071c0:	47a1                	li	a5,8
ffffffc0504071c2:	fef42623          	sw	a5,-20(s0)
ffffffc0504071c6:	a831                	j	ffffffc0504071e2 <XEmacPsClkSetup+0xe0>
ffffffc0504071c8:	4785                	li	a5,1
ffffffc0504071ca:	fef42423          	sw	a5,-24(s0)
ffffffc0504071ce:	47a1                	li	a5,8
ffffffc0504071d0:	fef42623          	sw	a5,-20(s0)
ffffffc0504071d4:	a039                	j	ffffffc0504071e2 <XEmacPsClkSetup+0xe0>
ffffffc0504071d6:	00006517          	auipc	a0,0x6
ffffffc0504071da:	4ca50513          	addi	a0,a0,1226 # ffffffc05040d6a0 <__FUNCTION__.1870+0x7e0>
ffffffc0504071de:	909fe0ef          	jal	ra,ffffffc050405ae6 <EmacPsUtilErrorTrap>
ffffffc0504071e2:	fe842783          	lw	a5,-24(s0)
ffffffc0504071e6:	0147979b          	slliw	a5,a5,0x14
ffffffc0504071ea:	0007871b          	sext.w	a4,a5
ffffffc0504071ee:	fdc42783          	lw	a5,-36(s0)
ffffffc0504071f2:	8fd9                	or	a5,a5,a4
ffffffc0504071f4:	fcf42e23          	sw	a5,-36(s0)
ffffffc0504071f8:	fec42783          	lw	a5,-20(s0)
ffffffc0504071fc:	0087979b          	slliw	a5,a5,0x8
ffffffc050407200:	0007871b          	sext.w	a4,a5
ffffffc050407204:	fdc42783          	lw	a5,-36(s0)
ffffffc050407208:	8fd9                	or	a5,a5,a4
ffffffc05040720a:	fcf42e23          	sw	a5,-36(s0)
ffffffc05040720e:	003fa797          	auipc	a5,0x3fa
ffffffc050407212:	a3a78793          	addi	a5,a5,-1478 # ffffffc050800c48 <XPS_SYS_CTRL_BASEADDR>
ffffffc050407216:	639c                	ld	a5,0(a5)
ffffffc050407218:	14078793          	addi	a5,a5,320
ffffffc05040721c:	873e                	mv	a4,a5
ffffffc05040721e:	fdc42783          	lw	a5,-36(s0)
ffffffc050407222:	c31c                	sw	a5,0(a4)
ffffffc050407224:	003fa797          	auipc	a5,0x3fa
ffffffc050407228:	a2478793          	addi	a5,a5,-1500 # ffffffc050800c48 <XPS_SYS_CTRL_BASEADDR>
ffffffc05040722c:	639c                	ld	a5,0(a5)
ffffffc05040722e:	0791                	addi	a5,a5,4
ffffffc050407230:	873e                	mv	a4,a5
ffffffc050407232:	679d                	lui	a5,0x7
ffffffc050407234:	67b78793          	addi	a5,a5,1659 # 767b <_start-0xffffffc0503f8985>
ffffffc050407238:	c31c                	sw	a5,0(a4)
ffffffc05040723a:	fe043023          	sd	zero,-32(s0)
ffffffc05040723e:	a031                	j	ffffffc05040724a <XEmacPsClkSetup+0x148>
ffffffc050407240:	fe043783          	ld	a5,-32(s0)
ffffffc050407244:	0785                	addi	a5,a5,1
ffffffc050407246:	fef43023          	sd	a5,-32(s0)
ffffffc05040724a:	fe043703          	ld	a4,-32(s0)
ffffffc05040724e:	67c1                	lui	a5,0x10
ffffffc050407250:	17f9                	addi	a5,a5,-2
ffffffc050407252:	fee7f7e3          	bgeu	a5,a4,ffffffc050407240 <XEmacPsClkSetup+0x13e>
ffffffc050407256:	0001                	nop
ffffffc050407258:	70e2                	ld	ra,56(sp)
ffffffc05040725a:	7442                	ld	s0,48(sp)
ffffffc05040725c:	6121                	addi	sp,sp,64
ffffffc05040725e:	8082                	ret

ffffffc050407260 <writel>:
ffffffc050407260:	1101                	addi	sp,sp,-32
ffffffc050407262:	ec22                	sd	s0,24(sp)
ffffffc050407264:	1000                	addi	s0,sp,32
ffffffc050407266:	87aa                	mv	a5,a0
ffffffc050407268:	feb43023          	sd	a1,-32(s0)
ffffffc05040726c:	fef42623          	sw	a5,-20(s0)
ffffffc050407270:	0550000f          	fence	ow,ow
ffffffc050407274:	fe043783          	ld	a5,-32(s0)
ffffffc050407278:	fec42703          	lw	a4,-20(s0)
ffffffc05040727c:	c398                	sw	a4,0(a5)
ffffffc05040727e:	0001                	nop
ffffffc050407280:	6462                	ld	s0,24(sp)
ffffffc050407282:	6105                	addi	sp,sp,32
ffffffc050407284:	8082                	ret

ffffffc050407286 <readl>:
ffffffc050407286:	7179                	addi	sp,sp,-48
ffffffc050407288:	f422                	sd	s0,40(sp)
ffffffc05040728a:	1800                	addi	s0,sp,48
ffffffc05040728c:	fca43c23          	sd	a0,-40(s0)
ffffffc050407290:	fd843783          	ld	a5,-40(s0)
ffffffc050407294:	439c                	lw	a5,0(a5)
ffffffc050407296:	fef42623          	sw	a5,-20(s0)
ffffffc05040729a:	0aa0000f          	fence	ir,ir
ffffffc05040729e:	fec42783          	lw	a5,-20(s0)
ffffffc0504072a2:	853e                	mv	a0,a5
ffffffc0504072a4:	7422                	ld	s0,40(sp)
ffffffc0504072a6:	6145                	addi	sp,sp,48
ffffffc0504072a8:	8082                	ret

ffffffc0504072aa <kva2pa>:
ffffffc0504072aa:	1101                	addi	sp,sp,-32
ffffffc0504072ac:	ec22                	sd	s0,24(sp)
ffffffc0504072ae:	1000                	addi	s0,sp,32
ffffffc0504072b0:	fea43423          	sd	a0,-24(s0)
ffffffc0504072b4:	fe843703          	ld	a4,-24(s0)
ffffffc0504072b8:	4785                	li	a5,1
ffffffc0504072ba:	179a                	slli	a5,a5,0x26
ffffffc0504072bc:	97ba                	add	a5,a5,a4
ffffffc0504072be:	853e                	mv	a0,a5
ffffffc0504072c0:	6462                	ld	s0,24(sp)
ffffffc0504072c2:	6105                	addi	sp,sp,32
ffffffc0504072c4:	8082                	ret

ffffffc0504072c6 <Xil_Out32>:
ffffffc0504072c6:	1101                	addi	sp,sp,-32
ffffffc0504072c8:	ec06                	sd	ra,24(sp)
ffffffc0504072ca:	e822                	sd	s0,16(sp)
ffffffc0504072cc:	1000                	addi	s0,sp,32
ffffffc0504072ce:	fea43423          	sd	a0,-24(s0)
ffffffc0504072d2:	87ae                	mv	a5,a1
ffffffc0504072d4:	fef42223          	sw	a5,-28(s0)
ffffffc0504072d8:	fe843703          	ld	a4,-24(s0)
ffffffc0504072dc:	fe442783          	lw	a5,-28(s0)
ffffffc0504072e0:	85ba                	mv	a1,a4
ffffffc0504072e2:	853e                	mv	a0,a5
ffffffc0504072e4:	f7dff0ef          	jal	ra,ffffffc050407260 <writel>
ffffffc0504072e8:	0001                	nop
ffffffc0504072ea:	60e2                	ld	ra,24(sp)
ffffffc0504072ec:	6442                	ld	s0,16(sp)
ffffffc0504072ee:	6105                	addi	sp,sp,32
ffffffc0504072f0:	8082                	ret

ffffffc0504072f2 <Xil_In32>:
ffffffc0504072f2:	1101                	addi	sp,sp,-32
ffffffc0504072f4:	ec06                	sd	ra,24(sp)
ffffffc0504072f6:	e822                	sd	s0,16(sp)
ffffffc0504072f8:	1000                	addi	s0,sp,32
ffffffc0504072fa:	fea43423          	sd	a0,-24(s0)
ffffffc0504072fe:	fe843783          	ld	a5,-24(s0)
ffffffc050407302:	853e                	mv	a0,a5
ffffffc050407304:	f83ff0ef          	jal	ra,ffffffc050407286 <readl>
ffffffc050407308:	87aa                	mv	a5,a0
ffffffc05040730a:	2781                	sext.w	a5,a5
ffffffc05040730c:	853e                	mv	a0,a5
ffffffc05040730e:	60e2                	ld	ra,24(sp)
ffffffc050407310:	6442                	ld	s0,16(sp)
ffffffc050407312:	6105                	addi	sp,sp,32
ffffffc050407314:	8082                	ret

ffffffc050407316 <XEmacPs_CfgInitialize>:
ffffffc050407316:	7179                	addi	sp,sp,-48
ffffffc050407318:	f406                	sd	ra,40(sp)
ffffffc05040731a:	f022                	sd	s0,32(sp)
ffffffc05040731c:	1800                	addi	s0,sp,48
ffffffc05040731e:	fea43423          	sd	a0,-24(s0)
ffffffc050407322:	feb43023          	sd	a1,-32(s0)
ffffffc050407326:	fcc43c23          	sd	a2,-40(s0)
ffffffc05040732a:	fe043783          	ld	a5,-32(s0)
ffffffc05040732e:	0007d703          	lhu	a4,0(a5) # 10000 <_start-0xffffffc0503f0000>
ffffffc050407332:	fe843783          	ld	a5,-24(s0)
ffffffc050407336:	00e79023          	sh	a4,0(a5)
ffffffc05040733a:	fe843783          	ld	a5,-24(s0)
ffffffc05040733e:	fd843703          	ld	a4,-40(s0)
ffffffc050407342:	e798                	sd	a4,8(a5)
ffffffc050407344:	fe043783          	ld	a5,-32(s0)
ffffffc050407348:	0107c703          	lbu	a4,16(a5)
ffffffc05040734c:	fe843783          	ld	a5,-24(s0)
ffffffc050407350:	00e78823          	sb	a4,16(a5)
ffffffc050407354:	fe843783          	ld	a5,-24(s0)
ffffffc050407358:	00000717          	auipc	a4,0x0
ffffffc05040735c:	4ea70713          	addi	a4,a4,1258 # ffffffc050407842 <XEmacPs_StubHandler>
ffffffc050407360:	10e7b423          	sd	a4,264(a5)
ffffffc050407364:	fe843783          	ld	a5,-24(s0)
ffffffc050407368:	00000717          	auipc	a4,0x0
ffffffc05040736c:	4da70713          	addi	a4,a4,1242 # ffffffc050407842 <XEmacPs_StubHandler>
ffffffc050407370:	10e7b823          	sd	a4,272(a5)
ffffffc050407374:	fe843783          	ld	a5,-24(s0)
ffffffc050407378:	00000717          	auipc	a4,0x0
ffffffc05040737c:	4ca70713          	addi	a4,a4,1226 # ffffffc050407842 <XEmacPs_StubHandler>
ffffffc050407380:	12e7b423          	sd	a4,296(a5)
ffffffc050407384:	fe843783          	ld	a5,-24(s0)
ffffffc050407388:	11111737          	lui	a4,0x11111
ffffffc05040738c:	11170713          	addi	a4,a4,273 # 11111111 <_start-0xffffffc03f2eeeef>
ffffffc050407390:	cfd8                	sw	a4,28(a5)
ffffffc050407392:	fe843503          	ld	a0,-24(s0)
ffffffc050407396:	194000ef          	jal	ra,ffffffc05040752a <XEmacPs_Reset>
ffffffc05040739a:	4781                	li	a5,0
ffffffc05040739c:	853e                	mv	a0,a5
ffffffc05040739e:	70a2                	ld	ra,40(sp)
ffffffc0504073a0:	7402                	ld	s0,32(sp)
ffffffc0504073a2:	6145                	addi	sp,sp,48
ffffffc0504073a4:	8082                	ret

ffffffc0504073a6 <XEmacPs_Start>:
ffffffc0504073a6:	7179                	addi	sp,sp,-48
ffffffc0504073a8:	f406                	sd	ra,40(sp)
ffffffc0504073aa:	f022                	sd	s0,32(sp)
ffffffc0504073ac:	1800                	addi	s0,sp,48
ffffffc0504073ae:	fca43c23          	sd	a0,-40(s0)
ffffffc0504073b2:	fd843783          	ld	a5,-40(s0)
ffffffc0504073b6:	1387a783          	lw	a5,312(a5)
ffffffc0504073ba:	873e                	mv	a4,a5
ffffffc0504073bc:	4789                	li	a5,2
ffffffc0504073be:	02f71c63          	bne	a4,a5,ffffffc0504073f6 <XEmacPs_Start+0x50>
ffffffc0504073c2:	fd843783          	ld	a5,-40(s0)
ffffffc0504073c6:	679c                	ld	a5,8(a5)
ffffffc0504073c8:	01878713          	addi	a4,a5,24
ffffffc0504073cc:	fd843783          	ld	a5,-40(s0)
ffffffc0504073d0:	73dc                	ld	a5,160(a5)
ffffffc0504073d2:	2781                	sext.w	a5,a5
ffffffc0504073d4:	85be                	mv	a1,a5
ffffffc0504073d6:	853a                	mv	a0,a4
ffffffc0504073d8:	eefff0ef          	jal	ra,ffffffc0504072c6 <Xil_Out32>
ffffffc0504073dc:	fd843783          	ld	a5,-40(s0)
ffffffc0504073e0:	679c                	ld	a5,8(a5)
ffffffc0504073e2:	01c78713          	addi	a4,a5,28
ffffffc0504073e6:	fd843783          	ld	a5,-40(s0)
ffffffc0504073ea:	7b9c                	ld	a5,48(a5)
ffffffc0504073ec:	2781                	sext.w	a5,a5
ffffffc0504073ee:	85be                	mv	a1,a5
ffffffc0504073f0:	853a                	mv	a0,a4
ffffffc0504073f2:	ed5ff0ef          	jal	ra,ffffffc0504072c6 <Xil_Out32>
ffffffc0504073f6:	fd843783          	ld	a5,-40(s0)
ffffffc0504073fa:	679c                	ld	a5,8(a5)
ffffffc0504073fc:	02478713          	addi	a4,a5,36
ffffffc050407400:	67a1                	lui	a5,0x8
ffffffc050407402:	fff78593          	addi	a1,a5,-1 # 7fff <_start-0xffffffc0503f8001>
ffffffc050407406:	853a                	mv	a0,a4
ffffffc050407408:	ebfff0ef          	jal	ra,ffffffc0504072c6 <Xil_Out32>
ffffffc05040740c:	fd843783          	ld	a5,-40(s0)
ffffffc050407410:	539c                	lw	a5,32(a5)
ffffffc050407412:	1007f793          	andi	a5,a5,256
ffffffc050407416:	2781                	sext.w	a5,a5
ffffffc050407418:	cb9d                	beqz	a5,ffffffc05040744e <XEmacPs_Start+0xa8>
ffffffc05040741a:	fd843783          	ld	a5,-40(s0)
ffffffc05040741e:	679c                	ld	a5,8(a5)
ffffffc050407420:	853e                	mv	a0,a5
ffffffc050407422:	ed1ff0ef          	jal	ra,ffffffc0504072f2 <Xil_In32>
ffffffc050407426:	87aa                	mv	a5,a0
ffffffc050407428:	fef42623          	sw	a5,-20(s0)
ffffffc05040742c:	fec42783          	lw	a5,-20(s0)
ffffffc050407430:	8ba1                	andi	a5,a5,8
ffffffc050407432:	2781                	sext.w	a5,a5
ffffffc050407434:	ef89                	bnez	a5,ffffffc05040744e <XEmacPs_Start+0xa8>
ffffffc050407436:	fd843783          	ld	a5,-40(s0)
ffffffc05040743a:	6798                	ld	a4,8(a5)
ffffffc05040743c:	fec42783          	lw	a5,-20(s0)
ffffffc050407440:	0087e793          	ori	a5,a5,8
ffffffc050407444:	2781                	sext.w	a5,a5
ffffffc050407446:	85be                	mv	a1,a5
ffffffc050407448:	853a                	mv	a0,a4
ffffffc05040744a:	e7dff0ef          	jal	ra,ffffffc0504072c6 <Xil_Out32>
ffffffc05040744e:	fd843783          	ld	a5,-40(s0)
ffffffc050407452:	539c                	lw	a5,32(a5)
ffffffc050407454:	2007f793          	andi	a5,a5,512
ffffffc050407458:	2781                	sext.w	a5,a5
ffffffc05040745a:	cb9d                	beqz	a5,ffffffc050407490 <XEmacPs_Start+0xea>
ffffffc05040745c:	fd843783          	ld	a5,-40(s0)
ffffffc050407460:	679c                	ld	a5,8(a5)
ffffffc050407462:	853e                	mv	a0,a5
ffffffc050407464:	e8fff0ef          	jal	ra,ffffffc0504072f2 <Xil_In32>
ffffffc050407468:	87aa                	mv	a5,a0
ffffffc05040746a:	fef42623          	sw	a5,-20(s0)
ffffffc05040746e:	fec42783          	lw	a5,-20(s0)
ffffffc050407472:	8b91                	andi	a5,a5,4
ffffffc050407474:	2781                	sext.w	a5,a5
ffffffc050407476:	ef89                	bnez	a5,ffffffc050407490 <XEmacPs_Start+0xea>
ffffffc050407478:	fd843783          	ld	a5,-40(s0)
ffffffc05040747c:	6798                	ld	a4,8(a5)
ffffffc05040747e:	fec42783          	lw	a5,-20(s0)
ffffffc050407482:	0047e793          	ori	a5,a5,4
ffffffc050407486:	2781                	sext.w	a5,a5
ffffffc050407488:	85be                	mv	a1,a5
ffffffc05040748a:	853a                	mv	a0,a4
ffffffc05040748c:	e3bff0ef          	jal	ra,ffffffc0504072c6 <Xil_Out32>
ffffffc050407490:	fd843783          	ld	a5,-40(s0)
ffffffc050407494:	679c                	ld	a5,8(a5)
ffffffc050407496:	02878713          	addi	a4,a5,40
ffffffc05040749a:	6785                	lui	a5,0x1
ffffffc05040749c:	cf678593          	addi	a1,a5,-778 # cf6 <_start-0xffffffc0503ff30a>
ffffffc0504074a0:	853a                	mv	a0,a4
ffffffc0504074a2:	e25ff0ef          	jal	ra,ffffffc0504072c6 <Xil_Out32>
ffffffc0504074a6:	fd843783          	ld	a5,-40(s0)
ffffffc0504074aa:	22222737          	lui	a4,0x22222
ffffffc0504074ae:	22270713          	addi	a4,a4,546 # 22222222 <_start-0xffffffc02e1dddde>
ffffffc0504074b2:	cf98                	sw	a4,24(a5)
ffffffc0504074b4:	0001                	nop
ffffffc0504074b6:	70a2                	ld	ra,40(sp)
ffffffc0504074b8:	7402                	ld	s0,32(sp)
ffffffc0504074ba:	6145                	addi	sp,sp,48
ffffffc0504074bc:	8082                	ret

ffffffc0504074be <XEmacPs_Stop>:
ffffffc0504074be:	7179                	addi	sp,sp,-48
ffffffc0504074c0:	f406                	sd	ra,40(sp)
ffffffc0504074c2:	f022                	sd	s0,32(sp)
ffffffc0504074c4:	1800                	addi	s0,sp,48
ffffffc0504074c6:	fca43c23          	sd	a0,-40(s0)
ffffffc0504074ca:	fd843783          	ld	a5,-40(s0)
ffffffc0504074ce:	679c                	ld	a5,8(a5)
ffffffc0504074d0:	02c78713          	addi	a4,a5,44
ffffffc0504074d4:	67a1                	lui	a5,0x8
ffffffc0504074d6:	fff78593          	addi	a1,a5,-1 # 7fff <_start-0xffffffc0503f8001>
ffffffc0504074da:	853a                	mv	a0,a4
ffffffc0504074dc:	debff0ef          	jal	ra,ffffffc0504072c6 <Xil_Out32>
ffffffc0504074e0:	fd843783          	ld	a5,-40(s0)
ffffffc0504074e4:	679c                	ld	a5,8(a5)
ffffffc0504074e6:	853e                	mv	a0,a5
ffffffc0504074e8:	e0bff0ef          	jal	ra,ffffffc0504072f2 <Xil_In32>
ffffffc0504074ec:	87aa                	mv	a5,a0
ffffffc0504074ee:	fef42623          	sw	a5,-20(s0)
ffffffc0504074f2:	fec42783          	lw	a5,-20(s0)
ffffffc0504074f6:	9bed                	andi	a5,a5,-5
ffffffc0504074f8:	fef42623          	sw	a5,-20(s0)
ffffffc0504074fc:	fec42783          	lw	a5,-20(s0)
ffffffc050407500:	9bdd                	andi	a5,a5,-9
ffffffc050407502:	fef42623          	sw	a5,-20(s0)
ffffffc050407506:	fd843783          	ld	a5,-40(s0)
ffffffc05040750a:	679c                	ld	a5,8(a5)
ffffffc05040750c:	fec42703          	lw	a4,-20(s0)
ffffffc050407510:	85ba                	mv	a1,a4
ffffffc050407512:	853e                	mv	a0,a5
ffffffc050407514:	db3ff0ef          	jal	ra,ffffffc0504072c6 <Xil_Out32>
ffffffc050407518:	fd843783          	ld	a5,-40(s0)
ffffffc05040751c:	0007ac23          	sw	zero,24(a5)
ffffffc050407520:	0001                	nop
ffffffc050407522:	70a2                	ld	ra,40(sp)
ffffffc050407524:	7402                	ld	s0,32(sp)
ffffffc050407526:	6145                	addi	sp,sp,48
ffffffc050407528:	8082                	ret

ffffffc05040752a <XEmacPs_Reset>:
ffffffc05040752a:	7139                	addi	sp,sp,-64
ffffffc05040752c:	fc06                	sd	ra,56(sp)
ffffffc05040752e:	f822                	sd	s0,48(sp)
ffffffc050407530:	f426                	sd	s1,40(sp)
ffffffc050407532:	0080                	addi	s0,sp,64
ffffffc050407534:	fca43423          	sd	a0,-56(s0)
ffffffc050407538:	fc042823          	sw	zero,-48(s0)
ffffffc05040753c:	fc041a23          	sh	zero,-44(s0)
ffffffc050407540:	fc843503          	ld	a0,-56(s0)
ffffffc050407544:	f7bff0ef          	jal	ra,ffffffc0504074be <XEmacPs_Stop>
ffffffc050407548:	fc843783          	ld	a5,-56(s0)
ffffffc05040754c:	6705                	lui	a4,0x1
ffffffc05040754e:	1741                	addi	a4,a4,-16
ffffffc050407550:	d398                	sw	a4,32(a5)
ffffffc050407552:	fc843783          	ld	a5,-56(s0)
ffffffc050407556:	679c                	ld	a5,8(a5)
ffffffc050407558:	0fc78793          	addi	a5,a5,252
ffffffc05040755c:	853e                	mv	a0,a5
ffffffc05040755e:	d95ff0ef          	jal	ra,ffffffc0504072f2 <Xil_In32>
ffffffc050407562:	87aa                	mv	a5,a0
ffffffc050407564:	0007871b          	sext.w	a4,a5
ffffffc050407568:	fc843783          	ld	a5,-56(s0)
ffffffc05040756c:	12e7ac23          	sw	a4,312(a5)
ffffffc050407570:	fc843783          	ld	a5,-56(s0)
ffffffc050407574:	1387a783          	lw	a5,312(a5)
ffffffc050407578:	0107d79b          	srliw	a5,a5,0x10
ffffffc05040757c:	2781                	sext.w	a5,a5
ffffffc05040757e:	873e                	mv	a4,a5
ffffffc050407580:	6785                	lui	a5,0x1
ffffffc050407582:	17fd                	addi	a5,a5,-1
ffffffc050407584:	8ff9                	and	a5,a5,a4
ffffffc050407586:	0007871b          	sext.w	a4,a5
ffffffc05040758a:	fc843783          	ld	a5,-56(s0)
ffffffc05040758e:	12e7ac23          	sw	a4,312(a5) # 1138 <_start-0xffffffc0503feec8>
ffffffc050407592:	fc843783          	ld	a5,-56(s0)
ffffffc050407596:	5dc00713          	li	a4,1500
ffffffc05040759a:	14e7a023          	sw	a4,320(a5)
ffffffc05040759e:	fc843783          	ld	a5,-56(s0)
ffffffc0504075a2:	5ee00713          	li	a4,1518
ffffffc0504075a6:	14e7a223          	sw	a4,324(a5)
ffffffc0504075aa:	fc843783          	ld	a5,-56(s0)
ffffffc0504075ae:	1447a783          	lw	a5,324(a5)
ffffffc0504075b2:	27c9                	addiw	a5,a5,18
ffffffc0504075b4:	0007871b          	sext.w	a4,a5
ffffffc0504075b8:	fc843783          	ld	a5,-56(s0)
ffffffc0504075bc:	14e7a423          	sw	a4,328(a5)
ffffffc0504075c0:	fc843783          	ld	a5,-56(s0)
ffffffc0504075c4:	6709                	lui	a4,0x2
ffffffc0504075c6:	177d                	addi	a4,a4,-1
ffffffc0504075c8:	12e7ae23          	sw	a4,316(a5)
ffffffc0504075cc:	fc843783          	ld	a5,-56(s0)
ffffffc0504075d0:	679c                	ld	a5,8(a5)
ffffffc0504075d2:	03000593          	li	a1,48
ffffffc0504075d6:	853e                	mv	a0,a5
ffffffc0504075d8:	cefff0ef          	jal	ra,ffffffc0504072c6 <Xil_Out32>
ffffffc0504075dc:	fc843783          	ld	a5,-56(s0)
ffffffc0504075e0:	679c                	ld	a5,8(a5)
ffffffc0504075e2:	0791                	addi	a5,a5,4
ffffffc0504075e4:	853e                	mv	a0,a5
ffffffc0504075e6:	d0dff0ef          	jal	ra,ffffffc0504072f2 <Xil_In32>
ffffffc0504075ea:	87aa                	mv	a5,a0
ffffffc0504075ec:	fcf42c23          	sw	a5,-40(s0)
ffffffc0504075f0:	fd842703          	lw	a4,-40(s0)
ffffffc0504075f4:	001c07b7          	lui	a5,0x1c0
ffffffc0504075f8:	8ff9                	and	a5,a5,a4
ffffffc0504075fa:	fcf42c23          	sw	a5,-40(s0)
ffffffc0504075fe:	fd842783          	lw	a5,-40(s0)
ffffffc050407602:	0837e793          	ori	a5,a5,131
ffffffc050407606:	fcf42c23          	sw	a5,-40(s0)
ffffffc05040760a:	fc843783          	ld	a5,-56(s0)
ffffffc05040760e:	679c                	ld	a5,8(a5)
ffffffc050407610:	0791                	addi	a5,a5,4
ffffffc050407612:	fd842703          	lw	a4,-40(s0)
ffffffc050407616:	85ba                	mv	a1,a4
ffffffc050407618:	853e                	mv	a0,a5
ffffffc05040761a:	cadff0ef          	jal	ra,ffffffc0504072c6 <Xil_Out32>
ffffffc05040761e:	fc843783          	ld	a5,-56(s0)
ffffffc050407622:	1387a783          	lw	a5,312(a5) # 1c0138 <_start-0xffffffc05023fec8>
ffffffc050407626:	873e                	mv	a4,a5
ffffffc050407628:	4789                	li	a5,2
ffffffc05040762a:	02e7f963          	bgeu	a5,a4,ffffffc05040765c <XEmacPs_Reset+0x132>
ffffffc05040762e:	fc843783          	ld	a5,-56(s0)
ffffffc050407632:	679c                	ld	a5,8(a5)
ffffffc050407634:	00478493          	addi	s1,a5,4
ffffffc050407638:	fc843783          	ld	a5,-56(s0)
ffffffc05040763c:	679c                	ld	a5,8(a5)
ffffffc05040763e:	0791                	addi	a5,a5,4
ffffffc050407640:	853e                	mv	a0,a5
ffffffc050407642:	cb1ff0ef          	jal	ra,ffffffc0504072f2 <Xil_In32>
ffffffc050407646:	87aa                	mv	a5,a0
ffffffc050407648:	2781                	sext.w	a5,a5
ffffffc05040764a:	873e                	mv	a4,a5
ffffffc05040764c:	002007b7          	lui	a5,0x200
ffffffc050407650:	8fd9                	or	a5,a5,a4
ffffffc050407652:	2781                	sext.w	a5,a5
ffffffc050407654:	85be                	mv	a1,a5
ffffffc050407656:	8526                	mv	a0,s1
ffffffc050407658:	c6fff0ef          	jal	ra,ffffffc0504072c6 <Xil_Out32>
ffffffc05040765c:	fc843783          	ld	a5,-56(s0)
ffffffc050407660:	679c                	ld	a5,8(a5)
ffffffc050407662:	01078713          	addi	a4,a5,16 # 200010 <_start-0xffffffc0501ffff0>
ffffffc050407666:	001807b7          	lui	a5,0x180
ffffffc05040766a:	70078593          	addi	a1,a5,1792 # 180700 <_start-0xffffffc05027f900>
ffffffc05040766e:	853a                	mv	a0,a4
ffffffc050407670:	c57ff0ef          	jal	ra,ffffffc0504072c6 <Xil_Out32>
ffffffc050407674:	fc843783          	ld	a5,-56(s0)
ffffffc050407678:	1387a783          	lw	a5,312(a5)
ffffffc05040767c:	873e                	mv	a4,a5
ffffffc05040767e:	4789                	li	a5,2
ffffffc050407680:	02e7f763          	bgeu	a5,a4,ffffffc0504076ae <XEmacPs_Reset+0x184>
ffffffc050407684:	fc843783          	ld	a5,-56(s0)
ffffffc050407688:	679c                	ld	a5,8(a5)
ffffffc05040768a:	01078493          	addi	s1,a5,16
ffffffc05040768e:	fc843783          	ld	a5,-56(s0)
ffffffc050407692:	679c                	ld	a5,8(a5)
ffffffc050407694:	07c1                	addi	a5,a5,16
ffffffc050407696:	853e                	mv	a0,a5
ffffffc050407698:	c5bff0ef          	jal	ra,ffffffc0504072f2 <Xil_In32>
ffffffc05040769c:	87aa                	mv	a5,a0
ffffffc05040769e:	2781                	sext.w	a5,a5
ffffffc0504076a0:	0107e793          	ori	a5,a5,16
ffffffc0504076a4:	2781                	sext.w	a5,a5
ffffffc0504076a6:	85be                	mv	a1,a5
ffffffc0504076a8:	8526                	mv	a0,s1
ffffffc0504076aa:	c1dff0ef          	jal	ra,ffffffc0504072c6 <Xil_Out32>
ffffffc0504076ae:	fc843783          	ld	a5,-56(s0)
ffffffc0504076b2:	679c                	ld	a5,8(a5)
ffffffc0504076b4:	07d1                	addi	a5,a5,20
ffffffc0504076b6:	4581                	li	a1,0
ffffffc0504076b8:	853e                	mv	a0,a5
ffffffc0504076ba:	c0dff0ef          	jal	ra,ffffffc0504072c6 <Xil_Out32>
ffffffc0504076be:	4685                	li	a3,1
ffffffc0504076c0:	4601                	li	a2,0
ffffffc0504076c2:	4581                	li	a1,0
ffffffc0504076c4:	fc843503          	ld	a0,-56(s0)
ffffffc0504076c8:	188000ef          	jal	ra,ffffffc050407850 <XEmacPs_SetQueuePtr>
ffffffc0504076cc:	fc843783          	ld	a5,-56(s0)
ffffffc0504076d0:	1387a783          	lw	a5,312(a5)
ffffffc0504076d4:	873e                	mv	a4,a5
ffffffc0504076d6:	4789                	li	a5,2
ffffffc0504076d8:	00e7f963          	bgeu	a5,a4,ffffffc0504076ea <XEmacPs_Reset+0x1c0>
ffffffc0504076dc:	4685                	li	a3,1
ffffffc0504076de:	4605                	li	a2,1
ffffffc0504076e0:	4581                	li	a1,0
ffffffc0504076e2:	fc843503          	ld	a0,-56(s0)
ffffffc0504076e6:	16a000ef          	jal	ra,ffffffc050407850 <XEmacPs_SetQueuePtr>
ffffffc0504076ea:	4689                	li	a3,2
ffffffc0504076ec:	4601                	li	a2,0
ffffffc0504076ee:	4581                	li	a1,0
ffffffc0504076f0:	fc843503          	ld	a0,-56(s0)
ffffffc0504076f4:	15c000ef          	jal	ra,ffffffc050407850 <XEmacPs_SetQueuePtr>
ffffffc0504076f8:	fc843783          	ld	a5,-56(s0)
ffffffc0504076fc:	679c                	ld	a5,8(a5)
ffffffc0504076fe:	02078793          	addi	a5,a5,32
ffffffc050407702:	4581                	li	a1,0
ffffffc050407704:	853e                	mv	a0,a5
ffffffc050407706:	bc1ff0ef          	jal	ra,ffffffc0504072c6 <Xil_Out32>
ffffffc05040770a:	fc843783          	ld	a5,-56(s0)
ffffffc05040770e:	679c                	ld	a5,8(a5)
ffffffc050407710:	02c78713          	addi	a4,a5,44
ffffffc050407714:	67a1                	lui	a5,0x8
ffffffc050407716:	fff78593          	addi	a1,a5,-1 # 7fff <_start-0xffffffc0503f8001>
ffffffc05040771a:	853a                	mv	a0,a4
ffffffc05040771c:	babff0ef          	jal	ra,ffffffc0504072c6 <Xil_Out32>
ffffffc050407720:	fc843783          	ld	a5,-56(s0)
ffffffc050407724:	679c                	ld	a5,8(a5)
ffffffc050407726:	02478793          	addi	a5,a5,36
ffffffc05040772a:	853e                	mv	a0,a5
ffffffc05040772c:	bc7ff0ef          	jal	ra,ffffffc0504072f2 <Xil_In32>
ffffffc050407730:	87aa                	mv	a5,a0
ffffffc050407732:	fcf42c23          	sw	a5,-40(s0)
ffffffc050407736:	fc843783          	ld	a5,-56(s0)
ffffffc05040773a:	679c                	ld	a5,8(a5)
ffffffc05040773c:	02478793          	addi	a5,a5,36
ffffffc050407740:	fd842703          	lw	a4,-40(s0)
ffffffc050407744:	85ba                	mv	a1,a4
ffffffc050407746:	853e                	mv	a0,a5
ffffffc050407748:	b7fff0ef          	jal	ra,ffffffc0504072c6 <Xil_Out32>
ffffffc05040774c:	fc843503          	ld	a0,-56(s0)
ffffffc050407750:	a36fc0ef          	jal	ra,ffffffc050403986 <XEmacPs_ClearHash>
ffffffc050407754:	4785                	li	a5,1
ffffffc050407756:	fcf40fa3          	sb	a5,-33(s0)
ffffffc05040775a:	a805                	j	ffffffc05040778a <XEmacPs_Reset+0x260>
ffffffc05040775c:	fdf44703          	lbu	a4,-33(s0)
ffffffc050407760:	fd040793          	addi	a5,s0,-48
ffffffc050407764:	863a                	mv	a2,a4
ffffffc050407766:	85be                	mv	a1,a5
ffffffc050407768:	fc843503          	ld	a0,-56(s0)
ffffffc05040776c:	acbfb0ef          	jal	ra,ffffffc050403236 <XEmacPs_SetMacAddress>
ffffffc050407770:	fdf44783          	lbu	a5,-33(s0)
ffffffc050407774:	863e                	mv	a2,a5
ffffffc050407776:	4581                	li	a1,0
ffffffc050407778:	fc843503          	ld	a0,-56(s0)
ffffffc05040777c:	aa4fc0ef          	jal	ra,ffffffc050403a20 <XEmacPs_SetTypeIdCheck>
ffffffc050407780:	fdf44783          	lbu	a5,-33(s0)
ffffffc050407784:	2785                	addiw	a5,a5,1
ffffffc050407786:	fcf40fa3          	sb	a5,-33(s0)
ffffffc05040778a:	fdf44783          	lbu	a5,-33(s0)
ffffffc05040778e:	0ff7f713          	andi	a4,a5,255
ffffffc050407792:	4791                	li	a5,4
ffffffc050407794:	fce7f4e3          	bgeu	a5,a4,ffffffc05040775c <XEmacPs_Reset+0x232>
ffffffc050407798:	fc040fa3          	sb	zero,-33(s0)
ffffffc05040779c:	a805                	j	ffffffc0504077cc <XEmacPs_Reset+0x2a2>
ffffffc05040779e:	fc843783          	ld	a5,-56(s0)
ffffffc0504077a2:	6798                	ld	a4,8(a5)
ffffffc0504077a4:	fdf44783          	lbu	a5,-33(s0)
ffffffc0504077a8:	2781                	sext.w	a5,a5
ffffffc0504077aa:	0407879b          	addiw	a5,a5,64
ffffffc0504077ae:	2781                	sext.w	a5,a5
ffffffc0504077b0:	0027979b          	slliw	a5,a5,0x2
ffffffc0504077b4:	2781                	sext.w	a5,a5
ffffffc0504077b6:	1782                	slli	a5,a5,0x20
ffffffc0504077b8:	9381                	srli	a5,a5,0x20
ffffffc0504077ba:	97ba                	add	a5,a5,a4
ffffffc0504077bc:	853e                	mv	a0,a5
ffffffc0504077be:	b35ff0ef          	jal	ra,ffffffc0504072f2 <Xil_In32>
ffffffc0504077c2:	fdf44783          	lbu	a5,-33(s0)
ffffffc0504077c6:	2785                	addiw	a5,a5,1
ffffffc0504077c8:	fcf40fa3          	sb	a5,-33(s0)
ffffffc0504077cc:	fdf44783          	lbu	a5,-33(s0)
ffffffc0504077d0:	0ff7f713          	andi	a4,a5,255
ffffffc0504077d4:	02c00793          	li	a5,44
ffffffc0504077d8:	fce7f3e3          	bgeu	a5,a4,ffffffc05040779e <XEmacPs_Reset+0x274>
ffffffc0504077dc:	fc843783          	ld	a5,-56(s0)
ffffffc0504077e0:	679c                	ld	a5,8(a5)
ffffffc0504077e2:	853e                	mv	a0,a5
ffffffc0504077e4:	b0fff0ef          	jal	ra,ffffffc0504072f2 <Xil_In32>
ffffffc0504077e8:	87aa                	mv	a5,a0
ffffffc0504077ea:	fcf42c23          	sw	a5,-40(s0)
ffffffc0504077ee:	fd842783          	lw	a5,-40(s0)
ffffffc0504077f2:	9bed                	andi	a5,a5,-5
ffffffc0504077f4:	fcf42c23          	sw	a5,-40(s0)
ffffffc0504077f8:	fc843783          	ld	a5,-56(s0)
ffffffc0504077fc:	679c                	ld	a5,8(a5)
ffffffc0504077fe:	fd842703          	lw	a4,-40(s0)
ffffffc050407802:	85ba                	mv	a1,a4
ffffffc050407804:	853e                	mv	a0,a5
ffffffc050407806:	ac1ff0ef          	jal	ra,ffffffc0504072c6 <Xil_Out32>
ffffffc05040780a:	fc843783          	ld	a5,-56(s0)
ffffffc05040780e:	539c                	lw	a5,32(a5)
ffffffc050407810:	cff7f793          	andi	a5,a5,-769
ffffffc050407814:	2781                	sext.w	a5,a5
ffffffc050407816:	85be                	mv	a1,a5
ffffffc050407818:	fc843503          	ld	a0,-56(s0)
ffffffc05040781c:	a88fc0ef          	jal	ra,ffffffc050403aa4 <XEmacPs_SetOptions>
ffffffc050407820:	fc843783          	ld	a5,-56(s0)
ffffffc050407824:	539c                	lw	a5,32(a5)
ffffffc050407826:	fff7c793          	not	a5,a5
ffffffc05040782a:	2781                	sext.w	a5,a5
ffffffc05040782c:	85be                	mv	a1,a5
ffffffc05040782e:	fc843503          	ld	a0,-56(s0)
ffffffc050407832:	d9efc0ef          	jal	ra,ffffffc050403dd0 <XEmacPs_ClearOptions>
ffffffc050407836:	0001                	nop
ffffffc050407838:	70e2                	ld	ra,56(sp)
ffffffc05040783a:	7442                	ld	s0,48(sp)
ffffffc05040783c:	74a2                	ld	s1,40(sp)
ffffffc05040783e:	6121                	addi	sp,sp,64
ffffffc050407840:	8082                	ret

ffffffc050407842 <XEmacPs_StubHandler>:
ffffffc050407842:	1141                	addi	sp,sp,-16
ffffffc050407844:	e422                	sd	s0,8(sp)
ffffffc050407846:	0800                	addi	s0,sp,16
ffffffc050407848:	0001                	nop
ffffffc05040784a:	6422                	ld	s0,8(sp)
ffffffc05040784c:	0141                	addi	sp,sp,16
ffffffc05040784e:	8082                	ret

ffffffc050407850 <XEmacPs_SetQueuePtr>:
ffffffc050407850:	7179                	addi	sp,sp,-48
ffffffc050407852:	f406                	sd	ra,40(sp)
ffffffc050407854:	f022                	sd	s0,32(sp)
ffffffc050407856:	1800                	addi	s0,sp,48
ffffffc050407858:	fea43423          	sd	a0,-24(s0)
ffffffc05040785c:	feb43023          	sd	a1,-32(s0)
ffffffc050407860:	87b2                	mv	a5,a2
ffffffc050407862:	8736                	mv	a4,a3
ffffffc050407864:	fcf40fa3          	sb	a5,-33(s0)
ffffffc050407868:	87ba                	mv	a5,a4
ffffffc05040786a:	fcf41e23          	sh	a5,-36(s0)
ffffffc05040786e:	fe843783          	ld	a5,-24(s0)
ffffffc050407872:	4f9c                	lw	a5,24(a5)
ffffffc050407874:	873e                	mv	a4,a5
ffffffc050407876:	222227b7          	lui	a5,0x22222
ffffffc05040787a:	22278793          	addi	a5,a5,546 # 22222222 <_start-0xffffffc02e1dddde>
ffffffc05040787e:	06f70f63          	beq	a4,a5,ffffffc0504078fc <XEmacPs_SetQueuePtr+0xac>
ffffffc050407882:	fe043503          	ld	a0,-32(s0)
ffffffc050407886:	a25ff0ef          	jal	ra,ffffffc0504072aa <kva2pa>
ffffffc05040788a:	fea43023          	sd	a0,-32(s0)
ffffffc05040788e:	fdc45783          	lhu	a5,-36(s0)
ffffffc050407892:	0007871b          	sext.w	a4,a5
ffffffc050407896:	4785                	li	a5,1
ffffffc050407898:	02f71a63          	bne	a4,a5,ffffffc0504078cc <XEmacPs_SetQueuePtr+0x7c>
ffffffc05040789c:	fe843783          	ld	a5,-24(s0)
ffffffc0504078a0:	679c                	ld	a5,8(a5)
ffffffc0504078a2:	01c78713          	addi	a4,a5,28
ffffffc0504078a6:	fe043783          	ld	a5,-32(s0)
ffffffc0504078aa:	2781                	sext.w	a5,a5
ffffffc0504078ac:	86be                	mv	a3,a5
ffffffc0504078ae:	100007b7          	lui	a5,0x10000
ffffffc0504078b2:	17fd                	addi	a5,a5,-1
ffffffc0504078b4:	8ff5                	and	a5,a5,a3
ffffffc0504078b6:	2781                	sext.w	a5,a5
ffffffc0504078b8:	86be                	mv	a3,a5
ffffffc0504078ba:	500007b7          	lui	a5,0x50000
ffffffc0504078be:	8fd5                	or	a5,a5,a3
ffffffc0504078c0:	2781                	sext.w	a5,a5
ffffffc0504078c2:	85be                	mv	a1,a5
ffffffc0504078c4:	853a                	mv	a0,a4
ffffffc0504078c6:	a01ff0ef          	jal	ra,ffffffc0504072c6 <Xil_Out32>
ffffffc0504078ca:	a815                	j	ffffffc0504078fe <XEmacPs_SetQueuePtr+0xae>
ffffffc0504078cc:	fe843783          	ld	a5,-24(s0)
ffffffc0504078d0:	679c                	ld	a5,8(a5)
ffffffc0504078d2:	01878713          	addi	a4,a5,24 # 50000018 <_start-0xffffffc0003fffe8>
ffffffc0504078d6:	fe043783          	ld	a5,-32(s0)
ffffffc0504078da:	2781                	sext.w	a5,a5
ffffffc0504078dc:	86be                	mv	a3,a5
ffffffc0504078de:	100007b7          	lui	a5,0x10000
ffffffc0504078e2:	17fd                	addi	a5,a5,-1
ffffffc0504078e4:	8ff5                	and	a5,a5,a3
ffffffc0504078e6:	2781                	sext.w	a5,a5
ffffffc0504078e8:	86be                	mv	a3,a5
ffffffc0504078ea:	500007b7          	lui	a5,0x50000
ffffffc0504078ee:	8fd5                	or	a5,a5,a3
ffffffc0504078f0:	2781                	sext.w	a5,a5
ffffffc0504078f2:	85be                	mv	a1,a5
ffffffc0504078f4:	853a                	mv	a0,a4
ffffffc0504078f6:	9d1ff0ef          	jal	ra,ffffffc0504072c6 <Xil_Out32>
ffffffc0504078fa:	a011                	j	ffffffc0504078fe <XEmacPs_SetQueuePtr+0xae>
ffffffc0504078fc:	0001                	nop
ffffffc0504078fe:	70a2                	ld	ra,40(sp)
ffffffc050407900:	7402                	ld	s0,32(sp)
ffffffc050407902:	6145                	addi	sp,sp,48
ffffffc050407904:	8082                	ret

ffffffc050407906 <mutex_get>:
ffffffc050407906:	1141                	addi	sp,sp,-16
ffffffc050407908:	e406                	sd	ra,8(sp)
ffffffc05040790a:	e022                	sd	s0,0(sp)
ffffffc05040790c:	0800                	addi	s0,sp,16
ffffffc05040790e:	00023797          	auipc	a5,0x23
ffffffc050407912:	f2a78793          	addi	a5,a5,-214 # ffffffc05042a838 <count>
ffffffc050407916:	439c                	lw	a5,0(a5)
ffffffc050407918:	2785                	addiw	a5,a5,1
ffffffc05040791a:	0007871b          	sext.w	a4,a5
ffffffc05040791e:	00023797          	auipc	a5,0x23
ffffffc050407922:	f1a78793          	addi	a5,a5,-230 # ffffffc05042a838 <count>
ffffffc050407926:	c398                	sw	a4,0(a5)
ffffffc050407928:	00023797          	auipc	a5,0x23
ffffffc05040792c:	f1078793          	addi	a5,a5,-240 # ffffffc05042a838 <count>
ffffffc050407930:	439c                	lw	a5,0(a5)
ffffffc050407932:	853e                	mv	a0,a5
ffffffc050407934:	22c000ef          	jal	ra,ffffffc050407b60 <do_mutex_lock_init>
ffffffc050407938:	00023797          	auipc	a5,0x23
ffffffc05040793c:	f0078793          	addi	a5,a5,-256 # ffffffc05042a838 <count>
ffffffc050407940:	439c                	lw	a5,0(a5)
ffffffc050407942:	853e                	mv	a0,a5
ffffffc050407944:	60a2                	ld	ra,8(sp)
ffffffc050407946:	6402                	ld	s0,0(sp)
ffffffc050407948:	0141                	addi	sp,sp,16
ffffffc05040794a:	8082                	ret

ffffffc05040794c <mutex_lock>:
ffffffc05040794c:	7179                	addi	sp,sp,-48
ffffffc05040794e:	f406                	sd	ra,40(sp)
ffffffc050407950:	f022                	sd	s0,32(sp)
ffffffc050407952:	1800                	addi	s0,sp,48
ffffffc050407954:	87aa                	mv	a5,a0
ffffffc050407956:	fcf42e23          	sw	a5,-36(s0)
ffffffc05040795a:	96ff80ef          	jal	ra,ffffffc0504002c8 <get_current_cpu_id>
ffffffc05040795e:	87aa                	mv	a5,a0
ffffffc050407960:	fef43423          	sd	a5,-24(s0)
ffffffc050407964:	007f9717          	auipc	a4,0x7f9
ffffffc050407968:	c9470713          	addi	a4,a4,-876 # ffffffc050c005f8 <current_running>
ffffffc05040796c:	fe843783          	ld	a5,-24(s0)
ffffffc050407970:	078e                	slli	a5,a5,0x3
ffffffc050407972:	97ba                	add	a5,a5,a4
ffffffc050407974:	6398                	ld	a4,0(a5)
ffffffc050407976:	fdc42783          	lw	a5,-36(s0)
ffffffc05040797a:	07d1                	addi	a5,a5,20
ffffffc05040797c:	078a                	slli	a5,a5,0x2
ffffffc05040797e:	97ba                	add	a5,a5,a4
ffffffc050407980:	4705                	li	a4,1
ffffffc050407982:	c7d8                	sw	a4,12(a5)
ffffffc050407984:	fdc42703          	lw	a4,-36(s0)
ffffffc050407988:	87ba                	mv	a5,a4
ffffffc05040798a:	0786                	slli	a5,a5,0x1
ffffffc05040798c:	97ba                	add	a5,a5,a4
ffffffc05040798e:	078e                	slli	a5,a5,0x3
ffffffc050407990:	007f9717          	auipc	a4,0x7f9
ffffffc050407994:	b6870713          	addi	a4,a4,-1176 # ffffffc050c004f8 <mutex_arr>
ffffffc050407998:	97ba                	add	a5,a5,a4
ffffffc05040799a:	853e                	mv	a0,a5
ffffffc05040799c:	214000ef          	jal	ra,ffffffc050407bb0 <do_mutex_lock_acquire>
ffffffc0504079a0:	4781                	li	a5,0
ffffffc0504079a2:	853e                	mv	a0,a5
ffffffc0504079a4:	70a2                	ld	ra,40(sp)
ffffffc0504079a6:	7402                	ld	s0,32(sp)
ffffffc0504079a8:	6145                	addi	sp,sp,48
ffffffc0504079aa:	8082                	ret

ffffffc0504079ac <mutex_unlock>:
ffffffc0504079ac:	1101                	addi	sp,sp,-32
ffffffc0504079ae:	ec06                	sd	ra,24(sp)
ffffffc0504079b0:	e822                	sd	s0,16(sp)
ffffffc0504079b2:	1000                	addi	s0,sp,32
ffffffc0504079b4:	87aa                	mv	a5,a0
ffffffc0504079b6:	fef42623          	sw	a5,-20(s0)
ffffffc0504079ba:	fec42703          	lw	a4,-20(s0)
ffffffc0504079be:	87ba                	mv	a5,a4
ffffffc0504079c0:	0786                	slli	a5,a5,0x1
ffffffc0504079c2:	97ba                	add	a5,a5,a4
ffffffc0504079c4:	078e                	slli	a5,a5,0x3
ffffffc0504079c6:	007f9717          	auipc	a4,0x7f9
ffffffc0504079ca:	baa70713          	addi	a4,a4,-1110 # ffffffc050c00570 <binsem_arr>
ffffffc0504079ce:	97ba                	add	a5,a5,a4
ffffffc0504079d0:	853e                	mv	a0,a5
ffffffc0504079d2:	238000ef          	jal	ra,ffffffc050407c0a <do_mutex_lock_release>
ffffffc0504079d6:	4781                	li	a5,0
ffffffc0504079d8:	853e                	mv	a0,a5
ffffffc0504079da:	60e2                	ld	ra,24(sp)
ffffffc0504079dc:	6442                	ld	s0,16(sp)
ffffffc0504079de:	6105                	addi	sp,sp,32
ffffffc0504079e0:	8082                	ret

ffffffc0504079e2 <do_binsem_get>:
ffffffc0504079e2:	7179                	addi	sp,sp,-48
ffffffc0504079e4:	f406                	sd	ra,40(sp)
ffffffc0504079e6:	f022                	sd	s0,32(sp)
ffffffc0504079e8:	1800                	addi	s0,sp,48
ffffffc0504079ea:	87aa                	mv	a5,a0
ffffffc0504079ec:	fcf42e23          	sw	a5,-36(s0)
ffffffc0504079f0:	fe042623          	sw	zero,-20(s0)
ffffffc0504079f4:	a815                	j	ffffffc050407a28 <do_binsem_get+0x46>
ffffffc0504079f6:	007f9697          	auipc	a3,0x7f9
ffffffc0504079fa:	b7a68693          	addi	a3,a3,-1158 # ffffffc050c00570 <binsem_arr>
ffffffc0504079fe:	fec42703          	lw	a4,-20(s0)
ffffffc050407a02:	87ba                	mv	a5,a4
ffffffc050407a04:	0786                	slli	a5,a5,0x1
ffffffc050407a06:	97ba                	add	a5,a5,a4
ffffffc050407a08:	078e                	slli	a5,a5,0x3
ffffffc050407a0a:	97b6                	add	a5,a5,a3
ffffffc050407a0c:	43d8                	lw	a4,4(a5)
ffffffc050407a0e:	fdc42783          	lw	a5,-36(s0)
ffffffc050407a12:	2781                	sext.w	a5,a5
ffffffc050407a14:	00e79563          	bne	a5,a4,ffffffc050407a1e <do_binsem_get+0x3c>
ffffffc050407a18:	fec42783          	lw	a5,-20(s0)
ffffffc050407a1c:	a055                	j	ffffffc050407ac0 <do_binsem_get+0xde>
ffffffc050407a1e:	fec42783          	lw	a5,-20(s0)
ffffffc050407a22:	2785                	addiw	a5,a5,1
ffffffc050407a24:	fef42623          	sw	a5,-20(s0)
ffffffc050407a28:	fec42783          	lw	a5,-20(s0)
ffffffc050407a2c:	0007871b          	sext.w	a4,a5
ffffffc050407a30:	4791                	li	a5,4
ffffffc050407a32:	fce7d2e3          	bge	a5,a4,ffffffc0504079f6 <do_binsem_get+0x14>
ffffffc050407a36:	00023797          	auipc	a5,0x23
ffffffc050407a3a:	e0678793          	addi	a5,a5,-506 # ffffffc05042a83c <binsem_count>
ffffffc050407a3e:	439c                	lw	a5,0(a5)
ffffffc050407a40:	2785                	addiw	a5,a5,1
ffffffc050407a42:	0007871b          	sext.w	a4,a5
ffffffc050407a46:	00023797          	auipc	a5,0x23
ffffffc050407a4a:	df678793          	addi	a5,a5,-522 # ffffffc05042a83c <binsem_count>
ffffffc050407a4e:	c398                	sw	a4,0(a5)
ffffffc050407a50:	00023797          	auipc	a5,0x23
ffffffc050407a54:	dec78793          	addi	a5,a5,-532 # ffffffc05042a83c <binsem_count>
ffffffc050407a58:	4398                	lw	a4,0(a5)
ffffffc050407a5a:	007f9697          	auipc	a3,0x7f9
ffffffc050407a5e:	b1668693          	addi	a3,a3,-1258 # ffffffc050c00570 <binsem_arr>
ffffffc050407a62:	87ba                	mv	a5,a4
ffffffc050407a64:	0786                	slli	a5,a5,0x1
ffffffc050407a66:	97ba                	add	a5,a5,a4
ffffffc050407a68:	078e                	slli	a5,a5,0x3
ffffffc050407a6a:	97b6                	add	a5,a5,a3
ffffffc050407a6c:	fdc42703          	lw	a4,-36(s0)
ffffffc050407a70:	c3d8                	sw	a4,4(a5)
ffffffc050407a72:	00023797          	auipc	a5,0x23
ffffffc050407a76:	dca78793          	addi	a5,a5,-566 # ffffffc05042a83c <binsem_count>
ffffffc050407a7a:	4398                	lw	a4,0(a5)
ffffffc050407a7c:	87ba                	mv	a5,a4
ffffffc050407a7e:	0786                	slli	a5,a5,0x1
ffffffc050407a80:	97ba                	add	a5,a5,a4
ffffffc050407a82:	078e                	slli	a5,a5,0x3
ffffffc050407a84:	007f9717          	auipc	a4,0x7f9
ffffffc050407a88:	aec70713          	addi	a4,a4,-1300 # ffffffc050c00570 <binsem_arr>
ffffffc050407a8c:	97ba                	add	a5,a5,a4
ffffffc050407a8e:	07a1                	addi	a5,a5,8
ffffffc050407a90:	853e                	mv	a0,a5
ffffffc050407a92:	0aa010ef          	jal	ra,ffffffc050408b3c <list_init>
ffffffc050407a96:	00023797          	auipc	a5,0x23
ffffffc050407a9a:	da678793          	addi	a5,a5,-602 # ffffffc05042a83c <binsem_count>
ffffffc050407a9e:	4398                	lw	a4,0(a5)
ffffffc050407aa0:	007f9697          	auipc	a3,0x7f9
ffffffc050407aa4:	ad068693          	addi	a3,a3,-1328 # ffffffc050c00570 <binsem_arr>
ffffffc050407aa8:	87ba                	mv	a5,a4
ffffffc050407aaa:	0786                	slli	a5,a5,0x1
ffffffc050407aac:	97ba                	add	a5,a5,a4
ffffffc050407aae:	078e                	slli	a5,a5,0x3
ffffffc050407ab0:	97b6                	add	a5,a5,a3
ffffffc050407ab2:	0007a023          	sw	zero,0(a5)
ffffffc050407ab6:	00023797          	auipc	a5,0x23
ffffffc050407aba:	d8678793          	addi	a5,a5,-634 # ffffffc05042a83c <binsem_count>
ffffffc050407abe:	439c                	lw	a5,0(a5)
ffffffc050407ac0:	853e                	mv	a0,a5
ffffffc050407ac2:	70a2                	ld	ra,40(sp)
ffffffc050407ac4:	7402                	ld	s0,32(sp)
ffffffc050407ac6:	6145                	addi	sp,sp,48
ffffffc050407ac8:	8082                	ret

ffffffc050407aca <do_binsem_lock>:
ffffffc050407aca:	7179                	addi	sp,sp,-48
ffffffc050407acc:	f406                	sd	ra,40(sp)
ffffffc050407ace:	f022                	sd	s0,32(sp)
ffffffc050407ad0:	1800                	addi	s0,sp,48
ffffffc050407ad2:	87aa                	mv	a5,a0
ffffffc050407ad4:	fcf42e23          	sw	a5,-36(s0)
ffffffc050407ad8:	ff0f80ef          	jal	ra,ffffffc0504002c8 <get_current_cpu_id>
ffffffc050407adc:	87aa                	mv	a5,a0
ffffffc050407ade:	fef43423          	sd	a5,-24(s0)
ffffffc050407ae2:	007f9717          	auipc	a4,0x7f9
ffffffc050407ae6:	b1670713          	addi	a4,a4,-1258 # ffffffc050c005f8 <current_running>
ffffffc050407aea:	fe843783          	ld	a5,-24(s0)
ffffffc050407aee:	078e                	slli	a5,a5,0x3
ffffffc050407af0:	97ba                	add	a5,a5,a4
ffffffc050407af2:	6398                	ld	a4,0(a5)
ffffffc050407af4:	fdc42783          	lw	a5,-36(s0)
ffffffc050407af8:	07d1                	addi	a5,a5,20
ffffffc050407afa:	078a                	slli	a5,a5,0x2
ffffffc050407afc:	97ba                	add	a5,a5,a4
ffffffc050407afe:	4705                	li	a4,1
ffffffc050407b00:	c7d8                	sw	a4,12(a5)
ffffffc050407b02:	fdc42703          	lw	a4,-36(s0)
ffffffc050407b06:	87ba                	mv	a5,a4
ffffffc050407b08:	0786                	slli	a5,a5,0x1
ffffffc050407b0a:	97ba                	add	a5,a5,a4
ffffffc050407b0c:	078e                	slli	a5,a5,0x3
ffffffc050407b0e:	007f9717          	auipc	a4,0x7f9
ffffffc050407b12:	a6270713          	addi	a4,a4,-1438 # ffffffc050c00570 <binsem_arr>
ffffffc050407b16:	97ba                	add	a5,a5,a4
ffffffc050407b18:	853e                	mv	a0,a5
ffffffc050407b1a:	096000ef          	jal	ra,ffffffc050407bb0 <do_mutex_lock_acquire>
ffffffc050407b1e:	4781                	li	a5,0
ffffffc050407b20:	853e                	mv	a0,a5
ffffffc050407b22:	70a2                	ld	ra,40(sp)
ffffffc050407b24:	7402                	ld	s0,32(sp)
ffffffc050407b26:	6145                	addi	sp,sp,48
ffffffc050407b28:	8082                	ret

ffffffc050407b2a <do_binsem_unlock>:
ffffffc050407b2a:	1101                	addi	sp,sp,-32
ffffffc050407b2c:	ec06                	sd	ra,24(sp)
ffffffc050407b2e:	e822                	sd	s0,16(sp)
ffffffc050407b30:	1000                	addi	s0,sp,32
ffffffc050407b32:	87aa                	mv	a5,a0
ffffffc050407b34:	fef42623          	sw	a5,-20(s0)
ffffffc050407b38:	fec42703          	lw	a4,-20(s0)
ffffffc050407b3c:	87ba                	mv	a5,a4
ffffffc050407b3e:	0786                	slli	a5,a5,0x1
ffffffc050407b40:	97ba                	add	a5,a5,a4
ffffffc050407b42:	078e                	slli	a5,a5,0x3
ffffffc050407b44:	007f9717          	auipc	a4,0x7f9
ffffffc050407b48:	a2c70713          	addi	a4,a4,-1492 # ffffffc050c00570 <binsem_arr>
ffffffc050407b4c:	97ba                	add	a5,a5,a4
ffffffc050407b4e:	853e                	mv	a0,a5
ffffffc050407b50:	0ba000ef          	jal	ra,ffffffc050407c0a <do_mutex_lock_release>
ffffffc050407b54:	4781                	li	a5,0
ffffffc050407b56:	853e                	mv	a0,a5
ffffffc050407b58:	60e2                	ld	ra,24(sp)
ffffffc050407b5a:	6442                	ld	s0,16(sp)
ffffffc050407b5c:	6105                	addi	sp,sp,32
ffffffc050407b5e:	8082                	ret

ffffffc050407b60 <do_mutex_lock_init>:
ffffffc050407b60:	1101                	addi	sp,sp,-32
ffffffc050407b62:	ec06                	sd	ra,24(sp)
ffffffc050407b64:	e822                	sd	s0,16(sp)
ffffffc050407b66:	1000                	addi	s0,sp,32
ffffffc050407b68:	87aa                	mv	a5,a0
ffffffc050407b6a:	fef42623          	sw	a5,-20(s0)
ffffffc050407b6e:	fec42703          	lw	a4,-20(s0)
ffffffc050407b72:	87ba                	mv	a5,a4
ffffffc050407b74:	0786                	slli	a5,a5,0x1
ffffffc050407b76:	97ba                	add	a5,a5,a4
ffffffc050407b78:	078e                	slli	a5,a5,0x3
ffffffc050407b7a:	007f9717          	auipc	a4,0x7f9
ffffffc050407b7e:	97e70713          	addi	a4,a4,-1666 # ffffffc050c004f8 <mutex_arr>
ffffffc050407b82:	97ba                	add	a5,a5,a4
ffffffc050407b84:	07a1                	addi	a5,a5,8
ffffffc050407b86:	853e                	mv	a0,a5
ffffffc050407b88:	7b5000ef          	jal	ra,ffffffc050408b3c <list_init>
ffffffc050407b8c:	007f9697          	auipc	a3,0x7f9
ffffffc050407b90:	96c68693          	addi	a3,a3,-1684 # ffffffc050c004f8 <mutex_arr>
ffffffc050407b94:	fec42703          	lw	a4,-20(s0)
ffffffc050407b98:	87ba                	mv	a5,a4
ffffffc050407b9a:	0786                	slli	a5,a5,0x1
ffffffc050407b9c:	97ba                	add	a5,a5,a4
ffffffc050407b9e:	078e                	slli	a5,a5,0x3
ffffffc050407ba0:	97b6                	add	a5,a5,a3
ffffffc050407ba2:	0007a023          	sw	zero,0(a5)
ffffffc050407ba6:	0001                	nop
ffffffc050407ba8:	60e2                	ld	ra,24(sp)
ffffffc050407baa:	6442                	ld	s0,16(sp)
ffffffc050407bac:	6105                	addi	sp,sp,32
ffffffc050407bae:	8082                	ret

ffffffc050407bb0 <do_mutex_lock_acquire>:
ffffffc050407bb0:	7179                	addi	sp,sp,-48
ffffffc050407bb2:	f406                	sd	ra,40(sp)
ffffffc050407bb4:	f022                	sd	s0,32(sp)
ffffffc050407bb6:	1800                	addi	s0,sp,48
ffffffc050407bb8:	fca43c23          	sd	a0,-40(s0)
ffffffc050407bbc:	f0cf80ef          	jal	ra,ffffffc0504002c8 <get_current_cpu_id>
ffffffc050407bc0:	87aa                	mv	a5,a0
ffffffc050407bc2:	fef43423          	sd	a5,-24(s0)
ffffffc050407bc6:	fd843783          	ld	a5,-40(s0)
ffffffc050407bca:	439c                	lw	a5,0(a5)
ffffffc050407bcc:	2781                	sext.w	a5,a5
ffffffc050407bce:	873e                	mv	a4,a5
ffffffc050407bd0:	4785                	li	a5,1
ffffffc050407bd2:	02f71363          	bne	a4,a5,ffffffc050407bf8 <do_mutex_lock_acquire+0x48>
ffffffc050407bd6:	007f9717          	auipc	a4,0x7f9
ffffffc050407bda:	a2270713          	addi	a4,a4,-1502 # ffffffc050c005f8 <current_running>
ffffffc050407bde:	fe843783          	ld	a5,-24(s0)
ffffffc050407be2:	078e                	slli	a5,a5,0x3
ffffffc050407be4:	97ba                	add	a5,a5,a4
ffffffc050407be6:	6398                	ld	a4,0(a5)
ffffffc050407be8:	fd843783          	ld	a5,-40(s0)
ffffffc050407bec:	07a1                	addi	a5,a5,8
ffffffc050407bee:	85be                	mv	a1,a5
ffffffc050407bf0:	853a                	mv	a0,a4
ffffffc050407bf2:	6c6010ef          	jal	ra,ffffffc0504092b8 <do_block>
ffffffc050407bf6:	a029                	j	ffffffc050407c00 <do_mutex_lock_acquire+0x50>
ffffffc050407bf8:	fd843783          	ld	a5,-40(s0)
ffffffc050407bfc:	4705                	li	a4,1
ffffffc050407bfe:	c398                	sw	a4,0(a5)
ffffffc050407c00:	0001                	nop
ffffffc050407c02:	70a2                	ld	ra,40(sp)
ffffffc050407c04:	7402                	ld	s0,32(sp)
ffffffc050407c06:	6145                	addi	sp,sp,48
ffffffc050407c08:	8082                	ret

ffffffc050407c0a <do_mutex_lock_release>:
ffffffc050407c0a:	1101                	addi	sp,sp,-32
ffffffc050407c0c:	ec06                	sd	ra,24(sp)
ffffffc050407c0e:	e822                	sd	s0,16(sp)
ffffffc050407c10:	1000                	addi	s0,sp,32
ffffffc050407c12:	fea43423          	sd	a0,-24(s0)
ffffffc050407c16:	fe843783          	ld	a5,-24(s0)
ffffffc050407c1a:	6b98                	ld	a4,16(a5)
ffffffc050407c1c:	fe843783          	ld	a5,-24(s0)
ffffffc050407c20:	07a1                	addi	a5,a5,8
ffffffc050407c22:	00f71763          	bne	a4,a5,ffffffc050407c30 <do_mutex_lock_release+0x26>
ffffffc050407c26:	fe843783          	ld	a5,-24(s0)
ffffffc050407c2a:	0007a023          	sw	zero,0(a5)
ffffffc050407c2e:	a819                	j	ffffffc050407c44 <do_mutex_lock_release+0x3a>
ffffffc050407c30:	fe843783          	ld	a5,-24(s0)
ffffffc050407c34:	6b9c                	ld	a5,16(a5)
ffffffc050407c36:	853e                	mv	a0,a5
ffffffc050407c38:	6f0010ef          	jal	ra,ffffffc050409328 <do_unblock>
ffffffc050407c3c:	fe843783          	ld	a5,-24(s0)
ffffffc050407c40:	4705                	li	a4,1
ffffffc050407c42:	c398                	sw	a4,0(a5)
ffffffc050407c44:	0001                	nop
ffffffc050407c46:	60e2                	ld	ra,24(sp)
ffffffc050407c48:	6442                	ld	s0,16(sp)
ffffffc050407c4a:	6105                	addi	sp,sp,32
ffffffc050407c4c:	8082                	ret

ffffffc050407c4e <barrier_get>:
ffffffc050407c4e:	1101                	addi	sp,sp,-32
ffffffc050407c50:	ec06                	sd	ra,24(sp)
ffffffc050407c52:	e822                	sd	s0,16(sp)
ffffffc050407c54:	1000                	addi	s0,sp,32
ffffffc050407c56:	87aa                	mv	a5,a0
ffffffc050407c58:	fef42623          	sw	a5,-20(s0)
ffffffc050407c5c:	00023797          	auipc	a5,0x23
ffffffc050407c60:	be478793          	addi	a5,a5,-1052 # ffffffc05042a840 <barrier_count>
ffffffc050407c64:	439c                	lw	a5,0(a5)
ffffffc050407c66:	2785                	addiw	a5,a5,1
ffffffc050407c68:	0007871b          	sext.w	a4,a5
ffffffc050407c6c:	00023797          	auipc	a5,0x23
ffffffc050407c70:	bd478793          	addi	a5,a5,-1068 # ffffffc05042a840 <barrier_count>
ffffffc050407c74:	c398                	sw	a4,0(a5)
ffffffc050407c76:	00023797          	auipc	a5,0x23
ffffffc050407c7a:	bca78793          	addi	a5,a5,-1078 # ffffffc05042a840 <barrier_count>
ffffffc050407c7e:	4398                	lw	a4,0(a5)
ffffffc050407c80:	87ba                	mv	a5,a4
ffffffc050407c82:	0786                	slli	a5,a5,0x1
ffffffc050407c84:	97ba                	add	a5,a5,a4
ffffffc050407c86:	078e                	slli	a5,a5,0x3
ffffffc050407c88:	007f8717          	auipc	a4,0x7f8
ffffffc050407c8c:	50070713          	addi	a4,a4,1280 # ffffffc050c00188 <barrier_arr>
ffffffc050407c90:	97ba                	add	a5,a5,a4
ffffffc050407c92:	853e                	mv	a0,a5
ffffffc050407c94:	6a9000ef          	jal	ra,ffffffc050408b3c <list_init>
ffffffc050407c98:	00023797          	auipc	a5,0x23
ffffffc050407c9c:	ba878793          	addi	a5,a5,-1112 # ffffffc05042a840 <barrier_count>
ffffffc050407ca0:	4398                	lw	a4,0(a5)
ffffffc050407ca2:	007f8697          	auipc	a3,0x7f8
ffffffc050407ca6:	4e668693          	addi	a3,a3,1254 # ffffffc050c00188 <barrier_arr>
ffffffc050407caa:	87ba                	mv	a5,a4
ffffffc050407cac:	0786                	slli	a5,a5,0x1
ffffffc050407cae:	97ba                	add	a5,a5,a4
ffffffc050407cb0:	078e                	slli	a5,a5,0x3
ffffffc050407cb2:	97b6                	add	a5,a5,a3
ffffffc050407cb4:	fec42703          	lw	a4,-20(s0)
ffffffc050407cb8:	cbd8                	sw	a4,20(a5)
ffffffc050407cba:	00023797          	auipc	a5,0x23
ffffffc050407cbe:	b8678793          	addi	a5,a5,-1146 # ffffffc05042a840 <barrier_count>
ffffffc050407cc2:	4398                	lw	a4,0(a5)
ffffffc050407cc4:	007f8697          	auipc	a3,0x7f8
ffffffc050407cc8:	4c468693          	addi	a3,a3,1220 # ffffffc050c00188 <barrier_arr>
ffffffc050407ccc:	87ba                	mv	a5,a4
ffffffc050407cce:	0786                	slli	a5,a5,0x1
ffffffc050407cd0:	97ba                	add	a5,a5,a4
ffffffc050407cd2:	078e                	slli	a5,a5,0x3
ffffffc050407cd4:	97b6                	add	a5,a5,a3
ffffffc050407cd6:	0007a823          	sw	zero,16(a5)
ffffffc050407cda:	00023797          	auipc	a5,0x23
ffffffc050407cde:	b6678793          	addi	a5,a5,-1178 # ffffffc05042a840 <barrier_count>
ffffffc050407ce2:	439c                	lw	a5,0(a5)
ffffffc050407ce4:	853e                	mv	a0,a5
ffffffc050407ce6:	60e2                	ld	ra,24(sp)
ffffffc050407ce8:	6442                	ld	s0,16(sp)
ffffffc050407cea:	6105                	addi	sp,sp,32
ffffffc050407cec:	8082                	ret

ffffffc050407cee <barrier_wait>:
ffffffc050407cee:	7179                	addi	sp,sp,-48
ffffffc050407cf0:	f406                	sd	ra,40(sp)
ffffffc050407cf2:	f022                	sd	s0,32(sp)
ffffffc050407cf4:	1800                	addi	s0,sp,48
ffffffc050407cf6:	87aa                	mv	a5,a0
ffffffc050407cf8:	fcf42e23          	sw	a5,-36(s0)
ffffffc050407cfc:	dccf80ef          	jal	ra,ffffffc0504002c8 <get_current_cpu_id>
ffffffc050407d00:	87aa                	mv	a5,a0
ffffffc050407d02:	fef43423          	sd	a5,-24(s0)
ffffffc050407d06:	007f8697          	auipc	a3,0x7f8
ffffffc050407d0a:	48268693          	addi	a3,a3,1154 # ffffffc050c00188 <barrier_arr>
ffffffc050407d0e:	fdc42703          	lw	a4,-36(s0)
ffffffc050407d12:	87ba                	mv	a5,a4
ffffffc050407d14:	0786                	slli	a5,a5,0x1
ffffffc050407d16:	97ba                	add	a5,a5,a4
ffffffc050407d18:	078e                	slli	a5,a5,0x3
ffffffc050407d1a:	97b6                	add	a5,a5,a3
ffffffc050407d1c:	4b9c                	lw	a5,16(a5)
ffffffc050407d1e:	2785                	addiw	a5,a5,1
ffffffc050407d20:	0007869b          	sext.w	a3,a5
ffffffc050407d24:	007f8617          	auipc	a2,0x7f8
ffffffc050407d28:	46460613          	addi	a2,a2,1124 # ffffffc050c00188 <barrier_arr>
ffffffc050407d2c:	fdc42703          	lw	a4,-36(s0)
ffffffc050407d30:	87ba                	mv	a5,a4
ffffffc050407d32:	0786                	slli	a5,a5,0x1
ffffffc050407d34:	97ba                	add	a5,a5,a4
ffffffc050407d36:	078e                	slli	a5,a5,0x3
ffffffc050407d38:	97b2                	add	a5,a5,a2
ffffffc050407d3a:	cb94                	sw	a3,16(a5)
ffffffc050407d3c:	007f8697          	auipc	a3,0x7f8
ffffffc050407d40:	44c68693          	addi	a3,a3,1100 # ffffffc050c00188 <barrier_arr>
ffffffc050407d44:	fdc42703          	lw	a4,-36(s0)
ffffffc050407d48:	87ba                	mv	a5,a4
ffffffc050407d4a:	0786                	slli	a5,a5,0x1
ffffffc050407d4c:	97ba                	add	a5,a5,a4
ffffffc050407d4e:	078e                	slli	a5,a5,0x3
ffffffc050407d50:	97b6                	add	a5,a5,a3
ffffffc050407d52:	4b90                	lw	a2,16(a5)
ffffffc050407d54:	007f8697          	auipc	a3,0x7f8
ffffffc050407d58:	43468693          	addi	a3,a3,1076 # ffffffc050c00188 <barrier_arr>
ffffffc050407d5c:	fdc42703          	lw	a4,-36(s0)
ffffffc050407d60:	87ba                	mv	a5,a4
ffffffc050407d62:	0786                	slli	a5,a5,0x1
ffffffc050407d64:	97ba                	add	a5,a5,a4
ffffffc050407d66:	078e                	slli	a5,a5,0x3
ffffffc050407d68:	97b6                	add	a5,a5,a3
ffffffc050407d6a:	4bdc                	lw	a5,20(a5)
ffffffc050407d6c:	8732                	mv	a4,a2
ffffffc050407d6e:	02f71e63          	bne	a4,a5,ffffffc050407daa <barrier_wait+0xbc>
ffffffc050407d72:	007f8697          	auipc	a3,0x7f8
ffffffc050407d76:	41668693          	addi	a3,a3,1046 # ffffffc050c00188 <barrier_arr>
ffffffc050407d7a:	fdc42703          	lw	a4,-36(s0)
ffffffc050407d7e:	87ba                	mv	a5,a4
ffffffc050407d80:	0786                	slli	a5,a5,0x1
ffffffc050407d82:	97ba                	add	a5,a5,a4
ffffffc050407d84:	078e                	slli	a5,a5,0x3
ffffffc050407d86:	97b6                	add	a5,a5,a3
ffffffc050407d88:	0007a823          	sw	zero,16(a5)
ffffffc050407d8c:	fdc42703          	lw	a4,-36(s0)
ffffffc050407d90:	87ba                	mv	a5,a4
ffffffc050407d92:	0786                	slli	a5,a5,0x1
ffffffc050407d94:	97ba                	add	a5,a5,a4
ffffffc050407d96:	078e                	slli	a5,a5,0x3
ffffffc050407d98:	007f8717          	auipc	a4,0x7f8
ffffffc050407d9c:	3f070713          	addi	a4,a4,1008 # ffffffc050c00188 <barrier_arr>
ffffffc050407da0:	97ba                	add	a5,a5,a4
ffffffc050407da2:	853e                	mv	a0,a5
ffffffc050407da4:	2eb010ef          	jal	ra,ffffffc05040988e <release_queue>
ffffffc050407da8:	a80d                	j	ffffffc050407dda <barrier_wait+0xec>
ffffffc050407daa:	007f9717          	auipc	a4,0x7f9
ffffffc050407dae:	84e70713          	addi	a4,a4,-1970 # ffffffc050c005f8 <current_running>
ffffffc050407db2:	fe843783          	ld	a5,-24(s0)
ffffffc050407db6:	078e                	slli	a5,a5,0x3
ffffffc050407db8:	97ba                	add	a5,a5,a4
ffffffc050407dba:	6394                	ld	a3,0(a5)
ffffffc050407dbc:	fdc42703          	lw	a4,-36(s0)
ffffffc050407dc0:	87ba                	mv	a5,a4
ffffffc050407dc2:	0786                	slli	a5,a5,0x1
ffffffc050407dc4:	97ba                	add	a5,a5,a4
ffffffc050407dc6:	078e                	slli	a5,a5,0x3
ffffffc050407dc8:	007f8717          	auipc	a4,0x7f8
ffffffc050407dcc:	3c070713          	addi	a4,a4,960 # ffffffc050c00188 <barrier_arr>
ffffffc050407dd0:	97ba                	add	a5,a5,a4
ffffffc050407dd2:	85be                	mv	a1,a5
ffffffc050407dd4:	8536                	mv	a0,a3
ffffffc050407dd6:	4e2010ef          	jal	ra,ffffffc0504092b8 <do_block>
ffffffc050407dda:	4781                	li	a5,0
ffffffc050407ddc:	853e                	mv	a0,a5
ffffffc050407dde:	70a2                	ld	ra,40(sp)
ffffffc050407de0:	7402                	ld	s0,32(sp)
ffffffc050407de2:	6145                	addi	sp,sp,48
ffffffc050407de4:	8082                	ret

ffffffc050407de6 <barrier_destroy>:
ffffffc050407de6:	1101                	addi	sp,sp,-32
ffffffc050407de8:	ec06                	sd	ra,24(sp)
ffffffc050407dea:	e822                	sd	s0,16(sp)
ffffffc050407dec:	1000                	addi	s0,sp,32
ffffffc050407dee:	87aa                	mv	a5,a0
ffffffc050407df0:	fef42623          	sw	a5,-20(s0)
ffffffc050407df4:	007f8697          	auipc	a3,0x7f8
ffffffc050407df8:	39468693          	addi	a3,a3,916 # ffffffc050c00188 <barrier_arr>
ffffffc050407dfc:	fec42703          	lw	a4,-20(s0)
ffffffc050407e00:	87ba                	mv	a5,a4
ffffffc050407e02:	0786                	slli	a5,a5,0x1
ffffffc050407e04:	97ba                	add	a5,a5,a4
ffffffc050407e06:	078e                	slli	a5,a5,0x3
ffffffc050407e08:	97b6                	add	a5,a5,a3
ffffffc050407e0a:	0007a823          	sw	zero,16(a5)
ffffffc050407e0e:	007f8697          	auipc	a3,0x7f8
ffffffc050407e12:	37a68693          	addi	a3,a3,890 # ffffffc050c00188 <barrier_arr>
ffffffc050407e16:	fec42703          	lw	a4,-20(s0)
ffffffc050407e1a:	87ba                	mv	a5,a4
ffffffc050407e1c:	0786                	slli	a5,a5,0x1
ffffffc050407e1e:	97ba                	add	a5,a5,a4
ffffffc050407e20:	078e                	slli	a5,a5,0x3
ffffffc050407e22:	97b6                	add	a5,a5,a3
ffffffc050407e24:	0007aa23          	sw	zero,20(a5)
ffffffc050407e28:	fec42703          	lw	a4,-20(s0)
ffffffc050407e2c:	87ba                	mv	a5,a4
ffffffc050407e2e:	0786                	slli	a5,a5,0x1
ffffffc050407e30:	97ba                	add	a5,a5,a4
ffffffc050407e32:	078e                	slli	a5,a5,0x3
ffffffc050407e34:	007f8717          	auipc	a4,0x7f8
ffffffc050407e38:	35470713          	addi	a4,a4,852 # ffffffc050c00188 <barrier_arr>
ffffffc050407e3c:	97ba                	add	a5,a5,a4
ffffffc050407e3e:	853e                	mv	a0,a5
ffffffc050407e40:	24f010ef          	jal	ra,ffffffc05040988e <release_queue>
ffffffc050407e44:	4781                	li	a5,0
ffffffc050407e46:	853e                	mv	a0,a5
ffffffc050407e48:	60e2                	ld	ra,24(sp)
ffffffc050407e4a:	6442                	ld	s0,16(sp)
ffffffc050407e4c:	6105                	addi	sp,sp,32
ffffffc050407e4e:	8082                	ret

ffffffc050407e50 <semaphore_init>:
ffffffc050407e50:	1101                	addi	sp,sp,-32
ffffffc050407e52:	ec06                	sd	ra,24(sp)
ffffffc050407e54:	e822                	sd	s0,16(sp)
ffffffc050407e56:	1000                	addi	s0,sp,32
ffffffc050407e58:	87aa                	mv	a5,a0
ffffffc050407e5a:	fef42623          	sw	a5,-20(s0)
ffffffc050407e5e:	00023797          	auipc	a5,0x23
ffffffc050407e62:	9e678793          	addi	a5,a5,-1562 # ffffffc05042a844 <semaphore_count>
ffffffc050407e66:	439c                	lw	a5,0(a5)
ffffffc050407e68:	2785                	addiw	a5,a5,1
ffffffc050407e6a:	0007871b          	sext.w	a4,a5
ffffffc050407e6e:	00023797          	auipc	a5,0x23
ffffffc050407e72:	9d678793          	addi	a5,a5,-1578 # ffffffc05042a844 <semaphore_count>
ffffffc050407e76:	c398                	sw	a4,0(a5)
ffffffc050407e78:	00023797          	auipc	a5,0x23
ffffffc050407e7c:	9cc78793          	addi	a5,a5,-1588 # ffffffc05042a844 <semaphore_count>
ffffffc050407e80:	4398                	lw	a4,0(a5)
ffffffc050407e82:	87ba                	mv	a5,a4
ffffffc050407e84:	0786                	slli	a5,a5,0x1
ffffffc050407e86:	97ba                	add	a5,a5,a4
ffffffc050407e88:	078e                	slli	a5,a5,0x3
ffffffc050407e8a:	007f8717          	auipc	a4,0x7f8
ffffffc050407e8e:	37670713          	addi	a4,a4,886 # ffffffc050c00200 <semaphore_arr>
ffffffc050407e92:	97ba                	add	a5,a5,a4
ffffffc050407e94:	853e                	mv	a0,a5
ffffffc050407e96:	4a7000ef          	jal	ra,ffffffc050408b3c <list_init>
ffffffc050407e9a:	00023797          	auipc	a5,0x23
ffffffc050407e9e:	9aa78793          	addi	a5,a5,-1622 # ffffffc05042a844 <semaphore_count>
ffffffc050407ea2:	4398                	lw	a4,0(a5)
ffffffc050407ea4:	007f8697          	auipc	a3,0x7f8
ffffffc050407ea8:	35c68693          	addi	a3,a3,860 # ffffffc050c00200 <semaphore_arr>
ffffffc050407eac:	87ba                	mv	a5,a4
ffffffc050407eae:	0786                	slli	a5,a5,0x1
ffffffc050407eb0:	97ba                	add	a5,a5,a4
ffffffc050407eb2:	078e                	slli	a5,a5,0x3
ffffffc050407eb4:	97b6                	add	a5,a5,a3
ffffffc050407eb6:	fec42703          	lw	a4,-20(s0)
ffffffc050407eba:	cb98                	sw	a4,16(a5)
ffffffc050407ebc:	00023797          	auipc	a5,0x23
ffffffc050407ec0:	98878793          	addi	a5,a5,-1656 # ffffffc05042a844 <semaphore_count>
ffffffc050407ec4:	439c                	lw	a5,0(a5)
ffffffc050407ec6:	853e                	mv	a0,a5
ffffffc050407ec8:	60e2                	ld	ra,24(sp)
ffffffc050407eca:	6442                	ld	s0,16(sp)
ffffffc050407ecc:	6105                	addi	sp,sp,32
ffffffc050407ece:	8082                	ret

ffffffc050407ed0 <semaphore_up>:
ffffffc050407ed0:	7179                	addi	sp,sp,-48
ffffffc050407ed2:	f406                	sd	ra,40(sp)
ffffffc050407ed4:	f022                	sd	s0,32(sp)
ffffffc050407ed6:	1800                	addi	s0,sp,48
ffffffc050407ed8:	87aa                	mv	a5,a0
ffffffc050407eda:	fcf42e23          	sw	a5,-36(s0)
ffffffc050407ede:	beaf80ef          	jal	ra,ffffffc0504002c8 <get_current_cpu_id>
ffffffc050407ee2:	87aa                	mv	a5,a0
ffffffc050407ee4:	fef43423          	sd	a5,-24(s0)
ffffffc050407ee8:	007f8697          	auipc	a3,0x7f8
ffffffc050407eec:	31868693          	addi	a3,a3,792 # ffffffc050c00200 <semaphore_arr>
ffffffc050407ef0:	fdc42703          	lw	a4,-36(s0)
ffffffc050407ef4:	87ba                	mv	a5,a4
ffffffc050407ef6:	0786                	slli	a5,a5,0x1
ffffffc050407ef8:	97ba                	add	a5,a5,a4
ffffffc050407efa:	078e                	slli	a5,a5,0x3
ffffffc050407efc:	97b6                	add	a5,a5,a3
ffffffc050407efe:	4b9c                	lw	a5,16(a5)
ffffffc050407f00:	02f05f63          	blez	a5,ffffffc050407f3e <semaphore_up+0x6e>
ffffffc050407f04:	007f8697          	auipc	a3,0x7f8
ffffffc050407f08:	2fc68693          	addi	a3,a3,764 # ffffffc050c00200 <semaphore_arr>
ffffffc050407f0c:	fdc42703          	lw	a4,-36(s0)
ffffffc050407f10:	87ba                	mv	a5,a4
ffffffc050407f12:	0786                	slli	a5,a5,0x1
ffffffc050407f14:	97ba                	add	a5,a5,a4
ffffffc050407f16:	078e                	slli	a5,a5,0x3
ffffffc050407f18:	97b6                	add	a5,a5,a3
ffffffc050407f1a:	4b9c                	lw	a5,16(a5)
ffffffc050407f1c:	37fd                	addiw	a5,a5,-1
ffffffc050407f1e:	0007869b          	sext.w	a3,a5
ffffffc050407f22:	007f8617          	auipc	a2,0x7f8
ffffffc050407f26:	2de60613          	addi	a2,a2,734 # ffffffc050c00200 <semaphore_arr>
ffffffc050407f2a:	fdc42703          	lw	a4,-36(s0)
ffffffc050407f2e:	87ba                	mv	a5,a4
ffffffc050407f30:	0786                	slli	a5,a5,0x1
ffffffc050407f32:	97ba                	add	a5,a5,a4
ffffffc050407f34:	078e                	slli	a5,a5,0x3
ffffffc050407f36:	97b2                	add	a5,a5,a2
ffffffc050407f38:	cb94                	sw	a3,16(a5)
ffffffc050407f3a:	4785                	li	a5,1
ffffffc050407f3c:	a0b9                	j	ffffffc050407f8a <semaphore_up+0xba>
ffffffc050407f3e:	007f8697          	auipc	a3,0x7f8
ffffffc050407f42:	2c268693          	addi	a3,a3,706 # ffffffc050c00200 <semaphore_arr>
ffffffc050407f46:	fdc42703          	lw	a4,-36(s0)
ffffffc050407f4a:	87ba                	mv	a5,a4
ffffffc050407f4c:	0786                	slli	a5,a5,0x1
ffffffc050407f4e:	97ba                	add	a5,a5,a4
ffffffc050407f50:	078e                	slli	a5,a5,0x3
ffffffc050407f52:	97b6                	add	a5,a5,a3
ffffffc050407f54:	4b9c                	lw	a5,16(a5)
ffffffc050407f56:	eb8d                	bnez	a5,ffffffc050407f88 <semaphore_up+0xb8>
ffffffc050407f58:	007f8717          	auipc	a4,0x7f8
ffffffc050407f5c:	6a070713          	addi	a4,a4,1696 # ffffffc050c005f8 <current_running>
ffffffc050407f60:	fe843783          	ld	a5,-24(s0)
ffffffc050407f64:	078e                	slli	a5,a5,0x3
ffffffc050407f66:	97ba                	add	a5,a5,a4
ffffffc050407f68:	6394                	ld	a3,0(a5)
ffffffc050407f6a:	fdc42703          	lw	a4,-36(s0)
ffffffc050407f6e:	87ba                	mv	a5,a4
ffffffc050407f70:	0786                	slli	a5,a5,0x1
ffffffc050407f72:	97ba                	add	a5,a5,a4
ffffffc050407f74:	078e                	slli	a5,a5,0x3
ffffffc050407f76:	007f8717          	auipc	a4,0x7f8
ffffffc050407f7a:	28a70713          	addi	a4,a4,650 # ffffffc050c00200 <semaphore_arr>
ffffffc050407f7e:	97ba                	add	a5,a5,a4
ffffffc050407f80:	85be                	mv	a1,a5
ffffffc050407f82:	8536                	mv	a0,a3
ffffffc050407f84:	334010ef          	jal	ra,ffffffc0504092b8 <do_block>
ffffffc050407f88:	4781                	li	a5,0
ffffffc050407f8a:	853e                	mv	a0,a5
ffffffc050407f8c:	70a2                	ld	ra,40(sp)
ffffffc050407f8e:	7402                	ld	s0,32(sp)
ffffffc050407f90:	6145                	addi	sp,sp,48
ffffffc050407f92:	8082                	ret

ffffffc050407f94 <semaphore_down>:
ffffffc050407f94:	7179                	addi	sp,sp,-48
ffffffc050407f96:	f406                	sd	ra,40(sp)
ffffffc050407f98:	f022                	sd	s0,32(sp)
ffffffc050407f9a:	1800                	addi	s0,sp,48
ffffffc050407f9c:	87aa                	mv	a5,a0
ffffffc050407f9e:	fcf42e23          	sw	a5,-36(s0)
ffffffc050407fa2:	007f8697          	auipc	a3,0x7f8
ffffffc050407fa6:	25e68693          	addi	a3,a3,606 # ffffffc050c00200 <semaphore_arr>
ffffffc050407faa:	fdc42703          	lw	a4,-36(s0)
ffffffc050407fae:	87ba                	mv	a5,a4
ffffffc050407fb0:	0786                	slli	a5,a5,0x1
ffffffc050407fb2:	97ba                	add	a5,a5,a4
ffffffc050407fb4:	078e                	slli	a5,a5,0x3
ffffffc050407fb6:	97b6                	add	a5,a5,a3
ffffffc050407fb8:	679c                	ld	a5,8(a5)
ffffffc050407fba:	fef43423          	sd	a5,-24(s0)
ffffffc050407fbe:	fdc42703          	lw	a4,-36(s0)
ffffffc050407fc2:	87ba                	mv	a5,a4
ffffffc050407fc4:	0786                	slli	a5,a5,0x1
ffffffc050407fc6:	97ba                	add	a5,a5,a4
ffffffc050407fc8:	078e                	slli	a5,a5,0x3
ffffffc050407fca:	007f8717          	auipc	a4,0x7f8
ffffffc050407fce:	23670713          	addi	a4,a4,566 # ffffffc050c00200 <semaphore_arr>
ffffffc050407fd2:	97ba                	add	a5,a5,a4
ffffffc050407fd4:	fe843703          	ld	a4,-24(s0)
ffffffc050407fd8:	00f70d63          	beq	a4,a5,ffffffc050407ff2 <semaphore_down+0x5e>
ffffffc050407fdc:	fe843783          	ld	a5,-24(s0)
ffffffc050407fe0:	17a1                	addi	a5,a5,-24
ffffffc050407fe2:	fef43023          	sd	a5,-32(s0)
ffffffc050407fe6:	fe843503          	ld	a0,-24(s0)
ffffffc050407fea:	33e010ef          	jal	ra,ffffffc050409328 <do_unblock>
ffffffc050407fee:	4781                	li	a5,0
ffffffc050407ff0:	a82d                	j	ffffffc05040802a <semaphore_down+0x96>
ffffffc050407ff2:	007f8697          	auipc	a3,0x7f8
ffffffc050407ff6:	20e68693          	addi	a3,a3,526 # ffffffc050c00200 <semaphore_arr>
ffffffc050407ffa:	fdc42703          	lw	a4,-36(s0)
ffffffc050407ffe:	87ba                	mv	a5,a4
ffffffc050408000:	0786                	slli	a5,a5,0x1
ffffffc050408002:	97ba                	add	a5,a5,a4
ffffffc050408004:	078e                	slli	a5,a5,0x3
ffffffc050408006:	97b6                	add	a5,a5,a3
ffffffc050408008:	4b9c                	lw	a5,16(a5)
ffffffc05040800a:	2785                	addiw	a5,a5,1
ffffffc05040800c:	0007869b          	sext.w	a3,a5
ffffffc050408010:	007f8617          	auipc	a2,0x7f8
ffffffc050408014:	1f060613          	addi	a2,a2,496 # ffffffc050c00200 <semaphore_arr>
ffffffc050408018:	fdc42703          	lw	a4,-36(s0)
ffffffc05040801c:	87ba                	mv	a5,a4
ffffffc05040801e:	0786                	slli	a5,a5,0x1
ffffffc050408020:	97ba                	add	a5,a5,a4
ffffffc050408022:	078e                	slli	a5,a5,0x3
ffffffc050408024:	97b2                	add	a5,a5,a2
ffffffc050408026:	cb94                	sw	a3,16(a5)
ffffffc050408028:	4781                	li	a5,0
ffffffc05040802a:	853e                	mv	a0,a5
ffffffc05040802c:	70a2                	ld	ra,40(sp)
ffffffc05040802e:	7402                	ld	s0,32(sp)
ffffffc050408030:	6145                	addi	sp,sp,48
ffffffc050408032:	8082                	ret

ffffffc050408034 <semaphore_destroy>:
ffffffc050408034:	1101                	addi	sp,sp,-32
ffffffc050408036:	ec06                	sd	ra,24(sp)
ffffffc050408038:	e822                	sd	s0,16(sp)
ffffffc05040803a:	1000                	addi	s0,sp,32
ffffffc05040803c:	87aa                	mv	a5,a0
ffffffc05040803e:	fef42623          	sw	a5,-20(s0)
ffffffc050408042:	007f8697          	auipc	a3,0x7f8
ffffffc050408046:	1be68693          	addi	a3,a3,446 # ffffffc050c00200 <semaphore_arr>
ffffffc05040804a:	fec42703          	lw	a4,-20(s0)
ffffffc05040804e:	87ba                	mv	a5,a4
ffffffc050408050:	0786                	slli	a5,a5,0x1
ffffffc050408052:	97ba                	add	a5,a5,a4
ffffffc050408054:	078e                	slli	a5,a5,0x3
ffffffc050408056:	97b6                	add	a5,a5,a3
ffffffc050408058:	0007a823          	sw	zero,16(a5)
ffffffc05040805c:	fec42703          	lw	a4,-20(s0)
ffffffc050408060:	87ba                	mv	a5,a4
ffffffc050408062:	0786                	slli	a5,a5,0x1
ffffffc050408064:	97ba                	add	a5,a5,a4
ffffffc050408066:	078e                	slli	a5,a5,0x3
ffffffc050408068:	007f8717          	auipc	a4,0x7f8
ffffffc05040806c:	19870713          	addi	a4,a4,408 # ffffffc050c00200 <semaphore_arr>
ffffffc050408070:	97ba                	add	a5,a5,a4
ffffffc050408072:	853e                	mv	a0,a5
ffffffc050408074:	01b010ef          	jal	ra,ffffffc05040988e <release_queue>
ffffffc050408078:	4781                	li	a5,0
ffffffc05040807a:	853e                	mv	a0,a5
ffffffc05040807c:	60e2                	ld	ra,24(sp)
ffffffc05040807e:	6442                	ld	s0,16(sp)
ffffffc050408080:	6105                	addi	sp,sp,32
ffffffc050408082:	8082                	ret

ffffffc050408084 <kernel_mbox_open>:
ffffffc050408084:	7179                	addi	sp,sp,-48
ffffffc050408086:	f406                	sd	ra,40(sp)
ffffffc050408088:	f022                	sd	s0,32(sp)
ffffffc05040808a:	1800                	addi	s0,sp,48
ffffffc05040808c:	fca43c23          	sd	a0,-40(s0)
ffffffc050408090:	fe042623          	sw	zero,-20(s0)
ffffffc050408094:	fe042623          	sw	zero,-20(s0)
ffffffc050408098:	a03d                	j	ffffffc0504080c6 <kernel_mbox_open+0x42>
ffffffc05040809a:	fec42783          	lw	a5,-20(s0)
ffffffc05040809e:	00779713          	slli	a4,a5,0x7
ffffffc0504080a2:	007f8797          	auipc	a5,0x7f8
ffffffc0504080a6:	1d678793          	addi	a5,a5,470 # ffffffc050c00278 <mbox_arr>
ffffffc0504080aa:	97ba                	add	a5,a5,a4
ffffffc0504080ac:	0791                	addi	a5,a5,4
ffffffc0504080ae:	85be                	mv	a1,a5
ffffffc0504080b0:	fd843503          	ld	a0,-40(s0)
ffffffc0504080b4:	5fb030ef          	jal	ra,ffffffc05040beae <kstrcmp>
ffffffc0504080b8:	87aa                	mv	a5,a0
ffffffc0504080ba:	c38d                	beqz	a5,ffffffc0504080dc <kernel_mbox_open+0x58>
ffffffc0504080bc:	fec42783          	lw	a5,-20(s0)
ffffffc0504080c0:	2785                	addiw	a5,a5,1
ffffffc0504080c2:	fef42623          	sw	a5,-20(s0)
ffffffc0504080c6:	00022797          	auipc	a5,0x22
ffffffc0504080ca:	73278793          	addi	a5,a5,1842 # ffffffc05042a7f8 <mbox_count>
ffffffc0504080ce:	4398                	lw	a4,0(a5)
ffffffc0504080d0:	fec42783          	lw	a5,-20(s0)
ffffffc0504080d4:	2781                	sext.w	a5,a5
ffffffc0504080d6:	fce7c2e3          	blt	a5,a4,ffffffc05040809a <kernel_mbox_open+0x16>
ffffffc0504080da:	a011                	j	ffffffc0504080de <kernel_mbox_open+0x5a>
ffffffc0504080dc:	0001                	nop
ffffffc0504080de:	00022797          	auipc	a5,0x22
ffffffc0504080e2:	71a78793          	addi	a5,a5,1818 # ffffffc05042a7f8 <mbox_count>
ffffffc0504080e6:	4398                	lw	a4,0(a5)
ffffffc0504080e8:	fec42783          	lw	a5,-20(s0)
ffffffc0504080ec:	2781                	sext.w	a5,a5
ffffffc0504080ee:	14e79063          	bne	a5,a4,ffffffc05040822e <kernel_mbox_open+0x1aa>
ffffffc0504080f2:	00022797          	auipc	a5,0x22
ffffffc0504080f6:	70678793          	addi	a5,a5,1798 # ffffffc05042a7f8 <mbox_count>
ffffffc0504080fa:	439c                	lw	a5,0(a5)
ffffffc0504080fc:	007f8717          	auipc	a4,0x7f8
ffffffc050408100:	17c70713          	addi	a4,a4,380 # ffffffc050c00278 <mbox_arr>
ffffffc050408104:	079e                	slli	a5,a5,0x7
ffffffc050408106:	97ba                	add	a5,a5,a4
ffffffc050408108:	4705                	li	a4,1
ffffffc05040810a:	c398                	sw	a4,0(a5)
ffffffc05040810c:	fe042423          	sw	zero,-24(s0)
ffffffc050408110:	a835                	j	ffffffc05040814c <kernel_mbox_open+0xc8>
ffffffc050408112:	00022797          	auipc	a5,0x22
ffffffc050408116:	6e678793          	addi	a5,a5,1766 # ffffffc05042a7f8 <mbox_count>
ffffffc05040811a:	439c                	lw	a5,0(a5)
ffffffc05040811c:	fe842703          	lw	a4,-24(s0)
ffffffc050408120:	0017069b          	addiw	a3,a4,1
ffffffc050408124:	fed42423          	sw	a3,-24(s0)
ffffffc050408128:	fd843683          	ld	a3,-40(s0)
ffffffc05040812c:	0006c683          	lbu	a3,0(a3)
ffffffc050408130:	007f8617          	auipc	a2,0x7f8
ffffffc050408134:	14860613          	addi	a2,a2,328 # ffffffc050c00278 <mbox_arr>
ffffffc050408138:	079e                	slli	a5,a5,0x7
ffffffc05040813a:	97b2                	add	a5,a5,a2
ffffffc05040813c:	97ba                	add	a5,a5,a4
ffffffc05040813e:	00d78223          	sb	a3,4(a5)
ffffffc050408142:	fd843783          	ld	a5,-40(s0)
ffffffc050408146:	0785                	addi	a5,a5,1
ffffffc050408148:	fcf43c23          	sd	a5,-40(s0)
ffffffc05040814c:	fd843783          	ld	a5,-40(s0)
ffffffc050408150:	0007c783          	lbu	a5,0(a5)
ffffffc050408154:	ffdd                	bnez	a5,ffffffc050408112 <kernel_mbox_open+0x8e>
ffffffc050408156:	00022797          	auipc	a5,0x22
ffffffc05040815a:	6a278793          	addi	a5,a5,1698 # ffffffc05042a7f8 <mbox_count>
ffffffc05040815e:	439c                	lw	a5,0(a5)
ffffffc050408160:	007f8697          	auipc	a3,0x7f8
ffffffc050408164:	11868693          	addi	a3,a3,280 # ffffffc050c00278 <mbox_arr>
ffffffc050408168:	fe842703          	lw	a4,-24(s0)
ffffffc05040816c:	079e                	slli	a5,a5,0x7
ffffffc05040816e:	97b6                	add	a5,a5,a3
ffffffc050408170:	97ba                	add	a5,a5,a4
ffffffc050408172:	00078223          	sb	zero,4(a5)
ffffffc050408176:	00022797          	auipc	a5,0x22
ffffffc05040817a:	68278793          	addi	a5,a5,1666 # ffffffc05042a7f8 <mbox_count>
ffffffc05040817e:	439c                	lw	a5,0(a5)
ffffffc050408180:	007f8717          	auipc	a4,0x7f8
ffffffc050408184:	0f870713          	addi	a4,a4,248 # ffffffc050c00278 <mbox_arr>
ffffffc050408188:	079e                	slli	a5,a5,0x7
ffffffc05040818a:	97ba                	add	a5,a5,a4
ffffffc05040818c:	0007aa23          	sw	zero,20(a5)
ffffffc050408190:	00022797          	auipc	a5,0x22
ffffffc050408194:	66878793          	addi	a5,a5,1640 # ffffffc05042a7f8 <mbox_count>
ffffffc050408198:	439c                	lw	a5,0(a5)
ffffffc05040819a:	007f8717          	auipc	a4,0x7f8
ffffffc05040819e:	0de70713          	addi	a4,a4,222 # ffffffc050c00278 <mbox_arr>
ffffffc0504081a2:	079e                	slli	a5,a5,0x7
ffffffc0504081a4:	97ba                	add	a5,a5,a4
ffffffc0504081a6:	0007ac23          	sw	zero,24(a5)
ffffffc0504081aa:	00022797          	auipc	a5,0x22
ffffffc0504081ae:	64e78793          	addi	a5,a5,1614 # ffffffc05042a7f8 <mbox_count>
ffffffc0504081b2:	439c                	lw	a5,0(a5)
ffffffc0504081b4:	007f8717          	auipc	a4,0x7f8
ffffffc0504081b8:	0c470713          	addi	a4,a4,196 # ffffffc050c00278 <mbox_arr>
ffffffc0504081bc:	079e                	slli	a5,a5,0x7
ffffffc0504081be:	97ba                	add	a5,a5,a4
ffffffc0504081c0:	0007ae23          	sw	zero,28(a5)
ffffffc0504081c4:	00022797          	auipc	a5,0x22
ffffffc0504081c8:	63478793          	addi	a5,a5,1588 # ffffffc05042a7f8 <mbox_count>
ffffffc0504081cc:	439c                	lw	a5,0(a5)
ffffffc0504081ce:	079e                	slli	a5,a5,0x7
ffffffc0504081d0:	06078713          	addi	a4,a5,96
ffffffc0504081d4:	007f8797          	auipc	a5,0x7f8
ffffffc0504081d8:	0a478793          	addi	a5,a5,164 # ffffffc050c00278 <mbox_arr>
ffffffc0504081dc:	97ba                	add	a5,a5,a4
ffffffc0504081de:	853e                	mv	a0,a5
ffffffc0504081e0:	15d000ef          	jal	ra,ffffffc050408b3c <list_init>
ffffffc0504081e4:	00022797          	auipc	a5,0x22
ffffffc0504081e8:	61478793          	addi	a5,a5,1556 # ffffffc05042a7f8 <mbox_count>
ffffffc0504081ec:	439c                	lw	a5,0(a5)
ffffffc0504081ee:	079e                	slli	a5,a5,0x7
ffffffc0504081f0:	07078713          	addi	a4,a5,112
ffffffc0504081f4:	007f8797          	auipc	a5,0x7f8
ffffffc0504081f8:	08478793          	addi	a5,a5,132 # ffffffc050c00278 <mbox_arr>
ffffffc0504081fc:	97ba                	add	a5,a5,a4
ffffffc0504081fe:	853e                	mv	a0,a5
ffffffc050408200:	13d000ef          	jal	ra,ffffffc050408b3c <list_init>
ffffffc050408204:	00022797          	auipc	a5,0x22
ffffffc050408208:	5f478793          	addi	a5,a5,1524 # ffffffc05042a7f8 <mbox_count>
ffffffc05040820c:	439c                	lw	a5,0(a5)
ffffffc05040820e:	2785                	addiw	a5,a5,1
ffffffc050408210:	0007871b          	sext.w	a4,a5
ffffffc050408214:	00022797          	auipc	a5,0x22
ffffffc050408218:	5e478793          	addi	a5,a5,1508 # ffffffc05042a7f8 <mbox_count>
ffffffc05040821c:	c398                	sw	a4,0(a5)
ffffffc05040821e:	00022797          	auipc	a5,0x22
ffffffc050408222:	5da78793          	addi	a5,a5,1498 # ffffffc05042a7f8 <mbox_count>
ffffffc050408226:	439c                	lw	a5,0(a5)
ffffffc050408228:	37fd                	addiw	a5,a5,-1
ffffffc05040822a:	2781                	sext.w	a5,a5
ffffffc05040822c:	a829                	j	ffffffc050408246 <kernel_mbox_open+0x1c2>
ffffffc05040822e:	007f8717          	auipc	a4,0x7f8
ffffffc050408232:	04a70713          	addi	a4,a4,74 # ffffffc050c00278 <mbox_arr>
ffffffc050408236:	fec42783          	lw	a5,-20(s0)
ffffffc05040823a:	079e                	slli	a5,a5,0x7
ffffffc05040823c:	97ba                	add	a5,a5,a4
ffffffc05040823e:	4705                	li	a4,1
ffffffc050408240:	c398                	sw	a4,0(a5)
ffffffc050408242:	fec42783          	lw	a5,-20(s0)
ffffffc050408246:	853e                	mv	a0,a5
ffffffc050408248:	70a2                	ld	ra,40(sp)
ffffffc05040824a:	7402                	ld	s0,32(sp)
ffffffc05040824c:	6145                	addi	sp,sp,48
ffffffc05040824e:	8082                	ret

ffffffc050408250 <kernel_mbox_close>:
ffffffc050408250:	1101                	addi	sp,sp,-32
ffffffc050408252:	ec22                	sd	s0,24(sp)
ffffffc050408254:	1000                	addi	s0,sp,32
ffffffc050408256:	87aa                	mv	a5,a0
ffffffc050408258:	fef42623          	sw	a5,-20(s0)
ffffffc05040825c:	007f8717          	auipc	a4,0x7f8
ffffffc050408260:	01c70713          	addi	a4,a4,28 # ffffffc050c00278 <mbox_arr>
ffffffc050408264:	fec42783          	lw	a5,-20(s0)
ffffffc050408268:	079e                	slli	a5,a5,0x7
ffffffc05040826a:	97ba                	add	a5,a5,a4
ffffffc05040826c:	0007a023          	sw	zero,0(a5)
ffffffc050408270:	0001                	nop
ffffffc050408272:	6462                	ld	s0,24(sp)
ffffffc050408274:	6105                	addi	sp,sp,32
ffffffc050408276:	8082                	ret

ffffffc050408278 <kernel_mbox_send>:
ffffffc050408278:	7139                	addi	sp,sp,-64
ffffffc05040827a:	fc06                	sd	ra,56(sp)
ffffffc05040827c:	f822                	sd	s0,48(sp)
ffffffc05040827e:	0080                	addi	s0,sp,64
ffffffc050408280:	87aa                	mv	a5,a0
ffffffc050408282:	fcb43023          	sd	a1,-64(s0)
ffffffc050408286:	8732                	mv	a4,a2
ffffffc050408288:	fcf42623          	sw	a5,-52(s0)
ffffffc05040828c:	87ba                	mv	a5,a4
ffffffc05040828e:	fcf42423          	sw	a5,-56(s0)
ffffffc050408292:	fe042623          	sw	zero,-20(s0)
ffffffc050408296:	007f8717          	auipc	a4,0x7f8
ffffffc05040829a:	fe270713          	addi	a4,a4,-30 # ffffffc050c00278 <mbox_arr>
ffffffc05040829e:	fcc42783          	lw	a5,-52(s0)
ffffffc0504082a2:	079e                	slli	a5,a5,0x7
ffffffc0504082a4:	97ba                	add	a5,a5,a4
ffffffc0504082a6:	4bdc                	lw	a5,20(a5)
ffffffc0504082a8:	04000713          	li	a4,64
ffffffc0504082ac:	40f707bb          	subw	a5,a4,a5
ffffffc0504082b0:	0007871b          	sext.w	a4,a5
ffffffc0504082b4:	fc842783          	lw	a5,-56(s0)
ffffffc0504082b8:	2781                	sext.w	a5,a5
ffffffc0504082ba:	0cf74c63          	blt	a4,a5,ffffffc050408392 <kernel_mbox_send+0x11a>
ffffffc0504082be:	fe042423          	sw	zero,-24(s0)
ffffffc0504082c2:	a8b9                	j	ffffffc050408320 <kernel_mbox_send+0xa8>
ffffffc0504082c4:	fe842783          	lw	a5,-24(s0)
ffffffc0504082c8:	fc043703          	ld	a4,-64(s0)
ffffffc0504082cc:	00f706b3          	add	a3,a4,a5
ffffffc0504082d0:	007f8717          	auipc	a4,0x7f8
ffffffc0504082d4:	fa870713          	addi	a4,a4,-88 # ffffffc050c00278 <mbox_arr>
ffffffc0504082d8:	fcc42783          	lw	a5,-52(s0)
ffffffc0504082dc:	079e                	slli	a5,a5,0x7
ffffffc0504082de:	97ba                	add	a5,a5,a4
ffffffc0504082e0:	4bd8                	lw	a4,20(a5)
ffffffc0504082e2:	0017079b          	addiw	a5,a4,1
ffffffc0504082e6:	0007861b          	sext.w	a2,a5
ffffffc0504082ea:	007f8597          	auipc	a1,0x7f8
ffffffc0504082ee:	f8e58593          	addi	a1,a1,-114 # ffffffc050c00278 <mbox_arr>
ffffffc0504082f2:	fcc42783          	lw	a5,-52(s0)
ffffffc0504082f6:	079e                	slli	a5,a5,0x7
ffffffc0504082f8:	97ae                	add	a5,a5,a1
ffffffc0504082fa:	cbd0                	sw	a2,20(a5)
ffffffc0504082fc:	0006c683          	lbu	a3,0(a3)
ffffffc050408300:	007f8617          	auipc	a2,0x7f8
ffffffc050408304:	f7860613          	addi	a2,a2,-136 # ffffffc050c00278 <mbox_arr>
ffffffc050408308:	fcc42783          	lw	a5,-52(s0)
ffffffc05040830c:	079e                	slli	a5,a5,0x7
ffffffc05040830e:	97b2                	add	a5,a5,a2
ffffffc050408310:	97ba                	add	a5,a5,a4
ffffffc050408312:	02d78023          	sb	a3,32(a5)
ffffffc050408316:	fe842783          	lw	a5,-24(s0)
ffffffc05040831a:	2785                	addiw	a5,a5,1
ffffffc05040831c:	fef42423          	sw	a5,-24(s0)
ffffffc050408320:	fe842703          	lw	a4,-24(s0)
ffffffc050408324:	fc842783          	lw	a5,-56(s0)
ffffffc050408328:	2701                	sext.w	a4,a4
ffffffc05040832a:	2781                	sext.w	a5,a5
ffffffc05040832c:	f8f74ce3          	blt	a4,a5,ffffffc0504082c4 <kernel_mbox_send+0x4c>
ffffffc050408330:	007f8717          	auipc	a4,0x7f8
ffffffc050408334:	f4870713          	addi	a4,a4,-184 # ffffffc050c00278 <mbox_arr>
ffffffc050408338:	fcc42783          	lw	a5,-52(s0)
ffffffc05040833c:	079e                	slli	a5,a5,0x7
ffffffc05040833e:	97ba                	add	a5,a5,a4
ffffffc050408340:	7fbc                	ld	a5,120(a5)
ffffffc050408342:	fef43023          	sd	a5,-32(s0)
ffffffc050408346:	a02d                	j	ffffffc050408370 <kernel_mbox_send+0xf8>
ffffffc050408348:	fe043783          	ld	a5,-32(s0)
ffffffc05040834c:	17a1                	addi	a5,a5,-24
ffffffc05040834e:	fcf43823          	sd	a5,-48(s0)
ffffffc050408352:	fe043503          	ld	a0,-32(s0)
ffffffc050408356:	7d3000ef          	jal	ra,ffffffc050409328 <do_unblock>
ffffffc05040835a:	007f8717          	auipc	a4,0x7f8
ffffffc05040835e:	f1e70713          	addi	a4,a4,-226 # ffffffc050c00278 <mbox_arr>
ffffffc050408362:	fcc42783          	lw	a5,-52(s0)
ffffffc050408366:	079e                	slli	a5,a5,0x7
ffffffc050408368:	97ba                	add	a5,a5,a4
ffffffc05040836a:	7fbc                	ld	a5,120(a5)
ffffffc05040836c:	fef43023          	sd	a5,-32(s0)
ffffffc050408370:	fcc42783          	lw	a5,-52(s0)
ffffffc050408374:	079e                	slli	a5,a5,0x7
ffffffc050408376:	07078713          	addi	a4,a5,112
ffffffc05040837a:	007f8797          	auipc	a5,0x7f8
ffffffc05040837e:	efe78793          	addi	a5,a5,-258 # ffffffc050c00278 <mbox_arr>
ffffffc050408382:	97ba                	add	a5,a5,a4
ffffffc050408384:	fe043703          	ld	a4,-32(s0)
ffffffc050408388:	fcf710e3          	bne	a4,a5,ffffffc050408348 <kernel_mbox_send+0xd0>
ffffffc05040838c:	fec42783          	lw	a5,-20(s0)
ffffffc050408390:	a099                	j	ffffffc0504083d6 <kernel_mbox_send+0x15e>
ffffffc050408392:	f37f70ef          	jal	ra,ffffffc0504002c8 <get_current_cpu_id>
ffffffc050408396:	87aa                	mv	a5,a0
ffffffc050408398:	fcf43c23          	sd	a5,-40(s0)
ffffffc05040839c:	007f8717          	auipc	a4,0x7f8
ffffffc0504083a0:	25c70713          	addi	a4,a4,604 # ffffffc050c005f8 <current_running>
ffffffc0504083a4:	fd843783          	ld	a5,-40(s0)
ffffffc0504083a8:	078e                	slli	a5,a5,0x3
ffffffc0504083aa:	97ba                	add	a5,a5,a4
ffffffc0504083ac:	6394                	ld	a3,0(a5)
ffffffc0504083ae:	fcc42783          	lw	a5,-52(s0)
ffffffc0504083b2:	079e                	slli	a5,a5,0x7
ffffffc0504083b4:	06078713          	addi	a4,a5,96
ffffffc0504083b8:	007f8797          	auipc	a5,0x7f8
ffffffc0504083bc:	ec078793          	addi	a5,a5,-320 # ffffffc050c00278 <mbox_arr>
ffffffc0504083c0:	97ba                	add	a5,a5,a4
ffffffc0504083c2:	85be                	mv	a1,a5
ffffffc0504083c4:	8536                	mv	a0,a3
ffffffc0504083c6:	6f3000ef          	jal	ra,ffffffc0504092b8 <do_block>
ffffffc0504083ca:	fec42783          	lw	a5,-20(s0)
ffffffc0504083ce:	2785                	addiw	a5,a5,1
ffffffc0504083d0:	fef42623          	sw	a5,-20(s0)
ffffffc0504083d4:	b5c9                	j	ffffffc050408296 <kernel_mbox_send+0x1e>
ffffffc0504083d6:	853e                	mv	a0,a5
ffffffc0504083d8:	70e2                	ld	ra,56(sp)
ffffffc0504083da:	7442                	ld	s0,48(sp)
ffffffc0504083dc:	6121                	addi	sp,sp,64
ffffffc0504083de:	8082                	ret

ffffffc0504083e0 <kernel_mbox_recv>:
ffffffc0504083e0:	715d                	addi	sp,sp,-80
ffffffc0504083e2:	e486                	sd	ra,72(sp)
ffffffc0504083e4:	e0a2                	sd	s0,64(sp)
ffffffc0504083e6:	0880                	addi	s0,sp,80
ffffffc0504083e8:	87aa                	mv	a5,a0
ffffffc0504083ea:	fab43823          	sd	a1,-80(s0)
ffffffc0504083ee:	8732                	mv	a4,a2
ffffffc0504083f0:	faf42e23          	sw	a5,-68(s0)
ffffffc0504083f4:	87ba                	mv	a5,a4
ffffffc0504083f6:	faf42c23          	sw	a5,-72(s0)
ffffffc0504083fa:	fe042623          	sw	zero,-20(s0)
ffffffc0504083fe:	007f8717          	auipc	a4,0x7f8
ffffffc050408402:	e7a70713          	addi	a4,a4,-390 # ffffffc050c00278 <mbox_arr>
ffffffc050408406:	fbc42783          	lw	a5,-68(s0)
ffffffc05040840a:	079e                	slli	a5,a5,0x7
ffffffc05040840c:	97ba                	add	a5,a5,a4
ffffffc05040840e:	4bd8                	lw	a4,20(a5)
ffffffc050408410:	fb842783          	lw	a5,-72(s0)
ffffffc050408414:	40f707bb          	subw	a5,a4,a5
ffffffc050408418:	2781                	sext.w	a5,a5
ffffffc05040841a:	1407c663          	bltz	a5,ffffffc050408566 <kernel_mbox_recv+0x186>
ffffffc05040841e:	fe042423          	sw	zero,-24(s0)
ffffffc050408422:	fe042223          	sw	zero,-28(s0)
ffffffc050408426:	a83d                	j	ffffffc050408464 <kernel_mbox_recv+0x84>
ffffffc050408428:	fe842783          	lw	a5,-24(s0)
ffffffc05040842c:	fb043703          	ld	a4,-80(s0)
ffffffc050408430:	973e                	add	a4,a4,a5
ffffffc050408432:	007f8617          	auipc	a2,0x7f8
ffffffc050408436:	e4660613          	addi	a2,a2,-442 # ffffffc050c00278 <mbox_arr>
ffffffc05040843a:	fe442683          	lw	a3,-28(s0)
ffffffc05040843e:	fbc42783          	lw	a5,-68(s0)
ffffffc050408442:	079e                	slli	a5,a5,0x7
ffffffc050408444:	97b2                	add	a5,a5,a2
ffffffc050408446:	97b6                	add	a5,a5,a3
ffffffc050408448:	0207c783          	lbu	a5,32(a5)
ffffffc05040844c:	00f70023          	sb	a5,0(a4)
ffffffc050408450:	fe842783          	lw	a5,-24(s0)
ffffffc050408454:	2785                	addiw	a5,a5,1
ffffffc050408456:	fef42423          	sw	a5,-24(s0)
ffffffc05040845a:	fe442783          	lw	a5,-28(s0)
ffffffc05040845e:	2785                	addiw	a5,a5,1
ffffffc050408460:	fef42223          	sw	a5,-28(s0)
ffffffc050408464:	fe842703          	lw	a4,-24(s0)
ffffffc050408468:	fb842783          	lw	a5,-72(s0)
ffffffc05040846c:	2701                	sext.w	a4,a4
ffffffc05040846e:	2781                	sext.w	a5,a5
ffffffc050408470:	faf74ce3          	blt	a4,a5,ffffffc050408428 <kernel_mbox_recv+0x48>
ffffffc050408474:	007f8717          	auipc	a4,0x7f8
ffffffc050408478:	e0470713          	addi	a4,a4,-508 # ffffffc050c00278 <mbox_arr>
ffffffc05040847c:	fbc42783          	lw	a5,-68(s0)
ffffffc050408480:	079e                	slli	a5,a5,0x7
ffffffc050408482:	97ba                	add	a5,a5,a4
ffffffc050408484:	4bd8                	lw	a4,20(a5)
ffffffc050408486:	fe442783          	lw	a5,-28(s0)
ffffffc05040848a:	40f707bb          	subw	a5,a4,a5
ffffffc05040848e:	fcf42623          	sw	a5,-52(s0)
ffffffc050408492:	fe042023          	sw	zero,-32(s0)
ffffffc050408496:	a0a1                	j	ffffffc0504084de <kernel_mbox_recv+0xfe>
ffffffc050408498:	fe442703          	lw	a4,-28(s0)
ffffffc05040849c:	0017079b          	addiw	a5,a4,1
ffffffc0504084a0:	fef42223          	sw	a5,-28(s0)
ffffffc0504084a4:	007f8697          	auipc	a3,0x7f8
ffffffc0504084a8:	dd468693          	addi	a3,a3,-556 # ffffffc050c00278 <mbox_arr>
ffffffc0504084ac:	fbc42783          	lw	a5,-68(s0)
ffffffc0504084b0:	079e                	slli	a5,a5,0x7
ffffffc0504084b2:	97b6                	add	a5,a5,a3
ffffffc0504084b4:	97ba                	add	a5,a5,a4
ffffffc0504084b6:	0207c703          	lbu	a4,32(a5)
ffffffc0504084ba:	007f8617          	auipc	a2,0x7f8
ffffffc0504084be:	dbe60613          	addi	a2,a2,-578 # ffffffc050c00278 <mbox_arr>
ffffffc0504084c2:	fe042683          	lw	a3,-32(s0)
ffffffc0504084c6:	fbc42783          	lw	a5,-68(s0)
ffffffc0504084ca:	079e                	slli	a5,a5,0x7
ffffffc0504084cc:	97b2                	add	a5,a5,a2
ffffffc0504084ce:	97b6                	add	a5,a5,a3
ffffffc0504084d0:	02e78023          	sb	a4,32(a5)
ffffffc0504084d4:	fe042783          	lw	a5,-32(s0)
ffffffc0504084d8:	2785                	addiw	a5,a5,1
ffffffc0504084da:	fef42023          	sw	a5,-32(s0)
ffffffc0504084de:	fe042703          	lw	a4,-32(s0)
ffffffc0504084e2:	fcc42783          	lw	a5,-52(s0)
ffffffc0504084e6:	2701                	sext.w	a4,a4
ffffffc0504084e8:	2781                	sext.w	a5,a5
ffffffc0504084ea:	faf747e3          	blt	a4,a5,ffffffc050408498 <kernel_mbox_recv+0xb8>
ffffffc0504084ee:	007f8717          	auipc	a4,0x7f8
ffffffc0504084f2:	d8a70713          	addi	a4,a4,-630 # ffffffc050c00278 <mbox_arr>
ffffffc0504084f6:	fbc42783          	lw	a5,-68(s0)
ffffffc0504084fa:	079e                	slli	a5,a5,0x7
ffffffc0504084fc:	97ba                	add	a5,a5,a4
ffffffc0504084fe:	fcc42703          	lw	a4,-52(s0)
ffffffc050408502:	cbd8                	sw	a4,20(a5)
ffffffc050408504:	007f8717          	auipc	a4,0x7f8
ffffffc050408508:	d7470713          	addi	a4,a4,-652 # ffffffc050c00278 <mbox_arr>
ffffffc05040850c:	fbc42783          	lw	a5,-68(s0)
ffffffc050408510:	079e                	slli	a5,a5,0x7
ffffffc050408512:	97ba                	add	a5,a5,a4
ffffffc050408514:	77bc                	ld	a5,104(a5)
ffffffc050408516:	fcf43c23          	sd	a5,-40(s0)
ffffffc05040851a:	a02d                	j	ffffffc050408544 <kernel_mbox_recv+0x164>
ffffffc05040851c:	fd843783          	ld	a5,-40(s0)
ffffffc050408520:	17a1                	addi	a5,a5,-24
ffffffc050408522:	fcf43023          	sd	a5,-64(s0)
ffffffc050408526:	fd843503          	ld	a0,-40(s0)
ffffffc05040852a:	5ff000ef          	jal	ra,ffffffc050409328 <do_unblock>
ffffffc05040852e:	007f8717          	auipc	a4,0x7f8
ffffffc050408532:	d4a70713          	addi	a4,a4,-694 # ffffffc050c00278 <mbox_arr>
ffffffc050408536:	fbc42783          	lw	a5,-68(s0)
ffffffc05040853a:	079e                	slli	a5,a5,0x7
ffffffc05040853c:	97ba                	add	a5,a5,a4
ffffffc05040853e:	77bc                	ld	a5,104(a5)
ffffffc050408540:	fcf43c23          	sd	a5,-40(s0)
ffffffc050408544:	fbc42783          	lw	a5,-68(s0)
ffffffc050408548:	079e                	slli	a5,a5,0x7
ffffffc05040854a:	06078713          	addi	a4,a5,96
ffffffc05040854e:	007f8797          	auipc	a5,0x7f8
ffffffc050408552:	d2a78793          	addi	a5,a5,-726 # ffffffc050c00278 <mbox_arr>
ffffffc050408556:	97ba                	add	a5,a5,a4
ffffffc050408558:	fd843703          	ld	a4,-40(s0)
ffffffc05040855c:	fcf710e3          	bne	a4,a5,ffffffc05040851c <kernel_mbox_recv+0x13c>
ffffffc050408560:	fec42783          	lw	a5,-20(s0)
ffffffc050408564:	a099                	j	ffffffc0504085aa <kernel_mbox_recv+0x1ca>
ffffffc050408566:	d63f70ef          	jal	ra,ffffffc0504002c8 <get_current_cpu_id>
ffffffc05040856a:	87aa                	mv	a5,a0
ffffffc05040856c:	fcf43823          	sd	a5,-48(s0)
ffffffc050408570:	007f8717          	auipc	a4,0x7f8
ffffffc050408574:	08870713          	addi	a4,a4,136 # ffffffc050c005f8 <current_running>
ffffffc050408578:	fd043783          	ld	a5,-48(s0)
ffffffc05040857c:	078e                	slli	a5,a5,0x3
ffffffc05040857e:	97ba                	add	a5,a5,a4
ffffffc050408580:	6394                	ld	a3,0(a5)
ffffffc050408582:	fbc42783          	lw	a5,-68(s0)
ffffffc050408586:	079e                	slli	a5,a5,0x7
ffffffc050408588:	07078713          	addi	a4,a5,112
ffffffc05040858c:	007f8797          	auipc	a5,0x7f8
ffffffc050408590:	cec78793          	addi	a5,a5,-788 # ffffffc050c00278 <mbox_arr>
ffffffc050408594:	97ba                	add	a5,a5,a4
ffffffc050408596:	85be                	mv	a1,a5
ffffffc050408598:	8536                	mv	a0,a3
ffffffc05040859a:	51f000ef          	jal	ra,ffffffc0504092b8 <do_block>
ffffffc05040859e:	fec42783          	lw	a5,-20(s0)
ffffffc0504085a2:	2785                	addiw	a5,a5,1
ffffffc0504085a4:	fef42623          	sw	a5,-20(s0)
ffffffc0504085a8:	bd99                	j	ffffffc0504083fe <kernel_mbox_recv+0x1e>
ffffffc0504085aa:	853e                	mv	a0,a5
ffffffc0504085ac:	60a6                	ld	ra,72(sp)
ffffffc0504085ae:	6406                	ld	s0,64(sp)
ffffffc0504085b0:	6161                	addi	sp,sp,80
ffffffc0504085b2:	8082                	ret

ffffffc0504085b4 <count_length>:
ffffffc0504085b4:	7179                	addi	sp,sp,-48
ffffffc0504085b6:	f422                	sd	s0,40(sp)
ffffffc0504085b8:	1800                	addi	s0,sp,48
ffffffc0504085ba:	fca43c23          	sd	a0,-40(s0)
ffffffc0504085be:	fe042623          	sw	zero,-20(s0)
ffffffc0504085c2:	fd843783          	ld	a5,-40(s0)
ffffffc0504085c6:	fef43023          	sd	a5,-32(s0)
ffffffc0504085ca:	a819                	j	ffffffc0504085e0 <count_length+0x2c>
ffffffc0504085cc:	fec42783          	lw	a5,-20(s0)
ffffffc0504085d0:	2785                	addiw	a5,a5,1
ffffffc0504085d2:	fef42623          	sw	a5,-20(s0)
ffffffc0504085d6:	fe043783          	ld	a5,-32(s0)
ffffffc0504085da:	0785                	addi	a5,a5,1
ffffffc0504085dc:	fef43023          	sd	a5,-32(s0)
ffffffc0504085e0:	fe043783          	ld	a5,-32(s0)
ffffffc0504085e4:	0007c783          	lbu	a5,0(a5)
ffffffc0504085e8:	f3f5                	bnez	a5,ffffffc0504085cc <count_length+0x18>
ffffffc0504085ea:	fec42783          	lw	a5,-20(s0)
ffffffc0504085ee:	853e                	mv	a0,a5
ffffffc0504085f0:	7422                	ld	s0,40(sp)
ffffffc0504085f2:	6145                	addi	sp,sp,48
ffffffc0504085f4:	8082                	ret

ffffffc0504085f6 <kernel_send_recv>:
ffffffc0504085f6:	7171                	addi	sp,sp,-176
ffffffc0504085f8:	f506                	sd	ra,168(sp)
ffffffc0504085fa:	f122                	sd	s0,160(sp)
ffffffc0504085fc:	1900                	addi	s0,sp,176
ffffffc0504085fe:	f6a43423          	sd	a0,-152(s0)
ffffffc050408602:	f6b43023          	sd	a1,-160(s0)
ffffffc050408606:	f4c43c23          	sd	a2,-168(s0)
ffffffc05040860a:	f6843783          	ld	a5,-152(s0)
ffffffc05040860e:	439c                	lw	a5,0(a5)
ffffffc050408610:	faf42223          	sw	a5,-92(s0)
ffffffc050408614:	f6843783          	ld	a5,-152(s0)
ffffffc050408618:	43dc                	lw	a5,4(a5)
ffffffc05040861a:	faf42023          	sw	a5,-96(s0)
ffffffc05040861e:	cabf70ef          	jal	ra,ffffffc0504002c8 <get_current_cpu_id>
ffffffc050408622:	87aa                	mv	a5,a0
ffffffc050408624:	f8f43c23          	sd	a5,-104(s0)
ffffffc050408628:	fe042623          	sw	zero,-20(s0)
ffffffc05040862c:	fe042423          	sw	zero,-24(s0)
ffffffc050408630:	fa442783          	lw	a5,-92(s0)
ffffffc050408634:	2781                	sext.w	a5,a5
ffffffc050408636:	28078563          	beqz	a5,ffffffc0504088c0 <kernel_send_recv+0x2ca>
ffffffc05040863a:	fa042783          	lw	a5,-96(s0)
ffffffc05040863e:	2781                	sext.w	a5,a5
ffffffc050408640:	28078063          	beqz	a5,ffffffc0504088c0 <kernel_send_recv+0x2ca>
ffffffc050408644:	007f8717          	auipc	a4,0x7f8
ffffffc050408648:	c3470713          	addi	a4,a4,-972 # ffffffc050c00278 <mbox_arr>
ffffffc05040864c:	fa442783          	lw	a5,-92(s0)
ffffffc050408650:	079e                	slli	a5,a5,0x7
ffffffc050408652:	97ba                	add	a5,a5,a4
ffffffc050408654:	4bdc                	lw	a5,20(a5)
ffffffc050408656:	0cf05e63          	blez	a5,ffffffc050408732 <kernel_send_recv+0x13c>
ffffffc05040865a:	fe042223          	sw	zero,-28(s0)
ffffffc05040865e:	fe042023          	sw	zero,-32(s0)
ffffffc050408662:	a83d                	j	ffffffc0504086a0 <kernel_send_recv+0xaa>
ffffffc050408664:	fe442783          	lw	a5,-28(s0)
ffffffc050408668:	f5843703          	ld	a4,-168(s0)
ffffffc05040866c:	973e                	add	a4,a4,a5
ffffffc05040866e:	007f8617          	auipc	a2,0x7f8
ffffffc050408672:	c0a60613          	addi	a2,a2,-1014 # ffffffc050c00278 <mbox_arr>
ffffffc050408676:	fe042683          	lw	a3,-32(s0)
ffffffc05040867a:	fa442783          	lw	a5,-92(s0)
ffffffc05040867e:	079e                	slli	a5,a5,0x7
ffffffc050408680:	97b2                	add	a5,a5,a2
ffffffc050408682:	97b6                	add	a5,a5,a3
ffffffc050408684:	0207c783          	lbu	a5,32(a5)
ffffffc050408688:	00f70023          	sb	a5,0(a4)
ffffffc05040868c:	fe442783          	lw	a5,-28(s0)
ffffffc050408690:	2785                	addiw	a5,a5,1
ffffffc050408692:	fef42223          	sw	a5,-28(s0)
ffffffc050408696:	fe042783          	lw	a5,-32(s0)
ffffffc05040869a:	2785                	addiw	a5,a5,1
ffffffc05040869c:	fef42023          	sw	a5,-32(s0)
ffffffc0504086a0:	007f8717          	auipc	a4,0x7f8
ffffffc0504086a4:	bd870713          	addi	a4,a4,-1064 # ffffffc050c00278 <mbox_arr>
ffffffc0504086a8:	fa442783          	lw	a5,-92(s0)
ffffffc0504086ac:	079e                	slli	a5,a5,0x7
ffffffc0504086ae:	97ba                	add	a5,a5,a4
ffffffc0504086b0:	4bd8                	lw	a4,20(a5)
ffffffc0504086b2:	fe442783          	lw	a5,-28(s0)
ffffffc0504086b6:	2781                	sext.w	a5,a5
ffffffc0504086b8:	fae7c6e3          	blt	a5,a4,ffffffc050408664 <kernel_send_recv+0x6e>
ffffffc0504086bc:	007f8717          	auipc	a4,0x7f8
ffffffc0504086c0:	bbc70713          	addi	a4,a4,-1092 # ffffffc050c00278 <mbox_arr>
ffffffc0504086c4:	fa442783          	lw	a5,-92(s0)
ffffffc0504086c8:	079e                	slli	a5,a5,0x7
ffffffc0504086ca:	97ba                	add	a5,a5,a4
ffffffc0504086cc:	0007aa23          	sw	zero,20(a5)
ffffffc0504086d0:	007f8717          	auipc	a4,0x7f8
ffffffc0504086d4:	ba870713          	addi	a4,a4,-1112 # ffffffc050c00278 <mbox_arr>
ffffffc0504086d8:	fa442783          	lw	a5,-92(s0)
ffffffc0504086dc:	079e                	slli	a5,a5,0x7
ffffffc0504086de:	97ba                	add	a5,a5,a4
ffffffc0504086e0:	77bc                	ld	a5,104(a5)
ffffffc0504086e2:	fcf43c23          	sd	a5,-40(s0)
ffffffc0504086e6:	a02d                	j	ffffffc050408710 <kernel_send_recv+0x11a>
ffffffc0504086e8:	fd843783          	ld	a5,-40(s0)
ffffffc0504086ec:	17a1                	addi	a5,a5,-24
ffffffc0504086ee:	f8f43823          	sd	a5,-112(s0)
ffffffc0504086f2:	fd843503          	ld	a0,-40(s0)
ffffffc0504086f6:	433000ef          	jal	ra,ffffffc050409328 <do_unblock>
ffffffc0504086fa:	007f8717          	auipc	a4,0x7f8
ffffffc0504086fe:	b7e70713          	addi	a4,a4,-1154 # ffffffc050c00278 <mbox_arr>
ffffffc050408702:	fa442783          	lw	a5,-92(s0)
ffffffc050408706:	079e                	slli	a5,a5,0x7
ffffffc050408708:	97ba                	add	a5,a5,a4
ffffffc05040870a:	77bc                	ld	a5,104(a5)
ffffffc05040870c:	fcf43c23          	sd	a5,-40(s0)
ffffffc050408710:	fa442783          	lw	a5,-92(s0)
ffffffc050408714:	079e                	slli	a5,a5,0x7
ffffffc050408716:	06078713          	addi	a4,a5,96
ffffffc05040871a:	007f8797          	auipc	a5,0x7f8
ffffffc05040871e:	b5e78793          	addi	a5,a5,-1186 # ffffffc050c00278 <mbox_arr>
ffffffc050408722:	97ba                	add	a5,a5,a4
ffffffc050408724:	fd843703          	ld	a4,-40(s0)
ffffffc050408728:	fcf710e3          	bne	a4,a5,ffffffc0504086e8 <kernel_send_recv+0xf2>
ffffffc05040872c:	4785                	li	a5,1
ffffffc05040872e:	fef42623          	sw	a5,-20(s0)
ffffffc050408732:	f6043503          	ld	a0,-160(s0)
ffffffc050408736:	5ce030ef          	jal	ra,ffffffc05040bd04 <kstrlen>
ffffffc05040873a:	87aa                	mv	a5,a0
ffffffc05040873c:	f8f42623          	sw	a5,-116(s0)
ffffffc050408740:	007f8717          	auipc	a4,0x7f8
ffffffc050408744:	b3870713          	addi	a4,a4,-1224 # ffffffc050c00278 <mbox_arr>
ffffffc050408748:	fa042783          	lw	a5,-96(s0)
ffffffc05040874c:	079e                	slli	a5,a5,0x7
ffffffc05040874e:	97ba                	add	a5,a5,a4
ffffffc050408750:	4bdc                	lw	a5,20(a5)
ffffffc050408752:	04000713          	li	a4,64
ffffffc050408756:	40f707bb          	subw	a5,a4,a5
ffffffc05040875a:	0007871b          	sext.w	a4,a5
ffffffc05040875e:	f8c42783          	lw	a5,-116(s0)
ffffffc050408762:	2781                	sext.w	a5,a5
ffffffc050408764:	0cf74c63          	blt	a4,a5,ffffffc05040883c <kernel_send_recv+0x246>
ffffffc050408768:	fc042a23          	sw	zero,-44(s0)
ffffffc05040876c:	a8b9                	j	ffffffc0504087ca <kernel_send_recv+0x1d4>
ffffffc05040876e:	fd442783          	lw	a5,-44(s0)
ffffffc050408772:	f6043703          	ld	a4,-160(s0)
ffffffc050408776:	00f706b3          	add	a3,a4,a5
ffffffc05040877a:	007f8717          	auipc	a4,0x7f8
ffffffc05040877e:	afe70713          	addi	a4,a4,-1282 # ffffffc050c00278 <mbox_arr>
ffffffc050408782:	fa042783          	lw	a5,-96(s0)
ffffffc050408786:	079e                	slli	a5,a5,0x7
ffffffc050408788:	97ba                	add	a5,a5,a4
ffffffc05040878a:	4bd8                	lw	a4,20(a5)
ffffffc05040878c:	0017079b          	addiw	a5,a4,1
ffffffc050408790:	0007861b          	sext.w	a2,a5
ffffffc050408794:	007f8597          	auipc	a1,0x7f8
ffffffc050408798:	ae458593          	addi	a1,a1,-1308 # ffffffc050c00278 <mbox_arr>
ffffffc05040879c:	fa042783          	lw	a5,-96(s0)
ffffffc0504087a0:	079e                	slli	a5,a5,0x7
ffffffc0504087a2:	97ae                	add	a5,a5,a1
ffffffc0504087a4:	cbd0                	sw	a2,20(a5)
ffffffc0504087a6:	0006c683          	lbu	a3,0(a3)
ffffffc0504087aa:	007f8617          	auipc	a2,0x7f8
ffffffc0504087ae:	ace60613          	addi	a2,a2,-1330 # ffffffc050c00278 <mbox_arr>
ffffffc0504087b2:	fa042783          	lw	a5,-96(s0)
ffffffc0504087b6:	079e                	slli	a5,a5,0x7
ffffffc0504087b8:	97b2                	add	a5,a5,a2
ffffffc0504087ba:	97ba                	add	a5,a5,a4
ffffffc0504087bc:	02d78023          	sb	a3,32(a5)
ffffffc0504087c0:	fd442783          	lw	a5,-44(s0)
ffffffc0504087c4:	2785                	addiw	a5,a5,1
ffffffc0504087c6:	fcf42a23          	sw	a5,-44(s0)
ffffffc0504087ca:	fd442703          	lw	a4,-44(s0)
ffffffc0504087ce:	f8c42783          	lw	a5,-116(s0)
ffffffc0504087d2:	2701                	sext.w	a4,a4
ffffffc0504087d4:	2781                	sext.w	a5,a5
ffffffc0504087d6:	f8f74ce3          	blt	a4,a5,ffffffc05040876e <kernel_send_recv+0x178>
ffffffc0504087da:	007f8717          	auipc	a4,0x7f8
ffffffc0504087de:	a9e70713          	addi	a4,a4,-1378 # ffffffc050c00278 <mbox_arr>
ffffffc0504087e2:	fa042783          	lw	a5,-96(s0)
ffffffc0504087e6:	079e                	slli	a5,a5,0x7
ffffffc0504087e8:	97ba                	add	a5,a5,a4
ffffffc0504087ea:	7fbc                	ld	a5,120(a5)
ffffffc0504087ec:	fcf43423          	sd	a5,-56(s0)
ffffffc0504087f0:	a02d                	j	ffffffc05040881a <kernel_send_recv+0x224>
ffffffc0504087f2:	fc843783          	ld	a5,-56(s0)
ffffffc0504087f6:	17a1                	addi	a5,a5,-24
ffffffc0504087f8:	f8f43023          	sd	a5,-128(s0)
ffffffc0504087fc:	fc843503          	ld	a0,-56(s0)
ffffffc050408800:	329000ef          	jal	ra,ffffffc050409328 <do_unblock>
ffffffc050408804:	007f8717          	auipc	a4,0x7f8
ffffffc050408808:	a7470713          	addi	a4,a4,-1420 # ffffffc050c00278 <mbox_arr>
ffffffc05040880c:	fa042783          	lw	a5,-96(s0)
ffffffc050408810:	079e                	slli	a5,a5,0x7
ffffffc050408812:	97ba                	add	a5,a5,a4
ffffffc050408814:	7fbc                	ld	a5,120(a5)
ffffffc050408816:	fcf43423          	sd	a5,-56(s0)
ffffffc05040881a:	fa042783          	lw	a5,-96(s0)
ffffffc05040881e:	079e                	slli	a5,a5,0x7
ffffffc050408820:	07078713          	addi	a4,a5,112
ffffffc050408824:	007f8797          	auipc	a5,0x7f8
ffffffc050408828:	a5478793          	addi	a5,a5,-1452 # ffffffc050c00278 <mbox_arr>
ffffffc05040882c:	97ba                	add	a5,a5,a4
ffffffc05040882e:	fc843703          	ld	a4,-56(s0)
ffffffc050408832:	fcf710e3          	bne	a4,a5,ffffffc0504087f2 <kernel_send_recv+0x1fc>
ffffffc050408836:	4785                	li	a5,1
ffffffc050408838:	fef42423          	sw	a5,-24(s0)
ffffffc05040883c:	fec42783          	lw	a5,-20(s0)
ffffffc050408840:	0007871b          	sext.w	a4,a5
ffffffc050408844:	4785                	li	a5,1
ffffffc050408846:	00f71863          	bne	a4,a5,ffffffc050408856 <kernel_send_recv+0x260>
ffffffc05040884a:	fe842783          	lw	a5,-24(s0)
ffffffc05040884e:	2781                	sext.w	a5,a5
ffffffc050408850:	e399                	bnez	a5,ffffffc050408856 <kernel_send_recv+0x260>
ffffffc050408852:	4789                	li	a5,2
ffffffc050408854:	ac41                	j	ffffffc050408ae4 <kernel_send_recv+0x4ee>
ffffffc050408856:	fec42783          	lw	a5,-20(s0)
ffffffc05040885a:	2781                	sext.w	a5,a5
ffffffc05040885c:	eb91                	bnez	a5,ffffffc050408870 <kernel_send_recv+0x27a>
ffffffc05040885e:	fe842783          	lw	a5,-24(s0)
ffffffc050408862:	0007871b          	sext.w	a4,a5
ffffffc050408866:	4785                	li	a5,1
ffffffc050408868:	00f71463          	bne	a4,a5,ffffffc050408870 <kernel_send_recv+0x27a>
ffffffc05040886c:	4785                	li	a5,1
ffffffc05040886e:	ac9d                	j	ffffffc050408ae4 <kernel_send_recv+0x4ee>
ffffffc050408870:	fec42783          	lw	a5,-20(s0)
ffffffc050408874:	0007871b          	sext.w	a4,a5
ffffffc050408878:	4785                	li	a5,1
ffffffc05040887a:	00f71b63          	bne	a4,a5,ffffffc050408890 <kernel_send_recv+0x29a>
ffffffc05040887e:	fe842783          	lw	a5,-24(s0)
ffffffc050408882:	0007871b          	sext.w	a4,a5
ffffffc050408886:	4785                	li	a5,1
ffffffc050408888:	00f71463          	bne	a4,a5,ffffffc050408890 <kernel_send_recv+0x29a>
ffffffc05040888c:	4781                	li	a5,0
ffffffc05040888e:	ac99                	j	ffffffc050408ae4 <kernel_send_recv+0x4ee>
ffffffc050408890:	007f8717          	auipc	a4,0x7f8
ffffffc050408894:	d6870713          	addi	a4,a4,-664 # ffffffc050c005f8 <current_running>
ffffffc050408898:	f9843783          	ld	a5,-104(s0)
ffffffc05040889c:	078e                	slli	a5,a5,0x3
ffffffc05040889e:	97ba                	add	a5,a5,a4
ffffffc0504088a0:	6394                	ld	a3,0(a5)
ffffffc0504088a2:	fa442783          	lw	a5,-92(s0)
ffffffc0504088a6:	079e                	slli	a5,a5,0x7
ffffffc0504088a8:	07078713          	addi	a4,a5,112
ffffffc0504088ac:	007f8797          	auipc	a5,0x7f8
ffffffc0504088b0:	9cc78793          	addi	a5,a5,-1588 # ffffffc050c00278 <mbox_arr>
ffffffc0504088b4:	97ba                	add	a5,a5,a4
ffffffc0504088b6:	85be                	mv	a1,a5
ffffffc0504088b8:	8536                	mv	a0,a3
ffffffc0504088ba:	1ff000ef          	jal	ra,ffffffc0504092b8 <do_block>
ffffffc0504088be:	b359                	j	ffffffc050408644 <kernel_send_recv+0x4e>
ffffffc0504088c0:	fa442783          	lw	a5,-92(s0)
ffffffc0504088c4:	2781                	sext.w	a5,a5
ffffffc0504088c6:	10079d63          	bnez	a5,ffffffc0504089e0 <kernel_send_recv+0x3ea>
ffffffc0504088ca:	fa042783          	lw	a5,-96(s0)
ffffffc0504088ce:	2781                	sext.w	a5,a5
ffffffc0504088d0:	10078863          	beqz	a5,ffffffc0504089e0 <kernel_send_recv+0x3ea>
ffffffc0504088d4:	f6043503          	ld	a0,-160(s0)
ffffffc0504088d8:	42c030ef          	jal	ra,ffffffc05040bd04 <kstrlen>
ffffffc0504088dc:	87aa                	mv	a5,a0
ffffffc0504088de:	f8f42623          	sw	a5,-116(s0)
ffffffc0504088e2:	007f8717          	auipc	a4,0x7f8
ffffffc0504088e6:	99670713          	addi	a4,a4,-1642 # ffffffc050c00278 <mbox_arr>
ffffffc0504088ea:	fa042783          	lw	a5,-96(s0)
ffffffc0504088ee:	079e                	slli	a5,a5,0x7
ffffffc0504088f0:	97ba                	add	a5,a5,a4
ffffffc0504088f2:	4bdc                	lw	a5,20(a5)
ffffffc0504088f4:	04000713          	li	a4,64
ffffffc0504088f8:	40f707bb          	subw	a5,a4,a5
ffffffc0504088fc:	0007871b          	sext.w	a4,a5
ffffffc050408900:	f8c42783          	lw	a5,-116(s0)
ffffffc050408904:	2781                	sext.w	a5,a5
ffffffc050408906:	0cf74b63          	blt	a4,a5,ffffffc0504089dc <kernel_send_recv+0x3e6>
ffffffc05040890a:	fc042223          	sw	zero,-60(s0)
ffffffc05040890e:	a8b9                	j	ffffffc05040896c <kernel_send_recv+0x376>
ffffffc050408910:	fc442783          	lw	a5,-60(s0)
ffffffc050408914:	f6043703          	ld	a4,-160(s0)
ffffffc050408918:	00f706b3          	add	a3,a4,a5
ffffffc05040891c:	007f8717          	auipc	a4,0x7f8
ffffffc050408920:	95c70713          	addi	a4,a4,-1700 # ffffffc050c00278 <mbox_arr>
ffffffc050408924:	fa042783          	lw	a5,-96(s0)
ffffffc050408928:	079e                	slli	a5,a5,0x7
ffffffc05040892a:	97ba                	add	a5,a5,a4
ffffffc05040892c:	4bd8                	lw	a4,20(a5)
ffffffc05040892e:	0017079b          	addiw	a5,a4,1
ffffffc050408932:	0007861b          	sext.w	a2,a5
ffffffc050408936:	007f8597          	auipc	a1,0x7f8
ffffffc05040893a:	94258593          	addi	a1,a1,-1726 # ffffffc050c00278 <mbox_arr>
ffffffc05040893e:	fa042783          	lw	a5,-96(s0)
ffffffc050408942:	079e                	slli	a5,a5,0x7
ffffffc050408944:	97ae                	add	a5,a5,a1
ffffffc050408946:	cbd0                	sw	a2,20(a5)
ffffffc050408948:	0006c683          	lbu	a3,0(a3)
ffffffc05040894c:	007f8617          	auipc	a2,0x7f8
ffffffc050408950:	92c60613          	addi	a2,a2,-1748 # ffffffc050c00278 <mbox_arr>
ffffffc050408954:	fa042783          	lw	a5,-96(s0)
ffffffc050408958:	079e                	slli	a5,a5,0x7
ffffffc05040895a:	97b2                	add	a5,a5,a2
ffffffc05040895c:	97ba                	add	a5,a5,a4
ffffffc05040895e:	02d78023          	sb	a3,32(a5)
ffffffc050408962:	fc442783          	lw	a5,-60(s0)
ffffffc050408966:	2785                	addiw	a5,a5,1
ffffffc050408968:	fcf42223          	sw	a5,-60(s0)
ffffffc05040896c:	fc442703          	lw	a4,-60(s0)
ffffffc050408970:	f8c42783          	lw	a5,-116(s0)
ffffffc050408974:	2701                	sext.w	a4,a4
ffffffc050408976:	2781                	sext.w	a5,a5
ffffffc050408978:	f8f74ce3          	blt	a4,a5,ffffffc050408910 <kernel_send_recv+0x31a>
ffffffc05040897c:	007f8717          	auipc	a4,0x7f8
ffffffc050408980:	8fc70713          	addi	a4,a4,-1796 # ffffffc050c00278 <mbox_arr>
ffffffc050408984:	fa042783          	lw	a5,-96(s0)
ffffffc050408988:	079e                	slli	a5,a5,0x7
ffffffc05040898a:	97ba                	add	a5,a5,a4
ffffffc05040898c:	7fbc                	ld	a5,120(a5)
ffffffc05040898e:	faf43c23          	sd	a5,-72(s0)
ffffffc050408992:	a02d                	j	ffffffc0504089bc <kernel_send_recv+0x3c6>
ffffffc050408994:	fb843783          	ld	a5,-72(s0)
ffffffc050408998:	17a1                	addi	a5,a5,-24
ffffffc05040899a:	f6f43c23          	sd	a5,-136(s0)
ffffffc05040899e:	fb843503          	ld	a0,-72(s0)
ffffffc0504089a2:	187000ef          	jal	ra,ffffffc050409328 <do_unblock>
ffffffc0504089a6:	007f8717          	auipc	a4,0x7f8
ffffffc0504089aa:	8d270713          	addi	a4,a4,-1838 # ffffffc050c00278 <mbox_arr>
ffffffc0504089ae:	fa042783          	lw	a5,-96(s0)
ffffffc0504089b2:	079e                	slli	a5,a5,0x7
ffffffc0504089b4:	97ba                	add	a5,a5,a4
ffffffc0504089b6:	7fbc                	ld	a5,120(a5)
ffffffc0504089b8:	faf43c23          	sd	a5,-72(s0)
ffffffc0504089bc:	fa042783          	lw	a5,-96(s0)
ffffffc0504089c0:	079e                	slli	a5,a5,0x7
ffffffc0504089c2:	07078713          	addi	a4,a5,112
ffffffc0504089c6:	007f8797          	auipc	a5,0x7f8
ffffffc0504089ca:	8b278793          	addi	a5,a5,-1870 # ffffffc050c00278 <mbox_arr>
ffffffc0504089ce:	97ba                	add	a5,a5,a4
ffffffc0504089d0:	fb843703          	ld	a4,-72(s0)
ffffffc0504089d4:	fcf710e3          	bne	a4,a5,ffffffc050408994 <kernel_send_recv+0x39e>
ffffffc0504089d8:	4781                	li	a5,0
ffffffc0504089da:	a229                	j	ffffffc050408ae4 <kernel_send_recv+0x4ee>
ffffffc0504089dc:	4789                	li	a5,2
ffffffc0504089de:	a219                	j	ffffffc050408ae4 <kernel_send_recv+0x4ee>
ffffffc0504089e0:	fa442783          	lw	a5,-92(s0)
ffffffc0504089e4:	2781                	sext.w	a5,a5
ffffffc0504089e6:	0e078e63          	beqz	a5,ffffffc050408ae2 <kernel_send_recv+0x4ec>
ffffffc0504089ea:	fa042783          	lw	a5,-96(s0)
ffffffc0504089ee:	2781                	sext.w	a5,a5
ffffffc0504089f0:	ebed                	bnez	a5,ffffffc050408ae2 <kernel_send_recv+0x4ec>
ffffffc0504089f2:	007f8717          	auipc	a4,0x7f8
ffffffc0504089f6:	88670713          	addi	a4,a4,-1914 # ffffffc050c00278 <mbox_arr>
ffffffc0504089fa:	fa442783          	lw	a5,-92(s0)
ffffffc0504089fe:	079e                	slli	a5,a5,0x7
ffffffc050408a00:	97ba                	add	a5,a5,a4
ffffffc050408a02:	4bdc                	lw	a5,20(a5)
ffffffc050408a04:	0cf05d63          	blez	a5,ffffffc050408ade <kernel_send_recv+0x4e8>
ffffffc050408a08:	fa042a23          	sw	zero,-76(s0)
ffffffc050408a0c:	fa042823          	sw	zero,-80(s0)
ffffffc050408a10:	a83d                	j	ffffffc050408a4e <kernel_send_recv+0x458>
ffffffc050408a12:	fb442783          	lw	a5,-76(s0)
ffffffc050408a16:	f5843703          	ld	a4,-168(s0)
ffffffc050408a1a:	973e                	add	a4,a4,a5
ffffffc050408a1c:	007f8617          	auipc	a2,0x7f8
ffffffc050408a20:	85c60613          	addi	a2,a2,-1956 # ffffffc050c00278 <mbox_arr>
ffffffc050408a24:	fb042683          	lw	a3,-80(s0)
ffffffc050408a28:	fa442783          	lw	a5,-92(s0)
ffffffc050408a2c:	079e                	slli	a5,a5,0x7
ffffffc050408a2e:	97b2                	add	a5,a5,a2
ffffffc050408a30:	97b6                	add	a5,a5,a3
ffffffc050408a32:	0207c783          	lbu	a5,32(a5)
ffffffc050408a36:	00f70023          	sb	a5,0(a4)
ffffffc050408a3a:	fb442783          	lw	a5,-76(s0)
ffffffc050408a3e:	2785                	addiw	a5,a5,1
ffffffc050408a40:	faf42a23          	sw	a5,-76(s0)
ffffffc050408a44:	fb042783          	lw	a5,-80(s0)
ffffffc050408a48:	2785                	addiw	a5,a5,1
ffffffc050408a4a:	faf42823          	sw	a5,-80(s0)
ffffffc050408a4e:	007f8717          	auipc	a4,0x7f8
ffffffc050408a52:	82a70713          	addi	a4,a4,-2006 # ffffffc050c00278 <mbox_arr>
ffffffc050408a56:	fa442783          	lw	a5,-92(s0)
ffffffc050408a5a:	079e                	slli	a5,a5,0x7
ffffffc050408a5c:	97ba                	add	a5,a5,a4
ffffffc050408a5e:	4bd8                	lw	a4,20(a5)
ffffffc050408a60:	fb442783          	lw	a5,-76(s0)
ffffffc050408a64:	2781                	sext.w	a5,a5
ffffffc050408a66:	fae7c6e3          	blt	a5,a4,ffffffc050408a12 <kernel_send_recv+0x41c>
ffffffc050408a6a:	007f8717          	auipc	a4,0x7f8
ffffffc050408a6e:	80e70713          	addi	a4,a4,-2034 # ffffffc050c00278 <mbox_arr>
ffffffc050408a72:	fa442783          	lw	a5,-92(s0)
ffffffc050408a76:	079e                	slli	a5,a5,0x7
ffffffc050408a78:	97ba                	add	a5,a5,a4
ffffffc050408a7a:	0007aa23          	sw	zero,20(a5)
ffffffc050408a7e:	007f7717          	auipc	a4,0x7f7
ffffffc050408a82:	7fa70713          	addi	a4,a4,2042 # ffffffc050c00278 <mbox_arr>
ffffffc050408a86:	fa442783          	lw	a5,-92(s0)
ffffffc050408a8a:	079e                	slli	a5,a5,0x7
ffffffc050408a8c:	97ba                	add	a5,a5,a4
ffffffc050408a8e:	77bc                	ld	a5,104(a5)
ffffffc050408a90:	faf43423          	sd	a5,-88(s0)
ffffffc050408a94:	a02d                	j	ffffffc050408abe <kernel_send_recv+0x4c8>
ffffffc050408a96:	fa843783          	ld	a5,-88(s0)
ffffffc050408a9a:	17a1                	addi	a5,a5,-24
ffffffc050408a9c:	f6f43823          	sd	a5,-144(s0)
ffffffc050408aa0:	fa843503          	ld	a0,-88(s0)
ffffffc050408aa4:	085000ef          	jal	ra,ffffffc050409328 <do_unblock>
ffffffc050408aa8:	007f7717          	auipc	a4,0x7f7
ffffffc050408aac:	7d070713          	addi	a4,a4,2000 # ffffffc050c00278 <mbox_arr>
ffffffc050408ab0:	fa442783          	lw	a5,-92(s0)
ffffffc050408ab4:	079e                	slli	a5,a5,0x7
ffffffc050408ab6:	97ba                	add	a5,a5,a4
ffffffc050408ab8:	77bc                	ld	a5,104(a5)
ffffffc050408aba:	faf43423          	sd	a5,-88(s0)
ffffffc050408abe:	fa442783          	lw	a5,-92(s0)
ffffffc050408ac2:	079e                	slli	a5,a5,0x7
ffffffc050408ac4:	06078713          	addi	a4,a5,96
ffffffc050408ac8:	007f7797          	auipc	a5,0x7f7
ffffffc050408acc:	7b078793          	addi	a5,a5,1968 # ffffffc050c00278 <mbox_arr>
ffffffc050408ad0:	97ba                	add	a5,a5,a4
ffffffc050408ad2:	fa843703          	ld	a4,-88(s0)
ffffffc050408ad6:	fcf710e3          	bne	a4,a5,ffffffc050408a96 <kernel_send_recv+0x4a0>
ffffffc050408ada:	4781                	li	a5,0
ffffffc050408adc:	a021                	j	ffffffc050408ae4 <kernel_send_recv+0x4ee>
ffffffc050408ade:	4785                	li	a5,1
ffffffc050408ae0:	a011                	j	ffffffc050408ae4 <kernel_send_recv+0x4ee>
ffffffc050408ae2:	4781                	li	a5,0
ffffffc050408ae4:	853e                	mv	a0,a5
ffffffc050408ae6:	70aa                	ld	ra,168(sp)
ffffffc050408ae8:	740a                	ld	s0,160(sp)
ffffffc050408aea:	614d                	addi	sp,sp,176
ffffffc050408aec:	8082                	ret

ffffffc050408aee <pa2kva>:
ffffffc050408aee:	1101                	addi	sp,sp,-32
ffffffc050408af0:	ec22                	sd	s0,24(sp)
ffffffc050408af2:	1000                	addi	s0,sp,32
ffffffc050408af4:	fea43423          	sd	a0,-24(s0)
ffffffc050408af8:	fe843703          	ld	a4,-24(s0)
ffffffc050408afc:	57fd                	li	a5,-1
ffffffc050408afe:	179a                	slli	a5,a5,0x26
ffffffc050408b00:	97ba                	add	a5,a5,a4
ffffffc050408b02:	853e                	mv	a0,a5
ffffffc050408b04:	6462                	ld	s0,24(sp)
ffffffc050408b06:	6105                	addi	sp,sp,32
ffffffc050408b08:	8082                	ret

ffffffc050408b0a <_panic>:
ffffffc050408b0a:	7179                	addi	sp,sp,-48
ffffffc050408b0c:	f406                	sd	ra,40(sp)
ffffffc050408b0e:	f022                	sd	s0,32(sp)
ffffffc050408b10:	1800                	addi	s0,sp,48
ffffffc050408b12:	fea43423          	sd	a0,-24(s0)
ffffffc050408b16:	87ae                	mv	a5,a1
ffffffc050408b18:	fcc43c23          	sd	a2,-40(s0)
ffffffc050408b1c:	fef42223          	sw	a5,-28(s0)
ffffffc050408b20:	fe442783          	lw	a5,-28(s0)
ffffffc050408b24:	86be                	mv	a3,a5
ffffffc050408b26:	fe843603          	ld	a2,-24(s0)
ffffffc050408b2a:	fd843583          	ld	a1,-40(s0)
ffffffc050408b2e:	00005517          	auipc	a0,0x5
ffffffc050408b32:	b9a50513          	addi	a0,a0,-1126 # ffffffc05040d6c8 <__FUNCTION__.1870+0x808>
ffffffc050408b36:	4b5030ef          	jal	ra,ffffffc05040c7ea <printk>
ffffffc050408b3a:	a001                	j	ffffffc050408b3a <_panic+0x30>

ffffffc050408b3c <list_init>:
ffffffc050408b3c:	1101                	addi	sp,sp,-32
ffffffc050408b3e:	ec22                	sd	s0,24(sp)
ffffffc050408b40:	1000                	addi	s0,sp,32
ffffffc050408b42:	fea43423          	sd	a0,-24(s0)
ffffffc050408b46:	fe843783          	ld	a5,-24(s0)
ffffffc050408b4a:	fe843703          	ld	a4,-24(s0)
ffffffc050408b4e:	e798                	sd	a4,8(a5)
ffffffc050408b50:	fe843783          	ld	a5,-24(s0)
ffffffc050408b54:	fe843703          	ld	a4,-24(s0)
ffffffc050408b58:	e398                	sd	a4,0(a5)
ffffffc050408b5a:	0001                	nop
ffffffc050408b5c:	6462                	ld	s0,24(sp)
ffffffc050408b5e:	6105                	addi	sp,sp,32
ffffffc050408b60:	8082                	ret

ffffffc050408b62 <list_add>:
ffffffc050408b62:	7179                	addi	sp,sp,-48
ffffffc050408b64:	f422                	sd	s0,40(sp)
ffffffc050408b66:	1800                	addi	s0,sp,48
ffffffc050408b68:	fca43c23          	sd	a0,-40(s0)
ffffffc050408b6c:	fcb43823          	sd	a1,-48(s0)
ffffffc050408b70:	fd843783          	ld	a5,-40(s0)
ffffffc050408b74:	639c                	ld	a5,0(a5)
ffffffc050408b76:	fef43423          	sd	a5,-24(s0)
ffffffc050408b7a:	fd843783          	ld	a5,-40(s0)
ffffffc050408b7e:	fef43023          	sd	a5,-32(s0)
ffffffc050408b82:	fe043783          	ld	a5,-32(s0)
ffffffc050408b86:	fd043703          	ld	a4,-48(s0)
ffffffc050408b8a:	e398                	sd	a4,0(a5)
ffffffc050408b8c:	fd043783          	ld	a5,-48(s0)
ffffffc050408b90:	fe043703          	ld	a4,-32(s0)
ffffffc050408b94:	e798                	sd	a4,8(a5)
ffffffc050408b96:	fd043783          	ld	a5,-48(s0)
ffffffc050408b9a:	fe843703          	ld	a4,-24(s0)
ffffffc050408b9e:	e398                	sd	a4,0(a5)
ffffffc050408ba0:	fe843783          	ld	a5,-24(s0)
ffffffc050408ba4:	fd043703          	ld	a4,-48(s0)
ffffffc050408ba8:	e798                	sd	a4,8(a5)
ffffffc050408baa:	0001                	nop
ffffffc050408bac:	7422                	ld	s0,40(sp)
ffffffc050408bae:	6145                	addi	sp,sp,48
ffffffc050408bb0:	8082                	ret

ffffffc050408bb2 <list_out>:
ffffffc050408bb2:	7179                	addi	sp,sp,-48
ffffffc050408bb4:	f422                	sd	s0,40(sp)
ffffffc050408bb6:	1800                	addi	s0,sp,48
ffffffc050408bb8:	fca43c23          	sd	a0,-40(s0)
ffffffc050408bbc:	fd843783          	ld	a5,-40(s0)
ffffffc050408bc0:	639c                	ld	a5,0(a5)
ffffffc050408bc2:	fef43423          	sd	a5,-24(s0)
ffffffc050408bc6:	fd843783          	ld	a5,-40(s0)
ffffffc050408bca:	679c                	ld	a5,8(a5)
ffffffc050408bcc:	fef43023          	sd	a5,-32(s0)
ffffffc050408bd0:	fe843783          	ld	a5,-24(s0)
ffffffc050408bd4:	fe043703          	ld	a4,-32(s0)
ffffffc050408bd8:	e798                	sd	a4,8(a5)
ffffffc050408bda:	fe043783          	ld	a5,-32(s0)
ffffffc050408bde:	fe843703          	ld	a4,-24(s0)
ffffffc050408be2:	e398                	sd	a4,0(a5)
ffffffc050408be4:	0001                	nop
ffffffc050408be6:	7422                	ld	s0,40(sp)
ffffffc050408be8:	6145                	addi	sp,sp,48
ffffffc050408bea:	8082                	ret

ffffffc050408bec <in_queue>:
ffffffc050408bec:	1101                	addi	sp,sp,-32
ffffffc050408bee:	ec06                	sd	ra,24(sp)
ffffffc050408bf0:	e822                	sd	s0,16(sp)
ffffffc050408bf2:	1000                	addi	s0,sp,32
ffffffc050408bf4:	fea43423          	sd	a0,-24(s0)
ffffffc050408bf8:	feb43023          	sd	a1,-32(s0)
ffffffc050408bfc:	fe043783          	ld	a5,-32(s0)
ffffffc050408c00:	07e1                	addi	a5,a5,24
ffffffc050408c02:	85be                	mv	a1,a5
ffffffc050408c04:	fe843503          	ld	a0,-24(s0)
ffffffc050408c08:	f5bff0ef          	jal	ra,ffffffc050408b62 <list_add>
ffffffc050408c0c:	0001                	nop
ffffffc050408c0e:	60e2                	ld	ra,24(sp)
ffffffc050408c10:	6442                	ld	s0,16(sp)
ffffffc050408c12:	6105                	addi	sp,sp,32
ffffffc050408c14:	8082                	ret

ffffffc050408c16 <out_queue>:
ffffffc050408c16:	1101                	addi	sp,sp,-32
ffffffc050408c18:	ec06                	sd	ra,24(sp)
ffffffc050408c1a:	e822                	sd	s0,16(sp)
ffffffc050408c1c:	1000                	addi	s0,sp,32
ffffffc050408c1e:	fea43423          	sd	a0,-24(s0)
ffffffc050408c22:	fe843783          	ld	a5,-24(s0)
ffffffc050408c26:	07e1                	addi	a5,a5,24
ffffffc050408c28:	853e                	mv	a0,a5
ffffffc050408c2a:	f89ff0ef          	jal	ra,ffffffc050408bb2 <list_out>
ffffffc050408c2e:	0001                	nop
ffffffc050408c30:	60e2                	ld	ra,24(sp)
ffffffc050408c32:	6442                	ld	s0,16(sp)
ffffffc050408c34:	6105                	addi	sp,sp,32
ffffffc050408c36:	8082                	ret

ffffffc050408c38 <pcb_addr>:
ffffffc050408c38:	1101                	addi	sp,sp,-32
ffffffc050408c3a:	ec22                	sd	s0,24(sp)
ffffffc050408c3c:	1000                	addi	s0,sp,32
ffffffc050408c3e:	fea43423          	sd	a0,-24(s0)
ffffffc050408c42:	fe843783          	ld	a5,-24(s0)
ffffffc050408c46:	17a1                	addi	a5,a5,-24
ffffffc050408c48:	853e                	mv	a0,a5
ffffffc050408c4a:	6462                	ld	s0,24(sp)
ffffffc050408c4c:	6105                	addi	sp,sp,32
ffffffc050408c4e:	8082                	ret

ffffffc050408c50 <get_time>:
ffffffc050408c50:	1101                	addi	sp,sp,-32
ffffffc050408c52:	ec06                	sd	ra,24(sp)
ffffffc050408c54:	e822                	sd	s0,16(sp)
ffffffc050408c56:	1000                	addi	s0,sp,32
ffffffc050408c58:	fea43423          	sd	a0,-24(s0)
ffffffc050408c5c:	666010ef          	jal	ra,ffffffc05040a2c2 <get_ticks>
ffffffc050408c60:	87aa                	mv	a5,a0
ffffffc050408c62:	0007871b          	sext.w	a4,a5
ffffffc050408c66:	fe843783          	ld	a5,-24(s0)
ffffffc050408c6a:	c398                	sw	a4,0(a5)
ffffffc050408c6c:	6a6010ef          	jal	ra,ffffffc05040a312 <get_time_base>
ffffffc050408c70:	87aa                	mv	a5,a0
ffffffc050408c72:	2781                	sext.w	a5,a5
ffffffc050408c74:	853e                	mv	a0,a5
ffffffc050408c76:	60e2                	ld	ra,24(sp)
ffffffc050408c78:	6442                	ld	s0,16(sp)
ffffffc050408c7a:	6105                	addi	sp,sp,32
ffffffc050408c7c:	8082                	ret

ffffffc050408c7e <search_queue>:
ffffffc050408c7e:	7179                	addi	sp,sp,-48
ffffffc050408c80:	f406                	sd	ra,40(sp)
ffffffc050408c82:	f022                	sd	s0,32(sp)
ffffffc050408c84:	1800                	addi	s0,sp,48
ffffffc050408c86:	e42f70ef          	jal	ra,ffffffc0504002c8 <get_current_cpu_id>
ffffffc050408c8a:	87aa                	mv	a5,a0
ffffffc050408c8c:	fcf43c23          	sd	a5,-40(s0)
ffffffc050408c90:	007f8797          	auipc	a5,0x7f8
ffffffc050408c94:	95878793          	addi	a5,a5,-1704 # ffffffc050c005e8 <ready_queue>
ffffffc050408c98:	679c                	ld	a5,8(a5)
ffffffc050408c9a:	fef43023          	sd	a5,-32(s0)
ffffffc050408c9e:	fe043783          	ld	a5,-32(s0)
ffffffc050408ca2:	6798                	ld	a4,8(a5)
ffffffc050408ca4:	007f8797          	auipc	a5,0x7f8
ffffffc050408ca8:	94478793          	addi	a5,a5,-1724 # ffffffc050c005e8 <ready_queue>
ffffffc050408cac:	00f71763          	bne	a4,a5,ffffffc050408cba <search_queue+0x3c>
ffffffc050408cb0:	00005797          	auipc	a5,0x5
ffffffc050408cb4:	d4878793          	addi	a5,a5,-696 # ffffffc05040d9f8 <pid0_pcb_s>
ffffffc050408cb8:	a069                	j	ffffffc050408d42 <search_queue+0xc4>
ffffffc050408cba:	fe043783          	ld	a5,-32(s0)
ffffffc050408cbe:	679c                	ld	a5,8(a5)
ffffffc050408cc0:	fef43023          	sd	a5,-32(s0)
ffffffc050408cc4:	fe043503          	ld	a0,-32(s0)
ffffffc050408cc8:	f71ff0ef          	jal	ra,ffffffc050408c38 <pcb_addr>
ffffffc050408ccc:	fea43423          	sd	a0,-24(s0)
ffffffc050408cd0:	a821                	j	ffffffc050408ce8 <search_queue+0x6a>
ffffffc050408cd2:	fe043783          	ld	a5,-32(s0)
ffffffc050408cd6:	679c                	ld	a5,8(a5)
ffffffc050408cd8:	fef43023          	sd	a5,-32(s0)
ffffffc050408cdc:	fe043503          	ld	a0,-32(s0)
ffffffc050408ce0:	f59ff0ef          	jal	ra,ffffffc050408c38 <pcb_addr>
ffffffc050408ce4:	fea43423          	sd	a0,-24(s0)
ffffffc050408ce8:	fe043703          	ld	a4,-32(s0)
ffffffc050408cec:	007f8797          	auipc	a5,0x7f8
ffffffc050408cf0:	8fc78793          	addi	a5,a5,-1796 # ffffffc050c005e8 <ready_queue>
ffffffc050408cf4:	02f70863          	beq	a4,a5,ffffffc050408d24 <search_queue+0xa6>
ffffffc050408cf8:	fe843783          	ld	a5,-24(s0)
ffffffc050408cfc:	0807a783          	lw	a5,128(a5)
ffffffc050408d00:	873e                	mv	a4,a5
ffffffc050408d02:	4785                	li	a5,1
ffffffc050408d04:	00f71963          	bne	a4,a5,ffffffc050408d16 <search_queue+0x98>
ffffffc050408d08:	fe843783          	ld	a5,-24(s0)
ffffffc050408d0c:	6bbc                	ld	a5,80(a5)
ffffffc050408d0e:	fd843703          	ld	a4,-40(s0)
ffffffc050408d12:	fcf710e3          	bne	a4,a5,ffffffc050408cd2 <search_queue+0x54>
ffffffc050408d16:	fe843783          	ld	a5,-24(s0)
ffffffc050408d1a:	4fbc                	lw	a5,88(a5)
ffffffc050408d1c:	873e                	mv	a4,a5
ffffffc050408d1e:	4785                	li	a5,1
ffffffc050408d20:	faf709e3          	beq	a4,a5,ffffffc050408cd2 <search_queue+0x54>
ffffffc050408d24:	fe043703          	ld	a4,-32(s0)
ffffffc050408d28:	007f8797          	auipc	a5,0x7f8
ffffffc050408d2c:	8c078793          	addi	a5,a5,-1856 # ffffffc050c005e8 <ready_queue>
ffffffc050408d30:	00f71763          	bne	a4,a5,ffffffc050408d3e <search_queue+0xc0>
ffffffc050408d34:	00005797          	auipc	a5,0x5
ffffffc050408d38:	cc478793          	addi	a5,a5,-828 # ffffffc05040d9f8 <pid0_pcb_s>
ffffffc050408d3c:	a019                	j	ffffffc050408d42 <search_queue+0xc4>
ffffffc050408d3e:	fe843783          	ld	a5,-24(s0)
ffffffc050408d42:	853e                	mv	a0,a5
ffffffc050408d44:	70a2                	ld	ra,40(sp)
ffffffc050408d46:	7402                	ld	s0,32(sp)
ffffffc050408d48:	6145                	addi	sp,sp,48
ffffffc050408d4a:	8082                	ret

ffffffc050408d4c <do_scheduler>:
ffffffc050408d4c:	711d                	addi	sp,sp,-96
ffffffc050408d4e:	ec86                	sd	ra,88(sp)
ffffffc050408d50:	e8a2                	sd	s0,80(sp)
ffffffc050408d52:	1080                	addi	s0,sp,96
ffffffc050408d54:	d74f70ef          	jal	ra,ffffffc0504002c8 <get_current_cpu_id>
ffffffc050408d58:	87aa                	mv	a5,a0
ffffffc050408d5a:	fcf43023          	sd	a5,-64(s0)
ffffffc050408d5e:	007f8717          	auipc	a4,0x7f8
ffffffc050408d62:	89a70713          	addi	a4,a4,-1894 # ffffffc050c005f8 <current_running>
ffffffc050408d66:	fc043783          	ld	a5,-64(s0)
ffffffc050408d6a:	078e                	slli	a5,a5,0x3
ffffffc050408d6c:	97ba                	add	a5,a5,a4
ffffffc050408d6e:	639c                	ld	a5,0(a5)
ffffffc050408d70:	faf43c23          	sd	a5,-72(s0)
ffffffc050408d74:	fb843783          	ld	a5,-72(s0)
ffffffc050408d78:	47bc                	lw	a5,72(a5)
ffffffc050408d7a:	14078363          	beqz	a5,ffffffc050408ec0 <do_scheduler+0x174>
ffffffc050408d7e:	fb843783          	ld	a5,-72(s0)
ffffffc050408d82:	0807a783          	lw	a5,128(a5)
ffffffc050408d86:	873e                	mv	a4,a5
ffffffc050408d88:	4785                	li	a5,1
ffffffc050408d8a:	12f71b63          	bne	a4,a5,ffffffc050408ec0 <do_scheduler+0x174>
ffffffc050408d8e:	fb843783          	ld	a5,-72(s0)
ffffffc050408d92:	739c                	ld	a5,32(a5)
ffffffc050408d94:	fcf43c23          	sd	a5,-40(s0)
ffffffc050408d98:	fd843503          	ld	a0,-40(s0)
ffffffc050408d9c:	e9dff0ef          	jal	ra,ffffffc050408c38 <pcb_addr>
ffffffc050408da0:	fea43023          	sd	a0,-32(s0)
ffffffc050408da4:	4785                	li	a5,1
ffffffc050408da6:	fcf42a23          	sw	a5,-44(s0)
ffffffc050408daa:	fc043783          	ld	a5,-64(s0)
ffffffc050408dae:	e7d5                	bnez	a5,ffffffc050408e5a <do_scheduler+0x10e>
ffffffc050408db0:	a02d                	j	ffffffc050408dda <do_scheduler+0x8e>
ffffffc050408db2:	fd843783          	ld	a5,-40(s0)
ffffffc050408db6:	679c                	ld	a5,8(a5)
ffffffc050408db8:	fcf43c23          	sd	a5,-40(s0)
ffffffc050408dbc:	fd843503          	ld	a0,-40(s0)
ffffffc050408dc0:	e79ff0ef          	jal	ra,ffffffc050408c38 <pcb_addr>
ffffffc050408dc4:	fea43023          	sd	a0,-32(s0)
ffffffc050408dc8:	fe043703          	ld	a4,-32(s0)
ffffffc050408dcc:	fb843783          	ld	a5,-72(s0)
ffffffc050408dd0:	00f71563          	bne	a4,a5,ffffffc050408dda <do_scheduler+0x8e>
ffffffc050408dd4:	fc042a23          	sw	zero,-44(s0)
ffffffc050408dd8:	a83d                	j	ffffffc050408e16 <do_scheduler+0xca>
ffffffc050408dda:	fd843703          	ld	a4,-40(s0)
ffffffc050408dde:	007f8797          	auipc	a5,0x7f8
ffffffc050408de2:	80a78793          	addi	a5,a5,-2038 # ffffffc050c005e8 <ready_queue>
ffffffc050408de6:	fcf706e3          	beq	a4,a5,ffffffc050408db2 <do_scheduler+0x66>
ffffffc050408dea:	fe043783          	ld	a5,-32(s0)
ffffffc050408dee:	0807a783          	lw	a5,128(a5)
ffffffc050408df2:	873e                	mv	a4,a5
ffffffc050408df4:	4785                	li	a5,1
ffffffc050408df6:	00f71963          	bne	a4,a5,ffffffc050408e08 <do_scheduler+0xbc>
ffffffc050408dfa:	fe043783          	ld	a5,-32(s0)
ffffffc050408dfe:	6bbc                	ld	a5,80(a5)
ffffffc050408e00:	fc043703          	ld	a4,-64(s0)
ffffffc050408e04:	faf717e3          	bne	a4,a5,ffffffc050408db2 <do_scheduler+0x66>
ffffffc050408e08:	fe043783          	ld	a5,-32(s0)
ffffffc050408e0c:	4fbc                	lw	a5,88(a5)
ffffffc050408e0e:	873e                	mv	a4,a5
ffffffc050408e10:	4789                	li	a5,2
ffffffc050408e12:	faf700e3          	beq	a4,a5,ffffffc050408db2 <do_scheduler+0x66>
ffffffc050408e16:	fd442783          	lw	a5,-44(s0)
ffffffc050408e1a:	2781                	sext.w	a5,a5
ffffffc050408e1c:	c781                	beqz	a5,ffffffc050408e24 <do_scheduler+0xd8>
ffffffc050408e1e:	fe043783          	ld	a5,-32(s0)
ffffffc050408e22:	a029                	j	ffffffc050408e2c <do_scheduler+0xe0>
ffffffc050408e24:	00005797          	auipc	a5,0x5
ffffffc050408e28:	b3c78793          	addi	a5,a5,-1220 # ffffffc05040d960 <pid0_pcb_m>
ffffffc050408e2c:	fef43423          	sd	a5,-24(s0)
ffffffc050408e30:	a855                	j	ffffffc050408ee4 <do_scheduler+0x198>
ffffffc050408e32:	fd843783          	ld	a5,-40(s0)
ffffffc050408e36:	679c                	ld	a5,8(a5)
ffffffc050408e38:	fcf43c23          	sd	a5,-40(s0)
ffffffc050408e3c:	fd843503          	ld	a0,-40(s0)
ffffffc050408e40:	df9ff0ef          	jal	ra,ffffffc050408c38 <pcb_addr>
ffffffc050408e44:	fea43023          	sd	a0,-32(s0)
ffffffc050408e48:	fe043703          	ld	a4,-32(s0)
ffffffc050408e4c:	fb843783          	ld	a5,-72(s0)
ffffffc050408e50:	00f71563          	bne	a4,a5,ffffffc050408e5a <do_scheduler+0x10e>
ffffffc050408e54:	fc042a23          	sw	zero,-44(s0)
ffffffc050408e58:	a0b1                	j	ffffffc050408ea4 <do_scheduler+0x158>
ffffffc050408e5a:	fd843703          	ld	a4,-40(s0)
ffffffc050408e5e:	007f7797          	auipc	a5,0x7f7
ffffffc050408e62:	78a78793          	addi	a5,a5,1930 # ffffffc050c005e8 <ready_queue>
ffffffc050408e66:	fcf706e3          	beq	a4,a5,ffffffc050408e32 <do_scheduler+0xe6>
ffffffc050408e6a:	fe043783          	ld	a5,-32(s0)
ffffffc050408e6e:	0807a783          	lw	a5,128(a5)
ffffffc050408e72:	873e                	mv	a4,a5
ffffffc050408e74:	4785                	li	a5,1
ffffffc050408e76:	00f71963          	bne	a4,a5,ffffffc050408e88 <do_scheduler+0x13c>
ffffffc050408e7a:	fe043783          	ld	a5,-32(s0)
ffffffc050408e7e:	6bbc                	ld	a5,80(a5)
ffffffc050408e80:	fc043703          	ld	a4,-64(s0)
ffffffc050408e84:	faf717e3          	bne	a4,a5,ffffffc050408e32 <do_scheduler+0xe6>
ffffffc050408e88:	fe043783          	ld	a5,-32(s0)
ffffffc050408e8c:	47bc                	lw	a5,72(a5)
ffffffc050408e8e:	873e                	mv	a4,a5
ffffffc050408e90:	4785                	li	a5,1
ffffffc050408e92:	faf700e3          	beq	a4,a5,ffffffc050408e32 <do_scheduler+0xe6>
ffffffc050408e96:	fe043783          	ld	a5,-32(s0)
ffffffc050408e9a:	4fbc                	lw	a5,88(a5)
ffffffc050408e9c:	873e                	mv	a4,a5
ffffffc050408e9e:	4785                	li	a5,1
ffffffc050408ea0:	f8f709e3          	beq	a4,a5,ffffffc050408e32 <do_scheduler+0xe6>
ffffffc050408ea4:	fd442783          	lw	a5,-44(s0)
ffffffc050408ea8:	2781                	sext.w	a5,a5
ffffffc050408eaa:	c781                	beqz	a5,ffffffc050408eb2 <do_scheduler+0x166>
ffffffc050408eac:	fe043783          	ld	a5,-32(s0)
ffffffc050408eb0:	a029                	j	ffffffc050408eba <do_scheduler+0x16e>
ffffffc050408eb2:	00005797          	auipc	a5,0x5
ffffffc050408eb6:	b4678793          	addi	a5,a5,-1210 # ffffffc05040d9f8 <pid0_pcb_s>
ffffffc050408eba:	fef43423          	sd	a5,-24(s0)
ffffffc050408ebe:	a01d                	j	ffffffc050408ee4 <do_scheduler+0x198>
ffffffc050408ec0:	fc043783          	ld	a5,-64(s0)
ffffffc050408ec4:	ef81                	bnez	a5,ffffffc050408edc <do_scheduler+0x190>
ffffffc050408ec6:	007f7797          	auipc	a5,0x7f7
ffffffc050408eca:	72278793          	addi	a5,a5,1826 # ffffffc050c005e8 <ready_queue>
ffffffc050408ece:	679c                	ld	a5,8(a5)
ffffffc050408ed0:	853e                	mv	a0,a5
ffffffc050408ed2:	d67ff0ef          	jal	ra,ffffffc050408c38 <pcb_addr>
ffffffc050408ed6:	fea43423          	sd	a0,-24(s0)
ffffffc050408eda:	a029                	j	ffffffc050408ee4 <do_scheduler+0x198>
ffffffc050408edc:	da3ff0ef          	jal	ra,ffffffc050408c7e <search_queue>
ffffffc050408ee0:	fea43423          	sd	a0,-24(s0)
ffffffc050408ee4:	007f7717          	auipc	a4,0x7f7
ffffffc050408ee8:	71470713          	addi	a4,a4,1812 # ffffffc050c005f8 <current_running>
ffffffc050408eec:	fc043783          	ld	a5,-64(s0)
ffffffc050408ef0:	078e                	slli	a5,a5,0x3
ffffffc050408ef2:	97ba                	add	a5,a5,a4
ffffffc050408ef4:	639c                	ld	a5,0(a5)
ffffffc050408ef6:	0807a783          	lw	a5,128(a5)
ffffffc050408efa:	873e                	mv	a4,a5
ffffffc050408efc:	4785                	li	a5,1
ffffffc050408efe:	00f70e63          	beq	a4,a5,ffffffc050408f1a <do_scheduler+0x1ce>
ffffffc050408f02:	007f7717          	auipc	a4,0x7f7
ffffffc050408f06:	6f670713          	addi	a4,a4,1782 # ffffffc050c005f8 <current_running>
ffffffc050408f0a:	fc043783          	ld	a5,-64(s0)
ffffffc050408f0e:	078e                	slli	a5,a5,0x3
ffffffc050408f10:	97ba                	add	a5,a5,a4
ffffffc050408f12:	639c                	ld	a5,0(a5)
ffffffc050408f14:	0807a783          	lw	a5,128(a5)
ffffffc050408f18:	a011                	j	ffffffc050408f1c <do_scheduler+0x1d0>
ffffffc050408f1a:	4789                	li	a5,2
ffffffc050408f1c:	007f7697          	auipc	a3,0x7f7
ffffffc050408f20:	6dc68693          	addi	a3,a3,1756 # ffffffc050c005f8 <current_running>
ffffffc050408f24:	fc043703          	ld	a4,-64(s0)
ffffffc050408f28:	070e                	slli	a4,a4,0x3
ffffffc050408f2a:	9736                	add	a4,a4,a3
ffffffc050408f2c:	6318                	ld	a4,0(a4)
ffffffc050408f2e:	08f72023          	sw	a5,128(a4)
ffffffc050408f32:	007f7717          	auipc	a4,0x7f7
ffffffc050408f36:	6c670713          	addi	a4,a4,1734 # ffffffc050c005f8 <current_running>
ffffffc050408f3a:	fc043783          	ld	a5,-64(s0)
ffffffc050408f3e:	078e                	slli	a5,a5,0x3
ffffffc050408f40:	97ba                	add	a5,a5,a4
ffffffc050408f42:	639c                	ld	a5,0(a5)
ffffffc050408f44:	5bbc                	lw	a5,112(a5)
ffffffc050408f46:	873e                	mv	a4,a5
ffffffc050408f48:	4785                	li	a5,1
ffffffc050408f4a:	10f71b63          	bne	a4,a5,ffffffc050409060 <do_scheduler+0x314>
ffffffc050408f4e:	007f7717          	auipc	a4,0x7f7
ffffffc050408f52:	6aa70713          	addi	a4,a4,1706 # ffffffc050c005f8 <current_running>
ffffffc050408f56:	fc043783          	ld	a5,-64(s0)
ffffffc050408f5a:	078e                	slli	a5,a5,0x3
ffffffc050408f5c:	97ba                	add	a5,a5,a4
ffffffc050408f5e:	639c                	ld	a5,0(a5)
ffffffc050408f60:	0607a823          	sw	zero,112(a5)
ffffffc050408f64:	007f7717          	auipc	a4,0x7f7
ffffffc050408f68:	69470713          	addi	a4,a4,1684 # ffffffc050c005f8 <current_running>
ffffffc050408f6c:	fc043783          	ld	a5,-64(s0)
ffffffc050408f70:	078e                	slli	a5,a5,0x3
ffffffc050408f72:	97ba                	add	a5,a5,a4
ffffffc050408f74:	639c                	ld	a5,0(a5)
ffffffc050408f76:	0407a423          	sw	zero,72(a5)
ffffffc050408f7a:	007f7717          	auipc	a4,0x7f7
ffffffc050408f7e:	67e70713          	addi	a4,a4,1662 # ffffffc050c005f8 <current_running>
ffffffc050408f82:	fc043783          	ld	a5,-64(s0)
ffffffc050408f86:	078e                	slli	a5,a5,0x3
ffffffc050408f88:	97ba                	add	a5,a5,a4
ffffffc050408f8a:	639c                	ld	a5,0(a5)
ffffffc050408f8c:	853e                	mv	a0,a5
ffffffc050408f8e:	c89ff0ef          	jal	ra,ffffffc050408c16 <out_queue>
ffffffc050408f92:	007f7717          	auipc	a4,0x7f7
ffffffc050408f96:	66670713          	addi	a4,a4,1638 # ffffffc050c005f8 <current_running>
ffffffc050408f9a:	fc043783          	ld	a5,-64(s0)
ffffffc050408f9e:	078e                	slli	a5,a5,0x3
ffffffc050408fa0:	97ba                	add	a5,a5,a4
ffffffc050408fa2:	639c                	ld	a5,0(a5)
ffffffc050408fa4:	4711                	li	a4,4
ffffffc050408fa6:	08e7a023          	sw	a4,128(a5)
ffffffc050408faa:	fc042823          	sw	zero,-48(s0)
ffffffc050408fae:	a8b1                	j	ffffffc05040900a <do_scheduler+0x2be>
ffffffc050408fb0:	007f7717          	auipc	a4,0x7f7
ffffffc050408fb4:	64870713          	addi	a4,a4,1608 # ffffffc050c005f8 <current_running>
ffffffc050408fb8:	fc043783          	ld	a5,-64(s0)
ffffffc050408fbc:	078e                	slli	a5,a5,0x3
ffffffc050408fbe:	97ba                	add	a5,a5,a4
ffffffc050408fc0:	6398                	ld	a4,0(a5)
ffffffc050408fc2:	fd042783          	lw	a5,-48(s0)
ffffffc050408fc6:	07d1                	addi	a5,a5,20
ffffffc050408fc8:	078a                	slli	a5,a5,0x2
ffffffc050408fca:	97ba                	add	a5,a5,a4
ffffffc050408fcc:	47dc                	lw	a5,12(a5)
ffffffc050408fce:	873e                	mv	a4,a5
ffffffc050408fd0:	4785                	li	a5,1
ffffffc050408fd2:	02f71763          	bne	a4,a5,ffffffc050409000 <do_scheduler+0x2b4>
ffffffc050408fd6:	fd042783          	lw	a5,-48(s0)
ffffffc050408fda:	853e                	mv	a0,a5
ffffffc050408fdc:	9d1fe0ef          	jal	ra,ffffffc0504079ac <mutex_unlock>
ffffffc050408fe0:	007f7717          	auipc	a4,0x7f7
ffffffc050408fe4:	61870713          	addi	a4,a4,1560 # ffffffc050c005f8 <current_running>
ffffffc050408fe8:	fc043783          	ld	a5,-64(s0)
ffffffc050408fec:	078e                	slli	a5,a5,0x3
ffffffc050408fee:	97ba                	add	a5,a5,a4
ffffffc050408ff0:	6398                	ld	a4,0(a5)
ffffffc050408ff2:	fd042783          	lw	a5,-48(s0)
ffffffc050408ff6:	07d1                	addi	a5,a5,20
ffffffc050408ff8:	078a                	slli	a5,a5,0x2
ffffffc050408ffa:	97ba                	add	a5,a5,a4
ffffffc050408ffc:	0007a623          	sw	zero,12(a5)
ffffffc050409000:	fd042783          	lw	a5,-48(s0)
ffffffc050409004:	2785                	addiw	a5,a5,1
ffffffc050409006:	fcf42823          	sw	a5,-48(s0)
ffffffc05040900a:	fd042783          	lw	a5,-48(s0)
ffffffc05040900e:	0007871b          	sext.w	a4,a5
ffffffc050409012:	4791                	li	a5,4
ffffffc050409014:	f8e7dee3          	bge	a5,a4,ffffffc050408fb0 <do_scheduler+0x264>
ffffffc050409018:	007f7717          	auipc	a4,0x7f7
ffffffc05040901c:	5e070713          	addi	a4,a4,1504 # ffffffc050c005f8 <current_running>
ffffffc050409020:	fc043783          	ld	a5,-64(s0)
ffffffc050409024:	078e                	slli	a5,a5,0x3
ffffffc050409026:	97ba                	add	a5,a5,a4
ffffffc050409028:	639c                	ld	a5,0(a5)
ffffffc05040902a:	5fbc                	lw	a5,120(a5)
ffffffc05040902c:	ef81                	bnez	a5,ffffffc050409044 <do_scheduler+0x2f8>
ffffffc05040902e:	007f7717          	auipc	a4,0x7f7
ffffffc050409032:	5ca70713          	addi	a4,a4,1482 # ffffffc050c005f8 <current_running>
ffffffc050409036:	fc043783          	ld	a5,-64(s0)
ffffffc05040903a:	078e                	slli	a5,a5,0x3
ffffffc05040903c:	97ba                	add	a5,a5,a4
ffffffc05040903e:	639c                	ld	a5,0(a5)
ffffffc050409040:	4705                	li	a4,1
ffffffc050409042:	dbf8                	sw	a4,116(a5)
ffffffc050409044:	007f7717          	auipc	a4,0x7f7
ffffffc050409048:	5b470713          	addi	a4,a4,1460 # ffffffc050c005f8 <current_running>
ffffffc05040904c:	fc043783          	ld	a5,-64(s0)
ffffffc050409050:	078e                	slli	a5,a5,0x3
ffffffc050409052:	97ba                	add	a5,a5,a4
ffffffc050409054:	639c                	ld	a5,0(a5)
ffffffc050409056:	02878793          	addi	a5,a5,40
ffffffc05040905a:	853e                	mv	a0,a5
ffffffc05040905c:	033000ef          	jal	ra,ffffffc05040988e <release_queue>
ffffffc050409060:	fc042623          	sw	zero,-52(s0)
ffffffc050409064:	a8d5                	j	ffffffc050409158 <do_scheduler+0x40c>
ffffffc050409066:	007f7717          	auipc	a4,0x7f7
ffffffc05040906a:	69270713          	addi	a4,a4,1682 # ffffffc050c006f8 <pcb>
ffffffc05040906e:	fcc42683          	lw	a3,-52(s0)
ffffffc050409072:	09800793          	li	a5,152
ffffffc050409076:	02f687b3          	mul	a5,a3,a5
ffffffc05040907a:	97ba                	add	a5,a5,a4
ffffffc05040907c:	5bfc                	lw	a5,116(a5)
ffffffc05040907e:	873e                	mv	a4,a5
ffffffc050409080:	4785                	li	a5,1
ffffffc050409082:	0cf71663          	bne	a4,a5,ffffffc05040914e <do_scheduler+0x402>
ffffffc050409086:	fcc42703          	lw	a4,-52(s0)
ffffffc05040908a:	09800793          	li	a5,152
ffffffc05040908e:	02f70733          	mul	a4,a4,a5
ffffffc050409092:	007f7797          	auipc	a5,0x7f7
ffffffc050409096:	66678793          	addi	a5,a5,1638 # ffffffc050c006f8 <pcb>
ffffffc05040909a:	973e                	add	a4,a4,a5
ffffffc05040909c:	007f7797          	auipc	a5,0x7f7
ffffffc0504090a0:	55c78793          	addi	a5,a5,1372 # ffffffc050c005f8 <current_running>
ffffffc0504090a4:	639c                	ld	a5,0(a5)
ffffffc0504090a6:	0af70463          	beq	a4,a5,ffffffc05040914e <do_scheduler+0x402>
ffffffc0504090aa:	fcc42703          	lw	a4,-52(s0)
ffffffc0504090ae:	09800793          	li	a5,152
ffffffc0504090b2:	02f70733          	mul	a4,a4,a5
ffffffc0504090b6:	007f7797          	auipc	a5,0x7f7
ffffffc0504090ba:	64278793          	addi	a5,a5,1602 # ffffffc050c006f8 <pcb>
ffffffc0504090be:	973e                	add	a4,a4,a5
ffffffc0504090c0:	007f7797          	auipc	a5,0x7f7
ffffffc0504090c4:	53878793          	addi	a5,a5,1336 # ffffffc050c005f8 <current_running>
ffffffc0504090c8:	679c                	ld	a5,8(a5)
ffffffc0504090ca:	08f70263          	beq	a4,a5,ffffffc05040914e <do_scheduler+0x402>
ffffffc0504090ce:	007f7717          	auipc	a4,0x7f7
ffffffc0504090d2:	62a70713          	addi	a4,a4,1578 # ffffffc050c006f8 <pcb>
ffffffc0504090d6:	fcc42683          	lw	a3,-52(s0)
ffffffc0504090da:	09800793          	li	a5,152
ffffffc0504090de:	02f687b3          	mul	a5,a3,a5
ffffffc0504090e2:	97ba                	add	a5,a5,a4
ffffffc0504090e4:	0407a423          	sw	zero,72(a5)
ffffffc0504090e8:	007f7717          	auipc	a4,0x7f7
ffffffc0504090ec:	61070713          	addi	a4,a4,1552 # ffffffc050c006f8 <pcb>
ffffffc0504090f0:	fcc42683          	lw	a3,-52(s0)
ffffffc0504090f4:	09800793          	li	a5,152
ffffffc0504090f8:	02f687b3          	mul	a5,a3,a5
ffffffc0504090fc:	97ba                	add	a5,a5,a4
ffffffc0504090fe:	6b9c                	ld	a5,16(a5)
ffffffc050409100:	faf43823          	sd	a5,-80(s0)
ffffffc050409104:	fb043703          	ld	a4,-80(s0)
ffffffc050409108:	57fd                	li	a5,-1
ffffffc05040910a:	83d1                	srli	a5,a5,0x14
ffffffc05040910c:	8ff9                	and	a5,a5,a4
ffffffc05040910e:	faf43423          	sd	a5,-88(s0)
ffffffc050409112:	007f7717          	auipc	a4,0x7f7
ffffffc050409116:	5e670713          	addi	a4,a4,1510 # ffffffc050c006f8 <pcb>
ffffffc05040911a:	fcc42683          	lw	a3,-52(s0)
ffffffc05040911e:	09800793          	li	a5,152
ffffffc050409122:	02f687b3          	mul	a5,a3,a5
ffffffc050409126:	97ba                	add	a5,a5,a4
ffffffc050409128:	5fbc                	lw	a5,120(a5)
ffffffc05040912a:	e789                	bnez	a5,ffffffc050409134 <do_scheduler+0x3e8>
ffffffc05040912c:	fa843503          	ld	a0,-88(s0)
ffffffc050409130:	125010ef          	jal	ra,ffffffc05040aa54 <freePage>
ffffffc050409134:	007f7717          	auipc	a4,0x7f7
ffffffc050409138:	5c470713          	addi	a4,a4,1476 # ffffffc050c006f8 <pcb>
ffffffc05040913c:	fcc42683          	lw	a3,-52(s0)
ffffffc050409140:	09800793          	li	a5,152
ffffffc050409144:	02f687b3          	mul	a5,a3,a5
ffffffc050409148:	97ba                	add	a5,a5,a4
ffffffc05040914a:	0607aa23          	sw	zero,116(a5)
ffffffc05040914e:	fcc42783          	lw	a5,-52(s0)
ffffffc050409152:	2785                	addiw	a5,a5,1
ffffffc050409154:	fcf42623          	sw	a5,-52(s0)
ffffffc050409158:	fcc42783          	lw	a5,-52(s0)
ffffffc05040915c:	0007871b          	sext.w	a4,a5
ffffffc050409160:	47bd                	li	a5,15
ffffffc050409162:	f0e7d2e3          	bge	a5,a4,ffffffc050409066 <do_scheduler+0x31a>
ffffffc050409166:	fe843783          	ld	a5,-24(s0)
ffffffc05040916a:	4705                	li	a4,1
ffffffc05040916c:	08e7a023          	sw	a4,128(a5)
ffffffc050409170:	fe843783          	ld	a5,-24(s0)
ffffffc050409174:	fc043703          	ld	a4,-64(s0)
ffffffc050409178:	ebb8                	sd	a4,80(a5)
ffffffc05040917a:	007f7717          	auipc	a4,0x7f7
ffffffc05040917e:	47e70713          	addi	a4,a4,1150 # ffffffc050c005f8 <current_running>
ffffffc050409182:	fc043783          	ld	a5,-64(s0)
ffffffc050409186:	078e                	slli	a5,a5,0x3
ffffffc050409188:	97ba                	add	a5,a5,a4
ffffffc05040918a:	fe843703          	ld	a4,-24(s0)
ffffffc05040918e:	e398                	sd	a4,0(a5)
ffffffc050409190:	fe843583          	ld	a1,-24(s0)
ffffffc050409194:	fb843503          	ld	a0,-72(s0)
ffffffc050409198:	f1df60ef          	jal	ra,ffffffc0504000b4 <switch_to>
ffffffc05040919c:	0001                	nop
ffffffc05040919e:	60e6                	ld	ra,88(sp)
ffffffc0504091a0:	6446                	ld	s0,80(sp)
ffffffc0504091a2:	6125                	addi	sp,sp,96
ffffffc0504091a4:	8082                	ret

ffffffc0504091a6 <do_sleep>:
ffffffc0504091a6:	7179                	addi	sp,sp,-48
ffffffc0504091a8:	f406                	sd	ra,40(sp)
ffffffc0504091aa:	f022                	sd	s0,32(sp)
ffffffc0504091ac:	1800                	addi	s0,sp,48
ffffffc0504091ae:	87aa                	mv	a5,a0
ffffffc0504091b0:	fcf42e23          	sw	a5,-36(s0)
ffffffc0504091b4:	914f70ef          	jal	ra,ffffffc0504002c8 <get_current_cpu_id>
ffffffc0504091b8:	87aa                	mv	a5,a0
ffffffc0504091ba:	fef43423          	sd	a5,-24(s0)
ffffffc0504091be:	00021797          	auipc	a5,0x21
ffffffc0504091c2:	69278793          	addi	a5,a5,1682 # ffffffc05042a850 <time_base>
ffffffc0504091c6:	439c                	lw	a5,0(a5)
ffffffc0504091c8:	fdc42703          	lw	a4,-36(s0)
ffffffc0504091cc:	02f707bb          	mulw	a5,a4,a5
ffffffc0504091d0:	2781                	sext.w	a5,a5
ffffffc0504091d2:	1782                	slli	a5,a5,0x20
ffffffc0504091d4:	9381                	srli	a5,a5,0x20
ffffffc0504091d6:	853e                	mv	a0,a5
ffffffc0504091d8:	02e000ef          	jal	ra,ffffffc050409206 <create_timer>
ffffffc0504091dc:	007f7717          	auipc	a4,0x7f7
ffffffc0504091e0:	41c70713          	addi	a4,a4,1052 # ffffffc050c005f8 <current_running>
ffffffc0504091e4:	fe843783          	ld	a5,-24(s0)
ffffffc0504091e8:	078e                	slli	a5,a5,0x3
ffffffc0504091ea:	97ba                	add	a5,a5,a4
ffffffc0504091ec:	639c                	ld	a5,0(a5)
ffffffc0504091ee:	00005597          	auipc	a1,0x5
ffffffc0504091f2:	8a258593          	addi	a1,a1,-1886 # ffffffc05040da90 <sleep_queue>
ffffffc0504091f6:	853e                	mv	a0,a5
ffffffc0504091f8:	0c0000ef          	jal	ra,ffffffc0504092b8 <do_block>
ffffffc0504091fc:	0001                	nop
ffffffc0504091fe:	70a2                	ld	ra,40(sp)
ffffffc050409200:	7402                	ld	s0,32(sp)
ffffffc050409202:	6145                	addi	sp,sp,48
ffffffc050409204:	8082                	ret

ffffffc050409206 <create_timer>:
ffffffc050409206:	7179                	addi	sp,sp,-48
ffffffc050409208:	f406                	sd	ra,40(sp)
ffffffc05040920a:	f022                	sd	s0,32(sp)
ffffffc05040920c:	1800                	addi	s0,sp,48
ffffffc05040920e:	fca43c23          	sd	a0,-40(s0)
ffffffc050409212:	8b6f70ef          	jal	ra,ffffffc0504002c8 <get_current_cpu_id>
ffffffc050409216:	87aa                	mv	a5,a0
ffffffc050409218:	fef43423          	sd	a5,-24(s0)
ffffffc05040921c:	0a6010ef          	jal	ra,ffffffc05040a2c2 <get_ticks>
ffffffc050409220:	86aa                	mv	a3,a0
ffffffc050409222:	007f7717          	auipc	a4,0x7f7
ffffffc050409226:	3d670713          	addi	a4,a4,982 # ffffffc050c005f8 <current_running>
ffffffc05040922a:	fe843783          	ld	a5,-24(s0)
ffffffc05040922e:	078e                	slli	a5,a5,0x3
ffffffc050409230:	97ba                	add	a5,a5,a4
ffffffc050409232:	639c                	ld	a5,0(a5)
ffffffc050409234:	fd843703          	ld	a4,-40(s0)
ffffffc050409238:	9736                	add	a4,a4,a3
ffffffc05040923a:	e7d8                	sd	a4,136(a5)
ffffffc05040923c:	0001                	nop
ffffffc05040923e:	70a2                	ld	ra,40(sp)
ffffffc050409240:	7402                	ld	s0,32(sp)
ffffffc050409242:	6145                	addi	sp,sp,48
ffffffc050409244:	8082                	ret

ffffffc050409246 <time_check>:
ffffffc050409246:	1101                	addi	sp,sp,-32
ffffffc050409248:	ec06                	sd	ra,24(sp)
ffffffc05040924a:	e822                	sd	s0,16(sp)
ffffffc05040924c:	1000                	addi	s0,sp,32
ffffffc05040924e:	00005797          	auipc	a5,0x5
ffffffc050409252:	84278793          	addi	a5,a5,-1982 # ffffffc05040da90 <sleep_queue>
ffffffc050409256:	679c                	ld	a5,8(a5)
ffffffc050409258:	fef43423          	sd	a5,-24(s0)
ffffffc05040925c:	a081                	j	ffffffc05040929c <time_check+0x56>
ffffffc05040925e:	fe843503          	ld	a0,-24(s0)
ffffffc050409262:	9d7ff0ef          	jal	ra,ffffffc050408c38 <pcb_addr>
ffffffc050409266:	fea43023          	sd	a0,-32(s0)
ffffffc05040926a:	058010ef          	jal	ra,ffffffc05040a2c2 <get_ticks>
ffffffc05040926e:	872a                	mv	a4,a0
ffffffc050409270:	fe043783          	ld	a5,-32(s0)
ffffffc050409274:	67dc                	ld	a5,136(a5)
ffffffc050409276:	00f76e63          	bltu	a4,a5,ffffffc050409292 <time_check+0x4c>
ffffffc05040927a:	fe843783          	ld	a5,-24(s0)
ffffffc05040927e:	679c                	ld	a5,8(a5)
ffffffc050409280:	fef43423          	sd	a5,-24(s0)
ffffffc050409284:	fe043783          	ld	a5,-32(s0)
ffffffc050409288:	07e1                	addi	a5,a5,24
ffffffc05040928a:	853e                	mv	a0,a5
ffffffc05040928c:	09c000ef          	jal	ra,ffffffc050409328 <do_unblock>
ffffffc050409290:	a031                	j	ffffffc05040929c <time_check+0x56>
ffffffc050409292:	fe843783          	ld	a5,-24(s0)
ffffffc050409296:	679c                	ld	a5,8(a5)
ffffffc050409298:	fef43423          	sd	a5,-24(s0)
ffffffc05040929c:	fe843703          	ld	a4,-24(s0)
ffffffc0504092a0:	00004797          	auipc	a5,0x4
ffffffc0504092a4:	7f078793          	addi	a5,a5,2032 # ffffffc05040da90 <sleep_queue>
ffffffc0504092a8:	faf71be3          	bne	a4,a5,ffffffc05040925e <time_check+0x18>
ffffffc0504092ac:	0001                	nop
ffffffc0504092ae:	0001                	nop
ffffffc0504092b0:	60e2                	ld	ra,24(sp)
ffffffc0504092b2:	6442                	ld	s0,16(sp)
ffffffc0504092b4:	6105                	addi	sp,sp,32
ffffffc0504092b6:	8082                	ret

ffffffc0504092b8 <do_block>:
ffffffc0504092b8:	7179                	addi	sp,sp,-48
ffffffc0504092ba:	f406                	sd	ra,40(sp)
ffffffc0504092bc:	f022                	sd	s0,32(sp)
ffffffc0504092be:	1800                	addi	s0,sp,48
ffffffc0504092c0:	fca43c23          	sd	a0,-40(s0)
ffffffc0504092c4:	fcb43823          	sd	a1,-48(s0)
ffffffc0504092c8:	800f70ef          	jal	ra,ffffffc0504002c8 <get_current_cpu_id>
ffffffc0504092cc:	87aa                	mv	a5,a0
ffffffc0504092ce:	fef43423          	sd	a5,-24(s0)
ffffffc0504092d2:	007f7717          	auipc	a4,0x7f7
ffffffc0504092d6:	32670713          	addi	a4,a4,806 # ffffffc050c005f8 <current_running>
ffffffc0504092da:	fe843783          	ld	a5,-24(s0)
ffffffc0504092de:	078e                	slli	a5,a5,0x3
ffffffc0504092e0:	97ba                	add	a5,a5,a4
ffffffc0504092e2:	639c                	ld	a5,0(a5)
ffffffc0504092e4:	0807a783          	lw	a5,128(a5)
ffffffc0504092e8:	873e                	mv	a4,a5
ffffffc0504092ea:	4785                	li	a5,1
ffffffc0504092ec:	00f71663          	bne	a4,a5,ffffffc0504092f8 <do_block+0x40>
ffffffc0504092f0:	fd843503          	ld	a0,-40(s0)
ffffffc0504092f4:	923ff0ef          	jal	ra,ffffffc050408c16 <out_queue>
ffffffc0504092f8:	007f7717          	auipc	a4,0x7f7
ffffffc0504092fc:	30070713          	addi	a4,a4,768 # ffffffc050c005f8 <current_running>
ffffffc050409300:	fe843783          	ld	a5,-24(s0)
ffffffc050409304:	078e                	slli	a5,a5,0x3
ffffffc050409306:	97ba                	add	a5,a5,a4
ffffffc050409308:	639c                	ld	a5,0(a5)
ffffffc05040930a:	0807a023          	sw	zero,128(a5)
ffffffc05040930e:	fd843583          	ld	a1,-40(s0)
ffffffc050409312:	fd043503          	ld	a0,-48(s0)
ffffffc050409316:	8d7ff0ef          	jal	ra,ffffffc050408bec <in_queue>
ffffffc05040931a:	a33ff0ef          	jal	ra,ffffffc050408d4c <do_scheduler>
ffffffc05040931e:	0001                	nop
ffffffc050409320:	70a2                	ld	ra,40(sp)
ffffffc050409322:	7402                	ld	s0,32(sp)
ffffffc050409324:	6145                	addi	sp,sp,48
ffffffc050409326:	8082                	ret

ffffffc050409328 <do_unblock>:
ffffffc050409328:	7179                	addi	sp,sp,-48
ffffffc05040932a:	f406                	sd	ra,40(sp)
ffffffc05040932c:	f022                	sd	s0,32(sp)
ffffffc05040932e:	1800                	addi	s0,sp,48
ffffffc050409330:	fca43c23          	sd	a0,-40(s0)
ffffffc050409334:	fd843503          	ld	a0,-40(s0)
ffffffc050409338:	901ff0ef          	jal	ra,ffffffc050408c38 <pcb_addr>
ffffffc05040933c:	fea43423          	sd	a0,-24(s0)
ffffffc050409340:	fe843783          	ld	a5,-24(s0)
ffffffc050409344:	4709                	li	a4,2
ffffffc050409346:	08e7a023          	sw	a4,128(a5)
ffffffc05040934a:	fe843503          	ld	a0,-24(s0)
ffffffc05040934e:	8c9ff0ef          	jal	ra,ffffffc050408c16 <out_queue>
ffffffc050409352:	fe843583          	ld	a1,-24(s0)
ffffffc050409356:	007f7517          	auipc	a0,0x7f7
ffffffc05040935a:	29250513          	addi	a0,a0,658 # ffffffc050c005e8 <ready_queue>
ffffffc05040935e:	88fff0ef          	jal	ra,ffffffc050408bec <in_queue>
ffffffc050409362:	0001                	nop
ffffffc050409364:	70a2                	ld	ra,40(sp)
ffffffc050409366:	7402                	ld	s0,32(sp)
ffffffc050409368:	6145                	addi	sp,sp,48
ffffffc05040936a:	8082                	ret

ffffffc05040936c <do_fork>:
ffffffc05040936c:	715d                	addi	sp,sp,-80
ffffffc05040936e:	e486                	sd	ra,72(sp)
ffffffc050409370:	e0a2                	sd	s0,64(sp)
ffffffc050409372:	0880                	addi	s0,sp,80
ffffffc050409374:	f55f60ef          	jal	ra,ffffffc0504002c8 <get_current_cpu_id>
ffffffc050409378:	87aa                	mv	a5,a0
ffffffc05040937a:	fef43023          	sd	a5,-32(s0)
ffffffc05040937e:	fe042623          	sw	zero,-20(s0)
ffffffc050409382:	a01d                	j	ffffffc0504093a8 <do_fork+0x3c>
ffffffc050409384:	007f7717          	auipc	a4,0x7f7
ffffffc050409388:	37470713          	addi	a4,a4,884 # ffffffc050c006f8 <pcb>
ffffffc05040938c:	fec42683          	lw	a3,-20(s0)
ffffffc050409390:	09800793          	li	a5,152
ffffffc050409394:	02f687b3          	mul	a5,a3,a5
ffffffc050409398:	97ba                	add	a5,a5,a4
ffffffc05040939a:	47bc                	lw	a5,72(a5)
ffffffc05040939c:	cf91                	beqz	a5,ffffffc0504093b8 <do_fork+0x4c>
ffffffc05040939e:	fec42783          	lw	a5,-20(s0)
ffffffc0504093a2:	2785                	addiw	a5,a5,1
ffffffc0504093a4:	fef42623          	sw	a5,-20(s0)
ffffffc0504093a8:	fec42783          	lw	a5,-20(s0)
ffffffc0504093ac:	0007871b          	sext.w	a4,a5
ffffffc0504093b0:	47bd                	li	a5,15
ffffffc0504093b2:	fce7d9e3          	bge	a5,a4,ffffffc050409384 <do_fork+0x18>
ffffffc0504093b6:	a011                	j	ffffffc0504093ba <do_fork+0x4e>
ffffffc0504093b8:	0001                	nop
ffffffc0504093ba:	fec42783          	lw	a5,-20(s0)
ffffffc0504093be:	0007871b          	sext.w	a4,a5
ffffffc0504093c2:	47bd                	li	a5,15
ffffffc0504093c4:	00e7de63          	bge	a5,a4,ffffffc0504093e0 <do_fork+0x74>
ffffffc0504093c8:	00021617          	auipc	a2,0x21
ffffffc0504093cc:	40860613          	addi	a2,a2,1032 # ffffffc05042a7d0 <__FUNCTION__.1648>
ffffffc0504093d0:	14000593          	li	a1,320
ffffffc0504093d4:	00004517          	auipc	a0,0x4
ffffffc0504093d8:	31c50513          	addi	a0,a0,796 # ffffffc05040d6f0 <__FUNCTION__.1870+0x830>
ffffffc0504093dc:	f2eff0ef          	jal	ra,ffffffc050408b0a <_panic>
ffffffc0504093e0:	007f7717          	auipc	a4,0x7f7
ffffffc0504093e4:	21870713          	addi	a4,a4,536 # ffffffc050c005f8 <current_running>
ffffffc0504093e8:	fe043783          	ld	a5,-32(s0)
ffffffc0504093ec:	078e                	slli	a5,a5,0x3
ffffffc0504093ee:	97ba                	add	a5,a5,a4
ffffffc0504093f0:	6390                	ld	a2,0(a5)
ffffffc0504093f2:	007f7717          	auipc	a4,0x7f7
ffffffc0504093f6:	30670713          	addi	a4,a4,774 # ffffffc050c006f8 <pcb>
ffffffc0504093fa:	fec42683          	lw	a3,-20(s0)
ffffffc0504093fe:	09800793          	li	a5,152
ffffffc050409402:	02f687b3          	mul	a5,a3,a5
ffffffc050409406:	97ba                	add	a5,a5,a4
ffffffc050409408:	873e                	mv	a4,a5
ffffffc05040940a:	86b2                	mv	a3,a2
ffffffc05040940c:	09800793          	li	a5,152
ffffffc050409410:	863e                	mv	a2,a5
ffffffc050409412:	85b6                	mv	a1,a3
ffffffc050409414:	853a                	mv	a0,a4
ffffffc050409416:	177020ef          	jal	ra,ffffffc05040bd8c <memcpy>
ffffffc05040941a:	5d6020ef          	jal	ra,ffffffc05040b9f0 <create_pt>
ffffffc05040941e:	fca43c23          	sd	a0,-40(s0)
ffffffc050409422:	5e0005b7          	lui	a1,0x5e000
ffffffc050409426:	fd843503          	ld	a0,-40(s0)
ffffffc05040942a:	1ec020ef          	jal	ra,ffffffc05040b616 <share_pgtable>
ffffffc05040942e:	007f7717          	auipc	a4,0x7f7
ffffffc050409432:	1ca70713          	addi	a4,a4,458 # ffffffc050c005f8 <current_running>
ffffffc050409436:	fe043783          	ld	a5,-32(s0)
ffffffc05040943a:	078e                	slli	a5,a5,0x3
ffffffc05040943c:	97ba                	add	a5,a5,a4
ffffffc05040943e:	639c                	ld	a5,0(a5)
ffffffc050409440:	6b9c                	ld	a5,16(a5)
ffffffc050409442:	fcf43823          	sd	a5,-48(s0)
ffffffc050409446:	fd043783          	ld	a5,-48(s0)
ffffffc05040944a:	00c79713          	slli	a4,a5,0xc
ffffffc05040944e:	fff007b7          	lui	a5,0xfff00
ffffffc050409452:	83a1                	srli	a5,a5,0x8
ffffffc050409454:	8ff9                	and	a5,a5,a4
ffffffc050409456:	fcf43423          	sd	a5,-56(s0)
ffffffc05040945a:	fc843583          	ld	a1,-56(s0)
ffffffc05040945e:	fd843503          	ld	a0,-40(s0)
ffffffc050409462:	604010ef          	jal	ra,ffffffc05040aa66 <fork_mem>
ffffffc050409466:	4581                	li	a1,0
ffffffc050409468:	4505                	li	a0,1
ffffffc05040946a:	338010ef          	jal	ra,ffffffc05040a7a2 <allocPage>
ffffffc05040946e:	87aa                	mv	a5,a0
ffffffc050409470:	853e                	mv	a0,a5
ffffffc050409472:	e7cff0ef          	jal	ra,ffffffc050408aee <pa2kva>
ffffffc050409476:	fca43023          	sd	a0,-64(s0)
ffffffc05040947a:	fc043703          	ld	a4,-64(s0)
ffffffc05040947e:	6785                	lui	a5,0x1
ffffffc050409480:	973e                	add	a4,a4,a5
ffffffc050409482:	007f7697          	auipc	a3,0x7f7
ffffffc050409486:	27668693          	addi	a3,a3,630 # ffffffc050c006f8 <pcb>
ffffffc05040948a:	fec42603          	lw	a2,-20(s0)
ffffffc05040948e:	09800793          	li	a5,152
ffffffc050409492:	02f607b3          	mul	a5,a2,a5
ffffffc050409496:	97b6                	add	a5,a5,a3
ffffffc050409498:	e398                	sd	a4,0(a5)
ffffffc05040949a:	007f7717          	auipc	a4,0x7f7
ffffffc05040949e:	25e70713          	addi	a4,a4,606 # ffffffc050c006f8 <pcb>
ffffffc0504094a2:	fec42683          	lw	a3,-20(s0)
ffffffc0504094a6:	09800793          	li	a5,152
ffffffc0504094aa:	02f687b3          	mul	a5,a3,a5
ffffffc0504094ae:	97ba                	add	a5,a5,a4
ffffffc0504094b0:	4709                	li	a4,2
ffffffc0504094b2:	08e7a023          	sw	a4,128(a5) # 1080 <_start-0xffffffc0503fef80>
ffffffc0504094b6:	fec42783          	lw	a5,-20(s0)
ffffffc0504094ba:	2785                	addiw	a5,a5,1
ffffffc0504094bc:	0007871b          	sext.w	a4,a5
ffffffc0504094c0:	007f7697          	auipc	a3,0x7f7
ffffffc0504094c4:	23868693          	addi	a3,a3,568 # ffffffc050c006f8 <pcb>
ffffffc0504094c8:	fec42603          	lw	a2,-20(s0)
ffffffc0504094cc:	09800793          	li	a5,152
ffffffc0504094d0:	02f607b3          	mul	a5,a2,a5
ffffffc0504094d4:	97b6                	add	a5,a5,a3
ffffffc0504094d6:	c7b8                	sw	a4,72(a5)
ffffffc0504094d8:	007f7717          	auipc	a4,0x7f7
ffffffc0504094dc:	22070713          	addi	a4,a4,544 # ffffffc050c006f8 <pcb>
ffffffc0504094e0:	fec42683          	lw	a3,-20(s0)
ffffffc0504094e4:	09800793          	li	a5,152
ffffffc0504094e8:	02f687b3          	mul	a5,a3,a5
ffffffc0504094ec:	97ba                	add	a5,a5,a4
ffffffc0504094ee:	47bc                	lw	a5,72(a5)
ffffffc0504094f0:	02c79713          	slli	a4,a5,0x2c
ffffffc0504094f4:	fd843783          	ld	a5,-40(s0)
ffffffc0504094f8:	83b1                	srli	a5,a5,0xc
ffffffc0504094fa:	8f5d                	or	a4,a4,a5
ffffffc0504094fc:	57fd                	li	a5,-1
ffffffc0504094fe:	17fe                	slli	a5,a5,0x3f
ffffffc050409500:	8f5d                	or	a4,a4,a5
ffffffc050409502:	007f7697          	auipc	a3,0x7f7
ffffffc050409506:	1f668693          	addi	a3,a3,502 # ffffffc050c006f8 <pcb>
ffffffc05040950a:	fec42603          	lw	a2,-20(s0)
ffffffc05040950e:	09800793          	li	a5,152
ffffffc050409512:	02f607b3          	mul	a5,a2,a5
ffffffc050409516:	97b6                	add	a5,a5,a3
ffffffc050409518:	eb98                	sd	a4,16(a5)
ffffffc05040951a:	fec42703          	lw	a4,-20(s0)
ffffffc05040951e:	09800793          	li	a5,152
ffffffc050409522:	02f707b3          	mul	a5,a4,a5
ffffffc050409526:	02078713          	addi	a4,a5,32
ffffffc05040952a:	007f7797          	auipc	a5,0x7f7
ffffffc05040952e:	1ce78793          	addi	a5,a5,462 # ffffffc050c006f8 <pcb>
ffffffc050409532:	97ba                	add	a5,a5,a4
ffffffc050409534:	07a1                	addi	a5,a5,8
ffffffc050409536:	853e                	mv	a0,a5
ffffffc050409538:	e04ff0ef          	jal	ra,ffffffc050408b3c <list_init>
ffffffc05040953c:	007f7717          	auipc	a4,0x7f7
ffffffc050409540:	1bc70713          	addi	a4,a4,444 # ffffffc050c006f8 <pcb>
ffffffc050409544:	fec42683          	lw	a3,-20(s0)
ffffffc050409548:	09800793          	li	a5,152
ffffffc05040954c:	02f687b3          	mul	a5,a3,a5
ffffffc050409550:	97ba                	add	a5,a5,a4
ffffffc050409552:	6398                	ld	a4,0(a5)
ffffffc050409554:	77fd                	lui	a5,0xfffff
ffffffc050409556:	97ba                	add	a5,a5,a4
ffffffc050409558:	86be                	mv	a3,a5
ffffffc05040955a:	007f7717          	auipc	a4,0x7f7
ffffffc05040955e:	09e70713          	addi	a4,a4,158 # ffffffc050c005f8 <current_running>
ffffffc050409562:	fe043783          	ld	a5,-32(s0)
ffffffc050409566:	078e                	slli	a5,a5,0x3
ffffffc050409568:	97ba                	add	a5,a5,a4
ffffffc05040956a:	639c                	ld	a5,0(a5)
ffffffc05040956c:	6398                	ld	a4,0(a5)
ffffffc05040956e:	77fd                	lui	a5,0xfffff
ffffffc050409570:	19078793          	addi	a5,a5,400 # fffffffffffff190 <__BSS_END__+0x3faf3fcb90>
ffffffc050409574:	97ba                	add	a5,a5,a4
ffffffc050409576:	6605                	lui	a2,0x1
ffffffc050409578:	85be                	mv	a1,a5
ffffffc05040957a:	8536                	mv	a0,a3
ffffffc05040957c:	011020ef          	jal	ra,ffffffc05040bd8c <memcpy>
ffffffc050409580:	007f7717          	auipc	a4,0x7f7
ffffffc050409584:	17870713          	addi	a4,a4,376 # ffffffc050c006f8 <pcb>
ffffffc050409588:	fec42683          	lw	a3,-20(s0)
ffffffc05040958c:	09800793          	li	a5,152
ffffffc050409590:	02f687b3          	mul	a5,a3,a5
ffffffc050409594:	97ba                	add	a5,a5,a4
ffffffc050409596:	639c                	ld	a5,0(a5)
ffffffc050409598:	ee078793          	addi	a5,a5,-288
ffffffc05040959c:	faf43c23          	sd	a5,-72(s0)
ffffffc0504095a0:	fec42703          	lw	a4,-20(s0)
ffffffc0504095a4:	09800793          	li	a5,152
ffffffc0504095a8:	02f70733          	mul	a4,a4,a5
ffffffc0504095ac:	007f7797          	auipc	a5,0x7f7
ffffffc0504095b0:	14c78793          	addi	a5,a5,332 # ffffffc050c006f8 <pcb>
ffffffc0504095b4:	97ba                	add	a5,a5,a4
ffffffc0504095b6:	873e                	mv	a4,a5
ffffffc0504095b8:	fb843783          	ld	a5,-72(s0)
ffffffc0504095bc:	f398                	sd	a4,32(a5)
ffffffc0504095be:	fb843783          	ld	a5,-72(s0)
ffffffc0504095c2:	0407b823          	sd	zero,80(a5)
ffffffc0504095c6:	007f7717          	auipc	a4,0x7f7
ffffffc0504095ca:	13270713          	addi	a4,a4,306 # ffffffc050c006f8 <pcb>
ffffffc0504095ce:	fec42683          	lw	a3,-20(s0)
ffffffc0504095d2:	09800793          	li	a5,152
ffffffc0504095d6:	02f687b3          	mul	a5,a3,a5
ffffffc0504095da:	97ba                	add	a5,a5,a4
ffffffc0504095dc:	639c                	ld	a5,0(a5)
ffffffc0504095de:	e7078713          	addi	a4,a5,-400
ffffffc0504095e2:	007f7697          	auipc	a3,0x7f7
ffffffc0504095e6:	11668693          	addi	a3,a3,278 # ffffffc050c006f8 <pcb>
ffffffc0504095ea:	fec42603          	lw	a2,-20(s0)
ffffffc0504095ee:	09800793          	li	a5,152
ffffffc0504095f2:	02f607b3          	mul	a5,a2,a5
ffffffc0504095f6:	97b6                	add	a5,a5,a3
ffffffc0504095f8:	e398                	sd	a4,0(a5)
ffffffc0504095fa:	007f7717          	auipc	a4,0x7f7
ffffffc0504095fe:	0fe70713          	addi	a4,a4,254 # ffffffc050c006f8 <pcb>
ffffffc050409602:	fec42683          	lw	a3,-20(s0)
ffffffc050409606:	09800793          	li	a5,152
ffffffc05040960a:	02f687b3          	mul	a5,a3,a5
ffffffc05040960e:	97ba                	add	a5,a5,a4
ffffffc050409610:	639c                	ld	a5,0(a5)
ffffffc050409612:	faf43823          	sd	a5,-80(s0)
ffffffc050409616:	ffff7717          	auipc	a4,0xffff7
ffffffc05040961a:	b2670713          	addi	a4,a4,-1242 # ffffffc05040013c <ret_from_exception>
ffffffc05040961e:	fb043783          	ld	a5,-80(s0)
ffffffc050409622:	e398                	sd	a4,0(a5)
ffffffc050409624:	007f7717          	auipc	a4,0x7f7
ffffffc050409628:	0d470713          	addi	a4,a4,212 # ffffffc050c006f8 <pcb>
ffffffc05040962c:	fec42683          	lw	a3,-20(s0)
ffffffc050409630:	09800793          	li	a5,152
ffffffc050409634:	02f687b3          	mul	a5,a3,a5
ffffffc050409638:	97ba                	add	a5,a5,a4
ffffffc05040963a:	6398                	ld	a4,0(a5)
ffffffc05040963c:	fb043783          	ld	a5,-80(s0)
ffffffc050409640:	e798                	sd	a4,8(a5)
ffffffc050409642:	fec42703          	lw	a4,-20(s0)
ffffffc050409646:	09800793          	li	a5,152
ffffffc05040964a:	02f70733          	mul	a4,a4,a5
ffffffc05040964e:	007f7797          	auipc	a5,0x7f7
ffffffc050409652:	0aa78793          	addi	a5,a5,170 # ffffffc050c006f8 <pcb>
ffffffc050409656:	97ba                	add	a5,a5,a4
ffffffc050409658:	85be                	mv	a1,a5
ffffffc05040965a:	007f7517          	auipc	a0,0x7f7
ffffffc05040965e:	f8e50513          	addi	a0,a0,-114 # ffffffc050c005e8 <ready_queue>
ffffffc050409662:	d8aff0ef          	jal	ra,ffffffc050408bec <in_queue>
ffffffc050409666:	007f7717          	auipc	a4,0x7f7
ffffffc05040966a:	09270713          	addi	a4,a4,146 # ffffffc050c006f8 <pcb>
ffffffc05040966e:	fec42683          	lw	a3,-20(s0)
ffffffc050409672:	09800793          	li	a5,152
ffffffc050409676:	02f687b3          	mul	a5,a3,a5
ffffffc05040967a:	97ba                	add	a5,a5,a4
ffffffc05040967c:	47bc                	lw	a5,72(a5)
ffffffc05040967e:	853e                	mv	a0,a5
ffffffc050409680:	60a6                	ld	ra,72(sp)
ffffffc050409682:	6406                	ld	s0,64(sp)
ffffffc050409684:	6161                	addi	sp,sp,80
ffffffc050409686:	8082                	ret

ffffffc050409688 <trans>:
ffffffc050409688:	1101                	addi	sp,sp,-32
ffffffc05040968a:	ec22                	sd	s0,24(sp)
ffffffc05040968c:	1000                	addi	s0,sp,32
ffffffc05040968e:	87aa                	mv	a5,a0
ffffffc050409690:	fef42623          	sw	a5,-20(s0)
ffffffc050409694:	fec42783          	lw	a5,-20(s0)
ffffffc050409698:	0007871b          	sext.w	a4,a5
ffffffc05040969c:	4791                	li	a5,4
ffffffc05040969e:	04e7ed63          	bltu	a5,a4,ffffffc0504096f8 <trans+0x70>
ffffffc0504096a2:	fec46783          	lwu	a5,-20(s0)
ffffffc0504096a6:	00279713          	slli	a4,a5,0x2
ffffffc0504096aa:	00004797          	auipc	a5,0x4
ffffffc0504096ae:	0be78793          	addi	a5,a5,190 # ffffffc05040d768 <__FUNCTION__.1870+0x8a8>
ffffffc0504096b2:	97ba                	add	a5,a5,a4
ffffffc0504096b4:	439c                	lw	a5,0(a5)
ffffffc0504096b6:	0007871b          	sext.w	a4,a5
ffffffc0504096ba:	00004797          	auipc	a5,0x4
ffffffc0504096be:	0ae78793          	addi	a5,a5,174 # ffffffc05040d768 <__FUNCTION__.1870+0x8a8>
ffffffc0504096c2:	97ba                	add	a5,a5,a4
ffffffc0504096c4:	8782                	jr	a5
ffffffc0504096c6:	00004797          	auipc	a5,0x4
ffffffc0504096ca:	04278793          	addi	a5,a5,66 # ffffffc05040d708 <__FUNCTION__.1870+0x848>
ffffffc0504096ce:	a80d                	j	ffffffc050409700 <trans+0x78>
ffffffc0504096d0:	00004797          	auipc	a5,0x4
ffffffc0504096d4:	04878793          	addi	a5,a5,72 # ffffffc05040d718 <__FUNCTION__.1870+0x858>
ffffffc0504096d8:	a025                	j	ffffffc050409700 <trans+0x78>
ffffffc0504096da:	00004797          	auipc	a5,0x4
ffffffc0504096de:	04e78793          	addi	a5,a5,78 # ffffffc05040d728 <__FUNCTION__.1870+0x868>
ffffffc0504096e2:	a839                	j	ffffffc050409700 <trans+0x78>
ffffffc0504096e4:	00004797          	auipc	a5,0x4
ffffffc0504096e8:	05478793          	addi	a5,a5,84 # ffffffc05040d738 <__FUNCTION__.1870+0x878>
ffffffc0504096ec:	a811                	j	ffffffc050409700 <trans+0x78>
ffffffc0504096ee:	00004797          	auipc	a5,0x4
ffffffc0504096f2:	05a78793          	addi	a5,a5,90 # ffffffc05040d748 <__FUNCTION__.1870+0x888>
ffffffc0504096f6:	a029                	j	ffffffc050409700 <trans+0x78>
ffffffc0504096f8:	00004797          	auipc	a5,0x4
ffffffc0504096fc:	06078793          	addi	a5,a5,96 # ffffffc05040d758 <__FUNCTION__.1870+0x898>
ffffffc050409700:	853e                	mv	a0,a5
ffffffc050409702:	6462                	ld	s0,24(sp)
ffffffc050409704:	6105                	addi	sp,sp,32
ffffffc050409706:	8082                	ret

ffffffc050409708 <do_process_show>:
ffffffc050409708:	7179                	addi	sp,sp,-48
ffffffc05040970a:	f406                	sd	ra,40(sp)
ffffffc05040970c:	f022                	sd	s0,32(sp)
ffffffc05040970e:	ec26                	sd	s1,24(sp)
ffffffc050409710:	e84a                	sd	s2,16(sp)
ffffffc050409712:	1800                	addi	s0,sp,48
ffffffc050409714:	00004517          	auipc	a0,0x4
ffffffc050409718:	06c50513          	addi	a0,a0,108 # ffffffc05040d780 <__FUNCTION__.1870+0x8c0>
ffffffc05040971c:	156030ef          	jal	ra,ffffffc05040c872 <prints>
ffffffc050409720:	fc042e23          	sw	zero,-36(s0)
ffffffc050409724:	a0fd                	j	ffffffc050409812 <do_process_show+0x10a>
ffffffc050409726:	007f7717          	auipc	a4,0x7f7
ffffffc05040972a:	fd270713          	addi	a4,a4,-46 # ffffffc050c006f8 <pcb>
ffffffc05040972e:	fdc42683          	lw	a3,-36(s0)
ffffffc050409732:	09800793          	li	a5,152
ffffffc050409736:	02f687b3          	mul	a5,a3,a5
ffffffc05040973a:	97ba                	add	a5,a5,a4
ffffffc05040973c:	47bc                	lw	a5,72(a5)
ffffffc05040973e:	c7e9                	beqz	a5,ffffffc050409808 <do_process_show+0x100>
ffffffc050409740:	fdc42783          	lw	a5,-36(s0)
ffffffc050409744:	2785                	addiw	a5,a5,1
ffffffc050409746:	0007849b          	sext.w	s1,a5
ffffffc05040974a:	007f7717          	auipc	a4,0x7f7
ffffffc05040974e:	fae70713          	addi	a4,a4,-82 # ffffffc050c006f8 <pcb>
ffffffc050409752:	fdc42683          	lw	a3,-36(s0)
ffffffc050409756:	09800793          	li	a5,152
ffffffc05040975a:	02f687b3          	mul	a5,a3,a5
ffffffc05040975e:	97ba                	add	a5,a5,a4
ffffffc050409760:	0487a903          	lw	s2,72(a5)
ffffffc050409764:	007f7717          	auipc	a4,0x7f7
ffffffc050409768:	f9470713          	addi	a4,a4,-108 # ffffffc050c006f8 <pcb>
ffffffc05040976c:	fdc42683          	lw	a3,-36(s0)
ffffffc050409770:	09800793          	li	a5,152
ffffffc050409774:	02f687b3          	mul	a5,a3,a5
ffffffc050409778:	97ba                	add	a5,a5,a4
ffffffc05040977a:	0807a783          	lw	a5,128(a5)
ffffffc05040977e:	853e                	mv	a0,a5
ffffffc050409780:	f09ff0ef          	jal	ra,ffffffc050409688 <trans>
ffffffc050409784:	862a                	mv	a2,a0
ffffffc050409786:	007f7717          	auipc	a4,0x7f7
ffffffc05040978a:	f7270713          	addi	a4,a4,-142 # ffffffc050c006f8 <pcb>
ffffffc05040978e:	fdc42683          	lw	a3,-36(s0)
ffffffc050409792:	09800793          	li	a5,152
ffffffc050409796:	02f687b3          	mul	a5,a3,a5
ffffffc05040979a:	97ba                	add	a5,a5,a4
ffffffc05040979c:	4fbc                	lw	a5,88(a5)
ffffffc05040979e:	873e                	mv	a4,a5
ffffffc0504097a0:	86b2                	mv	a3,a2
ffffffc0504097a2:	864a                	mv	a2,s2
ffffffc0504097a4:	85a6                	mv	a1,s1
ffffffc0504097a6:	00004517          	auipc	a0,0x4
ffffffc0504097aa:	ff250513          	addi	a0,a0,-14 # ffffffc05040d798 <__FUNCTION__.1870+0x8d8>
ffffffc0504097ae:	0c4030ef          	jal	ra,ffffffc05040c872 <prints>
ffffffc0504097b2:	007f7717          	auipc	a4,0x7f7
ffffffc0504097b6:	f4670713          	addi	a4,a4,-186 # ffffffc050c006f8 <pcb>
ffffffc0504097ba:	fdc42683          	lw	a3,-36(s0)
ffffffc0504097be:	09800793          	li	a5,152
ffffffc0504097c2:	02f687b3          	mul	a5,a3,a5
ffffffc0504097c6:	97ba                	add	a5,a5,a4
ffffffc0504097c8:	0807a783          	lw	a5,128(a5)
ffffffc0504097cc:	873e                	mv	a4,a5
ffffffc0504097ce:	4785                	li	a5,1
ffffffc0504097d0:	02f71663          	bne	a4,a5,ffffffc0504097fc <do_process_show+0xf4>
ffffffc0504097d4:	007f7717          	auipc	a4,0x7f7
ffffffc0504097d8:	f2470713          	addi	a4,a4,-220 # ffffffc050c006f8 <pcb>
ffffffc0504097dc:	fdc42683          	lw	a3,-36(s0)
ffffffc0504097e0:	09800793          	li	a5,152
ffffffc0504097e4:	02f687b3          	mul	a5,a3,a5
ffffffc0504097e8:	97ba                	add	a5,a5,a4
ffffffc0504097ea:	6bbc                	ld	a5,80(a5)
ffffffc0504097ec:	85be                	mv	a1,a5
ffffffc0504097ee:	00004517          	auipc	a0,0x4
ffffffc0504097f2:	fd250513          	addi	a0,a0,-46 # ffffffc05040d7c0 <__FUNCTION__.1870+0x900>
ffffffc0504097f6:	07c030ef          	jal	ra,ffffffc05040c872 <prints>
ffffffc0504097fa:	a039                	j	ffffffc050409808 <do_process_show+0x100>
ffffffc0504097fc:	00004517          	auipc	a0,0x4
ffffffc050409800:	fd450513          	addi	a0,a0,-44 # ffffffc05040d7d0 <__FUNCTION__.1870+0x910>
ffffffc050409804:	06e030ef          	jal	ra,ffffffc05040c872 <prints>
ffffffc050409808:	fdc42783          	lw	a5,-36(s0)
ffffffc05040980c:	2785                	addiw	a5,a5,1
ffffffc05040980e:	fcf42e23          	sw	a5,-36(s0)
ffffffc050409812:	fdc42783          	lw	a5,-36(s0)
ffffffc050409816:	0007871b          	sext.w	a4,a5
ffffffc05040981a:	47bd                	li	a5,15
ffffffc05040981c:	f0e7d5e3          	bge	a5,a4,ffffffc050409726 <do_process_show+0x1e>
ffffffc050409820:	0001                	nop
ffffffc050409822:	0001                	nop
ffffffc050409824:	70a2                	ld	ra,40(sp)
ffffffc050409826:	7402                	ld	s0,32(sp)
ffffffc050409828:	64e2                	ld	s1,24(sp)
ffffffc05040982a:	6942                	ld	s2,16(sp)
ffffffc05040982c:	6145                	addi	sp,sp,48
ffffffc05040982e:	8082                	ret

ffffffc050409830 <free>:
ffffffc050409830:	7179                	addi	sp,sp,-48
ffffffc050409832:	f422                	sd	s0,40(sp)
ffffffc050409834:	1800                	addi	s0,sp,48
ffffffc050409836:	fca43c23          	sd	a0,-40(s0)
ffffffc05040983a:	fe042623          	sw	zero,-20(s0)
ffffffc05040983e:	a825                	j	ffffffc050409876 <free+0x46>
ffffffc050409840:	007f7717          	auipc	a4,0x7f7
ffffffc050409844:	dc870713          	addi	a4,a4,-568 # ffffffc050c00608 <free_space>
ffffffc050409848:	fec42783          	lw	a5,-20(s0)
ffffffc05040984c:	078e                	slli	a5,a5,0x3
ffffffc05040984e:	97ba                	add	a5,a5,a4
ffffffc050409850:	639c                	ld	a5,0(a5)
ffffffc050409852:	ef89                	bnez	a5,ffffffc05040986c <free+0x3c>
ffffffc050409854:	007f7717          	auipc	a4,0x7f7
ffffffc050409858:	db470713          	addi	a4,a4,-588 # ffffffc050c00608 <free_space>
ffffffc05040985c:	fec42783          	lw	a5,-20(s0)
ffffffc050409860:	078e                	slli	a5,a5,0x3
ffffffc050409862:	97ba                	add	a5,a5,a4
ffffffc050409864:	fd843703          	ld	a4,-40(s0)
ffffffc050409868:	e398                	sd	a4,0(a5)
ffffffc05040986a:	a831                	j	ffffffc050409886 <free+0x56>
ffffffc05040986c:	fec42783          	lw	a5,-20(s0)
ffffffc050409870:	2785                	addiw	a5,a5,1
ffffffc050409872:	fef42623          	sw	a5,-20(s0)
ffffffc050409876:	fec42783          	lw	a5,-20(s0)
ffffffc05040987a:	0007871b          	sext.w	a4,a5
ffffffc05040987e:	47f5                	li	a5,29
ffffffc050409880:	fce7d0e3          	bge	a5,a4,ffffffc050409840 <free+0x10>
ffffffc050409884:	0001                	nop
ffffffc050409886:	0001                	nop
ffffffc050409888:	7422                	ld	s0,40(sp)
ffffffc05040988a:	6145                	addi	sp,sp,48
ffffffc05040988c:	8082                	ret

ffffffc05040988e <release_queue>:
ffffffc05040988e:	7179                	addi	sp,sp,-48
ffffffc050409890:	f406                	sd	ra,40(sp)
ffffffc050409892:	f022                	sd	s0,32(sp)
ffffffc050409894:	1800                	addi	s0,sp,48
ffffffc050409896:	fca43c23          	sd	a0,-40(s0)
ffffffc05040989a:	fd843783          	ld	a5,-40(s0)
ffffffc05040989e:	679c                	ld	a5,8(a5)
ffffffc0504098a0:	fef43423          	sd	a5,-24(s0)
ffffffc0504098a4:	a811                	j	ffffffc0504098b8 <release_queue+0x2a>
ffffffc0504098a6:	fe843503          	ld	a0,-24(s0)
ffffffc0504098aa:	a7fff0ef          	jal	ra,ffffffc050409328 <do_unblock>
ffffffc0504098ae:	fd843783          	ld	a5,-40(s0)
ffffffc0504098b2:	679c                	ld	a5,8(a5)
ffffffc0504098b4:	fef43423          	sd	a5,-24(s0)
ffffffc0504098b8:	fe843703          	ld	a4,-24(s0)
ffffffc0504098bc:	fd843783          	ld	a5,-40(s0)
ffffffc0504098c0:	fef713e3          	bne	a4,a5,ffffffc0504098a6 <release_queue+0x18>
ffffffc0504098c4:	0001                	nop
ffffffc0504098c6:	0001                	nop
ffffffc0504098c8:	70a2                	ld	ra,40(sp)
ffffffc0504098ca:	7402                	ld	s0,32(sp)
ffffffc0504098cc:	6145                	addi	sp,sp,48
ffffffc0504098ce:	8082                	ret

ffffffc0504098d0 <do_exit>:
ffffffc0504098d0:	1101                	addi	sp,sp,-32
ffffffc0504098d2:	ec06                	sd	ra,24(sp)
ffffffc0504098d4:	e822                	sd	s0,16(sp)
ffffffc0504098d6:	1000                	addi	s0,sp,32
ffffffc0504098d8:	9f1f60ef          	jal	ra,ffffffc0504002c8 <get_current_cpu_id>
ffffffc0504098dc:	87aa                	mv	a5,a0
ffffffc0504098de:	fef43023          	sd	a5,-32(s0)
ffffffc0504098e2:	007f7717          	auipc	a4,0x7f7
ffffffc0504098e6:	d1670713          	addi	a4,a4,-746 # ffffffc050c005f8 <current_running>
ffffffc0504098ea:	fe043783          	ld	a5,-32(s0)
ffffffc0504098ee:	078e                	slli	a5,a5,0x3
ffffffc0504098f0:	97ba                	add	a5,a5,a4
ffffffc0504098f2:	639c                	ld	a5,0(a5)
ffffffc0504098f4:	0847a783          	lw	a5,132(a5)
ffffffc0504098f8:	873e                	mv	a4,a5
ffffffc0504098fa:	4785                	li	a5,1
ffffffc0504098fc:	10f71463          	bne	a4,a5,ffffffc050409a04 <do_exit+0x134>
ffffffc050409900:	007f7717          	auipc	a4,0x7f7
ffffffc050409904:	cf870713          	addi	a4,a4,-776 # ffffffc050c005f8 <current_running>
ffffffc050409908:	fe043783          	ld	a5,-32(s0)
ffffffc05040990c:	078e                	slli	a5,a5,0x3
ffffffc05040990e:	97ba                	add	a5,a5,a4
ffffffc050409910:	639c                	ld	a5,0(a5)
ffffffc050409912:	4711                	li	a4,4
ffffffc050409914:	08e7a023          	sw	a4,128(a5)
ffffffc050409918:	007f7717          	auipc	a4,0x7f7
ffffffc05040991c:	ce070713          	addi	a4,a4,-800 # ffffffc050c005f8 <current_running>
ffffffc050409920:	fe043783          	ld	a5,-32(s0)
ffffffc050409924:	078e                	slli	a5,a5,0x3
ffffffc050409926:	97ba                	add	a5,a5,a4
ffffffc050409928:	639c                	ld	a5,0(a5)
ffffffc05040992a:	853e                	mv	a0,a5
ffffffc05040992c:	aeaff0ef          	jal	ra,ffffffc050408c16 <out_queue>
ffffffc050409930:	fe042623          	sw	zero,-20(s0)
ffffffc050409934:	a8b1                	j	ffffffc050409990 <do_exit+0xc0>
ffffffc050409936:	007f7717          	auipc	a4,0x7f7
ffffffc05040993a:	cc270713          	addi	a4,a4,-830 # ffffffc050c005f8 <current_running>
ffffffc05040993e:	fe043783          	ld	a5,-32(s0)
ffffffc050409942:	078e                	slli	a5,a5,0x3
ffffffc050409944:	97ba                	add	a5,a5,a4
ffffffc050409946:	6398                	ld	a4,0(a5)
ffffffc050409948:	fec42783          	lw	a5,-20(s0)
ffffffc05040994c:	07d1                	addi	a5,a5,20
ffffffc05040994e:	078a                	slli	a5,a5,0x2
ffffffc050409950:	97ba                	add	a5,a5,a4
ffffffc050409952:	47dc                	lw	a5,12(a5)
ffffffc050409954:	873e                	mv	a4,a5
ffffffc050409956:	4785                	li	a5,1
ffffffc050409958:	02f71763          	bne	a4,a5,ffffffc050409986 <do_exit+0xb6>
ffffffc05040995c:	fec42783          	lw	a5,-20(s0)
ffffffc050409960:	853e                	mv	a0,a5
ffffffc050409962:	84afe0ef          	jal	ra,ffffffc0504079ac <mutex_unlock>
ffffffc050409966:	007f7717          	auipc	a4,0x7f7
ffffffc05040996a:	c9270713          	addi	a4,a4,-878 # ffffffc050c005f8 <current_running>
ffffffc05040996e:	fe043783          	ld	a5,-32(s0)
ffffffc050409972:	078e                	slli	a5,a5,0x3
ffffffc050409974:	97ba                	add	a5,a5,a4
ffffffc050409976:	6398                	ld	a4,0(a5)
ffffffc050409978:	fec42783          	lw	a5,-20(s0)
ffffffc05040997c:	07d1                	addi	a5,a5,20
ffffffc05040997e:	078a                	slli	a5,a5,0x2
ffffffc050409980:	97ba                	add	a5,a5,a4
ffffffc050409982:	0007a623          	sw	zero,12(a5)
ffffffc050409986:	fec42783          	lw	a5,-20(s0)
ffffffc05040998a:	2785                	addiw	a5,a5,1
ffffffc05040998c:	fef42623          	sw	a5,-20(s0)
ffffffc050409990:	fec42783          	lw	a5,-20(s0)
ffffffc050409994:	0007871b          	sext.w	a4,a5
ffffffc050409998:	4791                	li	a5,4
ffffffc05040999a:	f8e7dee3          	bge	a5,a4,ffffffc050409936 <do_exit+0x66>
ffffffc05040999e:	007f7717          	auipc	a4,0x7f7
ffffffc0504099a2:	c5a70713          	addi	a4,a4,-934 # ffffffc050c005f8 <current_running>
ffffffc0504099a6:	fe043783          	ld	a5,-32(s0)
ffffffc0504099aa:	078e                	slli	a5,a5,0x3
ffffffc0504099ac:	97ba                	add	a5,a5,a4
ffffffc0504099ae:	639c                	ld	a5,0(a5)
ffffffc0504099b0:	02878793          	addi	a5,a5,40
ffffffc0504099b4:	853e                	mv	a0,a5
ffffffc0504099b6:	ed9ff0ef          	jal	ra,ffffffc05040988e <release_queue>
ffffffc0504099ba:	007f7717          	auipc	a4,0x7f7
ffffffc0504099be:	c3e70713          	addi	a4,a4,-962 # ffffffc050c005f8 <current_running>
ffffffc0504099c2:	fe043783          	ld	a5,-32(s0)
ffffffc0504099c6:	078e                	slli	a5,a5,0x3
ffffffc0504099c8:	97ba                	add	a5,a5,a4
ffffffc0504099ca:	639c                	ld	a5,0(a5)
ffffffc0504099cc:	5fbc                	lw	a5,120(a5)
ffffffc0504099ce:	ef89                	bnez	a5,ffffffc0504099e8 <do_exit+0x118>
ffffffc0504099d0:	007f7717          	auipc	a4,0x7f7
ffffffc0504099d4:	c2870713          	addi	a4,a4,-984 # ffffffc050c005f8 <current_running>
ffffffc0504099d8:	fe043783          	ld	a5,-32(s0)
ffffffc0504099dc:	078e                	slli	a5,a5,0x3
ffffffc0504099de:	97ba                	add	a5,a5,a4
ffffffc0504099e0:	639c                	ld	a5,0(a5)
ffffffc0504099e2:	4705                	li	a4,1
ffffffc0504099e4:	dbf8                	sw	a4,116(a5)
ffffffc0504099e6:	a821                	j	ffffffc0504099fe <do_exit+0x12e>
ffffffc0504099e8:	007f7717          	auipc	a4,0x7f7
ffffffc0504099ec:	c1070713          	addi	a4,a4,-1008 # ffffffc050c005f8 <current_running>
ffffffc0504099f0:	fe043783          	ld	a5,-32(s0)
ffffffc0504099f4:	078e                	slli	a5,a5,0x3
ffffffc0504099f6:	97ba                	add	a5,a5,a4
ffffffc0504099f8:	639c                	ld	a5,0(a5)
ffffffc0504099fa:	0407a423          	sw	zero,72(a5)
ffffffc0504099fe:	b4eff0ef          	jal	ra,ffffffc050408d4c <do_scheduler>
ffffffc050409a02:	a8e1                	j	ffffffc050409ada <do_exit+0x20a>
ffffffc050409a04:	007f7717          	auipc	a4,0x7f7
ffffffc050409a08:	bf470713          	addi	a4,a4,-1036 # ffffffc050c005f8 <current_running>
ffffffc050409a0c:	fe043783          	ld	a5,-32(s0)
ffffffc050409a10:	078e                	slli	a5,a5,0x3
ffffffc050409a12:	97ba                	add	a5,a5,a4
ffffffc050409a14:	639c                	ld	a5,0(a5)
ffffffc050409a16:	0847a783          	lw	a5,132(a5)
ffffffc050409a1a:	e3e1                	bnez	a5,ffffffc050409ada <do_exit+0x20a>
ffffffc050409a1c:	007f7717          	auipc	a4,0x7f7
ffffffc050409a20:	bdc70713          	addi	a4,a4,-1060 # ffffffc050c005f8 <current_running>
ffffffc050409a24:	fe043783          	ld	a5,-32(s0)
ffffffc050409a28:	078e                	slli	a5,a5,0x3
ffffffc050409a2a:	97ba                	add	a5,a5,a4
ffffffc050409a2c:	639c                	ld	a5,0(a5)
ffffffc050409a2e:	470d                	li	a4,3
ffffffc050409a30:	08e7a023          	sw	a4,128(a5)
ffffffc050409a34:	007f7717          	auipc	a4,0x7f7
ffffffc050409a38:	bc470713          	addi	a4,a4,-1084 # ffffffc050c005f8 <current_running>
ffffffc050409a3c:	fe043783          	ld	a5,-32(s0)
ffffffc050409a40:	078e                	slli	a5,a5,0x3
ffffffc050409a42:	97ba                	add	a5,a5,a4
ffffffc050409a44:	639c                	ld	a5,0(a5)
ffffffc050409a46:	853e                	mv	a0,a5
ffffffc050409a48:	9ceff0ef          	jal	ra,ffffffc050408c16 <out_queue>
ffffffc050409a4c:	fe042623          	sw	zero,-20(s0)
ffffffc050409a50:	a8b1                	j	ffffffc050409aac <do_exit+0x1dc>
ffffffc050409a52:	007f7717          	auipc	a4,0x7f7
ffffffc050409a56:	ba670713          	addi	a4,a4,-1114 # ffffffc050c005f8 <current_running>
ffffffc050409a5a:	fe043783          	ld	a5,-32(s0)
ffffffc050409a5e:	078e                	slli	a5,a5,0x3
ffffffc050409a60:	97ba                	add	a5,a5,a4
ffffffc050409a62:	6398                	ld	a4,0(a5)
ffffffc050409a64:	fec42783          	lw	a5,-20(s0)
ffffffc050409a68:	07d1                	addi	a5,a5,20
ffffffc050409a6a:	078a                	slli	a5,a5,0x2
ffffffc050409a6c:	97ba                	add	a5,a5,a4
ffffffc050409a6e:	47dc                	lw	a5,12(a5)
ffffffc050409a70:	873e                	mv	a4,a5
ffffffc050409a72:	4785                	li	a5,1
ffffffc050409a74:	02f71763          	bne	a4,a5,ffffffc050409aa2 <do_exit+0x1d2>
ffffffc050409a78:	fec42783          	lw	a5,-20(s0)
ffffffc050409a7c:	853e                	mv	a0,a5
ffffffc050409a7e:	f2ffd0ef          	jal	ra,ffffffc0504079ac <mutex_unlock>
ffffffc050409a82:	007f7717          	auipc	a4,0x7f7
ffffffc050409a86:	b7670713          	addi	a4,a4,-1162 # ffffffc050c005f8 <current_running>
ffffffc050409a8a:	fe043783          	ld	a5,-32(s0)
ffffffc050409a8e:	078e                	slli	a5,a5,0x3
ffffffc050409a90:	97ba                	add	a5,a5,a4
ffffffc050409a92:	6398                	ld	a4,0(a5)
ffffffc050409a94:	fec42783          	lw	a5,-20(s0)
ffffffc050409a98:	07d1                	addi	a5,a5,20
ffffffc050409a9a:	078a                	slli	a5,a5,0x2
ffffffc050409a9c:	97ba                	add	a5,a5,a4
ffffffc050409a9e:	0007a623          	sw	zero,12(a5)
ffffffc050409aa2:	fec42783          	lw	a5,-20(s0)
ffffffc050409aa6:	2785                	addiw	a5,a5,1
ffffffc050409aa8:	fef42623          	sw	a5,-20(s0)
ffffffc050409aac:	fec42783          	lw	a5,-20(s0)
ffffffc050409ab0:	0007871b          	sext.w	a4,a5
ffffffc050409ab4:	4791                	li	a5,4
ffffffc050409ab6:	f8e7dee3          	bge	a5,a4,ffffffc050409a52 <do_exit+0x182>
ffffffc050409aba:	007f7717          	auipc	a4,0x7f7
ffffffc050409abe:	b3e70713          	addi	a4,a4,-1218 # ffffffc050c005f8 <current_running>
ffffffc050409ac2:	fe043783          	ld	a5,-32(s0)
ffffffc050409ac6:	078e                	slli	a5,a5,0x3
ffffffc050409ac8:	97ba                	add	a5,a5,a4
ffffffc050409aca:	639c                	ld	a5,0(a5)
ffffffc050409acc:	02878793          	addi	a5,a5,40
ffffffc050409ad0:	853e                	mv	a0,a5
ffffffc050409ad2:	dbdff0ef          	jal	ra,ffffffc05040988e <release_queue>
ffffffc050409ad6:	a76ff0ef          	jal	ra,ffffffc050408d4c <do_scheduler>
ffffffc050409ada:	0001                	nop
ffffffc050409adc:	60e2                	ld	ra,24(sp)
ffffffc050409ade:	6442                	ld	s0,16(sp)
ffffffc050409ae0:	6105                	addi	sp,sp,32
ffffffc050409ae2:	8082                	ret

ffffffc050409ae4 <do_kill>:
ffffffc050409ae4:	7179                	addi	sp,sp,-48
ffffffc050409ae6:	f406                	sd	ra,40(sp)
ffffffc050409ae8:	f022                	sd	s0,32(sp)
ffffffc050409aea:	1800                	addi	s0,sp,48
ffffffc050409aec:	87aa                	mv	a5,a0
ffffffc050409aee:	fcf42e23          	sw	a5,-36(s0)
ffffffc050409af2:	fd6f60ef          	jal	ra,ffffffc0504002c8 <get_current_cpu_id>
ffffffc050409af6:	87aa                	mv	a5,a0
ffffffc050409af8:	fef43023          	sd	a5,-32(s0)
ffffffc050409afc:	fe042623          	sw	zero,-20(s0)
ffffffc050409b00:	a031                	j	ffffffc050409b0c <do_kill+0x28>
ffffffc050409b02:	fec42783          	lw	a5,-20(s0)
ffffffc050409b06:	2785                	addiw	a5,a5,1
ffffffc050409b08:	fef42623          	sw	a5,-20(s0)
ffffffc050409b0c:	007f7717          	auipc	a4,0x7f7
ffffffc050409b10:	bec70713          	addi	a4,a4,-1044 # ffffffc050c006f8 <pcb>
ffffffc050409b14:	fec42683          	lw	a3,-20(s0)
ffffffc050409b18:	09800793          	li	a5,152
ffffffc050409b1c:	02f687b3          	mul	a5,a3,a5
ffffffc050409b20:	97ba                	add	a5,a5,a4
ffffffc050409b22:	47b8                	lw	a4,72(a5)
ffffffc050409b24:	fdc42783          	lw	a5,-36(s0)
ffffffc050409b28:	2781                	sext.w	a5,a5
ffffffc050409b2a:	00e78963          	beq	a5,a4,ffffffc050409b3c <do_kill+0x58>
ffffffc050409b2e:	fec42783          	lw	a5,-20(s0)
ffffffc050409b32:	0007871b          	sext.w	a4,a5
ffffffc050409b36:	47bd                	li	a5,15
ffffffc050409b38:	fce7d5e3          	bge	a5,a4,ffffffc050409b02 <do_kill+0x1e>
ffffffc050409b3c:	fec42783          	lw	a5,-20(s0)
ffffffc050409b40:	0007871b          	sext.w	a4,a5
ffffffc050409b44:	47c1                	li	a5,16
ffffffc050409b46:	00f71463          	bne	a4,a5,ffffffc050409b4e <do_kill+0x6a>
ffffffc050409b4a:	4781                	li	a5,0
ffffffc050409b4c:	a299                	j	ffffffc050409c92 <do_kill+0x1ae>
ffffffc050409b4e:	007f7717          	auipc	a4,0x7f7
ffffffc050409b52:	baa70713          	addi	a4,a4,-1110 # ffffffc050c006f8 <pcb>
ffffffc050409b56:	fec42683          	lw	a3,-20(s0)
ffffffc050409b5a:	09800793          	li	a5,152
ffffffc050409b5e:	02f687b3          	mul	a5,a3,a5
ffffffc050409b62:	97ba                	add	a5,a5,a4
ffffffc050409b64:	0807a783          	lw	a5,128(a5)
ffffffc050409b68:	873e                	mv	a4,a5
ffffffc050409b6a:	4785                	li	a5,1
ffffffc050409b6c:	02f71063          	bne	a4,a5,ffffffc050409b8c <do_kill+0xa8>
ffffffc050409b70:	007f7717          	auipc	a4,0x7f7
ffffffc050409b74:	b8870713          	addi	a4,a4,-1144 # ffffffc050c006f8 <pcb>
ffffffc050409b78:	fec42683          	lw	a3,-20(s0)
ffffffc050409b7c:	09800793          	li	a5,152
ffffffc050409b80:	02f687b3          	mul	a5,a3,a5
ffffffc050409b84:	97ba                	add	a5,a5,a4
ffffffc050409b86:	4705                	li	a4,1
ffffffc050409b88:	dbb8                	sw	a4,112(a5)
ffffffc050409b8a:	a219                	j	ffffffc050409c90 <do_kill+0x1ac>
ffffffc050409b8c:	007f7717          	auipc	a4,0x7f7
ffffffc050409b90:	b6c70713          	addi	a4,a4,-1172 # ffffffc050c006f8 <pcb>
ffffffc050409b94:	fec42683          	lw	a3,-20(s0)
ffffffc050409b98:	09800793          	li	a5,152
ffffffc050409b9c:	02f687b3          	mul	a5,a3,a5
ffffffc050409ba0:	97ba                	add	a5,a5,a4
ffffffc050409ba2:	4711                	li	a4,4
ffffffc050409ba4:	08e7a023          	sw	a4,128(a5)
ffffffc050409ba8:	fec42703          	lw	a4,-20(s0)
ffffffc050409bac:	09800793          	li	a5,152
ffffffc050409bb0:	02f70733          	mul	a4,a4,a5
ffffffc050409bb4:	007f7797          	auipc	a5,0x7f7
ffffffc050409bb8:	b4478793          	addi	a5,a5,-1212 # ffffffc050c006f8 <pcb>
ffffffc050409bbc:	97ba                	add	a5,a5,a4
ffffffc050409bbe:	853e                	mv	a0,a5
ffffffc050409bc0:	856ff0ef          	jal	ra,ffffffc050408c16 <out_queue>
ffffffc050409bc4:	fe042423          	sw	zero,-24(s0)
ffffffc050409bc8:	a095                	j	ffffffc050409c2c <do_kill+0x148>
ffffffc050409bca:	007f7717          	auipc	a4,0x7f7
ffffffc050409bce:	b2e70713          	addi	a4,a4,-1234 # ffffffc050c006f8 <pcb>
ffffffc050409bd2:	fe842783          	lw	a5,-24(s0)
ffffffc050409bd6:	fec42603          	lw	a2,-20(s0)
ffffffc050409bda:	02600693          	li	a3,38
ffffffc050409bde:	02d606b3          	mul	a3,a2,a3
ffffffc050409be2:	97b6                	add	a5,a5,a3
ffffffc050409be4:	07d1                	addi	a5,a5,20
ffffffc050409be6:	078a                	slli	a5,a5,0x2
ffffffc050409be8:	97ba                	add	a5,a5,a4
ffffffc050409bea:	47dc                	lw	a5,12(a5)
ffffffc050409bec:	873e                	mv	a4,a5
ffffffc050409bee:	4785                	li	a5,1
ffffffc050409bf0:	02f71963          	bne	a4,a5,ffffffc050409c22 <do_kill+0x13e>
ffffffc050409bf4:	fe842783          	lw	a5,-24(s0)
ffffffc050409bf8:	853e                	mv	a0,a5
ffffffc050409bfa:	db3fd0ef          	jal	ra,ffffffc0504079ac <mutex_unlock>
ffffffc050409bfe:	007f7717          	auipc	a4,0x7f7
ffffffc050409c02:	afa70713          	addi	a4,a4,-1286 # ffffffc050c006f8 <pcb>
ffffffc050409c06:	fe842783          	lw	a5,-24(s0)
ffffffc050409c0a:	fec42603          	lw	a2,-20(s0)
ffffffc050409c0e:	02600693          	li	a3,38
ffffffc050409c12:	02d606b3          	mul	a3,a2,a3
ffffffc050409c16:	97b6                	add	a5,a5,a3
ffffffc050409c18:	07d1                	addi	a5,a5,20
ffffffc050409c1a:	078a                	slli	a5,a5,0x2
ffffffc050409c1c:	97ba                	add	a5,a5,a4
ffffffc050409c1e:	0007a623          	sw	zero,12(a5)
ffffffc050409c22:	fe842783          	lw	a5,-24(s0)
ffffffc050409c26:	2785                	addiw	a5,a5,1
ffffffc050409c28:	fef42423          	sw	a5,-24(s0)
ffffffc050409c2c:	fe842783          	lw	a5,-24(s0)
ffffffc050409c30:	0007871b          	sext.w	a4,a5
ffffffc050409c34:	4791                	li	a5,4
ffffffc050409c36:	f8e7dae3          	bge	a5,a4,ffffffc050409bca <do_kill+0xe6>
ffffffc050409c3a:	007f7717          	auipc	a4,0x7f7
ffffffc050409c3e:	abe70713          	addi	a4,a4,-1346 # ffffffc050c006f8 <pcb>
ffffffc050409c42:	fec42683          	lw	a3,-20(s0)
ffffffc050409c46:	09800793          	li	a5,152
ffffffc050409c4a:	02f687b3          	mul	a5,a3,a5
ffffffc050409c4e:	97ba                	add	a5,a5,a4
ffffffc050409c50:	5fbc                	lw	a5,120(a5)
ffffffc050409c52:	ef91                	bnez	a5,ffffffc050409c6e <do_kill+0x18a>
ffffffc050409c54:	007f7717          	auipc	a4,0x7f7
ffffffc050409c58:	aa470713          	addi	a4,a4,-1372 # ffffffc050c006f8 <pcb>
ffffffc050409c5c:	fec42683          	lw	a3,-20(s0)
ffffffc050409c60:	09800793          	li	a5,152
ffffffc050409c64:	02f687b3          	mul	a5,a3,a5
ffffffc050409c68:	97ba                	add	a5,a5,a4
ffffffc050409c6a:	4705                	li	a4,1
ffffffc050409c6c:	dbf8                	sw	a4,116(a5)
ffffffc050409c6e:	fec42703          	lw	a4,-20(s0)
ffffffc050409c72:	09800793          	li	a5,152
ffffffc050409c76:	02f707b3          	mul	a5,a4,a5
ffffffc050409c7a:	02078713          	addi	a4,a5,32
ffffffc050409c7e:	007f7797          	auipc	a5,0x7f7
ffffffc050409c82:	a7a78793          	addi	a5,a5,-1414 # ffffffc050c006f8 <pcb>
ffffffc050409c86:	97ba                	add	a5,a5,a4
ffffffc050409c88:	07a1                	addi	a5,a5,8
ffffffc050409c8a:	853e                	mv	a0,a5
ffffffc050409c8c:	c03ff0ef          	jal	ra,ffffffc05040988e <release_queue>
ffffffc050409c90:	4785                	li	a5,1
ffffffc050409c92:	853e                	mv	a0,a5
ffffffc050409c94:	70a2                	ld	ra,40(sp)
ffffffc050409c96:	7402                	ld	s0,32(sp)
ffffffc050409c98:	6145                	addi	sp,sp,48
ffffffc050409c9a:	8082                	ret

ffffffc050409c9c <do_waitpid>:
ffffffc050409c9c:	7179                	addi	sp,sp,-48
ffffffc050409c9e:	f406                	sd	ra,40(sp)
ffffffc050409ca0:	f022                	sd	s0,32(sp)
ffffffc050409ca2:	1800                	addi	s0,sp,48
ffffffc050409ca4:	87aa                	mv	a5,a0
ffffffc050409ca6:	fcf42e23          	sw	a5,-36(s0)
ffffffc050409caa:	e1ef60ef          	jal	ra,ffffffc0504002c8 <get_current_cpu_id>
ffffffc050409cae:	87aa                	mv	a5,a0
ffffffc050409cb0:	fef43023          	sd	a5,-32(s0)
ffffffc050409cb4:	fe042623          	sw	zero,-20(s0)
ffffffc050409cb8:	a031                	j	ffffffc050409cc4 <do_waitpid+0x28>
ffffffc050409cba:	fec42783          	lw	a5,-20(s0)
ffffffc050409cbe:	2785                	addiw	a5,a5,1
ffffffc050409cc0:	fef42623          	sw	a5,-20(s0)
ffffffc050409cc4:	007f7717          	auipc	a4,0x7f7
ffffffc050409cc8:	a3470713          	addi	a4,a4,-1484 # ffffffc050c006f8 <pcb>
ffffffc050409ccc:	fec42683          	lw	a3,-20(s0)
ffffffc050409cd0:	09800793          	li	a5,152
ffffffc050409cd4:	02f687b3          	mul	a5,a3,a5
ffffffc050409cd8:	97ba                	add	a5,a5,a4
ffffffc050409cda:	47b8                	lw	a4,72(a5)
ffffffc050409cdc:	fdc42783          	lw	a5,-36(s0)
ffffffc050409ce0:	2781                	sext.w	a5,a5
ffffffc050409ce2:	00e78963          	beq	a5,a4,ffffffc050409cf4 <do_waitpid+0x58>
ffffffc050409ce6:	fec42783          	lw	a5,-20(s0)
ffffffc050409cea:	0007871b          	sext.w	a4,a5
ffffffc050409cee:	47bd                	li	a5,15
ffffffc050409cf0:	fce7d5e3          	bge	a5,a4,ffffffc050409cba <do_waitpid+0x1e>
ffffffc050409cf4:	fec42783          	lw	a5,-20(s0)
ffffffc050409cf8:	0007871b          	sext.w	a4,a5
ffffffc050409cfc:	47c1                	li	a5,16
ffffffc050409cfe:	00f71463          	bne	a4,a5,ffffffc050409d06 <do_waitpid+0x6a>
ffffffc050409d02:	4781                	li	a5,0
ffffffc050409d04:	a8d1                	j	ffffffc050409dd8 <do_waitpid+0x13c>
ffffffc050409d06:	007f7717          	auipc	a4,0x7f7
ffffffc050409d0a:	9f270713          	addi	a4,a4,-1550 # ffffffc050c006f8 <pcb>
ffffffc050409d0e:	fec42683          	lw	a3,-20(s0)
ffffffc050409d12:	09800793          	li	a5,152
ffffffc050409d16:	02f687b3          	mul	a5,a3,a5
ffffffc050409d1a:	97ba                	add	a5,a5,a4
ffffffc050409d1c:	0807a783          	lw	a5,128(a5)
ffffffc050409d20:	873e                	mv	a4,a5
ffffffc050409d22:	478d                	li	a5,3
ffffffc050409d24:	02f71163          	bne	a4,a5,ffffffc050409d46 <do_waitpid+0xaa>
ffffffc050409d28:	007f7717          	auipc	a4,0x7f7
ffffffc050409d2c:	9d070713          	addi	a4,a4,-1584 # ffffffc050c006f8 <pcb>
ffffffc050409d30:	fec42683          	lw	a3,-20(s0)
ffffffc050409d34:	09800793          	li	a5,152
ffffffc050409d38:	02f687b3          	mul	a5,a3,a5
ffffffc050409d3c:	97ba                	add	a5,a5,a4
ffffffc050409d3e:	4705                	li	a4,1
ffffffc050409d40:	dbf8                	sw	a4,116(a5)
ffffffc050409d42:	4781                	li	a5,0
ffffffc050409d44:	a851                	j	ffffffc050409dd8 <do_waitpid+0x13c>
ffffffc050409d46:	007f7717          	auipc	a4,0x7f7
ffffffc050409d4a:	9b270713          	addi	a4,a4,-1614 # ffffffc050c006f8 <pcb>
ffffffc050409d4e:	fec42683          	lw	a3,-20(s0)
ffffffc050409d52:	09800793          	li	a5,152
ffffffc050409d56:	02f687b3          	mul	a5,a3,a5
ffffffc050409d5a:	97ba                	add	a5,a5,a4
ffffffc050409d5c:	0807a783          	lw	a5,128(a5)
ffffffc050409d60:	873e                	mv	a4,a5
ffffffc050409d62:	4791                	li	a5,4
ffffffc050409d64:	00f71463          	bne	a4,a5,ffffffc050409d6c <do_waitpid+0xd0>
ffffffc050409d68:	4781                	li	a5,0
ffffffc050409d6a:	a0bd                	j	ffffffc050409dd8 <do_waitpid+0x13c>
ffffffc050409d6c:	007f7717          	auipc	a4,0x7f7
ffffffc050409d70:	88c70713          	addi	a4,a4,-1908 # ffffffc050c005f8 <current_running>
ffffffc050409d74:	fe043783          	ld	a5,-32(s0)
ffffffc050409d78:	078e                	slli	a5,a5,0x3
ffffffc050409d7a:	97ba                	add	a5,a5,a4
ffffffc050409d7c:	6394                	ld	a3,0(a5)
ffffffc050409d7e:	fec42703          	lw	a4,-20(s0)
ffffffc050409d82:	09800793          	li	a5,152
ffffffc050409d86:	02f707b3          	mul	a5,a4,a5
ffffffc050409d8a:	02078713          	addi	a4,a5,32
ffffffc050409d8e:	007f7797          	auipc	a5,0x7f7
ffffffc050409d92:	96a78793          	addi	a5,a5,-1686 # ffffffc050c006f8 <pcb>
ffffffc050409d96:	97ba                	add	a5,a5,a4
ffffffc050409d98:	07a1                	addi	a5,a5,8
ffffffc050409d9a:	85be                	mv	a1,a5
ffffffc050409d9c:	8536                	mv	a0,a3
ffffffc050409d9e:	d1aff0ef          	jal	ra,ffffffc0504092b8 <do_block>
ffffffc050409da2:	007f7717          	auipc	a4,0x7f7
ffffffc050409da6:	95670713          	addi	a4,a4,-1706 # ffffffc050c006f8 <pcb>
ffffffc050409daa:	fec42683          	lw	a3,-20(s0)
ffffffc050409dae:	09800793          	li	a5,152
ffffffc050409db2:	02f687b3          	mul	a5,a3,a5
ffffffc050409db6:	97ba                	add	a5,a5,a4
ffffffc050409db8:	47bc                	lw	a5,72(a5)
ffffffc050409dba:	cf91                	beqz	a5,ffffffc050409dd6 <do_waitpid+0x13a>
ffffffc050409dbc:	007f7717          	auipc	a4,0x7f7
ffffffc050409dc0:	93c70713          	addi	a4,a4,-1732 # ffffffc050c006f8 <pcb>
ffffffc050409dc4:	fec42683          	lw	a3,-20(s0)
ffffffc050409dc8:	09800793          	li	a5,152
ffffffc050409dcc:	02f687b3          	mul	a5,a3,a5
ffffffc050409dd0:	97ba                	add	a5,a5,a4
ffffffc050409dd2:	4705                	li	a4,1
ffffffc050409dd4:	dbf8                	sw	a4,116(a5)
ffffffc050409dd6:	4785                	li	a5,1
ffffffc050409dd8:	853e                	mv	a0,a5
ffffffc050409dda:	70a2                	ld	ra,40(sp)
ffffffc050409ddc:	7402                	ld	s0,32(sp)
ffffffc050409dde:	6145                	addi	sp,sp,48
ffffffc050409de0:	8082                	ret

ffffffc050409de2 <do_getpid>:
ffffffc050409de2:	1101                	addi	sp,sp,-32
ffffffc050409de4:	ec06                	sd	ra,24(sp)
ffffffc050409de6:	e822                	sd	s0,16(sp)
ffffffc050409de8:	1000                	addi	s0,sp,32
ffffffc050409dea:	cdef60ef          	jal	ra,ffffffc0504002c8 <get_current_cpu_id>
ffffffc050409dee:	87aa                	mv	a5,a0
ffffffc050409df0:	fef43423          	sd	a5,-24(s0)
ffffffc050409df4:	007f7717          	auipc	a4,0x7f7
ffffffc050409df8:	80470713          	addi	a4,a4,-2044 # ffffffc050c005f8 <current_running>
ffffffc050409dfc:	fe843783          	ld	a5,-24(s0)
ffffffc050409e00:	078e                	slli	a5,a5,0x3
ffffffc050409e02:	97ba                	add	a5,a5,a4
ffffffc050409e04:	639c                	ld	a5,0(a5)
ffffffc050409e06:	47bc                	lw	a5,72(a5)
ffffffc050409e08:	853e                	mv	a0,a5
ffffffc050409e0a:	60e2                	ld	ra,24(sp)
ffffffc050409e0c:	6442                	ld	s0,16(sp)
ffffffc050409e0e:	6105                	addi	sp,sp,32
ffffffc050409e10:	8082                	ret

ffffffc050409e12 <do_mthread_create>:
ffffffc050409e12:	7159                	addi	sp,sp,-112
ffffffc050409e14:	f486                	sd	ra,104(sp)
ffffffc050409e16:	f0a2                	sd	s0,96(sp)
ffffffc050409e18:	1880                	addi	s0,sp,112
ffffffc050409e1a:	f8a43c23          	sd	a0,-104(s0)
ffffffc050409e1e:	f8b43823          	sd	a1,-112(s0)
ffffffc050409e22:	ca6f60ef          	jal	ra,ffffffc0504002c8 <get_current_cpu_id>
ffffffc050409e26:	87aa                	mv	a5,a0
ffffffc050409e28:	fef43023          	sd	a5,-32(s0)
ffffffc050409e2c:	fe042623          	sw	zero,-20(s0)
ffffffc050409e30:	a01d                	j	ffffffc050409e56 <do_mthread_create+0x44>
ffffffc050409e32:	007f7717          	auipc	a4,0x7f7
ffffffc050409e36:	8c670713          	addi	a4,a4,-1850 # ffffffc050c006f8 <pcb>
ffffffc050409e3a:	fec42683          	lw	a3,-20(s0)
ffffffc050409e3e:	09800793          	li	a5,152
ffffffc050409e42:	02f687b3          	mul	a5,a3,a5
ffffffc050409e46:	97ba                	add	a5,a5,a4
ffffffc050409e48:	47bc                	lw	a5,72(a5)
ffffffc050409e4a:	cf91                	beqz	a5,ffffffc050409e66 <do_mthread_create+0x54>
ffffffc050409e4c:	fec42783          	lw	a5,-20(s0)
ffffffc050409e50:	2785                	addiw	a5,a5,1
ffffffc050409e52:	fef42623          	sw	a5,-20(s0)
ffffffc050409e56:	fec42783          	lw	a5,-20(s0)
ffffffc050409e5a:	0007871b          	sext.w	a4,a5
ffffffc050409e5e:	47bd                	li	a5,15
ffffffc050409e60:	fce7d9e3          	bge	a5,a4,ffffffc050409e32 <do_mthread_create+0x20>
ffffffc050409e64:	a011                	j	ffffffc050409e68 <do_mthread_create+0x56>
ffffffc050409e66:	0001                	nop
ffffffc050409e68:	fec42783          	lw	a5,-20(s0)
ffffffc050409e6c:	0007871b          	sext.w	a4,a5
ffffffc050409e70:	47bd                	li	a5,15
ffffffc050409e72:	00e7de63          	bge	a5,a4,ffffffc050409e8e <do_mthread_create+0x7c>
ffffffc050409e76:	00004617          	auipc	a2,0x4
ffffffc050409e7a:	96260613          	addi	a2,a2,-1694 # ffffffc05040d7d8 <__FUNCTION__.1742>
ffffffc050409e7e:	1fc00593          	li	a1,508
ffffffc050409e82:	00004517          	auipc	a0,0x4
ffffffc050409e86:	86e50513          	addi	a0,a0,-1938 # ffffffc05040d6f0 <__FUNCTION__.1870+0x830>
ffffffc050409e8a:	c81fe0ef          	jal	ra,ffffffc050408b0a <_panic>
ffffffc050409e8e:	007f6717          	auipc	a4,0x7f6
ffffffc050409e92:	76a70713          	addi	a4,a4,1898 # ffffffc050c005f8 <current_running>
ffffffc050409e96:	fe043783          	ld	a5,-32(s0)
ffffffc050409e9a:	078e                	slli	a5,a5,0x3
ffffffc050409e9c:	97ba                	add	a5,a5,a4
ffffffc050409e9e:	639c                	ld	a5,0(a5)
ffffffc050409ea0:	6b9c                	ld	a5,16(a5)
ffffffc050409ea2:	fcf43c23          	sd	a5,-40(s0)
ffffffc050409ea6:	fd843783          	ld	a5,-40(s0)
ffffffc050409eaa:	00c79713          	slli	a4,a5,0xc
ffffffc050409eae:	fff007b7          	lui	a5,0xfff00
ffffffc050409eb2:	83a1                	srli	a5,a5,0x8
ffffffc050409eb4:	8ff9                	and	a5,a5,a4
ffffffc050409eb6:	fcf43823          	sd	a5,-48(s0)
ffffffc050409eba:	00021797          	auipc	a5,0x21
ffffffc050409ebe:	94678793          	addi	a5,a5,-1722 # ffffffc05042a800 <thread_stack_index>
ffffffc050409ec2:	439c                	lw	a5,0(a5)
ffffffc050409ec4:	0107979b          	slliw	a5,a5,0x10
ffffffc050409ec8:	2781                	sext.w	a5,a5
ffffffc050409eca:	873e                	mv	a4,a5
ffffffc050409ecc:	00f007b7          	lui	a5,0xf00
ffffffc050409ed0:	07bd                	addi	a5,a5,15
ffffffc050409ed2:	07b2                	slli	a5,a5,0xc
ffffffc050409ed4:	97ba                	add	a5,a5,a4
ffffffc050409ed6:	4601                	li	a2,0
ffffffc050409ed8:	fd043583          	ld	a1,-48(s0)
ffffffc050409edc:	853e                	mv	a0,a5
ffffffc050409ede:	26f010ef          	jal	ra,ffffffc05040b94c <alloc_page_helper>
ffffffc050409ee2:	fca43423          	sd	a0,-56(s0)
ffffffc050409ee6:	4581                	li	a1,0
ffffffc050409ee8:	4505                	li	a0,1
ffffffc050409eea:	0b9000ef          	jal	ra,ffffffc05040a7a2 <allocPage>
ffffffc050409eee:	87aa                	mv	a5,a0
ffffffc050409ef0:	853e                	mv	a0,a5
ffffffc050409ef2:	bfdfe0ef          	jal	ra,ffffffc050408aee <pa2kva>
ffffffc050409ef6:	fca43023          	sd	a0,-64(s0)
ffffffc050409efa:	007f6717          	auipc	a4,0x7f6
ffffffc050409efe:	6fe70713          	addi	a4,a4,1790 # ffffffc050c005f8 <current_running>
ffffffc050409f02:	fe043783          	ld	a5,-32(s0)
ffffffc050409f06:	078e                	slli	a5,a5,0x3
ffffffc050409f08:	97ba                	add	a5,a5,a4
ffffffc050409f0a:	639c                	ld	a5,0(a5)
ffffffc050409f0c:	4fb8                	lw	a4,88(a5)
ffffffc050409f0e:	007f6697          	auipc	a3,0x7f6
ffffffc050409f12:	7ea68693          	addi	a3,a3,2026 # ffffffc050c006f8 <pcb>
ffffffc050409f16:	fec42603          	lw	a2,-20(s0)
ffffffc050409f1a:	09800793          	li	a5,152
ffffffc050409f1e:	02f607b3          	mul	a5,a2,a5
ffffffc050409f22:	97b6                	add	a5,a5,a3
ffffffc050409f24:	cfb8                	sw	a4,88(a5)
ffffffc050409f26:	fc043703          	ld	a4,-64(s0)
ffffffc050409f2a:	6785                	lui	a5,0x1
ffffffc050409f2c:	973e                	add	a4,a4,a5
ffffffc050409f2e:	007f6697          	auipc	a3,0x7f6
ffffffc050409f32:	7ca68693          	addi	a3,a3,1994 # ffffffc050c006f8 <pcb>
ffffffc050409f36:	fec42603          	lw	a2,-20(s0)
ffffffc050409f3a:	09800793          	li	a5,152
ffffffc050409f3e:	02f607b3          	mul	a5,a2,a5
ffffffc050409f42:	97b6                	add	a5,a5,a3
ffffffc050409f44:	e398                	sd	a4,0(a5)
ffffffc050409f46:	00021797          	auipc	a5,0x21
ffffffc050409f4a:	8ba78793          	addi	a5,a5,-1862 # ffffffc05042a800 <thread_stack_index>
ffffffc050409f4e:	439c                	lw	a5,0(a5)
ffffffc050409f50:	0107979b          	slliw	a5,a5,0x10
ffffffc050409f54:	2781                	sext.w	a5,a5
ffffffc050409f56:	873e                	mv	a4,a5
ffffffc050409f58:	000f07b7          	lui	a5,0xf0
ffffffc050409f5c:	0785                	addi	a5,a5,1
ffffffc050409f5e:	07c2                	slli	a5,a5,0x10
ffffffc050409f60:	973e                	add	a4,a4,a5
ffffffc050409f62:	007f6697          	auipc	a3,0x7f6
ffffffc050409f66:	79668693          	addi	a3,a3,1942 # ffffffc050c006f8 <pcb>
ffffffc050409f6a:	fec42603          	lw	a2,-20(s0)
ffffffc050409f6e:	09800793          	li	a5,152
ffffffc050409f72:	02f607b3          	mul	a5,a2,a5
ffffffc050409f76:	97b6                	add	a5,a5,a3
ffffffc050409f78:	e798                	sd	a4,8(a5)
ffffffc050409f7a:	00021797          	auipc	a5,0x21
ffffffc050409f7e:	88678793          	addi	a5,a5,-1914 # ffffffc05042a800 <thread_stack_index>
ffffffc050409f82:	439c                	lw	a5,0(a5)
ffffffc050409f84:	2785                	addiw	a5,a5,1
ffffffc050409f86:	0007871b          	sext.w	a4,a5
ffffffc050409f8a:	00021797          	auipc	a5,0x21
ffffffc050409f8e:	87678793          	addi	a5,a5,-1930 # ffffffc05042a800 <thread_stack_index>
ffffffc050409f92:	c398                	sw	a4,0(a5)
ffffffc050409f94:	007f6717          	auipc	a4,0x7f6
ffffffc050409f98:	76470713          	addi	a4,a4,1892 # ffffffc050c006f8 <pcb>
ffffffc050409f9c:	fec42683          	lw	a3,-20(s0)
ffffffc050409fa0:	09800793          	li	a5,152
ffffffc050409fa4:	02f687b3          	mul	a5,a3,a5
ffffffc050409fa8:	97ba                	add	a5,a5,a4
ffffffc050409faa:	6398                	ld	a4,0(a5)
ffffffc050409fac:	007f6697          	auipc	a3,0x7f6
ffffffc050409fb0:	74c68693          	addi	a3,a3,1868 # ffffffc050c006f8 <pcb>
ffffffc050409fb4:	fec42603          	lw	a2,-20(s0)
ffffffc050409fb8:	09800793          	li	a5,152
ffffffc050409fbc:	02f607b3          	mul	a5,a2,a5
ffffffc050409fc0:	97b6                	add	a5,a5,a3
ffffffc050409fc2:	ff98                	sd	a4,56(a5)
ffffffc050409fc4:	007f6717          	auipc	a4,0x7f6
ffffffc050409fc8:	73470713          	addi	a4,a4,1844 # ffffffc050c006f8 <pcb>
ffffffc050409fcc:	fec42683          	lw	a3,-20(s0)
ffffffc050409fd0:	09800793          	li	a5,152
ffffffc050409fd4:	02f687b3          	mul	a5,a3,a5
ffffffc050409fd8:	97ba                	add	a5,a5,a4
ffffffc050409fda:	6798                	ld	a4,8(a5)
ffffffc050409fdc:	007f6697          	auipc	a3,0x7f6
ffffffc050409fe0:	71c68693          	addi	a3,a3,1820 # ffffffc050c006f8 <pcb>
ffffffc050409fe4:	fec42603          	lw	a2,-20(s0)
ffffffc050409fe8:	09800793          	li	a5,152
ffffffc050409fec:	02f607b3          	mul	a5,a2,a5
ffffffc050409ff0:	97b6                	add	a5,a5,a3
ffffffc050409ff2:	e3b8                	sd	a4,64(a5)
ffffffc050409ff4:	fec42783          	lw	a5,-20(s0)
ffffffc050409ff8:	2785                	addiw	a5,a5,1
ffffffc050409ffa:	0007871b          	sext.w	a4,a5
ffffffc050409ffe:	007f6697          	auipc	a3,0x7f6
ffffffc05040a002:	6fa68693          	addi	a3,a3,1786 # ffffffc050c006f8 <pcb>
ffffffc05040a006:	fec42603          	lw	a2,-20(s0)
ffffffc05040a00a:	09800793          	li	a5,152
ffffffc05040a00e:	02f607b3          	mul	a5,a2,a5
ffffffc05040a012:	97b6                	add	a5,a5,a3
ffffffc05040a014:	c7b8                	sw	a4,72(a5)
ffffffc05040a016:	007f6717          	auipc	a4,0x7f6
ffffffc05040a01a:	6e270713          	addi	a4,a4,1762 # ffffffc050c006f8 <pcb>
ffffffc05040a01e:	fec42683          	lw	a3,-20(s0)
ffffffc05040a022:	09800793          	li	a5,152
ffffffc05040a026:	02f687b3          	mul	a5,a3,a5
ffffffc05040a02a:	97ba                	add	a5,a5,a4
ffffffc05040a02c:	0607aa23          	sw	zero,116(a5)
ffffffc05040a030:	007f6717          	auipc	a4,0x7f6
ffffffc05040a034:	6c870713          	addi	a4,a4,1736 # ffffffc050c006f8 <pcb>
ffffffc05040a038:	fec42683          	lw	a3,-20(s0)
ffffffc05040a03c:	09800793          	li	a5,152
ffffffc05040a040:	02f687b3          	mul	a5,a3,a5
ffffffc05040a044:	97ba                	add	a5,a5,a4
ffffffc05040a046:	4709                	li	a4,2
ffffffc05040a048:	dff8                	sw	a4,124(a5)
ffffffc05040a04a:	007f6717          	auipc	a4,0x7f6
ffffffc05040a04e:	6ae70713          	addi	a4,a4,1710 # ffffffc050c006f8 <pcb>
ffffffc05040a052:	fec42683          	lw	a3,-20(s0)
ffffffc05040a056:	09800793          	li	a5,152
ffffffc05040a05a:	02f687b3          	mul	a5,a3,a5
ffffffc05040a05e:	97ba                	add	a5,a5,a4
ffffffc05040a060:	4709                	li	a4,2
ffffffc05040a062:	08e7a023          	sw	a4,128(a5)
ffffffc05040a066:	007f6717          	auipc	a4,0x7f6
ffffffc05040a06a:	59270713          	addi	a4,a4,1426 # ffffffc050c005f8 <current_running>
ffffffc05040a06e:	fe043783          	ld	a5,-32(s0)
ffffffc05040a072:	078e                	slli	a5,a5,0x3
ffffffc05040a074:	97ba                	add	a5,a5,a4
ffffffc05040a076:	639c                	ld	a5,0(a5)
ffffffc05040a078:	0847a703          	lw	a4,132(a5)
ffffffc05040a07c:	007f6697          	auipc	a3,0x7f6
ffffffc05040a080:	67c68693          	addi	a3,a3,1660 # ffffffc050c006f8 <pcb>
ffffffc05040a084:	fec42603          	lw	a2,-20(s0)
ffffffc05040a088:	09800793          	li	a5,152
ffffffc05040a08c:	02f607b3          	mul	a5,a2,a5
ffffffc05040a090:	97b6                	add	a5,a5,a3
ffffffc05040a092:	08e7a223          	sw	a4,132(a5)
ffffffc05040a096:	007f6717          	auipc	a4,0x7f6
ffffffc05040a09a:	56270713          	addi	a4,a4,1378 # ffffffc050c005f8 <current_running>
ffffffc05040a09e:	fe043783          	ld	a5,-32(s0)
ffffffc05040a0a2:	078e                	slli	a5,a5,0x3
ffffffc05040a0a4:	97ba                	add	a5,a5,a4
ffffffc05040a0a6:	639c                	ld	a5,0(a5)
ffffffc05040a0a8:	6b98                	ld	a4,16(a5)
ffffffc05040a0aa:	007f6697          	auipc	a3,0x7f6
ffffffc05040a0ae:	64e68693          	addi	a3,a3,1614 # ffffffc050c006f8 <pcb>
ffffffc05040a0b2:	fec42603          	lw	a2,-20(s0)
ffffffc05040a0b6:	09800793          	li	a5,152
ffffffc05040a0ba:	02f607b3          	mul	a5,a2,a5
ffffffc05040a0be:	97b6                	add	a5,a5,a3
ffffffc05040a0c0:	eb98                	sd	a4,16(a5)
ffffffc05040a0c2:	007f6717          	auipc	a4,0x7f6
ffffffc05040a0c6:	63670713          	addi	a4,a4,1590 # ffffffc050c006f8 <pcb>
ffffffc05040a0ca:	fec42683          	lw	a3,-20(s0)
ffffffc05040a0ce:	09800793          	li	a5,152
ffffffc05040a0d2:	02f687b3          	mul	a5,a3,a5
ffffffc05040a0d6:	97ba                	add	a5,a5,a4
ffffffc05040a0d8:	4705                	li	a4,1
ffffffc05040a0da:	dfb8                	sw	a4,120(a5)
ffffffc05040a0dc:	fec42703          	lw	a4,-20(s0)
ffffffc05040a0e0:	09800793          	li	a5,152
ffffffc05040a0e4:	02f707b3          	mul	a5,a4,a5
ffffffc05040a0e8:	02078713          	addi	a4,a5,32
ffffffc05040a0ec:	007f6797          	auipc	a5,0x7f6
ffffffc05040a0f0:	60c78793          	addi	a5,a5,1548 # ffffffc050c006f8 <pcb>
ffffffc05040a0f4:	97ba                	add	a5,a5,a4
ffffffc05040a0f6:	07a1                	addi	a5,a5,8
ffffffc05040a0f8:	853e                	mv	a0,a5
ffffffc05040a0fa:	a43fe0ef          	jal	ra,ffffffc050408b3c <list_init>
ffffffc05040a0fe:	007f6717          	auipc	a4,0x7f6
ffffffc05040a102:	5fa70713          	addi	a4,a4,1530 # ffffffc050c006f8 <pcb>
ffffffc05040a106:	fec42683          	lw	a3,-20(s0)
ffffffc05040a10a:	09800793          	li	a5,152
ffffffc05040a10e:	02f687b3          	mul	a5,a3,a5
ffffffc05040a112:	97ba                	add	a5,a5,a4
ffffffc05040a114:	639c                	ld	a5,0(a5)
ffffffc05040a116:	ee078793          	addi	a5,a5,-288
ffffffc05040a11a:	faf43c23          	sd	a5,-72(s0)
ffffffc05040a11e:	007f6717          	auipc	a4,0x7f6
ffffffc05040a122:	4da70713          	addi	a4,a4,1242 # ffffffc050c005f8 <current_running>
ffffffc05040a126:	fe043783          	ld	a5,-32(s0)
ffffffc05040a12a:	078e                	slli	a5,a5,0x3
ffffffc05040a12c:	97ba                	add	a5,a5,a4
ffffffc05040a12e:	639c                	ld	a5,0(a5)
ffffffc05040a130:	639c                	ld	a5,0(a5)
ffffffc05040a132:	07078793          	addi	a5,a5,112
ffffffc05040a136:	faf43823          	sd	a5,-80(s0)
ffffffc05040a13a:	fb043783          	ld	a5,-80(s0)
ffffffc05040a13e:	6f9c                	ld	a5,24(a5)
ffffffc05040a140:	faf43423          	sd	a5,-88(s0)
ffffffc05040a144:	007f6717          	auipc	a4,0x7f6
ffffffc05040a148:	5b470713          	addi	a4,a4,1460 # ffffffc050c006f8 <pcb>
ffffffc05040a14c:	fec42683          	lw	a3,-20(s0)
ffffffc05040a150:	09800793          	li	a5,152
ffffffc05040a154:	02f687b3          	mul	a5,a3,a5
ffffffc05040a158:	97ba                	add	a5,a5,a4
ffffffc05040a15a:	6798                	ld	a4,8(a5)
ffffffc05040a15c:	fb843783          	ld	a5,-72(s0)
ffffffc05040a160:	eb98                	sd	a4,16(a5)
ffffffc05040a162:	fb843783          	ld	a5,-72(s0)
ffffffc05040a166:	fa843703          	ld	a4,-88(s0)
ffffffc05040a16a:	ef98                	sd	a4,24(a5)
ffffffc05040a16c:	fec42703          	lw	a4,-20(s0)
ffffffc05040a170:	09800793          	li	a5,152
ffffffc05040a174:	02f70733          	mul	a4,a4,a5
ffffffc05040a178:	007f6797          	auipc	a5,0x7f6
ffffffc05040a17c:	58078793          	addi	a5,a5,1408 # ffffffc050c006f8 <pcb>
ffffffc05040a180:	97ba                	add	a5,a5,a4
ffffffc05040a182:	873e                	mv	a4,a5
ffffffc05040a184:	fb843783          	ld	a5,-72(s0)
ffffffc05040a188:	f398                	sd	a4,32(a5)
ffffffc05040a18a:	f9043703          	ld	a4,-112(s0)
ffffffc05040a18e:	fb843783          	ld	a5,-72(s0)
ffffffc05040a192:	ebb8                	sd	a4,80(a5)
ffffffc05040a194:	f9843703          	ld	a4,-104(s0)
ffffffc05040a198:	fb843783          	ld	a5,-72(s0)
ffffffc05040a19c:	10e7b423          	sd	a4,264(a5)
ffffffc05040a1a0:	fb843783          	ld	a5,-72(s0)
ffffffc05040a1a4:	00040737          	lui	a4,0x40
ffffffc05040a1a8:	10e7b023          	sd	a4,256(a5)
ffffffc05040a1ac:	007f6717          	auipc	a4,0x7f6
ffffffc05040a1b0:	54c70713          	addi	a4,a4,1356 # ffffffc050c006f8 <pcb>
ffffffc05040a1b4:	fec42683          	lw	a3,-20(s0)
ffffffc05040a1b8:	09800793          	li	a5,152
ffffffc05040a1bc:	02f687b3          	mul	a5,a3,a5
ffffffc05040a1c0:	97ba                	add	a5,a5,a4
ffffffc05040a1c2:	639c                	ld	a5,0(a5)
ffffffc05040a1c4:	e7078713          	addi	a4,a5,-400
ffffffc05040a1c8:	007f6697          	auipc	a3,0x7f6
ffffffc05040a1cc:	53068693          	addi	a3,a3,1328 # ffffffc050c006f8 <pcb>
ffffffc05040a1d0:	fec42603          	lw	a2,-20(s0)
ffffffc05040a1d4:	09800793          	li	a5,152
ffffffc05040a1d8:	02f607b3          	mul	a5,a2,a5
ffffffc05040a1dc:	97b6                	add	a5,a5,a3
ffffffc05040a1de:	e398                	sd	a4,0(a5)
ffffffc05040a1e0:	007f6717          	auipc	a4,0x7f6
ffffffc05040a1e4:	51870713          	addi	a4,a4,1304 # ffffffc050c006f8 <pcb>
ffffffc05040a1e8:	fec42683          	lw	a3,-20(s0)
ffffffc05040a1ec:	09800793          	li	a5,152
ffffffc05040a1f0:	02f687b3          	mul	a5,a3,a5
ffffffc05040a1f4:	97ba                	add	a5,a5,a4
ffffffc05040a1f6:	639c                	ld	a5,0(a5)
ffffffc05040a1f8:	faf43023          	sd	a5,-96(s0)
ffffffc05040a1fc:	ffff6717          	auipc	a4,0xffff6
ffffffc05040a200:	f4070713          	addi	a4,a4,-192 # ffffffc05040013c <ret_from_exception>
ffffffc05040a204:	fa043783          	ld	a5,-96(s0)
ffffffc05040a208:	e398                	sd	a4,0(a5)
ffffffc05040a20a:	007f6717          	auipc	a4,0x7f6
ffffffc05040a20e:	4ee70713          	addi	a4,a4,1262 # ffffffc050c006f8 <pcb>
ffffffc05040a212:	fec42683          	lw	a3,-20(s0)
ffffffc05040a216:	09800793          	li	a5,152
ffffffc05040a21a:	02f687b3          	mul	a5,a3,a5
ffffffc05040a21e:	97ba                	add	a5,a5,a4
ffffffc05040a220:	6398                	ld	a4,0(a5)
ffffffc05040a222:	fa043783          	ld	a5,-96(s0)
ffffffc05040a226:	e798                	sd	a4,8(a5)
ffffffc05040a228:	4789                	li	a5,2
ffffffc05040a22a:	fef42423          	sw	a5,-24(s0)
ffffffc05040a22e:	a831                	j	ffffffc05040a24a <do_mthread_create+0x438>
ffffffc05040a230:	fa043703          	ld	a4,-96(s0)
ffffffc05040a234:	fe842783          	lw	a5,-24(s0)
ffffffc05040a238:	078e                	slli	a5,a5,0x3
ffffffc05040a23a:	97ba                	add	a5,a5,a4
ffffffc05040a23c:	0007b023          	sd	zero,0(a5)
ffffffc05040a240:	fe842783          	lw	a5,-24(s0)
ffffffc05040a244:	2785                	addiw	a5,a5,1
ffffffc05040a246:	fef42423          	sw	a5,-24(s0)
ffffffc05040a24a:	fe842783          	lw	a5,-24(s0)
ffffffc05040a24e:	0007871b          	sext.w	a4,a5
ffffffc05040a252:	47b5                	li	a5,13
ffffffc05040a254:	fce7dee3          	bge	a5,a4,ffffffc05040a230 <do_mthread_create+0x41e>
ffffffc05040a258:	fec42703          	lw	a4,-20(s0)
ffffffc05040a25c:	09800793          	li	a5,152
ffffffc05040a260:	02f70733          	mul	a4,a4,a5
ffffffc05040a264:	007f6797          	auipc	a5,0x7f6
ffffffc05040a268:	49478793          	addi	a5,a5,1172 # ffffffc050c006f8 <pcb>
ffffffc05040a26c:	97ba                	add	a5,a5,a4
ffffffc05040a26e:	85be                	mv	a1,a5
ffffffc05040a270:	007f6517          	auipc	a0,0x7f6
ffffffc05040a274:	37850513          	addi	a0,a0,888 # ffffffc050c005e8 <ready_queue>
ffffffc05040a278:	975fe0ef          	jal	ra,ffffffc050408bec <in_queue>
ffffffc05040a27c:	007f6717          	auipc	a4,0x7f6
ffffffc05040a280:	47c70713          	addi	a4,a4,1148 # ffffffc050c006f8 <pcb>
ffffffc05040a284:	fec42683          	lw	a3,-20(s0)
ffffffc05040a288:	09800793          	li	a5,152
ffffffc05040a28c:	02f687b3          	mul	a5,a3,a5
ffffffc05040a290:	97ba                	add	a5,a5,a4
ffffffc05040a292:	47bc                	lw	a5,72(a5)
ffffffc05040a294:	853e                	mv	a0,a5
ffffffc05040a296:	70a6                	ld	ra,104(sp)
ffffffc05040a298:	7406                	ld	s0,96(sp)
ffffffc05040a29a:	6165                	addi	sp,sp,112
ffffffc05040a29c:	8082                	ret

ffffffc05040a29e <do_mthread_join>:
ffffffc05040a29e:	1101                	addi	sp,sp,-32
ffffffc05040a2a0:	ec06                	sd	ra,24(sp)
ffffffc05040a2a2:	e822                	sd	s0,16(sp)
ffffffc05040a2a4:	1000                	addi	s0,sp,32
ffffffc05040a2a6:	87aa                	mv	a5,a0
ffffffc05040a2a8:	fef42623          	sw	a5,-20(s0)
ffffffc05040a2ac:	fec42783          	lw	a5,-20(s0)
ffffffc05040a2b0:	853e                	mv	a0,a5
ffffffc05040a2b2:	9ebff0ef          	jal	ra,ffffffc050409c9c <do_waitpid>
ffffffc05040a2b6:	0001                	nop
ffffffc05040a2b8:	853e                	mv	a0,a5
ffffffc05040a2ba:	60e2                	ld	ra,24(sp)
ffffffc05040a2bc:	6442                	ld	s0,16(sp)
ffffffc05040a2be:	6105                	addi	sp,sp,32
ffffffc05040a2c0:	8082                	ret

ffffffc05040a2c2 <get_ticks>:
ffffffc05040a2c2:	1141                	addi	sp,sp,-16
ffffffc05040a2c4:	e422                	sd	s0,8(sp)
ffffffc05040a2c6:	0800                	addi	s0,sp,16
ffffffc05040a2c8:	c0102773          	rdtime	a4
ffffffc05040a2cc:	00020797          	auipc	a5,0x20
ffffffc05040a2d0:	57c78793          	addi	a5,a5,1404 # ffffffc05042a848 <time_elapsed>
ffffffc05040a2d4:	e398                	sd	a4,0(a5)
ffffffc05040a2d6:	00020797          	auipc	a5,0x20
ffffffc05040a2da:	57278793          	addi	a5,a5,1394 # ffffffc05042a848 <time_elapsed>
ffffffc05040a2de:	639c                	ld	a5,0(a5)
ffffffc05040a2e0:	853e                	mv	a0,a5
ffffffc05040a2e2:	6422                	ld	s0,8(sp)
ffffffc05040a2e4:	0141                	addi	sp,sp,16
ffffffc05040a2e6:	8082                	ret

ffffffc05040a2e8 <get_timer>:
ffffffc05040a2e8:	1141                	addi	sp,sp,-16
ffffffc05040a2ea:	e406                	sd	ra,8(sp)
ffffffc05040a2ec:	e022                	sd	s0,0(sp)
ffffffc05040a2ee:	0800                	addi	s0,sp,16
ffffffc05040a2f0:	fd3ff0ef          	jal	ra,ffffffc05040a2c2 <get_ticks>
ffffffc05040a2f4:	872a                	mv	a4,a0
ffffffc05040a2f6:	00020797          	auipc	a5,0x20
ffffffc05040a2fa:	55a78793          	addi	a5,a5,1370 # ffffffc05042a850 <time_base>
ffffffc05040a2fe:	439c                	lw	a5,0(a5)
ffffffc05040a300:	1782                	slli	a5,a5,0x20
ffffffc05040a302:	9381                	srli	a5,a5,0x20
ffffffc05040a304:	02f757b3          	divu	a5,a4,a5
ffffffc05040a308:	853e                	mv	a0,a5
ffffffc05040a30a:	60a2                	ld	ra,8(sp)
ffffffc05040a30c:	6402                	ld	s0,0(sp)
ffffffc05040a30e:	0141                	addi	sp,sp,16
ffffffc05040a310:	8082                	ret

ffffffc05040a312 <get_time_base>:
ffffffc05040a312:	1141                	addi	sp,sp,-16
ffffffc05040a314:	e422                	sd	s0,8(sp)
ffffffc05040a316:	0800                	addi	s0,sp,16
ffffffc05040a318:	00020797          	auipc	a5,0x20
ffffffc05040a31c:	53878793          	addi	a5,a5,1336 # ffffffc05042a850 <time_base>
ffffffc05040a320:	439c                	lw	a5,0(a5)
ffffffc05040a322:	1782                	slli	a5,a5,0x20
ffffffc05040a324:	9381                	srli	a5,a5,0x20
ffffffc05040a326:	853e                	mv	a0,a5
ffffffc05040a328:	6422                	ld	s0,8(sp)
ffffffc05040a32a:	0141                	addi	sp,sp,16
ffffffc05040a32c:	8082                	ret

ffffffc05040a32e <latency>:
ffffffc05040a32e:	7179                	addi	sp,sp,-48
ffffffc05040a330:	f406                	sd	ra,40(sp)
ffffffc05040a332:	f022                	sd	s0,32(sp)
ffffffc05040a334:	1800                	addi	s0,sp,48
ffffffc05040a336:	fca43c23          	sd	a0,-40(s0)
ffffffc05040a33a:	fafff0ef          	jal	ra,ffffffc05040a2e8 <get_timer>
ffffffc05040a33e:	fea43423          	sd	a0,-24(s0)
ffffffc05040a342:	0001                	nop
ffffffc05040a344:	fa5ff0ef          	jal	ra,ffffffc05040a2e8 <get_timer>
ffffffc05040a348:	872a                	mv	a4,a0
ffffffc05040a34a:	fe843783          	ld	a5,-24(s0)
ffffffc05040a34e:	40f707b3          	sub	a5,a4,a5
ffffffc05040a352:	fd843703          	ld	a4,-40(s0)
ffffffc05040a356:	fee7e7e3          	bltu	a5,a4,ffffffc05040a344 <latency+0x16>
ffffffc05040a35a:	0001                	nop
ffffffc05040a35c:	70a2                	ld	ra,40(sp)
ffffffc05040a35e:	7402                	ld	s0,32(sp)
ffffffc05040a360:	6145                	addi	sp,sp,48
ffffffc05040a362:	8082                	ret

ffffffc05040a364 <sbi_send_ipi>:
ffffffc05040a364:	1101                	addi	sp,sp,-32
ffffffc05040a366:	ec22                	sd	s0,24(sp)
ffffffc05040a368:	1000                	addi	s0,sp,32
ffffffc05040a36a:	fea43423          	sd	a0,-24(s0)
ffffffc05040a36e:	fe843783          	ld	a5,-24(s0)
ffffffc05040a372:	853e                	mv	a0,a5
ffffffc05040a374:	4581                	li	a1,0
ffffffc05040a376:	4601                	li	a2,0
ffffffc05040a378:	4891                	li	a7,4
ffffffc05040a37a:	00000073          	ecall
ffffffc05040a37e:	0001                	nop
ffffffc05040a380:	6462                	ld	s0,24(sp)
ffffffc05040a382:	6105                	addi	sp,sp,32
ffffffc05040a384:	8082                	ret

ffffffc05040a386 <smp_init>:
ffffffc05040a386:	1141                	addi	sp,sp,-16
ffffffc05040a388:	e422                	sd	s0,8(sp)
ffffffc05040a38a:	0800                	addi	s0,sp,16
ffffffc05040a38c:	007f7797          	auipc	a5,0x7f7
ffffffc05040a390:	cec78793          	addi	a5,a5,-788 # ffffffc050c01078 <kernel_lock>
ffffffc05040a394:	0007a023          	sw	zero,0(a5)
ffffffc05040a398:	0001                	nop
ffffffc05040a39a:	6422                	ld	s0,8(sp)
ffffffc05040a39c:	0141                	addi	sp,sp,16
ffffffc05040a39e:	8082                	ret

ffffffc05040a3a0 <wakeup_other_hart>:
ffffffc05040a3a0:	1141                	addi	sp,sp,-16
ffffffc05040a3a2:	e406                	sd	ra,8(sp)
ffffffc05040a3a4:	e022                	sd	s0,0(sp)
ffffffc05040a3a6:	0800                	addi	s0,sp,16
ffffffc05040a3a8:	4501                	li	a0,0
ffffffc05040a3aa:	fbbff0ef          	jal	ra,ffffffc05040a364 <sbi_send_ipi>
ffffffc05040a3ae:	14401073          	csrw	sip,zero
ffffffc05040a3b2:	0001                	nop
ffffffc05040a3b4:	60a2                	ld	ra,8(sp)
ffffffc05040a3b6:	6402                	ld	s0,0(sp)
ffffffc05040a3b8:	0141                	addi	sp,sp,16
ffffffc05040a3ba:	8082                	ret

ffffffc05040a3bc <lock_kernel>:
ffffffc05040a3bc:	1141                	addi	sp,sp,-16
ffffffc05040a3be:	e422                	sd	s0,8(sp)
ffffffc05040a3c0:	0800                	addi	s0,sp,16
ffffffc05040a3c2:	0001                	nop
ffffffc05040a3c4:	6422                	ld	s0,8(sp)
ffffffc05040a3c6:	0141                	addi	sp,sp,16
ffffffc05040a3c8:	8082                	ret

ffffffc05040a3ca <unlock_kernel>:
ffffffc05040a3ca:	1141                	addi	sp,sp,-16
ffffffc05040a3cc:	e422                	sd	s0,8(sp)
ffffffc05040a3ce:	0800                	addi	s0,sp,16
ffffffc05040a3d0:	0001                	nop
ffffffc05040a3d2:	6422                	ld	s0,8(sp)
ffffffc05040a3d4:	0141                	addi	sp,sp,16
ffffffc05040a3d6:	8082                	ret

ffffffc05040a3d8 <sbi_sd_write>:
ffffffc05040a3d8:	1101                	addi	sp,sp,-32
ffffffc05040a3da:	ec22                	sd	s0,24(sp)
ffffffc05040a3dc:	1000                	addi	s0,sp,32
ffffffc05040a3de:	87aa                	mv	a5,a0
ffffffc05040a3e0:	86ae                	mv	a3,a1
ffffffc05040a3e2:	8732                	mv	a4,a2
ffffffc05040a3e4:	fef42623          	sw	a5,-20(s0)
ffffffc05040a3e8:	87b6                	mv	a5,a3
ffffffc05040a3ea:	fef42423          	sw	a5,-24(s0)
ffffffc05040a3ee:	87ba                	mv	a5,a4
ffffffc05040a3f0:	fef42223          	sw	a5,-28(s0)
ffffffc05040a3f4:	fec46783          	lwu	a5,-20(s0)
ffffffc05040a3f8:	853e                	mv	a0,a5
ffffffc05040a3fa:	fe846783          	lwu	a5,-24(s0)
ffffffc05040a3fe:	85be                	mv	a1,a5
ffffffc05040a400:	fe446783          	lwu	a5,-28(s0)
ffffffc05040a404:	863e                	mv	a2,a5
ffffffc05040a406:	48a9                	li	a7,10
ffffffc05040a408:	00000073          	ecall
ffffffc05040a40c:	87aa                	mv	a5,a0
ffffffc05040a40e:	853e                	mv	a0,a5
ffffffc05040a410:	6462                	ld	s0,24(sp)
ffffffc05040a412:	6105                	addi	sp,sp,32
ffffffc05040a414:	8082                	ret

ffffffc05040a416 <sbi_sd_read>:
ffffffc05040a416:	1101                	addi	sp,sp,-32
ffffffc05040a418:	ec22                	sd	s0,24(sp)
ffffffc05040a41a:	1000                	addi	s0,sp,32
ffffffc05040a41c:	87aa                	mv	a5,a0
ffffffc05040a41e:	86ae                	mv	a3,a1
ffffffc05040a420:	8732                	mv	a4,a2
ffffffc05040a422:	fef42623          	sw	a5,-20(s0)
ffffffc05040a426:	87b6                	mv	a5,a3
ffffffc05040a428:	fef42423          	sw	a5,-24(s0)
ffffffc05040a42c:	87ba                	mv	a5,a4
ffffffc05040a42e:	fef42223          	sw	a5,-28(s0)
ffffffc05040a432:	fec46783          	lwu	a5,-20(s0)
ffffffc05040a436:	853e                	mv	a0,a5
ffffffc05040a438:	fe846783          	lwu	a5,-24(s0)
ffffffc05040a43c:	85be                	mv	a1,a5
ffffffc05040a43e:	fe446783          	lwu	a5,-28(s0)
ffffffc05040a442:	863e                	mv	a2,a5
ffffffc05040a444:	48ad                	li	a7,11
ffffffc05040a446:	00000073          	ecall
ffffffc05040a44a:	87aa                	mv	a5,a0
ffffffc05040a44c:	853e                	mv	a0,a5
ffffffc05040a44e:	6462                	ld	s0,24(sp)
ffffffc05040a450:	6105                	addi	sp,sp,32
ffffffc05040a452:	8082                	ret

ffffffc05040a454 <local_flush_tlb_all>:
ffffffc05040a454:	1141                	addi	sp,sp,-16
ffffffc05040a456:	e422                	sd	s0,8(sp)
ffffffc05040a458:	0800                	addi	s0,sp,16
ffffffc05040a45a:	12000073          	sfence.vma
ffffffc05040a45e:	0001                	nop
ffffffc05040a460:	6422                	ld	s0,8(sp)
ffffffc05040a462:	0141                	addi	sp,sp,16
ffffffc05040a464:	8082                	ret

ffffffc05040a466 <kva2pa>:
ffffffc05040a466:	1101                	addi	sp,sp,-32
ffffffc05040a468:	ec22                	sd	s0,24(sp)
ffffffc05040a46a:	1000                	addi	s0,sp,32
ffffffc05040a46c:	fea43423          	sd	a0,-24(s0)
ffffffc05040a470:	fe843703          	ld	a4,-24(s0)
ffffffc05040a474:	4785                	li	a5,1
ffffffc05040a476:	179a                	slli	a5,a5,0x26
ffffffc05040a478:	97ba                	add	a5,a5,a4
ffffffc05040a47a:	853e                	mv	a0,a5
ffffffc05040a47c:	6462                	ld	s0,24(sp)
ffffffc05040a47e:	6105                	addi	sp,sp,32
ffffffc05040a480:	8082                	ret

ffffffc05040a482 <pa2kva>:
ffffffc05040a482:	1101                	addi	sp,sp,-32
ffffffc05040a484:	ec22                	sd	s0,24(sp)
ffffffc05040a486:	1000                	addi	s0,sp,32
ffffffc05040a488:	fea43423          	sd	a0,-24(s0)
ffffffc05040a48c:	fe843703          	ld	a4,-24(s0)
ffffffc05040a490:	57fd                	li	a5,-1
ffffffc05040a492:	179a                	slli	a5,a5,0x26
ffffffc05040a494:	97ba                	add	a5,a5,a4
ffffffc05040a496:	853e                	mv	a0,a5
ffffffc05040a498:	6462                	ld	s0,24(sp)
ffffffc05040a49a:	6105                	addi	sp,sp,32
ffffffc05040a49c:	8082                	ret

ffffffc05040a49e <get_pa>:
ffffffc05040a49e:	1101                	addi	sp,sp,-32
ffffffc05040a4a0:	ec22                	sd	s0,24(sp)
ffffffc05040a4a2:	1000                	addi	s0,sp,32
ffffffc05040a4a4:	fea43423          	sd	a0,-24(s0)
ffffffc05040a4a8:	fe843783          	ld	a5,-24(s0)
ffffffc05040a4ac:	83a9                	srli	a5,a5,0xa
ffffffc05040a4ae:	07b2                	slli	a5,a5,0xc
ffffffc05040a4b0:	853e                	mv	a0,a5
ffffffc05040a4b2:	6462                	ld	s0,24(sp)
ffffffc05040a4b4:	6105                	addi	sp,sp,32
ffffffc05040a4b6:	8082                	ret

ffffffc05040a4b8 <set_pfn>:
ffffffc05040a4b8:	1101                	addi	sp,sp,-32
ffffffc05040a4ba:	ec22                	sd	s0,24(sp)
ffffffc05040a4bc:	1000                	addi	s0,sp,32
ffffffc05040a4be:	fea43423          	sd	a0,-24(s0)
ffffffc05040a4c2:	feb43023          	sd	a1,-32(s0)
ffffffc05040a4c6:	fe843783          	ld	a5,-24(s0)
ffffffc05040a4ca:	639c                	ld	a5,0(a5)
ffffffc05040a4cc:	3ff7f713          	andi	a4,a5,1023
ffffffc05040a4d0:	fe843783          	ld	a5,-24(s0)
ffffffc05040a4d4:	e398                	sd	a4,0(a5)
ffffffc05040a4d6:	fe843783          	ld	a5,-24(s0)
ffffffc05040a4da:	6398                	ld	a4,0(a5)
ffffffc05040a4dc:	fe043783          	ld	a5,-32(s0)
ffffffc05040a4e0:	07aa                	slli	a5,a5,0xa
ffffffc05040a4e2:	8f5d                	or	a4,a4,a5
ffffffc05040a4e4:	fe843783          	ld	a5,-24(s0)
ffffffc05040a4e8:	e398                	sd	a4,0(a5)
ffffffc05040a4ea:	0001                	nop
ffffffc05040a4ec:	6462                	ld	s0,24(sp)
ffffffc05040a4ee:	6105                	addi	sp,sp,32
ffffffc05040a4f0:	8082                	ret

ffffffc05040a4f2 <set_attribute>:
ffffffc05040a4f2:	1101                	addi	sp,sp,-32
ffffffc05040a4f4:	ec22                	sd	s0,24(sp)
ffffffc05040a4f6:	1000                	addi	s0,sp,32
ffffffc05040a4f8:	fea43423          	sd	a0,-24(s0)
ffffffc05040a4fc:	feb43023          	sd	a1,-32(s0)
ffffffc05040a500:	fe843783          	ld	a5,-24(s0)
ffffffc05040a504:	639c                	ld	a5,0(a5)
ffffffc05040a506:	c007f713          	andi	a4,a5,-1024
ffffffc05040a50a:	fe843783          	ld	a5,-24(s0)
ffffffc05040a50e:	e398                	sd	a4,0(a5)
ffffffc05040a510:	fe843783          	ld	a5,-24(s0)
ffffffc05040a514:	6398                	ld	a4,0(a5)
ffffffc05040a516:	fe043783          	ld	a5,-32(s0)
ffffffc05040a51a:	8f5d                	or	a4,a4,a5
ffffffc05040a51c:	fe843783          	ld	a5,-24(s0)
ffffffc05040a520:	e398                	sd	a4,0(a5)
ffffffc05040a522:	0001                	nop
ffffffc05040a524:	6462                	ld	s0,24(sp)
ffffffc05040a526:	6105                	addi	sp,sp,32
ffffffc05040a528:	8082                	ret

ffffffc05040a52a <clear_pgdir>:
ffffffc05040a52a:	7179                	addi	sp,sp,-48
ffffffc05040a52c:	f422                	sd	s0,40(sp)
ffffffc05040a52e:	1800                	addi	s0,sp,48
ffffffc05040a530:	fca43c23          	sd	a0,-40(s0)
ffffffc05040a534:	fd843783          	ld	a5,-40(s0)
ffffffc05040a538:	fef43023          	sd	a5,-32(s0)
ffffffc05040a53c:	fe042623          	sw	zero,-20(s0)
ffffffc05040a540:	a831                	j	ffffffc05040a55c <clear_pgdir+0x32>
ffffffc05040a542:	fe043783          	ld	a5,-32(s0)
ffffffc05040a546:	00878713          	addi	a4,a5,8
ffffffc05040a54a:	fee43023          	sd	a4,-32(s0)
ffffffc05040a54e:	0007b023          	sd	zero,0(a5)
ffffffc05040a552:	fec42783          	lw	a5,-20(s0)
ffffffc05040a556:	2785                	addiw	a5,a5,1
ffffffc05040a558:	fef42623          	sw	a5,-20(s0)
ffffffc05040a55c:	fec42783          	lw	a5,-20(s0)
ffffffc05040a560:	0007871b          	sext.w	a4,a5
ffffffc05040a564:	1ff00793          	li	a5,511
ffffffc05040a568:	fce7dde3          	bge	a5,a4,ffffffc05040a542 <clear_pgdir+0x18>
ffffffc05040a56c:	0001                	nop
ffffffc05040a56e:	0001                	nop
ffffffc05040a570:	7422                	ld	s0,40(sp)
ffffffc05040a572:	6145                	addi	sp,sp,48
ffffffc05040a574:	8082                	ret

ffffffc05040a576 <_panic>:
ffffffc05040a576:	7179                	addi	sp,sp,-48
ffffffc05040a578:	f406                	sd	ra,40(sp)
ffffffc05040a57a:	f022                	sd	s0,32(sp)
ffffffc05040a57c:	1800                	addi	s0,sp,48
ffffffc05040a57e:	fea43423          	sd	a0,-24(s0)
ffffffc05040a582:	87ae                	mv	a5,a1
ffffffc05040a584:	fcc43c23          	sd	a2,-40(s0)
ffffffc05040a588:	fef42223          	sw	a5,-28(s0)
ffffffc05040a58c:	fe442783          	lw	a5,-28(s0)
ffffffc05040a590:	86be                	mv	a3,a5
ffffffc05040a592:	fe843603          	ld	a2,-24(s0)
ffffffc05040a596:	fd843583          	ld	a1,-40(s0)
ffffffc05040a59a:	00003517          	auipc	a0,0x3
ffffffc05040a59e:	25650513          	addi	a0,a0,598 # ffffffc05040d7f0 <__FUNCTION__.1742+0x18>
ffffffc05040a5a2:	248020ef          	jal	ra,ffffffc05040c7ea <printk>
ffffffc05040a5a6:	a001                	j	ffffffc05040a5a6 <_panic+0x30>

ffffffc05040a5a8 <swap>:
ffffffc05040a5a8:	711d                	addi	sp,sp,-96
ffffffc05040a5aa:	ec86                	sd	ra,88(sp)
ffffffc05040a5ac:	e8a2                	sd	s0,80(sp)
ffffffc05040a5ae:	1080                	addi	s0,sp,96
ffffffc05040a5b0:	faa43c23          	sd	a0,-72(s0)
ffffffc05040a5b4:	87ae                	mv	a5,a1
ffffffc05040a5b6:	fac43423          	sd	a2,-88(s0)
ffffffc05040a5ba:	faf42a23          	sw	a5,-76(s0)
ffffffc05040a5be:	fb843783          	ld	a5,-72(s0)
ffffffc05040a5c2:	07b2                	slli	a5,a5,0xc
ffffffc05040a5c4:	853e                	mv	a0,a5
ffffffc05040a5c6:	ebdff0ef          	jal	ra,ffffffc05040a482 <pa2kva>
ffffffc05040a5ca:	87aa                	mv	a5,a0
ffffffc05040a5cc:	fcf43c23          	sd	a5,-40(s0)
ffffffc05040a5d0:	fe042623          	sw	zero,-20(s0)
ffffffc05040a5d4:	aa4d                	j	ffffffc05040a786 <swap+0x1de>
ffffffc05040a5d6:	fec42783          	lw	a5,-20(s0)
ffffffc05040a5da:	078e                	slli	a5,a5,0x3
ffffffc05040a5dc:	fd843703          	ld	a4,-40(s0)
ffffffc05040a5e0:	97ba                	add	a5,a5,a4
ffffffc05040a5e2:	639c                	ld	a5,0(a5)
ffffffc05040a5e4:	18078c63          	beqz	a5,ffffffc05040a77c <swap+0x1d4>
ffffffc05040a5e8:	fec42783          	lw	a5,-20(s0)
ffffffc05040a5ec:	078e                	slli	a5,a5,0x3
ffffffc05040a5ee:	fd843703          	ld	a4,-40(s0)
ffffffc05040a5f2:	97ba                	add	a5,a5,a4
ffffffc05040a5f4:	639c                	ld	a5,0(a5)
ffffffc05040a5f6:	853e                	mv	a0,a5
ffffffc05040a5f8:	ea7ff0ef          	jal	ra,ffffffc05040a49e <get_pa>
ffffffc05040a5fc:	87aa                	mv	a5,a0
ffffffc05040a5fe:	853e                	mv	a0,a5
ffffffc05040a600:	e83ff0ef          	jal	ra,ffffffc05040a482 <pa2kva>
ffffffc05040a604:	87aa                	mv	a5,a0
ffffffc05040a606:	fcf43823          	sd	a5,-48(s0)
ffffffc05040a60a:	fe042423          	sw	zero,-24(s0)
ffffffc05040a60e:	aab9                	j	ffffffc05040a76c <swap+0x1c4>
ffffffc05040a610:	fe842783          	lw	a5,-24(s0)
ffffffc05040a614:	078e                	slli	a5,a5,0x3
ffffffc05040a616:	fd043703          	ld	a4,-48(s0)
ffffffc05040a61a:	97ba                	add	a5,a5,a4
ffffffc05040a61c:	639c                	ld	a5,0(a5)
ffffffc05040a61e:	14078263          	beqz	a5,ffffffc05040a762 <swap+0x1ba>
ffffffc05040a622:	fe842783          	lw	a5,-24(s0)
ffffffc05040a626:	078e                	slli	a5,a5,0x3
ffffffc05040a628:	fd043703          	ld	a4,-48(s0)
ffffffc05040a62c:	97ba                	add	a5,a5,a4
ffffffc05040a62e:	639c                	ld	a5,0(a5)
ffffffc05040a630:	8ba9                	andi	a5,a5,10
ffffffc05040a632:	12079863          	bnez	a5,ffffffc05040a762 <swap+0x1ba>
ffffffc05040a636:	fe842783          	lw	a5,-24(s0)
ffffffc05040a63a:	078e                	slli	a5,a5,0x3
ffffffc05040a63c:	fd043703          	ld	a4,-48(s0)
ffffffc05040a640:	97ba                	add	a5,a5,a4
ffffffc05040a642:	639c                	ld	a5,0(a5)
ffffffc05040a644:	853e                	mv	a0,a5
ffffffc05040a646:	e59ff0ef          	jal	ra,ffffffc05040a49e <get_pa>
ffffffc05040a64a:	87aa                	mv	a5,a0
ffffffc05040a64c:	853e                	mv	a0,a5
ffffffc05040a64e:	e35ff0ef          	jal	ra,ffffffc05040a482 <pa2kva>
ffffffc05040a652:	87aa                	mv	a5,a0
ffffffc05040a654:	fcf43423          	sd	a5,-56(s0)
ffffffc05040a658:	fe042223          	sw	zero,-28(s0)
ffffffc05040a65c:	a8dd                	j	ffffffc05040a752 <swap+0x1aa>
ffffffc05040a65e:	fe442783          	lw	a5,-28(s0)
ffffffc05040a662:	078e                	slli	a5,a5,0x3
ffffffc05040a664:	fc843703          	ld	a4,-56(s0)
ffffffc05040a668:	97ba                	add	a5,a5,a4
ffffffc05040a66a:	639c                	ld	a5,0(a5)
ffffffc05040a66c:	cff1                	beqz	a5,ffffffc05040a748 <swap+0x1a0>
ffffffc05040a66e:	fe442783          	lw	a5,-28(s0)
ffffffc05040a672:	078e                	slli	a5,a5,0x3
ffffffc05040a674:	fc843703          	ld	a4,-56(s0)
ffffffc05040a678:	97ba                	add	a5,a5,a4
ffffffc05040a67a:	639c                	ld	a5,0(a5)
ffffffc05040a67c:	853e                	mv	a0,a5
ffffffc05040a67e:	e21ff0ef          	jal	ra,ffffffc05040a49e <get_pa>
ffffffc05040a682:	872a                	mv	a4,a0
ffffffc05040a684:	fa843783          	ld	a5,-88(s0)
ffffffc05040a688:	0ce79063          	bne	a5,a4,ffffffc05040a748 <swap+0x1a0>
ffffffc05040a68c:	fec42783          	lw	a5,-20(s0)
ffffffc05040a690:	01e79713          	slli	a4,a5,0x1e
ffffffc05040a694:	fe842783          	lw	a5,-24(s0)
ffffffc05040a698:	07d6                	slli	a5,a5,0x15
ffffffc05040a69a:	8f5d                	or	a4,a4,a5
ffffffc05040a69c:	fe442783          	lw	a5,-28(s0)
ffffffc05040a6a0:	07b2                	slli	a5,a5,0xc
ffffffc05040a6a2:	8fd9                	or	a5,a5,a4
ffffffc05040a6a4:	fcf43023          	sd	a5,-64(s0)
ffffffc05040a6a8:	fb442783          	lw	a5,-76(s0)
ffffffc05040a6ac:	fc043703          	ld	a4,-64(s0)
ffffffc05040a6b0:	8fd9                	or	a5,a5,a4
ffffffc05040a6b2:	fcf43023          	sd	a5,-64(s0)
ffffffc05040a6b6:	4785                	li	a5,1
ffffffc05040a6b8:	fef42023          	sw	a5,-32(s0)
ffffffc05040a6bc:	a005                	j	ffffffc05040a6dc <swap+0x134>
ffffffc05040a6be:	007f7717          	auipc	a4,0x7f7
ffffffc05040a6c2:	70270713          	addi	a4,a4,1794 # ffffffc050c01dc0 <sd_va>
ffffffc05040a6c6:	fe042783          	lw	a5,-32(s0)
ffffffc05040a6ca:	078e                	slli	a5,a5,0x3
ffffffc05040a6cc:	97ba                	add	a5,a5,a4
ffffffc05040a6ce:	639c                	ld	a5,0(a5)
ffffffc05040a6d0:	cf99                	beqz	a5,ffffffc05040a6ee <swap+0x146>
ffffffc05040a6d2:	fe042783          	lw	a5,-32(s0)
ffffffc05040a6d6:	2785                	addiw	a5,a5,1
ffffffc05040a6d8:	fef42023          	sw	a5,-32(s0)
ffffffc05040a6dc:	fe042783          	lw	a5,-32(s0)
ffffffc05040a6e0:	0007871b          	sext.w	a4,a5
ffffffc05040a6e4:	0c700793          	li	a5,199
ffffffc05040a6e8:	fce7dbe3          	bge	a5,a4,ffffffc05040a6be <swap+0x116>
ffffffc05040a6ec:	a011                	j	ffffffc05040a6f0 <swap+0x148>
ffffffc05040a6ee:	0001                	nop
ffffffc05040a6f0:	fe042783          	lw	a5,-32(s0)
ffffffc05040a6f4:	0007871b          	sext.w	a4,a5
ffffffc05040a6f8:	0c700793          	li	a5,199
ffffffc05040a6fc:	00e7de63          	bge	a5,a4,ffffffc05040a718 <swap+0x170>
ffffffc05040a700:	00020617          	auipc	a2,0x20
ffffffc05040a704:	0d860613          	addi	a2,a2,216 # ffffffc05042a7d8 <__FUNCTION__.1376>
ffffffc05040a708:	04100593          	li	a1,65
ffffffc05040a70c:	00003517          	auipc	a0,0x3
ffffffc05040a710:	10c50513          	addi	a0,a0,268 # ffffffc05040d818 <__FUNCTION__.1742+0x40>
ffffffc05040a714:	e63ff0ef          	jal	ra,ffffffc05040a576 <_panic>
ffffffc05040a718:	007f7717          	auipc	a4,0x7f7
ffffffc05040a71c:	6a870713          	addi	a4,a4,1704 # ffffffc050c01dc0 <sd_va>
ffffffc05040a720:	fe042783          	lw	a5,-32(s0)
ffffffc05040a724:	078e                	slli	a5,a5,0x3
ffffffc05040a726:	97ba                	add	a5,a5,a4
ffffffc05040a728:	fc043703          	ld	a4,-64(s0)
ffffffc05040a72c:	e398                	sd	a4,0(a5)
ffffffc05040a72e:	fe442783          	lw	a5,-28(s0)
ffffffc05040a732:	078e                	slli	a5,a5,0x3
ffffffc05040a734:	fc843703          	ld	a4,-56(s0)
ffffffc05040a738:	97ba                	add	a5,a5,a4
ffffffc05040a73a:	0007b023          	sd	zero,0(a5)
ffffffc05040a73e:	d17ff0ef          	jal	ra,ffffffc05040a454 <local_flush_tlb_all>
ffffffc05040a742:	fe042783          	lw	a5,-32(s0)
ffffffc05040a746:	a889                	j	ffffffc05040a798 <swap+0x1f0>
ffffffc05040a748:	fe442783          	lw	a5,-28(s0)
ffffffc05040a74c:	2785                	addiw	a5,a5,1
ffffffc05040a74e:	fef42223          	sw	a5,-28(s0)
ffffffc05040a752:	fe442783          	lw	a5,-28(s0)
ffffffc05040a756:	0007871b          	sext.w	a4,a5
ffffffc05040a75a:	1ff00793          	li	a5,511
ffffffc05040a75e:	f0e7d0e3          	bge	a5,a4,ffffffc05040a65e <swap+0xb6>
ffffffc05040a762:	fe842783          	lw	a5,-24(s0)
ffffffc05040a766:	2785                	addiw	a5,a5,1
ffffffc05040a768:	fef42423          	sw	a5,-24(s0)
ffffffc05040a76c:	fe842783          	lw	a5,-24(s0)
ffffffc05040a770:	0007871b          	sext.w	a4,a5
ffffffc05040a774:	1ff00793          	li	a5,511
ffffffc05040a778:	e8e7dce3          	bge	a5,a4,ffffffc05040a610 <swap+0x68>
ffffffc05040a77c:	fec42783          	lw	a5,-20(s0)
ffffffc05040a780:	2785                	addiw	a5,a5,1
ffffffc05040a782:	fef42623          	sw	a5,-20(s0)
ffffffc05040a786:	fec42783          	lw	a5,-20(s0)
ffffffc05040a78a:	0007871b          	sext.w	a4,a5
ffffffc05040a78e:	1ff00793          	li	a5,511
ffffffc05040a792:	e4e7d2e3          	bge	a5,a4,ffffffc05040a5d6 <swap+0x2e>
ffffffc05040a796:	4781                	li	a5,0
ffffffc05040a798:	853e                	mv	a0,a5
ffffffc05040a79a:	60e6                	ld	ra,88(sp)
ffffffc05040a79c:	6446                	ld	s0,80(sp)
ffffffc05040a79e:	6125                	addi	sp,sp,96
ffffffc05040a7a0:	8082                	ret

ffffffc05040a7a2 <allocPage>:
ffffffc05040a7a2:	7159                	addi	sp,sp,-112
ffffffc05040a7a4:	f486                	sd	ra,104(sp)
ffffffc05040a7a6:	f0a2                	sd	s0,96(sp)
ffffffc05040a7a8:	1880                	addi	s0,sp,112
ffffffc05040a7aa:	87aa                	mv	a5,a0
ffffffc05040a7ac:	872e                	mv	a4,a1
ffffffc05040a7ae:	f8f42e23          	sw	a5,-100(s0)
ffffffc05040a7b2:	87ba                	mv	a5,a4
ffffffc05040a7b4:	f8f42c23          	sw	a5,-104(s0)
ffffffc05040a7b8:	00020797          	auipc	a5,0x20
ffffffc05040a7bc:	05078793          	addi	a5,a5,80 # ffffffc05042a808 <memCurr>
ffffffc05040a7c0:	6398                	ld	a4,0(a5)
ffffffc05040a7c2:	6785                	lui	a5,0x1
ffffffc05040a7c4:	17fd                	addi	a5,a5,-1
ffffffc05040a7c6:	973e                	add	a4,a4,a5
ffffffc05040a7c8:	77fd                	lui	a5,0xfffff
ffffffc05040a7ca:	8ff9                	and	a5,a5,a4
ffffffc05040a7cc:	fcf43823          	sd	a5,-48(s0)
ffffffc05040a7d0:	fe042623          	sw	zero,-20(s0)
ffffffc05040a7d4:	af5f50ef          	jal	ra,ffffffc0504002c8 <get_current_cpu_id>
ffffffc05040a7d8:	87aa                	mv	a5,a0
ffffffc05040a7da:	fcf43423          	sd	a5,-56(s0)
ffffffc05040a7de:	a09d                	j	ffffffc05040a844 <allocPage+0xa2>
ffffffc05040a7e0:	007f7717          	auipc	a4,0x7f7
ffffffc05040a7e4:	8a070713          	addi	a4,a4,-1888 # ffffffc050c01080 <mem_occupied>
ffffffc05040a7e8:	fec42783          	lw	a5,-20(s0)
ffffffc05040a7ec:	078a                	slli	a5,a5,0x2
ffffffc05040a7ee:	97ba                	add	a5,a5,a4
ffffffc05040a7f0:	439c                	lw	a5,0(a5)
ffffffc05040a7f2:	e7a1                	bnez	a5,ffffffc05040a83a <allocPage+0x98>
ffffffc05040a7f4:	f9842783          	lw	a5,-104(s0)
ffffffc05040a7f8:	2781                	sext.w	a5,a5
ffffffc05040a7fa:	c78d                	beqz	a5,ffffffc05040a824 <allocPage+0x82>
ffffffc05040a7fc:	007f6717          	auipc	a4,0x7f6
ffffffc05040a800:	dfc70713          	addi	a4,a4,-516 # ffffffc050c005f8 <current_running>
ffffffc05040a804:	fc843783          	ld	a5,-56(s0)
ffffffc05040a808:	078e                	slli	a5,a5,0x3
ffffffc05040a80a:	97ba                	add	a5,a5,a4
ffffffc05040a80c:	639c                	ld	a5,0(a5)
ffffffc05040a80e:	47b8                	lw	a4,72(a5)
ffffffc05040a810:	007f7697          	auipc	a3,0x7f7
ffffffc05040a814:	87068693          	addi	a3,a3,-1936 # ffffffc050c01080 <mem_occupied>
ffffffc05040a818:	fec42783          	lw	a5,-20(s0)
ffffffc05040a81c:	078a                	slli	a5,a5,0x2
ffffffc05040a81e:	97b6                	add	a5,a5,a3
ffffffc05040a820:	c398                	sw	a4,0(a5)
ffffffc05040a822:	a80d                	j	ffffffc05040a854 <allocPage+0xb2>
ffffffc05040a824:	007f7717          	auipc	a4,0x7f7
ffffffc05040a828:	85c70713          	addi	a4,a4,-1956 # ffffffc050c01080 <mem_occupied>
ffffffc05040a82c:	fec42783          	lw	a5,-20(s0)
ffffffc05040a830:	078a                	slli	a5,a5,0x2
ffffffc05040a832:	97ba                	add	a5,a5,a4
ffffffc05040a834:	4705                	li	a4,1
ffffffc05040a836:	c398                	sw	a4,0(a5)
ffffffc05040a838:	a831                	j	ffffffc05040a854 <allocPage+0xb2>
ffffffc05040a83a:	fec42783          	lw	a5,-20(s0)
ffffffc05040a83e:	2785                	addiw	a5,a5,1
ffffffc05040a840:	fef42623          	sw	a5,-20(s0)
ffffffc05040a844:	fec42783          	lw	a5,-20(s0)
ffffffc05040a848:	0007871b          	sext.w	a4,a5
ffffffc05040a84c:	0ff00793          	li	a5,255
ffffffc05040a850:	f8e7d8e3          	bge	a5,a4,ffffffc05040a7e0 <allocPage+0x3e>
ffffffc05040a854:	fec42783          	lw	a5,-20(s0)
ffffffc05040a858:	0007871b          	sext.w	a4,a5
ffffffc05040a85c:	0ff00793          	li	a5,255
ffffffc05040a860:	00e7cf63          	blt	a5,a4,ffffffc05040a87e <allocPage+0xdc>
ffffffc05040a864:	fec42783          	lw	a5,-20(s0)
ffffffc05040a868:	00c7979b          	slliw	a5,a5,0xc
ffffffc05040a86c:	2781                	sext.w	a5,a5
ffffffc05040a86e:	873e                	mv	a4,a5
ffffffc05040a870:	00020797          	auipc	a5,0x20
ffffffc05040a874:	f9878793          	addi	a5,a5,-104 # ffffffc05042a808 <memCurr>
ffffffc05040a878:	639c                	ld	a5,0(a5)
ffffffc05040a87a:	97ba                	add	a5,a5,a4
ffffffc05040a87c:	a2f9                	j	ffffffc05040aa4a <allocPage+0x2a8>
ffffffc05040a87e:	fe042223          	sw	zero,-28(s0)
ffffffc05040a882:	fe042423          	sw	zero,-24(s0)
ffffffc05040a886:	aa05                	j	ffffffc05040a9b6 <allocPage+0x214>
ffffffc05040a888:	007f6717          	auipc	a4,0x7f6
ffffffc05040a88c:	7f870713          	addi	a4,a4,2040 # ffffffc050c01080 <mem_occupied>
ffffffc05040a890:	fe842783          	lw	a5,-24(s0)
ffffffc05040a894:	078a                	slli	a5,a5,0x2
ffffffc05040a896:	97ba                	add	a5,a5,a4
ffffffc05040a898:	439c                	lw	a5,0(a5)
ffffffc05040a89a:	873e                	mv	a4,a5
ffffffc05040a89c:	4785                	li	a5,1
ffffffc05040a89e:	10e7d763          	bge	a5,a4,ffffffc05040a9ac <allocPage+0x20a>
ffffffc05040a8a2:	007f6717          	auipc	a4,0x7f6
ffffffc05040a8a6:	7de70713          	addi	a4,a4,2014 # ffffffc050c01080 <mem_occupied>
ffffffc05040a8aa:	fe842783          	lw	a5,-24(s0)
ffffffc05040a8ae:	078a                	slli	a5,a5,0x2
ffffffc05040a8b0:	97ba                	add	a5,a5,a4
ffffffc05040a8b2:	439c                	lw	a5,0(a5)
ffffffc05040a8b4:	fcf42223          	sw	a5,-60(s0)
ffffffc05040a8b8:	fe042223          	sw	zero,-28(s0)
ffffffc05040a8bc:	a031                	j	ffffffc05040a8c8 <allocPage+0x126>
ffffffc05040a8be:	fe442783          	lw	a5,-28(s0)
ffffffc05040a8c2:	2785                	addiw	a5,a5,1
ffffffc05040a8c4:	fef42223          	sw	a5,-28(s0)
ffffffc05040a8c8:	007f6717          	auipc	a4,0x7f6
ffffffc05040a8cc:	e3070713          	addi	a4,a4,-464 # ffffffc050c006f8 <pcb>
ffffffc05040a8d0:	fe442683          	lw	a3,-28(s0)
ffffffc05040a8d4:	09800793          	li	a5,152
ffffffc05040a8d8:	02f687b3          	mul	a5,a3,a5
ffffffc05040a8dc:	97ba                	add	a5,a5,a4
ffffffc05040a8de:	47b8                	lw	a4,72(a5)
ffffffc05040a8e0:	fc442783          	lw	a5,-60(s0)
ffffffc05040a8e4:	2781                	sext.w	a5,a5
ffffffc05040a8e6:	00e78963          	beq	a5,a4,ffffffc05040a8f8 <allocPage+0x156>
ffffffc05040a8ea:	fe442783          	lw	a5,-28(s0)
ffffffc05040a8ee:	0007871b          	sext.w	a4,a5
ffffffc05040a8f2:	47bd                	li	a5,15
ffffffc05040a8f4:	fce7d5e3          	bge	a5,a4,ffffffc05040a8be <allocPage+0x11c>
ffffffc05040a8f8:	fe442783          	lw	a5,-28(s0)
ffffffc05040a8fc:	0007871b          	sext.w	a4,a5
ffffffc05040a900:	47c1                	li	a5,16
ffffffc05040a902:	00f70f63          	beq	a4,a5,ffffffc05040a920 <allocPage+0x17e>
ffffffc05040a906:	fe442703          	lw	a4,-28(s0)
ffffffc05040a90a:	09800793          	li	a5,152
ffffffc05040a90e:	02f70733          	mul	a4,a4,a5
ffffffc05040a912:	007f6797          	auipc	a5,0x7f6
ffffffc05040a916:	de678793          	addi	a5,a5,-538 # ffffffc050c006f8 <pcb>
ffffffc05040a91a:	97ba                	add	a5,a5,a4
ffffffc05040a91c:	fcf43c23          	sd	a5,-40(s0)
ffffffc05040a920:	fd843783          	ld	a5,-40(s0)
ffffffc05040a924:	6b9c                	ld	a5,16(a5)
ffffffc05040a926:	faf43c23          	sd	a5,-72(s0)
ffffffc05040a92a:	fb843703          	ld	a4,-72(s0)
ffffffc05040a92e:	57fd                	li	a5,-1
ffffffc05040a930:	83d1                	srli	a5,a5,0x14
ffffffc05040a932:	8ff9                	and	a5,a5,a4
ffffffc05040a934:	faf43823          	sd	a5,-80(s0)
ffffffc05040a938:	fe842783          	lw	a5,-24(s0)
ffffffc05040a93c:	00c7979b          	slliw	a5,a5,0xc
ffffffc05040a940:	2781                	sext.w	a5,a5
ffffffc05040a942:	873e                	mv	a4,a5
ffffffc05040a944:	00020797          	auipc	a5,0x20
ffffffc05040a948:	ec478793          	addi	a5,a5,-316 # ffffffc05042a808 <memCurr>
ffffffc05040a94c:	639c                	ld	a5,0(a5)
ffffffc05040a94e:	97ba                	add	a5,a5,a4
ffffffc05040a950:	faf43423          	sd	a5,-88(s0)
ffffffc05040a954:	fc442783          	lw	a5,-60(s0)
ffffffc05040a958:	fa843603          	ld	a2,-88(s0)
ffffffc05040a95c:	85be                	mv	a1,a5
ffffffc05040a95e:	fb043503          	ld	a0,-80(s0)
ffffffc05040a962:	c47ff0ef          	jal	ra,ffffffc05040a5a8 <swap>
ffffffc05040a966:	87aa                	mv	a5,a0
ffffffc05040a968:	faf42223          	sw	a5,-92(s0)
ffffffc05040a96c:	fa442783          	lw	a5,-92(s0)
ffffffc05040a970:	2781                	sext.w	a5,a5
ffffffc05040a972:	eb89                	bnez	a5,ffffffc05040a984 <allocPage+0x1e2>
ffffffc05040a974:	fb043583          	ld	a1,-80(s0)
ffffffc05040a978:	00003517          	auipc	a0,0x3
ffffffc05040a97c:	eb850513          	addi	a0,a0,-328 # ffffffc05040d830 <__FUNCTION__.1742+0x58>
ffffffc05040a980:	6f3010ef          	jal	ra,ffffffc05040c872 <prints>
ffffffc05040a984:	fa843783          	ld	a5,-88(s0)
ffffffc05040a988:	0007871b          	sext.w	a4,a5
ffffffc05040a98c:	fa442783          	lw	a5,-92(s0)
ffffffc05040a990:	37fd                	addiw	a5,a5,-1
ffffffc05040a992:	2781                	sext.w	a5,a5
ffffffc05040a994:	0037979b          	slliw	a5,a5,0x3
ffffffc05040a998:	2781                	sext.w	a5,a5
ffffffc05040a99a:	2785                	addiw	a5,a5,1
ffffffc05040a99c:	2781                	sext.w	a5,a5
ffffffc05040a99e:	2781                	sext.w	a5,a5
ffffffc05040a9a0:	863e                	mv	a2,a5
ffffffc05040a9a2:	45a1                	li	a1,8
ffffffc05040a9a4:	853a                	mv	a0,a4
ffffffc05040a9a6:	a33ff0ef          	jal	ra,ffffffc05040a3d8 <sbi_sd_write>
ffffffc05040a9aa:	a831                	j	ffffffc05040a9c6 <allocPage+0x224>
ffffffc05040a9ac:	fe842783          	lw	a5,-24(s0)
ffffffc05040a9b0:	2785                	addiw	a5,a5,1
ffffffc05040a9b2:	fef42423          	sw	a5,-24(s0)
ffffffc05040a9b6:	fe842783          	lw	a5,-24(s0)
ffffffc05040a9ba:	0007871b          	sext.w	a4,a5
ffffffc05040a9be:	0ff00793          	li	a5,255
ffffffc05040a9c2:	ece7d3e3          	bge	a5,a4,ffffffc05040a888 <allocPage+0xe6>
ffffffc05040a9c6:	fe842783          	lw	a5,-24(s0)
ffffffc05040a9ca:	0007871b          	sext.w	a4,a5
ffffffc05040a9ce:	0ff00793          	li	a5,255
ffffffc05040a9d2:	00e7de63          	bge	a5,a4,ffffffc05040a9ee <allocPage+0x24c>
ffffffc05040a9d6:	00003617          	auipc	a2,0x3
ffffffc05040a9da:	e8a60613          	addi	a2,a2,-374 # ffffffc05040d860 <__FUNCTION__.1411>
ffffffc05040a9de:	07f00593          	li	a1,127
ffffffc05040a9e2:	00003517          	auipc	a0,0x3
ffffffc05040a9e6:	e3650513          	addi	a0,a0,-458 # ffffffc05040d818 <__FUNCTION__.1742+0x40>
ffffffc05040a9ea:	b8dff0ef          	jal	ra,ffffffc05040a576 <_panic>
ffffffc05040a9ee:	f9842783          	lw	a5,-104(s0)
ffffffc05040a9f2:	2781                	sext.w	a5,a5
ffffffc05040a9f4:	c78d                	beqz	a5,ffffffc05040aa1e <allocPage+0x27c>
ffffffc05040a9f6:	007f6717          	auipc	a4,0x7f6
ffffffc05040a9fa:	c0270713          	addi	a4,a4,-1022 # ffffffc050c005f8 <current_running>
ffffffc05040a9fe:	fc843783          	ld	a5,-56(s0)
ffffffc05040aa02:	078e                	slli	a5,a5,0x3
ffffffc05040aa04:	97ba                	add	a5,a5,a4
ffffffc05040aa06:	639c                	ld	a5,0(a5)
ffffffc05040aa08:	47b8                	lw	a4,72(a5)
ffffffc05040aa0a:	007f6697          	auipc	a3,0x7f6
ffffffc05040aa0e:	67668693          	addi	a3,a3,1654 # ffffffc050c01080 <mem_occupied>
ffffffc05040aa12:	fe842783          	lw	a5,-24(s0)
ffffffc05040aa16:	078a                	slli	a5,a5,0x2
ffffffc05040aa18:	97b6                	add	a5,a5,a3
ffffffc05040aa1a:	c398                	sw	a4,0(a5)
ffffffc05040aa1c:	a819                	j	ffffffc05040aa32 <allocPage+0x290>
ffffffc05040aa1e:	007f6717          	auipc	a4,0x7f6
ffffffc05040aa22:	66270713          	addi	a4,a4,1634 # ffffffc050c01080 <mem_occupied>
ffffffc05040aa26:	fe842783          	lw	a5,-24(s0)
ffffffc05040aa2a:	078a                	slli	a5,a5,0x2
ffffffc05040aa2c:	97ba                	add	a5,a5,a4
ffffffc05040aa2e:	4705                	li	a4,1
ffffffc05040aa30:	c398                	sw	a4,0(a5)
ffffffc05040aa32:	fe842783          	lw	a5,-24(s0)
ffffffc05040aa36:	00c7979b          	slliw	a5,a5,0xc
ffffffc05040aa3a:	2781                	sext.w	a5,a5
ffffffc05040aa3c:	873e                	mv	a4,a5
ffffffc05040aa3e:	00020797          	auipc	a5,0x20
ffffffc05040aa42:	dca78793          	addi	a5,a5,-566 # ffffffc05042a808 <memCurr>
ffffffc05040aa46:	639c                	ld	a5,0(a5)
ffffffc05040aa48:	97ba                	add	a5,a5,a4
ffffffc05040aa4a:	853e                	mv	a0,a5
ffffffc05040aa4c:	70a6                	ld	ra,104(sp)
ffffffc05040aa4e:	7406                	ld	s0,96(sp)
ffffffc05040aa50:	6165                	addi	sp,sp,112
ffffffc05040aa52:	8082                	ret

ffffffc05040aa54 <freePage>:
ffffffc05040aa54:	1101                	addi	sp,sp,-32
ffffffc05040aa56:	ec22                	sd	s0,24(sp)
ffffffc05040aa58:	1000                	addi	s0,sp,32
ffffffc05040aa5a:	fea43423          	sd	a0,-24(s0)
ffffffc05040aa5e:	0001                	nop
ffffffc05040aa60:	6462                	ld	s0,24(sp)
ffffffc05040aa62:	6105                	addi	sp,sp,32
ffffffc05040aa64:	8082                	ret

ffffffc05040aa66 <fork_mem>:
ffffffc05040aa66:	711d                	addi	sp,sp,-96
ffffffc05040aa68:	ec86                	sd	ra,88(sp)
ffffffc05040aa6a:	e8a2                	sd	s0,80(sp)
ffffffc05040aa6c:	1080                	addi	s0,sp,96
ffffffc05040aa6e:	faa43423          	sd	a0,-88(s0)
ffffffc05040aa72:	fab43023          	sd	a1,-96(s0)
ffffffc05040aa76:	fa043503          	ld	a0,-96(s0)
ffffffc05040aa7a:	a09ff0ef          	jal	ra,ffffffc05040a482 <pa2kva>
ffffffc05040aa7e:	87aa                	mv	a5,a0
ffffffc05040aa80:	fcf43c23          	sd	a5,-40(s0)
ffffffc05040aa84:	fe042623          	sw	zero,-20(s0)
ffffffc05040aa88:	a29d                	j	ffffffc05040abee <fork_mem+0x188>
ffffffc05040aa8a:	fec42783          	lw	a5,-20(s0)
ffffffc05040aa8e:	078e                	slli	a5,a5,0x3
ffffffc05040aa90:	fd843703          	ld	a4,-40(s0)
ffffffc05040aa94:	97ba                	add	a5,a5,a4
ffffffc05040aa96:	639c                	ld	a5,0(a5)
ffffffc05040aa98:	14078663          	beqz	a5,ffffffc05040abe4 <fork_mem+0x17e>
ffffffc05040aa9c:	fec42783          	lw	a5,-20(s0)
ffffffc05040aaa0:	078e                	slli	a5,a5,0x3
ffffffc05040aaa2:	fd843703          	ld	a4,-40(s0)
ffffffc05040aaa6:	97ba                	add	a5,a5,a4
ffffffc05040aaa8:	639c                	ld	a5,0(a5)
ffffffc05040aaaa:	853e                	mv	a0,a5
ffffffc05040aaac:	9f3ff0ef          	jal	ra,ffffffc05040a49e <get_pa>
ffffffc05040aab0:	87aa                	mv	a5,a0
ffffffc05040aab2:	853e                	mv	a0,a5
ffffffc05040aab4:	9cfff0ef          	jal	ra,ffffffc05040a482 <pa2kva>
ffffffc05040aab8:	87aa                	mv	a5,a0
ffffffc05040aaba:	fcf43823          	sd	a5,-48(s0)
ffffffc05040aabe:	fe042423          	sw	zero,-24(s0)
ffffffc05040aac2:	aa09                	j	ffffffc05040abd4 <fork_mem+0x16e>
ffffffc05040aac4:	fe842783          	lw	a5,-24(s0)
ffffffc05040aac8:	078e                	slli	a5,a5,0x3
ffffffc05040aaca:	fd043703          	ld	a4,-48(s0)
ffffffc05040aace:	97ba                	add	a5,a5,a4
ffffffc05040aad0:	639c                	ld	a5,0(a5)
ffffffc05040aad2:	0e078c63          	beqz	a5,ffffffc05040abca <fork_mem+0x164>
ffffffc05040aad6:	fe842783          	lw	a5,-24(s0)
ffffffc05040aada:	078e                	slli	a5,a5,0x3
ffffffc05040aadc:	fd043703          	ld	a4,-48(s0)
ffffffc05040aae0:	97ba                	add	a5,a5,a4
ffffffc05040aae2:	639c                	ld	a5,0(a5)
ffffffc05040aae4:	8ba9                	andi	a5,a5,10
ffffffc05040aae6:	e3f5                	bnez	a5,ffffffc05040abca <fork_mem+0x164>
ffffffc05040aae8:	fe842783          	lw	a5,-24(s0)
ffffffc05040aaec:	078e                	slli	a5,a5,0x3
ffffffc05040aaee:	fd043703          	ld	a4,-48(s0)
ffffffc05040aaf2:	97ba                	add	a5,a5,a4
ffffffc05040aaf4:	639c                	ld	a5,0(a5)
ffffffc05040aaf6:	853e                	mv	a0,a5
ffffffc05040aaf8:	9a7ff0ef          	jal	ra,ffffffc05040a49e <get_pa>
ffffffc05040aafc:	87aa                	mv	a5,a0
ffffffc05040aafe:	853e                	mv	a0,a5
ffffffc05040ab00:	983ff0ef          	jal	ra,ffffffc05040a482 <pa2kva>
ffffffc05040ab04:	87aa                	mv	a5,a0
ffffffc05040ab06:	fcf43423          	sd	a5,-56(s0)
ffffffc05040ab0a:	fe042223          	sw	zero,-28(s0)
ffffffc05040ab0e:	a075                	j	ffffffc05040abba <fork_mem+0x154>
ffffffc05040ab10:	fe442783          	lw	a5,-28(s0)
ffffffc05040ab14:	078e                	slli	a5,a5,0x3
ffffffc05040ab16:	fc843703          	ld	a4,-56(s0)
ffffffc05040ab1a:	97ba                	add	a5,a5,a4
ffffffc05040ab1c:	639c                	ld	a5,0(a5)
ffffffc05040ab1e:	cbc9                	beqz	a5,ffffffc05040abb0 <fork_mem+0x14a>
ffffffc05040ab20:	fec42783          	lw	a5,-20(s0)
ffffffc05040ab24:	01e79713          	slli	a4,a5,0x1e
ffffffc05040ab28:	fe842783          	lw	a5,-24(s0)
ffffffc05040ab2c:	07d6                	slli	a5,a5,0x15
ffffffc05040ab2e:	8f5d                	or	a4,a4,a5
ffffffc05040ab30:	fe442783          	lw	a5,-28(s0)
ffffffc05040ab34:	07b2                	slli	a5,a5,0xc
ffffffc05040ab36:	8fd9                	or	a5,a5,a4
ffffffc05040ab38:	fcf43023          	sd	a5,-64(s0)
ffffffc05040ab3c:	fe442783          	lw	a5,-28(s0)
ffffffc05040ab40:	078e                	slli	a5,a5,0x3
ffffffc05040ab42:	fc843703          	ld	a4,-56(s0)
ffffffc05040ab46:	97ba                	add	a5,a5,a4
ffffffc05040ab48:	639c                	ld	a5,0(a5)
ffffffc05040ab4a:	853e                	mv	a0,a5
ffffffc05040ab4c:	953ff0ef          	jal	ra,ffffffc05040a49e <get_pa>
ffffffc05040ab50:	faa43c23          	sd	a0,-72(s0)
ffffffc05040ab54:	fb843703          	ld	a4,-72(s0)
ffffffc05040ab58:	ae0007b7          	lui	a5,0xae000
ffffffc05040ab5c:	97ba                	add	a5,a5,a4
ffffffc05040ab5e:	83b1                	srli	a5,a5,0xc
ffffffc05040ab60:	007f7697          	auipc	a3,0x7f7
ffffffc05040ab64:	92068693          	addi	a3,a3,-1760 # ffffffc050c01480 <fork_mem_shared>
ffffffc05040ab68:	00279713          	slli	a4,a5,0x2
ffffffc05040ab6c:	9736                	add	a4,a4,a3
ffffffc05040ab6e:	4318                	lw	a4,0(a4)
ffffffc05040ab70:	2705                	addiw	a4,a4,1
ffffffc05040ab72:	2701                	sext.w	a4,a4
ffffffc05040ab74:	007f7697          	auipc	a3,0x7f7
ffffffc05040ab78:	90c68693          	addi	a3,a3,-1780 # ffffffc050c01480 <fork_mem_shared>
ffffffc05040ab7c:	078a                	slli	a5,a5,0x2
ffffffc05040ab7e:	97b6                	add	a5,a5,a3
ffffffc05040ab80:	c398                	sw	a4,0(a5)
ffffffc05040ab82:	fa843503          	ld	a0,-88(s0)
ffffffc05040ab86:	8fdff0ef          	jal	ra,ffffffc05040a482 <pa2kva>
ffffffc05040ab8a:	87aa                	mv	a5,a0
ffffffc05040ab8c:	863e                	mv	a2,a5
ffffffc05040ab8e:	fb843583          	ld	a1,-72(s0)
ffffffc05040ab92:	fc043503          	ld	a0,-64(s0)
ffffffc05040ab96:	7bc000ef          	jal	ra,ffffffc05040b352 <map_page>
ffffffc05040ab9a:	fe442783          	lw	a5,-28(s0)
ffffffc05040ab9e:	078e                	slli	a5,a5,0x3
ffffffc05040aba0:	fc843703          	ld	a4,-56(s0)
ffffffc05040aba4:	97ba                	add	a5,a5,a4
ffffffc05040aba6:	0db00593          	li	a1,219
ffffffc05040abaa:	853e                	mv	a0,a5
ffffffc05040abac:	947ff0ef          	jal	ra,ffffffc05040a4f2 <set_attribute>
ffffffc05040abb0:	fe442783          	lw	a5,-28(s0)
ffffffc05040abb4:	2785                	addiw	a5,a5,1
ffffffc05040abb6:	fef42223          	sw	a5,-28(s0)
ffffffc05040abba:	fe442783          	lw	a5,-28(s0)
ffffffc05040abbe:	0007871b          	sext.w	a4,a5
ffffffc05040abc2:	1ff00793          	li	a5,511
ffffffc05040abc6:	f4e7d5e3          	bge	a5,a4,ffffffc05040ab10 <fork_mem+0xaa>
ffffffc05040abca:	fe842783          	lw	a5,-24(s0)
ffffffc05040abce:	2785                	addiw	a5,a5,1
ffffffc05040abd0:	fef42423          	sw	a5,-24(s0)
ffffffc05040abd4:	fe842783          	lw	a5,-24(s0)
ffffffc05040abd8:	0007871b          	sext.w	a4,a5
ffffffc05040abdc:	1ff00793          	li	a5,511
ffffffc05040abe0:	eee7d2e3          	bge	a5,a4,ffffffc05040aac4 <fork_mem+0x5e>
ffffffc05040abe4:	fec42783          	lw	a5,-20(s0)
ffffffc05040abe8:	2785                	addiw	a5,a5,1
ffffffc05040abea:	fef42623          	sw	a5,-20(s0)
ffffffc05040abee:	fec42783          	lw	a5,-20(s0)
ffffffc05040abf2:	0007871b          	sext.w	a4,a5
ffffffc05040abf6:	1ff00793          	li	a5,511
ffffffc05040abfa:	e8e7d8e3          	bge	a5,a4,ffffffc05040aa8a <fork_mem+0x24>
ffffffc05040abfe:	fa843503          	ld	a0,-88(s0)
ffffffc05040ac02:	881ff0ef          	jal	ra,ffffffc05040a482 <pa2kva>
ffffffc05040ac06:	87aa                	mv	a5,a0
ffffffc05040ac08:	fcf43c23          	sd	a5,-40(s0)
ffffffc05040ac0c:	fe042623          	sw	zero,-20(s0)
ffffffc05040ac10:	a0e5                	j	ffffffc05040acf8 <fork_mem+0x292>
ffffffc05040ac12:	fec42783          	lw	a5,-20(s0)
ffffffc05040ac16:	078e                	slli	a5,a5,0x3
ffffffc05040ac18:	fd843703          	ld	a4,-40(s0)
ffffffc05040ac1c:	97ba                	add	a5,a5,a4
ffffffc05040ac1e:	639c                	ld	a5,0(a5)
ffffffc05040ac20:	c7f9                	beqz	a5,ffffffc05040acee <fork_mem+0x288>
ffffffc05040ac22:	fec42783          	lw	a5,-20(s0)
ffffffc05040ac26:	078e                	slli	a5,a5,0x3
ffffffc05040ac28:	fd843703          	ld	a4,-40(s0)
ffffffc05040ac2c:	97ba                	add	a5,a5,a4
ffffffc05040ac2e:	639c                	ld	a5,0(a5)
ffffffc05040ac30:	853e                	mv	a0,a5
ffffffc05040ac32:	86dff0ef          	jal	ra,ffffffc05040a49e <get_pa>
ffffffc05040ac36:	87aa                	mv	a5,a0
ffffffc05040ac38:	853e                	mv	a0,a5
ffffffc05040ac3a:	849ff0ef          	jal	ra,ffffffc05040a482 <pa2kva>
ffffffc05040ac3e:	87aa                	mv	a5,a0
ffffffc05040ac40:	fcf43823          	sd	a5,-48(s0)
ffffffc05040ac44:	fe042423          	sw	zero,-24(s0)
ffffffc05040ac48:	a859                	j	ffffffc05040acde <fork_mem+0x278>
ffffffc05040ac4a:	fe842783          	lw	a5,-24(s0)
ffffffc05040ac4e:	078e                	slli	a5,a5,0x3
ffffffc05040ac50:	fd043703          	ld	a4,-48(s0)
ffffffc05040ac54:	97ba                	add	a5,a5,a4
ffffffc05040ac56:	639c                	ld	a5,0(a5)
ffffffc05040ac58:	cfb5                	beqz	a5,ffffffc05040acd4 <fork_mem+0x26e>
ffffffc05040ac5a:	fe842783          	lw	a5,-24(s0)
ffffffc05040ac5e:	078e                	slli	a5,a5,0x3
ffffffc05040ac60:	fd043703          	ld	a4,-48(s0)
ffffffc05040ac64:	97ba                	add	a5,a5,a4
ffffffc05040ac66:	639c                	ld	a5,0(a5)
ffffffc05040ac68:	8ba9                	andi	a5,a5,10
ffffffc05040ac6a:	e7ad                	bnez	a5,ffffffc05040acd4 <fork_mem+0x26e>
ffffffc05040ac6c:	fe842783          	lw	a5,-24(s0)
ffffffc05040ac70:	078e                	slli	a5,a5,0x3
ffffffc05040ac72:	fd043703          	ld	a4,-48(s0)
ffffffc05040ac76:	97ba                	add	a5,a5,a4
ffffffc05040ac78:	639c                	ld	a5,0(a5)
ffffffc05040ac7a:	853e                	mv	a0,a5
ffffffc05040ac7c:	823ff0ef          	jal	ra,ffffffc05040a49e <get_pa>
ffffffc05040ac80:	87aa                	mv	a5,a0
ffffffc05040ac82:	853e                	mv	a0,a5
ffffffc05040ac84:	ffeff0ef          	jal	ra,ffffffc05040a482 <pa2kva>
ffffffc05040ac88:	87aa                	mv	a5,a0
ffffffc05040ac8a:	fcf43423          	sd	a5,-56(s0)
ffffffc05040ac8e:	fe042223          	sw	zero,-28(s0)
ffffffc05040ac92:	a80d                	j	ffffffc05040acc4 <fork_mem+0x25e>
ffffffc05040ac94:	fe442783          	lw	a5,-28(s0)
ffffffc05040ac98:	078e                	slli	a5,a5,0x3
ffffffc05040ac9a:	fc843703          	ld	a4,-56(s0)
ffffffc05040ac9e:	97ba                	add	a5,a5,a4
ffffffc05040aca0:	639c                	ld	a5,0(a5)
ffffffc05040aca2:	cf81                	beqz	a5,ffffffc05040acba <fork_mem+0x254>
ffffffc05040aca4:	fe442783          	lw	a5,-28(s0)
ffffffc05040aca8:	078e                	slli	a5,a5,0x3
ffffffc05040acaa:	fc843703          	ld	a4,-56(s0)
ffffffc05040acae:	97ba                	add	a5,a5,a4
ffffffc05040acb0:	0db00593          	li	a1,219
ffffffc05040acb4:	853e                	mv	a0,a5
ffffffc05040acb6:	83dff0ef          	jal	ra,ffffffc05040a4f2 <set_attribute>
ffffffc05040acba:	fe442783          	lw	a5,-28(s0)
ffffffc05040acbe:	2785                	addiw	a5,a5,1
ffffffc05040acc0:	fef42223          	sw	a5,-28(s0)
ffffffc05040acc4:	fe442783          	lw	a5,-28(s0)
ffffffc05040acc8:	0007871b          	sext.w	a4,a5
ffffffc05040accc:	1ff00793          	li	a5,511
ffffffc05040acd0:	fce7d2e3          	bge	a5,a4,ffffffc05040ac94 <fork_mem+0x22e>
ffffffc05040acd4:	fe842783          	lw	a5,-24(s0)
ffffffc05040acd8:	2785                	addiw	a5,a5,1
ffffffc05040acda:	fef42423          	sw	a5,-24(s0)
ffffffc05040acde:	fe842783          	lw	a5,-24(s0)
ffffffc05040ace2:	0007871b          	sext.w	a4,a5
ffffffc05040ace6:	1ff00793          	li	a5,511
ffffffc05040acea:	f6e7d0e3          	bge	a5,a4,ffffffc05040ac4a <fork_mem+0x1e4>
ffffffc05040acee:	fec42783          	lw	a5,-20(s0)
ffffffc05040acf2:	2785                	addiw	a5,a5,1
ffffffc05040acf4:	fef42623          	sw	a5,-20(s0)
ffffffc05040acf8:	fec42783          	lw	a5,-20(s0)
ffffffc05040acfc:	0007871b          	sext.w	a4,a5
ffffffc05040ad00:	1ff00793          	li	a5,511
ffffffc05040ad04:	f0e7d7e3          	bge	a5,a4,ffffffc05040ac12 <fork_mem+0x1ac>
ffffffc05040ad08:	f4cff0ef          	jal	ra,ffffffc05040a454 <local_flush_tlb_all>
ffffffc05040ad0c:	0001                	nop
ffffffc05040ad0e:	60e6                	ld	ra,88(sp)
ffffffc05040ad10:	6446                	ld	s0,80(sp)
ffffffc05040ad12:	6125                	addi	sp,sp,96
ffffffc05040ad14:	8082                	ret

ffffffc05040ad16 <kmalloc>:
ffffffc05040ad16:	7179                	addi	sp,sp,-48
ffffffc05040ad18:	f422                	sd	s0,40(sp)
ffffffc05040ad1a:	1800                	addi	s0,sp,48
ffffffc05040ad1c:	fca43c23          	sd	a0,-40(s0)
ffffffc05040ad20:	00020797          	auipc	a5,0x20
ffffffc05040ad24:	ae878793          	addi	a5,a5,-1304 # ffffffc05042a808 <memCurr>
ffffffc05040ad28:	639c                	ld	a5,0(a5)
ffffffc05040ad2a:	078d                	addi	a5,a5,3
ffffffc05040ad2c:	9bf1                	andi	a5,a5,-4
ffffffc05040ad2e:	fef43423          	sd	a5,-24(s0)
ffffffc05040ad32:	fe843703          	ld	a4,-24(s0)
ffffffc05040ad36:	fd843783          	ld	a5,-40(s0)
ffffffc05040ad3a:	973e                	add	a4,a4,a5
ffffffc05040ad3c:	00020797          	auipc	a5,0x20
ffffffc05040ad40:	acc78793          	addi	a5,a5,-1332 # ffffffc05042a808 <memCurr>
ffffffc05040ad44:	e398                	sd	a4,0(a5)
ffffffc05040ad46:	00020797          	auipc	a5,0x20
ffffffc05040ad4a:	ac278793          	addi	a5,a5,-1342 # ffffffc05042a808 <memCurr>
ffffffc05040ad4e:	639c                	ld	a5,0(a5)
ffffffc05040ad50:	853e                	mv	a0,a5
ffffffc05040ad52:	7422                	ld	s0,40(sp)
ffffffc05040ad54:	6145                	addi	sp,sp,48
ffffffc05040ad56:	8082                	ret

ffffffc05040ad58 <search_va>:
ffffffc05040ad58:	715d                	addi	sp,sp,-80
ffffffc05040ad5a:	e486                	sd	ra,72(sp)
ffffffc05040ad5c:	e0a2                	sd	s0,64(sp)
ffffffc05040ad5e:	0880                	addi	s0,sp,80
ffffffc05040ad60:	faa43c23          	sd	a0,-72(s0)
ffffffc05040ad64:	fb843503          	ld	a0,-72(s0)
ffffffc05040ad68:	f1aff0ef          	jal	ra,ffffffc05040a482 <pa2kva>
ffffffc05040ad6c:	87aa                	mv	a5,a0
ffffffc05040ad6e:	fcf43c23          	sd	a5,-40(s0)
ffffffc05040ad72:	fe042623          	sw	zero,-20(s0)
ffffffc05040ad76:	a295                	j	ffffffc05040aeda <search_va+0x182>
ffffffc05040ad78:	fec42783          	lw	a5,-20(s0)
ffffffc05040ad7c:	078e                	slli	a5,a5,0x3
ffffffc05040ad7e:	fd843703          	ld	a4,-40(s0)
ffffffc05040ad82:	97ba                	add	a5,a5,a4
ffffffc05040ad84:	639c                	ld	a5,0(a5)
ffffffc05040ad86:	14078563          	beqz	a5,ffffffc05040aed0 <search_va+0x178>
ffffffc05040ad8a:	fec42783          	lw	a5,-20(s0)
ffffffc05040ad8e:	078e                	slli	a5,a5,0x3
ffffffc05040ad90:	fd843703          	ld	a4,-40(s0)
ffffffc05040ad94:	97ba                	add	a5,a5,a4
ffffffc05040ad96:	639c                	ld	a5,0(a5)
ffffffc05040ad98:	853e                	mv	a0,a5
ffffffc05040ad9a:	f04ff0ef          	jal	ra,ffffffc05040a49e <get_pa>
ffffffc05040ad9e:	87aa                	mv	a5,a0
ffffffc05040ada0:	853e                	mv	a0,a5
ffffffc05040ada2:	ee0ff0ef          	jal	ra,ffffffc05040a482 <pa2kva>
ffffffc05040ada6:	87aa                	mv	a5,a0
ffffffc05040ada8:	fcf43423          	sd	a5,-56(s0)
ffffffc05040adac:	fe042423          	sw	zero,-24(s0)
ffffffc05040adb0:	a865                	j	ffffffc05040ae68 <search_va+0x110>
ffffffc05040adb2:	fe842783          	lw	a5,-24(s0)
ffffffc05040adb6:	078e                	slli	a5,a5,0x3
ffffffc05040adb8:	fc843703          	ld	a4,-56(s0)
ffffffc05040adbc:	97ba                	add	a5,a5,a4
ffffffc05040adbe:	639c                	ld	a5,0(a5)
ffffffc05040adc0:	cfd9                	beqz	a5,ffffffc05040ae5e <search_va+0x106>
ffffffc05040adc2:	fe842783          	lw	a5,-24(s0)
ffffffc05040adc6:	078e                	slli	a5,a5,0x3
ffffffc05040adc8:	fc843703          	ld	a4,-56(s0)
ffffffc05040adcc:	97ba                	add	a5,a5,a4
ffffffc05040adce:	639c                	ld	a5,0(a5)
ffffffc05040add0:	8ba9                	andi	a5,a5,10
ffffffc05040add2:	e7d1                	bnez	a5,ffffffc05040ae5e <search_va+0x106>
ffffffc05040add4:	fe842783          	lw	a5,-24(s0)
ffffffc05040add8:	078e                	slli	a5,a5,0x3
ffffffc05040adda:	fc843703          	ld	a4,-56(s0)
ffffffc05040adde:	97ba                	add	a5,a5,a4
ffffffc05040ade0:	639c                	ld	a5,0(a5)
ffffffc05040ade2:	853e                	mv	a0,a5
ffffffc05040ade4:	ebaff0ef          	jal	ra,ffffffc05040a49e <get_pa>
ffffffc05040ade8:	87aa                	mv	a5,a0
ffffffc05040adea:	853e                	mv	a0,a5
ffffffc05040adec:	e96ff0ef          	jal	ra,ffffffc05040a482 <pa2kva>
ffffffc05040adf0:	87aa                	mv	a5,a0
ffffffc05040adf2:	fcf43023          	sd	a5,-64(s0)
ffffffc05040adf6:	fec42783          	lw	a5,-20(s0)
ffffffc05040adfa:	2781                	sext.w	a5,a5
ffffffc05040adfc:	e799                	bnez	a5,ffffffc05040ae0a <search_va+0xb2>
ffffffc05040adfe:	fe842783          	lw	a5,-24(s0)
ffffffc05040ae02:	2781                	sext.w	a5,a5
ffffffc05040ae04:	e399                	bnez	a5,ffffffc05040ae0a <search_va+0xb2>
ffffffc05040ae06:	4785                	li	a5,1
ffffffc05040ae08:	a011                	j	ffffffc05040ae0c <search_va+0xb4>
ffffffc05040ae0a:	4781                	li	a5,0
ffffffc05040ae0c:	fef42223          	sw	a5,-28(s0)
ffffffc05040ae10:	a83d                	j	ffffffc05040ae4e <search_va+0xf6>
ffffffc05040ae12:	fe442783          	lw	a5,-28(s0)
ffffffc05040ae16:	078e                	slli	a5,a5,0x3
ffffffc05040ae18:	fc043703          	ld	a4,-64(s0)
ffffffc05040ae1c:	97ba                	add	a5,a5,a4
ffffffc05040ae1e:	639c                	ld	a5,0(a5)
ffffffc05040ae20:	e395                	bnez	a5,ffffffc05040ae44 <search_va+0xec>
ffffffc05040ae22:	fec42783          	lw	a5,-20(s0)
ffffffc05040ae26:	01e79713          	slli	a4,a5,0x1e
ffffffc05040ae2a:	fe842783          	lw	a5,-24(s0)
ffffffc05040ae2e:	07d6                	slli	a5,a5,0x15
ffffffc05040ae30:	8f5d                	or	a4,a4,a5
ffffffc05040ae32:	fe442783          	lw	a5,-28(s0)
ffffffc05040ae36:	07b2                	slli	a5,a5,0xc
ffffffc05040ae38:	8fd9                	or	a5,a5,a4
ffffffc05040ae3a:	fcf43823          	sd	a5,-48(s0)
ffffffc05040ae3e:	fd043783          	ld	a5,-48(s0)
ffffffc05040ae42:	a0f5                	j	ffffffc05040af2e <search_va+0x1d6>
ffffffc05040ae44:	fe442783          	lw	a5,-28(s0)
ffffffc05040ae48:	2785                	addiw	a5,a5,1
ffffffc05040ae4a:	fef42223          	sw	a5,-28(s0)
ffffffc05040ae4e:	fe442783          	lw	a5,-28(s0)
ffffffc05040ae52:	0007871b          	sext.w	a4,a5
ffffffc05040ae56:	1ff00793          	li	a5,511
ffffffc05040ae5a:	fae7dce3          	bge	a5,a4,ffffffc05040ae12 <search_va+0xba>
ffffffc05040ae5e:	fe842783          	lw	a5,-24(s0)
ffffffc05040ae62:	2785                	addiw	a5,a5,1
ffffffc05040ae64:	fef42423          	sw	a5,-24(s0)
ffffffc05040ae68:	fe842783          	lw	a5,-24(s0)
ffffffc05040ae6c:	0007871b          	sext.w	a4,a5
ffffffc05040ae70:	1ff00793          	li	a5,511
ffffffc05040ae74:	f2e7dfe3          	bge	a5,a4,ffffffc05040adb2 <search_va+0x5a>
ffffffc05040ae78:	fec42783          	lw	a5,-20(s0)
ffffffc05040ae7c:	2781                	sext.w	a5,a5
ffffffc05040ae7e:	0017b793          	seqz	a5,a5
ffffffc05040ae82:	0ff7f793          	andi	a5,a5,255
ffffffc05040ae86:	fef42423          	sw	a5,-24(s0)
ffffffc05040ae8a:	a81d                	j	ffffffc05040aec0 <search_va+0x168>
ffffffc05040ae8c:	fe842783          	lw	a5,-24(s0)
ffffffc05040ae90:	078e                	slli	a5,a5,0x3
ffffffc05040ae92:	fc843703          	ld	a4,-56(s0)
ffffffc05040ae96:	97ba                	add	a5,a5,a4
ffffffc05040ae98:	639c                	ld	a5,0(a5)
ffffffc05040ae9a:	ef91                	bnez	a5,ffffffc05040aeb6 <search_va+0x15e>
ffffffc05040ae9c:	fec42783          	lw	a5,-20(s0)
ffffffc05040aea0:	01e79713          	slli	a4,a5,0x1e
ffffffc05040aea4:	fe842783          	lw	a5,-24(s0)
ffffffc05040aea8:	07d6                	slli	a5,a5,0x15
ffffffc05040aeaa:	8fd9                	or	a5,a5,a4
ffffffc05040aeac:	fcf43823          	sd	a5,-48(s0)
ffffffc05040aeb0:	fd043783          	ld	a5,-48(s0)
ffffffc05040aeb4:	a8ad                	j	ffffffc05040af2e <search_va+0x1d6>
ffffffc05040aeb6:	fe842783          	lw	a5,-24(s0)
ffffffc05040aeba:	2785                	addiw	a5,a5,1
ffffffc05040aebc:	fef42423          	sw	a5,-24(s0)
ffffffc05040aec0:	fe842783          	lw	a5,-24(s0)
ffffffc05040aec4:	0007871b          	sext.w	a4,a5
ffffffc05040aec8:	1ff00793          	li	a5,511
ffffffc05040aecc:	fce7d0e3          	bge	a5,a4,ffffffc05040ae8c <search_va+0x134>
ffffffc05040aed0:	fec42783          	lw	a5,-20(s0)
ffffffc05040aed4:	2785                	addiw	a5,a5,1
ffffffc05040aed6:	fef42623          	sw	a5,-20(s0)
ffffffc05040aeda:	fec42783          	lw	a5,-20(s0)
ffffffc05040aede:	0007871b          	sext.w	a4,a5
ffffffc05040aee2:	1ff00793          	li	a5,511
ffffffc05040aee6:	e8e7d9e3          	bge	a5,a4,ffffffc05040ad78 <search_va+0x20>
ffffffc05040aeea:	4785                	li	a5,1
ffffffc05040aeec:	fef42623          	sw	a5,-20(s0)
ffffffc05040aef0:	a035                	j	ffffffc05040af1c <search_va+0x1c4>
ffffffc05040aef2:	fec42783          	lw	a5,-20(s0)
ffffffc05040aef6:	078e                	slli	a5,a5,0x3
ffffffc05040aef8:	fd843703          	ld	a4,-40(s0)
ffffffc05040aefc:	97ba                	add	a5,a5,a4
ffffffc05040aefe:	639c                	ld	a5,0(a5)
ffffffc05040af00:	eb89                	bnez	a5,ffffffc05040af12 <search_va+0x1ba>
ffffffc05040af02:	fec42783          	lw	a5,-20(s0)
ffffffc05040af06:	07fa                	slli	a5,a5,0x1e
ffffffc05040af08:	fcf43823          	sd	a5,-48(s0)
ffffffc05040af0c:	fd043783          	ld	a5,-48(s0)
ffffffc05040af10:	a839                	j	ffffffc05040af2e <search_va+0x1d6>
ffffffc05040af12:	fec42783          	lw	a5,-20(s0)
ffffffc05040af16:	2785                	addiw	a5,a5,1
ffffffc05040af18:	fef42623          	sw	a5,-20(s0)
ffffffc05040af1c:	fec42783          	lw	a5,-20(s0)
ffffffc05040af20:	0007871b          	sext.w	a4,a5
ffffffc05040af24:	1ff00793          	li	a5,511
ffffffc05040af28:	fce7d5e3          	bge	a5,a4,ffffffc05040aef2 <search_va+0x19a>
ffffffc05040af2c:	4781                	li	a5,0
ffffffc05040af2e:	853e                	mv	a0,a5
ffffffc05040af30:	60a6                	ld	ra,72(sp)
ffffffc05040af32:	6406                	ld	s0,64(sp)
ffffffc05040af34:	6161                	addi	sp,sp,80
ffffffc05040af36:	8082                	ret

ffffffc05040af38 <search_share_pa>:
ffffffc05040af38:	711d                	addi	sp,sp,-96
ffffffc05040af3a:	ec86                	sd	ra,88(sp)
ffffffc05040af3c:	e8a2                	sd	s0,80(sp)
ffffffc05040af3e:	1080                	addi	s0,sp,96
ffffffc05040af40:	faa43423          	sd	a0,-88(s0)
ffffffc05040af44:	fab43023          	sd	a1,-96(s0)
ffffffc05040af48:	fa043703          	ld	a4,-96(s0)
ffffffc05040af4c:	57fd                	li	a5,-1
ffffffc05040af4e:	83e5                	srli	a5,a5,0x19
ffffffc05040af50:	8ff9                	and	a5,a5,a4
ffffffc05040af52:	faf43023          	sd	a5,-96(s0)
ffffffc05040af56:	fa043783          	ld	a5,-96(s0)
ffffffc05040af5a:	83f9                	srli	a5,a5,0x1e
ffffffc05040af5c:	fef43423          	sd	a5,-24(s0)
ffffffc05040af60:	fe843783          	ld	a5,-24(s0)
ffffffc05040af64:	00979713          	slli	a4,a5,0x9
ffffffc05040af68:	fa043783          	ld	a5,-96(s0)
ffffffc05040af6c:	83d5                	srli	a5,a5,0x15
ffffffc05040af6e:	8fb9                	xor	a5,a5,a4
ffffffc05040af70:	fef43023          	sd	a5,-32(s0)
ffffffc05040af74:	fe043783          	ld	a5,-32(s0)
ffffffc05040af78:	00979713          	slli	a4,a5,0x9
ffffffc05040af7c:	fe843783          	ld	a5,-24(s0)
ffffffc05040af80:	07ca                	slli	a5,a5,0x12
ffffffc05040af82:	8f3d                	xor	a4,a4,a5
ffffffc05040af84:	fa043783          	ld	a5,-96(s0)
ffffffc05040af88:	83b1                	srli	a5,a5,0xc
ffffffc05040af8a:	8fb9                	xor	a5,a5,a4
ffffffc05040af8c:	fcf43c23          	sd	a5,-40(s0)
ffffffc05040af90:	fa843503          	ld	a0,-88(s0)
ffffffc05040af94:	ceeff0ef          	jal	ra,ffffffc05040a482 <pa2kva>
ffffffc05040af98:	87aa                	mv	a5,a0
ffffffc05040af9a:	fcf43823          	sd	a5,-48(s0)
ffffffc05040af9e:	fe843783          	ld	a5,-24(s0)
ffffffc05040afa2:	078e                	slli	a5,a5,0x3
ffffffc05040afa4:	fd043703          	ld	a4,-48(s0)
ffffffc05040afa8:	97ba                	add	a5,a5,a4
ffffffc05040afaa:	639c                	ld	a5,0(a5)
ffffffc05040afac:	cbd9                	beqz	a5,ffffffc05040b042 <search_share_pa+0x10a>
ffffffc05040afae:	fe843783          	ld	a5,-24(s0)
ffffffc05040afb2:	078e                	slli	a5,a5,0x3
ffffffc05040afb4:	fd043703          	ld	a4,-48(s0)
ffffffc05040afb8:	97ba                	add	a5,a5,a4
ffffffc05040afba:	639c                	ld	a5,0(a5)
ffffffc05040afbc:	853e                	mv	a0,a5
ffffffc05040afbe:	ce0ff0ef          	jal	ra,ffffffc05040a49e <get_pa>
ffffffc05040afc2:	87aa                	mv	a5,a0
ffffffc05040afc4:	853e                	mv	a0,a5
ffffffc05040afc6:	cbcff0ef          	jal	ra,ffffffc05040a482 <pa2kva>
ffffffc05040afca:	87aa                	mv	a5,a0
ffffffc05040afcc:	fcf43423          	sd	a5,-56(s0)
ffffffc05040afd0:	fe043783          	ld	a5,-32(s0)
ffffffc05040afd4:	078e                	slli	a5,a5,0x3
ffffffc05040afd6:	fc843703          	ld	a4,-56(s0)
ffffffc05040afda:	97ba                	add	a5,a5,a4
ffffffc05040afdc:	639c                	ld	a5,0(a5)
ffffffc05040afde:	c3b5                	beqz	a5,ffffffc05040b042 <search_share_pa+0x10a>
ffffffc05040afe0:	fe043783          	ld	a5,-32(s0)
ffffffc05040afe4:	078e                	slli	a5,a5,0x3
ffffffc05040afe6:	fc843703          	ld	a4,-56(s0)
ffffffc05040afea:	97ba                	add	a5,a5,a4
ffffffc05040afec:	639c                	ld	a5,0(a5)
ffffffc05040afee:	853e                	mv	a0,a5
ffffffc05040aff0:	caeff0ef          	jal	ra,ffffffc05040a49e <get_pa>
ffffffc05040aff4:	87aa                	mv	a5,a0
ffffffc05040aff6:	853e                	mv	a0,a5
ffffffc05040aff8:	c8aff0ef          	jal	ra,ffffffc05040a482 <pa2kva>
ffffffc05040affc:	87aa                	mv	a5,a0
ffffffc05040affe:	fcf43023          	sd	a5,-64(s0)
ffffffc05040b002:	fd843783          	ld	a5,-40(s0)
ffffffc05040b006:	078e                	slli	a5,a5,0x3
ffffffc05040b008:	fc043703          	ld	a4,-64(s0)
ffffffc05040b00c:	97ba                	add	a5,a5,a4
ffffffc05040b00e:	639c                	ld	a5,0(a5)
ffffffc05040b010:	8b85                	andi	a5,a5,1
ffffffc05040b012:	cb85                	beqz	a5,ffffffc05040b042 <search_share_pa+0x10a>
ffffffc05040b014:	fd843783          	ld	a5,-40(s0)
ffffffc05040b018:	078e                	slli	a5,a5,0x3
ffffffc05040b01a:	fc043703          	ld	a4,-64(s0)
ffffffc05040b01e:	97ba                	add	a5,a5,a4
ffffffc05040b020:	639c                	ld	a5,0(a5)
ffffffc05040b022:	853e                	mv	a0,a5
ffffffc05040b024:	c7aff0ef          	jal	ra,ffffffc05040a49e <get_pa>
ffffffc05040b028:	faa43c23          	sd	a0,-72(s0)
ffffffc05040b02c:	fd843783          	ld	a5,-40(s0)
ffffffc05040b030:	078e                	slli	a5,a5,0x3
ffffffc05040b032:	fc043703          	ld	a4,-64(s0)
ffffffc05040b036:	97ba                	add	a5,a5,a4
ffffffc05040b038:	0007b023          	sd	zero,0(a5)
ffffffc05040b03c:	fb843783          	ld	a5,-72(s0)
ffffffc05040b040:	a021                	j	ffffffc05040b048 <search_share_pa+0x110>
ffffffc05040b042:	c12ff0ef          	jal	ra,ffffffc05040a454 <local_flush_tlb_all>
ffffffc05040b046:	4781                	li	a5,0
ffffffc05040b048:	853e                	mv	a0,a5
ffffffc05040b04a:	60e6                	ld	ra,88(sp)
ffffffc05040b04c:	6446                	ld	s0,80(sp)
ffffffc05040b04e:	6125                	addi	sp,sp,96
ffffffc05040b050:	8082                	ret

ffffffc05040b052 <shm_page_get>:
ffffffc05040b052:	7159                	addi	sp,sp,-112
ffffffc05040b054:	f486                	sd	ra,104(sp)
ffffffc05040b056:	f0a2                	sd	s0,96(sp)
ffffffc05040b058:	eca6                	sd	s1,88(sp)
ffffffc05040b05a:	1880                	addi	s0,sp,112
ffffffc05040b05c:	87aa                	mv	a5,a0
ffffffc05040b05e:	f8f42e23          	sw	a5,-100(s0)
ffffffc05040b062:	a66f50ef          	jal	ra,ffffffc0504002c8 <get_current_cpu_id>
ffffffc05040b066:	87aa                	mv	a5,a0
ffffffc05040b068:	fcf43823          	sd	a5,-48(s0)
ffffffc05040b06c:	007f5717          	auipc	a4,0x7f5
ffffffc05040b070:	58c70713          	addi	a4,a4,1420 # ffffffc050c005f8 <current_running>
ffffffc05040b074:	fd043783          	ld	a5,-48(s0)
ffffffc05040b078:	078e                	slli	a5,a5,0x3
ffffffc05040b07a:	97ba                	add	a5,a5,a4
ffffffc05040b07c:	639c                	ld	a5,0(a5)
ffffffc05040b07e:	fcf43423          	sd	a5,-56(s0)
ffffffc05040b082:	fc843783          	ld	a5,-56(s0)
ffffffc05040b086:	6b9c                	ld	a5,16(a5)
ffffffc05040b088:	fcf43023          	sd	a5,-64(s0)
ffffffc05040b08c:	fc043783          	ld	a5,-64(s0)
ffffffc05040b090:	00c79713          	slli	a4,a5,0xc
ffffffc05040b094:	fff007b7          	lui	a5,0xfff00
ffffffc05040b098:	83a1                	srli	a5,a5,0x8
ffffffc05040b09a:	8ff9                	and	a5,a5,a4
ffffffc05040b09c:	faf43c23          	sd	a5,-72(s0)
ffffffc05040b0a0:	fc042e23          	sw	zero,-36(s0)
ffffffc05040b0a4:	a071                	j	ffffffc05040b130 <shm_page_get+0xde>
ffffffc05040b0a6:	007f6717          	auipc	a4,0x7f6
ffffffc05040b0aa:	7da70713          	addi	a4,a4,2010 # ffffffc050c01880 <share_page>
ffffffc05040b0ae:	fdc42783          	lw	a5,-36(s0)
ffffffc05040b0b2:	0792                	slli	a5,a5,0x4
ffffffc05040b0b4:	97ba                	add	a5,a5,a4
ffffffc05040b0b6:	4398                	lw	a4,0(a5)
ffffffc05040b0b8:	f9c42783          	lw	a5,-100(s0)
ffffffc05040b0bc:	2781                	sext.w	a5,a5
ffffffc05040b0be:	06e79463          	bne	a5,a4,ffffffc05040b126 <shm_page_get+0xd4>
ffffffc05040b0c2:	fb843503          	ld	a0,-72(s0)
ffffffc05040b0c6:	c93ff0ef          	jal	ra,ffffffc05040ad58 <search_va>
ffffffc05040b0ca:	faa43823          	sd	a0,-80(s0)
ffffffc05040b0ce:	007f6717          	auipc	a4,0x7f6
ffffffc05040b0d2:	7b270713          	addi	a4,a4,1970 # ffffffc050c01880 <share_page>
ffffffc05040b0d6:	fdc42783          	lw	a5,-36(s0)
ffffffc05040b0da:	0792                	slli	a5,a5,0x4
ffffffc05040b0dc:	97ba                	add	a5,a5,a4
ffffffc05040b0de:	43dc                	lw	a5,4(a5)
ffffffc05040b0e0:	2785                	addiw	a5,a5,1
ffffffc05040b0e2:	0007871b          	sext.w	a4,a5
ffffffc05040b0e6:	007f6697          	auipc	a3,0x7f6
ffffffc05040b0ea:	79a68693          	addi	a3,a3,1946 # ffffffc050c01880 <share_page>
ffffffc05040b0ee:	fdc42783          	lw	a5,-36(s0)
ffffffc05040b0f2:	0792                	slli	a5,a5,0x4
ffffffc05040b0f4:	97b6                	add	a5,a5,a3
ffffffc05040b0f6:	c3d8                	sw	a4,4(a5)
ffffffc05040b0f8:	007f6717          	auipc	a4,0x7f6
ffffffc05040b0fc:	78870713          	addi	a4,a4,1928 # ffffffc050c01880 <share_page>
ffffffc05040b100:	fdc42783          	lw	a5,-36(s0)
ffffffc05040b104:	0792                	slli	a5,a5,0x4
ffffffc05040b106:	97ba                	add	a5,a5,a4
ffffffc05040b108:	6784                	ld	s1,8(a5)
ffffffc05040b10a:	fb843503          	ld	a0,-72(s0)
ffffffc05040b10e:	b74ff0ef          	jal	ra,ffffffc05040a482 <pa2kva>
ffffffc05040b112:	87aa                	mv	a5,a0
ffffffc05040b114:	863e                	mv	a2,a5
ffffffc05040b116:	85a6                	mv	a1,s1
ffffffc05040b118:	fb043503          	ld	a0,-80(s0)
ffffffc05040b11c:	236000ef          	jal	ra,ffffffc05040b352 <map_page>
ffffffc05040b120:	fb043783          	ld	a5,-80(s0)
ffffffc05040b124:	a8d5                	j	ffffffc05040b218 <shm_page_get+0x1c6>
ffffffc05040b126:	fdc42783          	lw	a5,-36(s0)
ffffffc05040b12a:	2785                	addiw	a5,a5,1
ffffffc05040b12c:	fcf42e23          	sw	a5,-36(s0)
ffffffc05040b130:	fdc42783          	lw	a5,-36(s0)
ffffffc05040b134:	0007871b          	sext.w	a4,a5
ffffffc05040b138:	47cd                	li	a5,19
ffffffc05040b13a:	f6e7d6e3          	bge	a5,a4,ffffffc05040b0a6 <shm_page_get+0x54>
ffffffc05040b13e:	fc042e23          	sw	zero,-36(s0)
ffffffc05040b142:	a005                	j	ffffffc05040b162 <shm_page_get+0x110>
ffffffc05040b144:	007f6717          	auipc	a4,0x7f6
ffffffc05040b148:	73c70713          	addi	a4,a4,1852 # ffffffc050c01880 <share_page>
ffffffc05040b14c:	fdc42783          	lw	a5,-36(s0)
ffffffc05040b150:	0792                	slli	a5,a5,0x4
ffffffc05040b152:	97ba                	add	a5,a5,a4
ffffffc05040b154:	439c                	lw	a5,0(a5)
ffffffc05040b156:	cf91                	beqz	a5,ffffffc05040b172 <shm_page_get+0x120>
ffffffc05040b158:	fdc42783          	lw	a5,-36(s0)
ffffffc05040b15c:	2785                	addiw	a5,a5,1
ffffffc05040b15e:	fcf42e23          	sw	a5,-36(s0)
ffffffc05040b162:	fdc42783          	lw	a5,-36(s0)
ffffffc05040b166:	0007871b          	sext.w	a4,a5
ffffffc05040b16a:	47cd                	li	a5,19
ffffffc05040b16c:	fce7dce3          	bge	a5,a4,ffffffc05040b144 <shm_page_get+0xf2>
ffffffc05040b170:	a011                	j	ffffffc05040b174 <shm_page_get+0x122>
ffffffc05040b172:	0001                	nop
ffffffc05040b174:	fdc42783          	lw	a5,-36(s0)
ffffffc05040b178:	0007871b          	sext.w	a4,a5
ffffffc05040b17c:	47cd                	li	a5,19
ffffffc05040b17e:	00e7de63          	bge	a5,a4,ffffffc05040b19a <shm_page_get+0x148>
ffffffc05040b182:	00002617          	auipc	a2,0x2
ffffffc05040b186:	6ee60613          	addi	a2,a2,1774 # ffffffc05040d870 <__FUNCTION__.1526>
ffffffc05040b18a:	15400593          	li	a1,340
ffffffc05040b18e:	00002517          	auipc	a0,0x2
ffffffc05040b192:	68a50513          	addi	a0,a0,1674 # ffffffc05040d818 <__FUNCTION__.1742+0x40>
ffffffc05040b196:	be0ff0ef          	jal	ra,ffffffc05040a576 <_panic>
ffffffc05040b19a:	007f6717          	auipc	a4,0x7f6
ffffffc05040b19e:	6e670713          	addi	a4,a4,1766 # ffffffc050c01880 <share_page>
ffffffc05040b1a2:	fdc42783          	lw	a5,-36(s0)
ffffffc05040b1a6:	0792                	slli	a5,a5,0x4
ffffffc05040b1a8:	97ba                	add	a5,a5,a4
ffffffc05040b1aa:	f9c42703          	lw	a4,-100(s0)
ffffffc05040b1ae:	c398                	sw	a4,0(a5)
ffffffc05040b1b0:	007f6717          	auipc	a4,0x7f6
ffffffc05040b1b4:	6d070713          	addi	a4,a4,1744 # ffffffc050c01880 <share_page>
ffffffc05040b1b8:	fdc42783          	lw	a5,-36(s0)
ffffffc05040b1bc:	0792                	slli	a5,a5,0x4
ffffffc05040b1be:	97ba                	add	a5,a5,a4
ffffffc05040b1c0:	43dc                	lw	a5,4(a5)
ffffffc05040b1c2:	2785                	addiw	a5,a5,1
ffffffc05040b1c4:	0007871b          	sext.w	a4,a5
ffffffc05040b1c8:	007f6697          	auipc	a3,0x7f6
ffffffc05040b1cc:	6b868693          	addi	a3,a3,1720 # ffffffc050c01880 <share_page>
ffffffc05040b1d0:	fdc42783          	lw	a5,-36(s0)
ffffffc05040b1d4:	0792                	slli	a5,a5,0x4
ffffffc05040b1d6:	97b6                	add	a5,a5,a3
ffffffc05040b1d8:	c3d8                	sw	a4,4(a5)
ffffffc05040b1da:	fb843503          	ld	a0,-72(s0)
ffffffc05040b1de:	b7bff0ef          	jal	ra,ffffffc05040ad58 <search_va>
ffffffc05040b1e2:	faa43823          	sd	a0,-80(s0)
ffffffc05040b1e6:	4601                	li	a2,0
ffffffc05040b1e8:	fb843583          	ld	a1,-72(s0)
ffffffc05040b1ec:	fb043503          	ld	a0,-80(s0)
ffffffc05040b1f0:	75c000ef          	jal	ra,ffffffc05040b94c <alloc_page_helper>
ffffffc05040b1f4:	faa43423          	sd	a0,-88(s0)
ffffffc05040b1f8:	fa843503          	ld	a0,-88(s0)
ffffffc05040b1fc:	a6aff0ef          	jal	ra,ffffffc05040a466 <kva2pa>
ffffffc05040b200:	86aa                	mv	a3,a0
ffffffc05040b202:	007f6717          	auipc	a4,0x7f6
ffffffc05040b206:	67e70713          	addi	a4,a4,1662 # ffffffc050c01880 <share_page>
ffffffc05040b20a:	fdc42783          	lw	a5,-36(s0)
ffffffc05040b20e:	0792                	slli	a5,a5,0x4
ffffffc05040b210:	97ba                	add	a5,a5,a4
ffffffc05040b212:	e794                	sd	a3,8(a5)
ffffffc05040b214:	fb043783          	ld	a5,-80(s0)
ffffffc05040b218:	853e                	mv	a0,a5
ffffffc05040b21a:	70a6                	ld	ra,104(sp)
ffffffc05040b21c:	7406                	ld	s0,96(sp)
ffffffc05040b21e:	64e6                	ld	s1,88(sp)
ffffffc05040b220:	6165                	addi	sp,sp,112
ffffffc05040b222:	8082                	ret

ffffffc05040b224 <shm_page_dt>:
ffffffc05040b224:	715d                	addi	sp,sp,-80
ffffffc05040b226:	e486                	sd	ra,72(sp)
ffffffc05040b228:	e0a2                	sd	s0,64(sp)
ffffffc05040b22a:	0880                	addi	s0,sp,80
ffffffc05040b22c:	faa43c23          	sd	a0,-72(s0)
ffffffc05040b230:	898f50ef          	jal	ra,ffffffc0504002c8 <get_current_cpu_id>
ffffffc05040b234:	87aa                	mv	a5,a0
ffffffc05040b236:	fef43023          	sd	a5,-32(s0)
ffffffc05040b23a:	007f5717          	auipc	a4,0x7f5
ffffffc05040b23e:	3be70713          	addi	a4,a4,958 # ffffffc050c005f8 <current_running>
ffffffc05040b242:	fe043783          	ld	a5,-32(s0)
ffffffc05040b246:	078e                	slli	a5,a5,0x3
ffffffc05040b248:	97ba                	add	a5,a5,a4
ffffffc05040b24a:	639c                	ld	a5,0(a5)
ffffffc05040b24c:	fcf43c23          	sd	a5,-40(s0)
ffffffc05040b250:	fd843783          	ld	a5,-40(s0)
ffffffc05040b254:	6b9c                	ld	a5,16(a5)
ffffffc05040b256:	fcf43823          	sd	a5,-48(s0)
ffffffc05040b25a:	fd043783          	ld	a5,-48(s0)
ffffffc05040b25e:	00c79713          	slli	a4,a5,0xc
ffffffc05040b262:	fff007b7          	lui	a5,0xfff00
ffffffc05040b266:	83a1                	srli	a5,a5,0x8
ffffffc05040b268:	8ff9                	and	a5,a5,a4
ffffffc05040b26a:	fcf43423          	sd	a5,-56(s0)
ffffffc05040b26e:	fb843583          	ld	a1,-72(s0)
ffffffc05040b272:	fc843503          	ld	a0,-56(s0)
ffffffc05040b276:	cc3ff0ef          	jal	ra,ffffffc05040af38 <search_share_pa>
ffffffc05040b27a:	fca43023          	sd	a0,-64(s0)
ffffffc05040b27e:	a865                	j	ffffffc05040b336 <shm_page_dt+0x112>
ffffffc05040b280:	007f6717          	auipc	a4,0x7f6
ffffffc05040b284:	60070713          	addi	a4,a4,1536 # ffffffc050c01880 <share_page>
ffffffc05040b288:	fec42783          	lw	a5,-20(s0)
ffffffc05040b28c:	0792                	slli	a5,a5,0x4
ffffffc05040b28e:	97ba                	add	a5,a5,a4
ffffffc05040b290:	679c                	ld	a5,8(a5)
ffffffc05040b292:	fc043703          	ld	a4,-64(s0)
ffffffc05040b296:	08f71b63          	bne	a4,a5,ffffffc05040b32c <shm_page_dt+0x108>
ffffffc05040b29a:	007f6717          	auipc	a4,0x7f6
ffffffc05040b29e:	5e670713          	addi	a4,a4,1510 # ffffffc050c01880 <share_page>
ffffffc05040b2a2:	fec42783          	lw	a5,-20(s0)
ffffffc05040b2a6:	0792                	slli	a5,a5,0x4
ffffffc05040b2a8:	97ba                	add	a5,a5,a4
ffffffc05040b2aa:	43dc                	lw	a5,4(a5)
ffffffc05040b2ac:	37fd                	addiw	a5,a5,-1
ffffffc05040b2ae:	0007871b          	sext.w	a4,a5
ffffffc05040b2b2:	007f6697          	auipc	a3,0x7f6
ffffffc05040b2b6:	5ce68693          	addi	a3,a3,1486 # ffffffc050c01880 <share_page>
ffffffc05040b2ba:	fec42783          	lw	a5,-20(s0)
ffffffc05040b2be:	0792                	slli	a5,a5,0x4
ffffffc05040b2c0:	97b6                	add	a5,a5,a3
ffffffc05040b2c2:	c3d8                	sw	a4,4(a5)
ffffffc05040b2c4:	007f6717          	auipc	a4,0x7f6
ffffffc05040b2c8:	5bc70713          	addi	a4,a4,1468 # ffffffc050c01880 <share_page>
ffffffc05040b2cc:	fec42783          	lw	a5,-20(s0)
ffffffc05040b2d0:	0792                	slli	a5,a5,0x4
ffffffc05040b2d2:	97ba                	add	a5,a5,a4
ffffffc05040b2d4:	43dc                	lw	a5,4(a5)
ffffffc05040b2d6:	eba5                	bnez	a5,ffffffc05040b346 <shm_page_dt+0x122>
ffffffc05040b2d8:	007f6717          	auipc	a4,0x7f6
ffffffc05040b2dc:	5a870713          	addi	a4,a4,1448 # ffffffc050c01880 <share_page>
ffffffc05040b2e0:	fec42783          	lw	a5,-20(s0)
ffffffc05040b2e4:	0792                	slli	a5,a5,0x4
ffffffc05040b2e6:	97ba                	add	a5,a5,a4
ffffffc05040b2e8:	6798                	ld	a4,8(a5)
ffffffc05040b2ea:	ae0007b7          	lui	a5,0xae000
ffffffc05040b2ee:	97ba                	add	a5,a5,a4
ffffffc05040b2f0:	83b1                	srli	a5,a5,0xc
ffffffc05040b2f2:	007f6717          	auipc	a4,0x7f6
ffffffc05040b2f6:	d8e70713          	addi	a4,a4,-626 # ffffffc050c01080 <mem_occupied>
ffffffc05040b2fa:	078a                	slli	a5,a5,0x2
ffffffc05040b2fc:	97ba                	add	a5,a5,a4
ffffffc05040b2fe:	0007a023          	sw	zero,0(a5) # ffffffffae000000 <__BSS_END__+0x3f5d3fda00>
ffffffc05040b302:	007f6717          	auipc	a4,0x7f6
ffffffc05040b306:	57e70713          	addi	a4,a4,1406 # ffffffc050c01880 <share_page>
ffffffc05040b30a:	fec42783          	lw	a5,-20(s0)
ffffffc05040b30e:	0792                	slli	a5,a5,0x4
ffffffc05040b310:	97ba                	add	a5,a5,a4
ffffffc05040b312:	0007b423          	sd	zero,8(a5)
ffffffc05040b316:	007f6717          	auipc	a4,0x7f6
ffffffc05040b31a:	56a70713          	addi	a4,a4,1386 # ffffffc050c01880 <share_page>
ffffffc05040b31e:	fec42783          	lw	a5,-20(s0)
ffffffc05040b322:	0792                	slli	a5,a5,0x4
ffffffc05040b324:	97ba                	add	a5,a5,a4
ffffffc05040b326:	0007a023          	sw	zero,0(a5)
ffffffc05040b32a:	a831                	j	ffffffc05040b346 <shm_page_dt+0x122>
ffffffc05040b32c:	fec42783          	lw	a5,-20(s0)
ffffffc05040b330:	2785                	addiw	a5,a5,1
ffffffc05040b332:	fef42623          	sw	a5,-20(s0)
ffffffc05040b336:	fec42783          	lw	a5,-20(s0)
ffffffc05040b33a:	0007871b          	sext.w	a4,a5
ffffffc05040b33e:	47cd                	li	a5,19
ffffffc05040b340:	f4e7d0e3          	bge	a5,a4,ffffffc05040b280 <shm_page_dt+0x5c>
ffffffc05040b344:	a011                	j	ffffffc05040b348 <shm_page_dt+0x124>
ffffffc05040b346:	0001                	nop
ffffffc05040b348:	0001                	nop
ffffffc05040b34a:	60a6                	ld	ra,72(sp)
ffffffc05040b34c:	6406                	ld	s0,64(sp)
ffffffc05040b34e:	6161                	addi	sp,sp,80
ffffffc05040b350:	8082                	ret

ffffffc05040b352 <map_page>:
ffffffc05040b352:	7159                	addi	sp,sp,-112
ffffffc05040b354:	f486                	sd	ra,104(sp)
ffffffc05040b356:	f0a2                	sd	s0,96(sp)
ffffffc05040b358:	eca6                	sd	s1,88(sp)
ffffffc05040b35a:	1880                	addi	s0,sp,112
ffffffc05040b35c:	faa43423          	sd	a0,-88(s0)
ffffffc05040b360:	fab43023          	sd	a1,-96(s0)
ffffffc05040b364:	f8c43c23          	sd	a2,-104(s0)
ffffffc05040b368:	fa843703          	ld	a4,-88(s0)
ffffffc05040b36c:	57fd                	li	a5,-1
ffffffc05040b36e:	83e5                	srli	a5,a5,0x19
ffffffc05040b370:	8ff9                	and	a5,a5,a4
ffffffc05040b372:	faf43423          	sd	a5,-88(s0)
ffffffc05040b376:	fa843783          	ld	a5,-88(s0)
ffffffc05040b37a:	83f9                	srli	a5,a5,0x1e
ffffffc05040b37c:	fcf43c23          	sd	a5,-40(s0)
ffffffc05040b380:	fd843783          	ld	a5,-40(s0)
ffffffc05040b384:	00979713          	slli	a4,a5,0x9
ffffffc05040b388:	fa843783          	ld	a5,-88(s0)
ffffffc05040b38c:	83d5                	srli	a5,a5,0x15
ffffffc05040b38e:	8fb9                	xor	a5,a5,a4
ffffffc05040b390:	fcf43823          	sd	a5,-48(s0)
ffffffc05040b394:	fd043783          	ld	a5,-48(s0)
ffffffc05040b398:	00979713          	slli	a4,a5,0x9
ffffffc05040b39c:	fd843783          	ld	a5,-40(s0)
ffffffc05040b3a0:	07ca                	slli	a5,a5,0x12
ffffffc05040b3a2:	8f3d                	xor	a4,a4,a5
ffffffc05040b3a4:	fa843783          	ld	a5,-88(s0)
ffffffc05040b3a8:	83b1                	srli	a5,a5,0xc
ffffffc05040b3aa:	8fb9                	xor	a5,a5,a4
ffffffc05040b3ac:	fcf43423          	sd	a5,-56(s0)
ffffffc05040b3b0:	fd843783          	ld	a5,-40(s0)
ffffffc05040b3b4:	078e                	slli	a5,a5,0x3
ffffffc05040b3b6:	f9843703          	ld	a4,-104(s0)
ffffffc05040b3ba:	97ba                	add	a5,a5,a4
ffffffc05040b3bc:	639c                	ld	a5,0(a5)
ffffffc05040b3be:	eb95                	bnez	a5,ffffffc05040b3f2 <map_page+0xa0>
ffffffc05040b3c0:	fd843783          	ld	a5,-40(s0)
ffffffc05040b3c4:	078e                	slli	a5,a5,0x3
ffffffc05040b3c6:	f9843703          	ld	a4,-104(s0)
ffffffc05040b3ca:	00f704b3          	add	s1,a4,a5
ffffffc05040b3ce:	622000ef          	jal	ra,ffffffc05040b9f0 <create_pt>
ffffffc05040b3d2:	87aa                	mv	a5,a0
ffffffc05040b3d4:	83b1                	srli	a5,a5,0xc
ffffffc05040b3d6:	85be                	mv	a1,a5
ffffffc05040b3d8:	8526                	mv	a0,s1
ffffffc05040b3da:	8deff0ef          	jal	ra,ffffffc05040a4b8 <set_pfn>
ffffffc05040b3de:	fd843783          	ld	a5,-40(s0)
ffffffc05040b3e2:	078e                	slli	a5,a5,0x3
ffffffc05040b3e4:	f9843703          	ld	a4,-104(s0)
ffffffc05040b3e8:	97ba                	add	a5,a5,a4
ffffffc05040b3ea:	4585                	li	a1,1
ffffffc05040b3ec:	853e                	mv	a0,a5
ffffffc05040b3ee:	904ff0ef          	jal	ra,ffffffc05040a4f2 <set_attribute>
ffffffc05040b3f2:	fd843783          	ld	a5,-40(s0)
ffffffc05040b3f6:	078e                	slli	a5,a5,0x3
ffffffc05040b3f8:	f9843703          	ld	a4,-104(s0)
ffffffc05040b3fc:	97ba                	add	a5,a5,a4
ffffffc05040b3fe:	639c                	ld	a5,0(a5)
ffffffc05040b400:	853e                	mv	a0,a5
ffffffc05040b402:	89cff0ef          	jal	ra,ffffffc05040a49e <get_pa>
ffffffc05040b406:	87aa                	mv	a5,a0
ffffffc05040b408:	853e                	mv	a0,a5
ffffffc05040b40a:	878ff0ef          	jal	ra,ffffffc05040a482 <pa2kva>
ffffffc05040b40e:	87aa                	mv	a5,a0
ffffffc05040b410:	fcf43023          	sd	a5,-64(s0)
ffffffc05040b414:	fd043783          	ld	a5,-48(s0)
ffffffc05040b418:	078e                	slli	a5,a5,0x3
ffffffc05040b41a:	fc043703          	ld	a4,-64(s0)
ffffffc05040b41e:	97ba                	add	a5,a5,a4
ffffffc05040b420:	639c                	ld	a5,0(a5)
ffffffc05040b422:	eb95                	bnez	a5,ffffffc05040b456 <map_page+0x104>
ffffffc05040b424:	fd043783          	ld	a5,-48(s0)
ffffffc05040b428:	078e                	slli	a5,a5,0x3
ffffffc05040b42a:	fc043703          	ld	a4,-64(s0)
ffffffc05040b42e:	00f704b3          	add	s1,a4,a5
ffffffc05040b432:	5be000ef          	jal	ra,ffffffc05040b9f0 <create_pt>
ffffffc05040b436:	87aa                	mv	a5,a0
ffffffc05040b438:	83b1                	srli	a5,a5,0xc
ffffffc05040b43a:	85be                	mv	a1,a5
ffffffc05040b43c:	8526                	mv	a0,s1
ffffffc05040b43e:	87aff0ef          	jal	ra,ffffffc05040a4b8 <set_pfn>
ffffffc05040b442:	fd043783          	ld	a5,-48(s0)
ffffffc05040b446:	078e                	slli	a5,a5,0x3
ffffffc05040b448:	fc043703          	ld	a4,-64(s0)
ffffffc05040b44c:	97ba                	add	a5,a5,a4
ffffffc05040b44e:	4585                	li	a1,1
ffffffc05040b450:	853e                	mv	a0,a5
ffffffc05040b452:	8a0ff0ef          	jal	ra,ffffffc05040a4f2 <set_attribute>
ffffffc05040b456:	fd043783          	ld	a5,-48(s0)
ffffffc05040b45a:	078e                	slli	a5,a5,0x3
ffffffc05040b45c:	fc043703          	ld	a4,-64(s0)
ffffffc05040b460:	97ba                	add	a5,a5,a4
ffffffc05040b462:	639c                	ld	a5,0(a5)
ffffffc05040b464:	853e                	mv	a0,a5
ffffffc05040b466:	838ff0ef          	jal	ra,ffffffc05040a49e <get_pa>
ffffffc05040b46a:	87aa                	mv	a5,a0
ffffffc05040b46c:	853e                	mv	a0,a5
ffffffc05040b46e:	814ff0ef          	jal	ra,ffffffc05040a482 <pa2kva>
ffffffc05040b472:	87aa                	mv	a5,a0
ffffffc05040b474:	faf43c23          	sd	a5,-72(s0)
ffffffc05040b478:	fc843783          	ld	a5,-56(s0)
ffffffc05040b47c:	078e                	slli	a5,a5,0x3
ffffffc05040b47e:	fb843703          	ld	a4,-72(s0)
ffffffc05040b482:	973e                	add	a4,a4,a5
ffffffc05040b484:	fa043783          	ld	a5,-96(s0)
ffffffc05040b488:	83b1                	srli	a5,a5,0xc
ffffffc05040b48a:	85be                	mv	a1,a5
ffffffc05040b48c:	853a                	mv	a0,a4
ffffffc05040b48e:	82aff0ef          	jal	ra,ffffffc05040a4b8 <set_pfn>
ffffffc05040b492:	fc843783          	ld	a5,-56(s0)
ffffffc05040b496:	078e                	slli	a5,a5,0x3
ffffffc05040b498:	fb843703          	ld	a4,-72(s0)
ffffffc05040b49c:	97ba                	add	a5,a5,a4
ffffffc05040b49e:	0df00593          	li	a1,223
ffffffc05040b4a2:	853e                	mv	a0,a5
ffffffc05040b4a4:	84eff0ef          	jal	ra,ffffffc05040a4f2 <set_attribute>
ffffffc05040b4a8:	0001                	nop
ffffffc05040b4aa:	70a6                	ld	ra,104(sp)
ffffffc05040b4ac:	7406                	ld	s0,96(sp)
ffffffc05040b4ae:	64e6                	ld	s1,88(sp)
ffffffc05040b4b0:	6165                	addi	sp,sp,112
ffffffc05040b4b2:	8082                	ret

ffffffc05040b4b4 <map_net_page>:
ffffffc05040b4b4:	7159                	addi	sp,sp,-112
ffffffc05040b4b6:	f486                	sd	ra,104(sp)
ffffffc05040b4b8:	f0a2                	sd	s0,96(sp)
ffffffc05040b4ba:	eca6                	sd	s1,88(sp)
ffffffc05040b4bc:	1880                	addi	s0,sp,112
ffffffc05040b4be:	faa43423          	sd	a0,-88(s0)
ffffffc05040b4c2:	fab43023          	sd	a1,-96(s0)
ffffffc05040b4c6:	f8c43c23          	sd	a2,-104(s0)
ffffffc05040b4ca:	fa843703          	ld	a4,-88(s0)
ffffffc05040b4ce:	57fd                	li	a5,-1
ffffffc05040b4d0:	83e5                	srli	a5,a5,0x19
ffffffc05040b4d2:	8ff9                	and	a5,a5,a4
ffffffc05040b4d4:	faf43423          	sd	a5,-88(s0)
ffffffc05040b4d8:	fa843783          	ld	a5,-88(s0)
ffffffc05040b4dc:	83f9                	srli	a5,a5,0x1e
ffffffc05040b4de:	fcf43c23          	sd	a5,-40(s0)
ffffffc05040b4e2:	fd843783          	ld	a5,-40(s0)
ffffffc05040b4e6:	00979713          	slli	a4,a5,0x9
ffffffc05040b4ea:	fa843783          	ld	a5,-88(s0)
ffffffc05040b4ee:	83d5                	srli	a5,a5,0x15
ffffffc05040b4f0:	8fb9                	xor	a5,a5,a4
ffffffc05040b4f2:	fcf43823          	sd	a5,-48(s0)
ffffffc05040b4f6:	fd043783          	ld	a5,-48(s0)
ffffffc05040b4fa:	00979713          	slli	a4,a5,0x9
ffffffc05040b4fe:	fd843783          	ld	a5,-40(s0)
ffffffc05040b502:	07ca                	slli	a5,a5,0x12
ffffffc05040b504:	8f3d                	xor	a4,a4,a5
ffffffc05040b506:	fa843783          	ld	a5,-88(s0)
ffffffc05040b50a:	83b1                	srli	a5,a5,0xc
ffffffc05040b50c:	8fb9                	xor	a5,a5,a4
ffffffc05040b50e:	fcf43423          	sd	a5,-56(s0)
ffffffc05040b512:	fd843783          	ld	a5,-40(s0)
ffffffc05040b516:	078e                	slli	a5,a5,0x3
ffffffc05040b518:	f9843703          	ld	a4,-104(s0)
ffffffc05040b51c:	97ba                	add	a5,a5,a4
ffffffc05040b51e:	639c                	ld	a5,0(a5)
ffffffc05040b520:	eb95                	bnez	a5,ffffffc05040b554 <map_net_page+0xa0>
ffffffc05040b522:	fd843783          	ld	a5,-40(s0)
ffffffc05040b526:	078e                	slli	a5,a5,0x3
ffffffc05040b528:	f9843703          	ld	a4,-104(s0)
ffffffc05040b52c:	00f704b3          	add	s1,a4,a5
ffffffc05040b530:	4c0000ef          	jal	ra,ffffffc05040b9f0 <create_pt>
ffffffc05040b534:	87aa                	mv	a5,a0
ffffffc05040b536:	83b1                	srli	a5,a5,0xc
ffffffc05040b538:	85be                	mv	a1,a5
ffffffc05040b53a:	8526                	mv	a0,s1
ffffffc05040b53c:	f7dfe0ef          	jal	ra,ffffffc05040a4b8 <set_pfn>
ffffffc05040b540:	fd843783          	ld	a5,-40(s0)
ffffffc05040b544:	078e                	slli	a5,a5,0x3
ffffffc05040b546:	f9843703          	ld	a4,-104(s0)
ffffffc05040b54a:	97ba                	add	a5,a5,a4
ffffffc05040b54c:	4585                	li	a1,1
ffffffc05040b54e:	853e                	mv	a0,a5
ffffffc05040b550:	fa3fe0ef          	jal	ra,ffffffc05040a4f2 <set_attribute>
ffffffc05040b554:	fd843783          	ld	a5,-40(s0)
ffffffc05040b558:	078e                	slli	a5,a5,0x3
ffffffc05040b55a:	f9843703          	ld	a4,-104(s0)
ffffffc05040b55e:	97ba                	add	a5,a5,a4
ffffffc05040b560:	639c                	ld	a5,0(a5)
ffffffc05040b562:	853e                	mv	a0,a5
ffffffc05040b564:	f3bfe0ef          	jal	ra,ffffffc05040a49e <get_pa>
ffffffc05040b568:	87aa                	mv	a5,a0
ffffffc05040b56a:	853e                	mv	a0,a5
ffffffc05040b56c:	f17fe0ef          	jal	ra,ffffffc05040a482 <pa2kva>
ffffffc05040b570:	87aa                	mv	a5,a0
ffffffc05040b572:	fcf43023          	sd	a5,-64(s0)
ffffffc05040b576:	fd043783          	ld	a5,-48(s0)
ffffffc05040b57a:	078e                	slli	a5,a5,0x3
ffffffc05040b57c:	fc043703          	ld	a4,-64(s0)
ffffffc05040b580:	97ba                	add	a5,a5,a4
ffffffc05040b582:	639c                	ld	a5,0(a5)
ffffffc05040b584:	eb95                	bnez	a5,ffffffc05040b5b8 <map_net_page+0x104>
ffffffc05040b586:	fd043783          	ld	a5,-48(s0)
ffffffc05040b58a:	078e                	slli	a5,a5,0x3
ffffffc05040b58c:	fc043703          	ld	a4,-64(s0)
ffffffc05040b590:	00f704b3          	add	s1,a4,a5
ffffffc05040b594:	45c000ef          	jal	ra,ffffffc05040b9f0 <create_pt>
ffffffc05040b598:	87aa                	mv	a5,a0
ffffffc05040b59a:	83b1                	srli	a5,a5,0xc
ffffffc05040b59c:	85be                	mv	a1,a5
ffffffc05040b59e:	8526                	mv	a0,s1
ffffffc05040b5a0:	f19fe0ef          	jal	ra,ffffffc05040a4b8 <set_pfn>
ffffffc05040b5a4:	fd043783          	ld	a5,-48(s0)
ffffffc05040b5a8:	078e                	slli	a5,a5,0x3
ffffffc05040b5aa:	fc043703          	ld	a4,-64(s0)
ffffffc05040b5ae:	97ba                	add	a5,a5,a4
ffffffc05040b5b0:	4585                	li	a1,1
ffffffc05040b5b2:	853e                	mv	a0,a5
ffffffc05040b5b4:	f3ffe0ef          	jal	ra,ffffffc05040a4f2 <set_attribute>
ffffffc05040b5b8:	fd043783          	ld	a5,-48(s0)
ffffffc05040b5bc:	078e                	slli	a5,a5,0x3
ffffffc05040b5be:	fc043703          	ld	a4,-64(s0)
ffffffc05040b5c2:	97ba                	add	a5,a5,a4
ffffffc05040b5c4:	639c                	ld	a5,0(a5)
ffffffc05040b5c6:	853e                	mv	a0,a5
ffffffc05040b5c8:	ed7fe0ef          	jal	ra,ffffffc05040a49e <get_pa>
ffffffc05040b5cc:	87aa                	mv	a5,a0
ffffffc05040b5ce:	853e                	mv	a0,a5
ffffffc05040b5d0:	eb3fe0ef          	jal	ra,ffffffc05040a482 <pa2kva>
ffffffc05040b5d4:	87aa                	mv	a5,a0
ffffffc05040b5d6:	faf43c23          	sd	a5,-72(s0)
ffffffc05040b5da:	fc843783          	ld	a5,-56(s0)
ffffffc05040b5de:	078e                	slli	a5,a5,0x3
ffffffc05040b5e0:	fb843703          	ld	a4,-72(s0)
ffffffc05040b5e4:	973e                	add	a4,a4,a5
ffffffc05040b5e6:	fa043783          	ld	a5,-96(s0)
ffffffc05040b5ea:	83b1                	srli	a5,a5,0xc
ffffffc05040b5ec:	85be                	mv	a1,a5
ffffffc05040b5ee:	853a                	mv	a0,a4
ffffffc05040b5f0:	ec9fe0ef          	jal	ra,ffffffc05040a4b8 <set_pfn>
ffffffc05040b5f4:	fc843783          	ld	a5,-56(s0)
ffffffc05040b5f8:	078e                	slli	a5,a5,0x3
ffffffc05040b5fa:	fb843703          	ld	a4,-72(s0)
ffffffc05040b5fe:	97ba                	add	a5,a5,a4
ffffffc05040b600:	0cf00593          	li	a1,207
ffffffc05040b604:	853e                	mv	a0,a5
ffffffc05040b606:	eedfe0ef          	jal	ra,ffffffc05040a4f2 <set_attribute>
ffffffc05040b60a:	0001                	nop
ffffffc05040b60c:	70a6                	ld	ra,104(sp)
ffffffc05040b60e:	7406                	ld	s0,96(sp)
ffffffc05040b610:	64e6                	ld	s1,88(sp)
ffffffc05040b612:	6165                	addi	sp,sp,112
ffffffc05040b614:	8082                	ret

ffffffc05040b616 <share_pgtable>:
ffffffc05040b616:	7139                	addi	sp,sp,-64
ffffffc05040b618:	fc06                	sd	ra,56(sp)
ffffffc05040b61a:	f822                	sd	s0,48(sp)
ffffffc05040b61c:	0080                	addi	s0,sp,64
ffffffc05040b61e:	fca43423          	sd	a0,-56(s0)
ffffffc05040b622:	fcb43023          	sd	a1,-64(s0)
ffffffc05040b626:	fc843503          	ld	a0,-56(s0)
ffffffc05040b62a:	e59fe0ef          	jal	ra,ffffffc05040a482 <pa2kva>
ffffffc05040b62e:	87aa                	mv	a5,a0
ffffffc05040b630:	fef43423          	sd	a5,-24(s0)
ffffffc05040b634:	fc043503          	ld	a0,-64(s0)
ffffffc05040b638:	e4bfe0ef          	jal	ra,ffffffc05040a482 <pa2kva>
ffffffc05040b63c:	87aa                	mv	a5,a0
ffffffc05040b63e:	fef43023          	sd	a5,-32(s0)
ffffffc05040b642:	fc042e23          	sw	zero,-36(s0)
ffffffc05040b646:	a815                	j	ffffffc05040b67a <share_pgtable+0x64>
ffffffc05040b648:	fe043783          	ld	a5,-32(s0)
ffffffc05040b64c:	639c                	ld	a5,0(a5)
ffffffc05040b64e:	c799                	beqz	a5,ffffffc05040b65c <share_pgtable+0x46>
ffffffc05040b650:	fe043783          	ld	a5,-32(s0)
ffffffc05040b654:	6398                	ld	a4,0(a5)
ffffffc05040b656:	fe843783          	ld	a5,-24(s0)
ffffffc05040b65a:	e398                	sd	a4,0(a5)
ffffffc05040b65c:	fe043783          	ld	a5,-32(s0)
ffffffc05040b660:	07a1                	addi	a5,a5,8
ffffffc05040b662:	fef43023          	sd	a5,-32(s0)
ffffffc05040b666:	fe843783          	ld	a5,-24(s0)
ffffffc05040b66a:	07a1                	addi	a5,a5,8
ffffffc05040b66c:	fef43423          	sd	a5,-24(s0)
ffffffc05040b670:	fdc42783          	lw	a5,-36(s0)
ffffffc05040b674:	2785                	addiw	a5,a5,1
ffffffc05040b676:	fcf42e23          	sw	a5,-36(s0)
ffffffc05040b67a:	fdc42783          	lw	a5,-36(s0)
ffffffc05040b67e:	0007871b          	sext.w	a4,a5
ffffffc05040b682:	1ff00793          	li	a5,511
ffffffc05040b686:	fce7d1e3          	bge	a5,a4,ffffffc05040b648 <share_pgtable+0x32>
ffffffc05040b68a:	0001                	nop
ffffffc05040b68c:	0001                	nop
ffffffc05040b68e:	70e2                	ld	ra,56(sp)
ffffffc05040b690:	7442                	ld	s0,48(sp)
ffffffc05040b692:	6121                	addi	sp,sp,64
ffffffc05040b694:	8082                	ret

ffffffc05040b696 <check_replaced>:
ffffffc05040b696:	711d                	addi	sp,sp,-96
ffffffc05040b698:	ec86                	sd	ra,88(sp)
ffffffc05040b69a:	e8a2                	sd	s0,80(sp)
ffffffc05040b69c:	1080                	addi	s0,sp,96
ffffffc05040b69e:	faa43423          	sd	a0,-88(s0)
ffffffc05040b6a2:	c27f40ef          	jal	ra,ffffffc0504002c8 <get_current_cpu_id>
ffffffc05040b6a6:	87aa                	mv	a5,a0
ffffffc05040b6a8:	fef43023          	sd	a5,-32(s0)
ffffffc05040b6ac:	007f5717          	auipc	a4,0x7f5
ffffffc05040b6b0:	f4c70713          	addi	a4,a4,-180 # ffffffc050c005f8 <current_running>
ffffffc05040b6b4:	fe043783          	ld	a5,-32(s0)
ffffffc05040b6b8:	078e                	slli	a5,a5,0x3
ffffffc05040b6ba:	97ba                	add	a5,a5,a4
ffffffc05040b6bc:	639c                	ld	a5,0(a5)
ffffffc05040b6be:	fcf43c23          	sd	a5,-40(s0)
ffffffc05040b6c2:	fd843783          	ld	a5,-40(s0)
ffffffc05040b6c6:	47bc                	lw	a5,72(a5)
ffffffc05040b6c8:	fcf42a23          	sw	a5,-44(s0)
ffffffc05040b6cc:	fd843783          	ld	a5,-40(s0)
ffffffc05040b6d0:	6b9c                	ld	a5,16(a5)
ffffffc05040b6d2:	fcf43423          	sd	a5,-56(s0)
ffffffc05040b6d6:	fc843703          	ld	a4,-56(s0)
ffffffc05040b6da:	57fd                	li	a5,-1
ffffffc05040b6dc:	83d1                	srli	a5,a5,0x14
ffffffc05040b6de:	8ff9                	and	a5,a5,a4
ffffffc05040b6e0:	fcf43023          	sd	a5,-64(s0)
ffffffc05040b6e4:	fa843703          	ld	a4,-88(s0)
ffffffc05040b6e8:	77fd                	lui	a5,0xfffff
ffffffc05040b6ea:	8ff9                	and	a5,a5,a4
ffffffc05040b6ec:	faf43c23          	sd	a5,-72(s0)
ffffffc05040b6f0:	fd442783          	lw	a5,-44(s0)
ffffffc05040b6f4:	fb843703          	ld	a4,-72(s0)
ffffffc05040b6f8:	8fd9                	or	a5,a5,a4
ffffffc05040b6fa:	faf43c23          	sd	a5,-72(s0)
ffffffc05040b6fe:	fe042623          	sw	zero,-20(s0)
ffffffc05040b702:	a841                	j	ffffffc05040b792 <check_replaced+0xfc>
ffffffc05040b704:	007f6717          	auipc	a4,0x7f6
ffffffc05040b708:	6bc70713          	addi	a4,a4,1724 # ffffffc050c01dc0 <sd_va>
ffffffc05040b70c:	fec42783          	lw	a5,-20(s0)
ffffffc05040b710:	078e                	slli	a5,a5,0x3
ffffffc05040b712:	97ba                	add	a5,a5,a4
ffffffc05040b714:	639c                	ld	a5,0(a5)
ffffffc05040b716:	fb843703          	ld	a4,-72(s0)
ffffffc05040b71a:	06f71763          	bne	a4,a5,ffffffc05040b788 <check_replaced+0xf2>
ffffffc05040b71e:	4585                	li	a1,1
ffffffc05040b720:	4505                	li	a0,1
ffffffc05040b722:	880ff0ef          	jal	ra,ffffffc05040a7a2 <allocPage>
ffffffc05040b726:	faa43823          	sd	a0,-80(s0)
ffffffc05040b72a:	fc043783          	ld	a5,-64(s0)
ffffffc05040b72e:	07b2                	slli	a5,a5,0xc
ffffffc05040b730:	853e                	mv	a0,a5
ffffffc05040b732:	d51fe0ef          	jal	ra,ffffffc05040a482 <pa2kva>
ffffffc05040b736:	87aa                	mv	a5,a0
ffffffc05040b738:	863e                	mv	a2,a5
ffffffc05040b73a:	fb043583          	ld	a1,-80(s0)
ffffffc05040b73e:	fa843503          	ld	a0,-88(s0)
ffffffc05040b742:	c11ff0ef          	jal	ra,ffffffc05040b352 <map_page>
ffffffc05040b746:	007f6717          	auipc	a4,0x7f6
ffffffc05040b74a:	67a70713          	addi	a4,a4,1658 # ffffffc050c01dc0 <sd_va>
ffffffc05040b74e:	fec42783          	lw	a5,-20(s0)
ffffffc05040b752:	078e                	slli	a5,a5,0x3
ffffffc05040b754:	97ba                	add	a5,a5,a4
ffffffc05040b756:	0007b023          	sd	zero,0(a5) # fffffffffffff000 <__BSS_END__+0x3faf3fca00>
ffffffc05040b75a:	fb043783          	ld	a5,-80(s0)
ffffffc05040b75e:	0007871b          	sext.w	a4,a5
ffffffc05040b762:	fec42783          	lw	a5,-20(s0)
ffffffc05040b766:	37fd                	addiw	a5,a5,-1
ffffffc05040b768:	2781                	sext.w	a5,a5
ffffffc05040b76a:	0037979b          	slliw	a5,a5,0x3
ffffffc05040b76e:	2781                	sext.w	a5,a5
ffffffc05040b770:	2785                	addiw	a5,a5,1
ffffffc05040b772:	2781                	sext.w	a5,a5
ffffffc05040b774:	2781                	sext.w	a5,a5
ffffffc05040b776:	863e                	mv	a2,a5
ffffffc05040b778:	45a1                	li	a1,8
ffffffc05040b77a:	853a                	mv	a0,a4
ffffffc05040b77c:	c9bfe0ef          	jal	ra,ffffffc05040a416 <sbi_sd_read>
ffffffc05040b780:	fb043783          	ld	a5,-80(s0)
ffffffc05040b784:	2781                	sext.w	a5,a5
ffffffc05040b786:	a839                	j	ffffffc05040b7a4 <check_replaced+0x10e>
ffffffc05040b788:	fec42783          	lw	a5,-20(s0)
ffffffc05040b78c:	2785                	addiw	a5,a5,1
ffffffc05040b78e:	fef42623          	sw	a5,-20(s0)
ffffffc05040b792:	fec42783          	lw	a5,-20(s0)
ffffffc05040b796:	0007871b          	sext.w	a4,a5
ffffffc05040b79a:	0c700793          	li	a5,199
ffffffc05040b79e:	f6e7d3e3          	bge	a5,a4,ffffffc05040b704 <check_replaced+0x6e>
ffffffc05040b7a2:	4781                	li	a5,0
ffffffc05040b7a4:	853e                	mv	a0,a5
ffffffc05040b7a6:	60e6                	ld	ra,88(sp)
ffffffc05040b7a8:	6446                	ld	s0,80(sp)
ffffffc05040b7aa:	6125                	addi	sp,sp,96
ffffffc05040b7ac:	8082                	ret

ffffffc05040b7ae <check_fork>:
ffffffc05040b7ae:	711d                	addi	sp,sp,-96
ffffffc05040b7b0:	ec86                	sd	ra,88(sp)
ffffffc05040b7b2:	e8a2                	sd	s0,80(sp)
ffffffc05040b7b4:	1080                	addi	s0,sp,96
ffffffc05040b7b6:	faa43423          	sd	a0,-88(s0)
ffffffc05040b7ba:	fab43023          	sd	a1,-96(s0)
ffffffc05040b7be:	fa843703          	ld	a4,-88(s0)
ffffffc05040b7c2:	57fd                	li	a5,-1
ffffffc05040b7c4:	83e5                	srli	a5,a5,0x19
ffffffc05040b7c6:	8ff9                	and	a5,a5,a4
ffffffc05040b7c8:	faf43423          	sd	a5,-88(s0)
ffffffc05040b7cc:	fa843783          	ld	a5,-88(s0)
ffffffc05040b7d0:	83f9                	srli	a5,a5,0x1e
ffffffc05040b7d2:	fef43423          	sd	a5,-24(s0)
ffffffc05040b7d6:	fe843783          	ld	a5,-24(s0)
ffffffc05040b7da:	00979713          	slli	a4,a5,0x9
ffffffc05040b7de:	fa843783          	ld	a5,-88(s0)
ffffffc05040b7e2:	83d5                	srli	a5,a5,0x15
ffffffc05040b7e4:	8fb9                	xor	a5,a5,a4
ffffffc05040b7e6:	fef43023          	sd	a5,-32(s0)
ffffffc05040b7ea:	fe043783          	ld	a5,-32(s0)
ffffffc05040b7ee:	00979713          	slli	a4,a5,0x9
ffffffc05040b7f2:	fe843783          	ld	a5,-24(s0)
ffffffc05040b7f6:	07ca                	slli	a5,a5,0x12
ffffffc05040b7f8:	8f3d                	xor	a4,a4,a5
ffffffc05040b7fa:	fa843783          	ld	a5,-88(s0)
ffffffc05040b7fe:	83b1                	srli	a5,a5,0xc
ffffffc05040b800:	8fb9                	xor	a5,a5,a4
ffffffc05040b802:	fcf43c23          	sd	a5,-40(s0)
ffffffc05040b806:	fa043503          	ld	a0,-96(s0)
ffffffc05040b80a:	c79fe0ef          	jal	ra,ffffffc05040a482 <pa2kva>
ffffffc05040b80e:	87aa                	mv	a5,a0
ffffffc05040b810:	fcf43823          	sd	a5,-48(s0)
ffffffc05040b814:	fe843783          	ld	a5,-24(s0)
ffffffc05040b818:	078e                	slli	a5,a5,0x3
ffffffc05040b81a:	fd043703          	ld	a4,-48(s0)
ffffffc05040b81e:	97ba                	add	a5,a5,a4
ffffffc05040b820:	639c                	ld	a5,0(a5)
ffffffc05040b822:	10078f63          	beqz	a5,ffffffc05040b940 <check_fork+0x192>
ffffffc05040b826:	fe843783          	ld	a5,-24(s0)
ffffffc05040b82a:	078e                	slli	a5,a5,0x3
ffffffc05040b82c:	fd043703          	ld	a4,-48(s0)
ffffffc05040b830:	97ba                	add	a5,a5,a4
ffffffc05040b832:	639c                	ld	a5,0(a5)
ffffffc05040b834:	853e                	mv	a0,a5
ffffffc05040b836:	c69fe0ef          	jal	ra,ffffffc05040a49e <get_pa>
ffffffc05040b83a:	87aa                	mv	a5,a0
ffffffc05040b83c:	853e                	mv	a0,a5
ffffffc05040b83e:	c45fe0ef          	jal	ra,ffffffc05040a482 <pa2kva>
ffffffc05040b842:	87aa                	mv	a5,a0
ffffffc05040b844:	fcf43423          	sd	a5,-56(s0)
ffffffc05040b848:	fe043783          	ld	a5,-32(s0)
ffffffc05040b84c:	078e                	slli	a5,a5,0x3
ffffffc05040b84e:	fc843703          	ld	a4,-56(s0)
ffffffc05040b852:	97ba                	add	a5,a5,a4
ffffffc05040b854:	639c                	ld	a5,0(a5)
ffffffc05040b856:	0e078563          	beqz	a5,ffffffc05040b940 <check_fork+0x192>
ffffffc05040b85a:	fe043783          	ld	a5,-32(s0)
ffffffc05040b85e:	078e                	slli	a5,a5,0x3
ffffffc05040b860:	fc843703          	ld	a4,-56(s0)
ffffffc05040b864:	97ba                	add	a5,a5,a4
ffffffc05040b866:	639c                	ld	a5,0(a5)
ffffffc05040b868:	853e                	mv	a0,a5
ffffffc05040b86a:	c35fe0ef          	jal	ra,ffffffc05040a49e <get_pa>
ffffffc05040b86e:	87aa                	mv	a5,a0
ffffffc05040b870:	853e                	mv	a0,a5
ffffffc05040b872:	c11fe0ef          	jal	ra,ffffffc05040a482 <pa2kva>
ffffffc05040b876:	87aa                	mv	a5,a0
ffffffc05040b878:	fcf43023          	sd	a5,-64(s0)
ffffffc05040b87c:	fd843783          	ld	a5,-40(s0)
ffffffc05040b880:	078e                	slli	a5,a5,0x3
ffffffc05040b882:	fc043703          	ld	a4,-64(s0)
ffffffc05040b886:	97ba                	add	a5,a5,a4
ffffffc05040b888:	639c                	ld	a5,0(a5)
ffffffc05040b88a:	8b85                	andi	a5,a5,1
ffffffc05040b88c:	cbd5                	beqz	a5,ffffffc05040b940 <check_fork+0x192>
ffffffc05040b88e:	fd843783          	ld	a5,-40(s0)
ffffffc05040b892:	078e                	slli	a5,a5,0x3
ffffffc05040b894:	fc043703          	ld	a4,-64(s0)
ffffffc05040b898:	97ba                	add	a5,a5,a4
ffffffc05040b89a:	639c                	ld	a5,0(a5)
ffffffc05040b89c:	853e                	mv	a0,a5
ffffffc05040b89e:	c01fe0ef          	jal	ra,ffffffc05040a49e <get_pa>
ffffffc05040b8a2:	faa43c23          	sd	a0,-72(s0)
ffffffc05040b8a6:	fb843703          	ld	a4,-72(s0)
ffffffc05040b8aa:	ae0007b7          	lui	a5,0xae000
ffffffc05040b8ae:	97ba                	add	a5,a5,a4
ffffffc05040b8b0:	83b1                	srli	a5,a5,0xc
ffffffc05040b8b2:	007f6717          	auipc	a4,0x7f6
ffffffc05040b8b6:	bce70713          	addi	a4,a4,-1074 # ffffffc050c01480 <fork_mem_shared>
ffffffc05040b8ba:	078a                	slli	a5,a5,0x2
ffffffc05040b8bc:	97ba                	add	a5,a5,a4
ffffffc05040b8be:	439c                	lw	a5,0(a5)
ffffffc05040b8c0:	c3b5                	beqz	a5,ffffffc05040b924 <check_fork+0x176>
ffffffc05040b8c2:	fb843703          	ld	a4,-72(s0)
ffffffc05040b8c6:	ae0007b7          	lui	a5,0xae000
ffffffc05040b8ca:	97ba                	add	a5,a5,a4
ffffffc05040b8cc:	83b1                	srli	a5,a5,0xc
ffffffc05040b8ce:	007f6697          	auipc	a3,0x7f6
ffffffc05040b8d2:	bb268693          	addi	a3,a3,-1102 # ffffffc050c01480 <fork_mem_shared>
ffffffc05040b8d6:	00279713          	slli	a4,a5,0x2
ffffffc05040b8da:	9736                	add	a4,a4,a3
ffffffc05040b8dc:	4318                	lw	a4,0(a4)
ffffffc05040b8de:	377d                	addiw	a4,a4,-1
ffffffc05040b8e0:	2701                	sext.w	a4,a4
ffffffc05040b8e2:	007f6697          	auipc	a3,0x7f6
ffffffc05040b8e6:	b9e68693          	addi	a3,a3,-1122 # ffffffc050c01480 <fork_mem_shared>
ffffffc05040b8ea:	078a                	slli	a5,a5,0x2
ffffffc05040b8ec:	97b6                	add	a5,a5,a3
ffffffc05040b8ee:	c398                	sw	a4,0(a5)
ffffffc05040b8f0:	4601                	li	a2,0
ffffffc05040b8f2:	fa043583          	ld	a1,-96(s0)
ffffffc05040b8f6:	fa843503          	ld	a0,-88(s0)
ffffffc05040b8fa:	052000ef          	jal	ra,ffffffc05040b94c <alloc_page_helper>
ffffffc05040b8fe:	faa43823          	sd	a0,-80(s0)
ffffffc05040b902:	fb843503          	ld	a0,-72(s0)
ffffffc05040b906:	b7dfe0ef          	jal	ra,ffffffc05040a482 <pa2kva>
ffffffc05040b90a:	87aa                	mv	a5,a0
ffffffc05040b90c:	6605                	lui	a2,0x1
ffffffc05040b90e:	85be                	mv	a1,a5
ffffffc05040b910:	fb043503          	ld	a0,-80(s0)
ffffffc05040b914:	426000ef          	jal	ra,ffffffc05040bd3a <kmemcpy>
ffffffc05040b918:	fb043503          	ld	a0,-80(s0)
ffffffc05040b91c:	b4bfe0ef          	jal	ra,ffffffc05040a466 <kva2pa>
ffffffc05040b920:	87aa                	mv	a5,a0
ffffffc05040b922:	a005                	j	ffffffc05040b942 <check_fork+0x194>
ffffffc05040b924:	fd843783          	ld	a5,-40(s0)
ffffffc05040b928:	078e                	slli	a5,a5,0x3
ffffffc05040b92a:	fc043703          	ld	a4,-64(s0)
ffffffc05040b92e:	97ba                	add	a5,a5,a4
ffffffc05040b930:	0df00593          	li	a1,223
ffffffc05040b934:	853e                	mv	a0,a5
ffffffc05040b936:	bbdfe0ef          	jal	ra,ffffffc05040a4f2 <set_attribute>
ffffffc05040b93a:	fb843783          	ld	a5,-72(s0)
ffffffc05040b93e:	a011                	j	ffffffc05040b942 <check_fork+0x194>
ffffffc05040b940:	4781                	li	a5,0
ffffffc05040b942:	853e                	mv	a0,a5
ffffffc05040b944:	60e6                	ld	ra,88(sp)
ffffffc05040b946:	6446                	ld	s0,80(sp)
ffffffc05040b948:	6125                	addi	sp,sp,96
ffffffc05040b94a:	8082                	ret

ffffffc05040b94c <alloc_page_helper>:
ffffffc05040b94c:	715d                	addi	sp,sp,-80
ffffffc05040b94e:	e486                	sd	ra,72(sp)
ffffffc05040b950:	e0a2                	sd	s0,64(sp)
ffffffc05040b952:	0880                	addi	s0,sp,80
ffffffc05040b954:	fca43423          	sd	a0,-56(s0)
ffffffc05040b958:	fcb43023          	sd	a1,-64(s0)
ffffffc05040b95c:	87b2                	mv	a5,a2
ffffffc05040b95e:	faf42e23          	sw	a5,-68(s0)
ffffffc05040b962:	fbc42783          	lw	a5,-68(s0)
ffffffc05040b966:	2781                	sext.w	a5,a5
ffffffc05040b968:	c395                	beqz	a5,ffffffc05040b98c <alloc_page_helper+0x40>
ffffffc05040b96a:	fc043583          	ld	a1,-64(s0)
ffffffc05040b96e:	fc843503          	ld	a0,-56(s0)
ffffffc05040b972:	e3dff0ef          	jal	ra,ffffffc05040b7ae <check_fork>
ffffffc05040b976:	fea43423          	sd	a0,-24(s0)
ffffffc05040b97a:	fe843783          	ld	a5,-24(s0)
ffffffc05040b97e:	c799                	beqz	a5,ffffffc05040b98c <alloc_page_helper+0x40>
ffffffc05040b980:	fe843503          	ld	a0,-24(s0)
ffffffc05040b984:	afffe0ef          	jal	ra,ffffffc05040a482 <pa2kva>
ffffffc05040b988:	87aa                	mv	a5,a0
ffffffc05040b98a:	a8b1                	j	ffffffc05040b9e6 <alloc_page_helper+0x9a>
ffffffc05040b98c:	fbc42783          	lw	a5,-68(s0)
ffffffc05040b990:	2781                	sext.w	a5,a5
ffffffc05040b992:	c38d                	beqz	a5,ffffffc05040b9b4 <alloc_page_helper+0x68>
ffffffc05040b994:	fc843503          	ld	a0,-56(s0)
ffffffc05040b998:	cffff0ef          	jal	ra,ffffffc05040b696 <check_replaced>
ffffffc05040b99c:	87aa                	mv	a5,a0
ffffffc05040b99e:	fef43023          	sd	a5,-32(s0)
ffffffc05040b9a2:	fe043783          	ld	a5,-32(s0)
ffffffc05040b9a6:	c799                	beqz	a5,ffffffc05040b9b4 <alloc_page_helper+0x68>
ffffffc05040b9a8:	fe043503          	ld	a0,-32(s0)
ffffffc05040b9ac:	ad7fe0ef          	jal	ra,ffffffc05040a482 <pa2kva>
ffffffc05040b9b0:	87aa                	mv	a5,a0
ffffffc05040b9b2:	a815                	j	ffffffc05040b9e6 <alloc_page_helper+0x9a>
ffffffc05040b9b4:	fbc42783          	lw	a5,-68(s0)
ffffffc05040b9b8:	85be                	mv	a1,a5
ffffffc05040b9ba:	4505                	li	a0,1
ffffffc05040b9bc:	de7fe0ef          	jal	ra,ffffffc05040a7a2 <allocPage>
ffffffc05040b9c0:	fca43c23          	sd	a0,-40(s0)
ffffffc05040b9c4:	fc043503          	ld	a0,-64(s0)
ffffffc05040b9c8:	abbfe0ef          	jal	ra,ffffffc05040a482 <pa2kva>
ffffffc05040b9cc:	87aa                	mv	a5,a0
ffffffc05040b9ce:	863e                	mv	a2,a5
ffffffc05040b9d0:	fd843583          	ld	a1,-40(s0)
ffffffc05040b9d4:	fc843503          	ld	a0,-56(s0)
ffffffc05040b9d8:	97bff0ef          	jal	ra,ffffffc05040b352 <map_page>
ffffffc05040b9dc:	fd843503          	ld	a0,-40(s0)
ffffffc05040b9e0:	aa3fe0ef          	jal	ra,ffffffc05040a482 <pa2kva>
ffffffc05040b9e4:	87aa                	mv	a5,a0
ffffffc05040b9e6:	853e                	mv	a0,a5
ffffffc05040b9e8:	60a6                	ld	ra,72(sp)
ffffffc05040b9ea:	6406                	ld	s0,64(sp)
ffffffc05040b9ec:	6161                	addi	sp,sp,80
ffffffc05040b9ee:	8082                	ret

ffffffc05040b9f0 <create_pt>:
ffffffc05040b9f0:	1101                	addi	sp,sp,-32
ffffffc05040b9f2:	ec06                	sd	ra,24(sp)
ffffffc05040b9f4:	e822                	sd	s0,16(sp)
ffffffc05040b9f6:	1000                	addi	s0,sp,32
ffffffc05040b9f8:	0001f797          	auipc	a5,0x1f
ffffffc05040b9fc:	e1878793          	addi	a5,a5,-488 # ffffffc05042a810 <ptCurr>
ffffffc05040ba00:	6398                	ld	a4,0(a5)
ffffffc05040ba02:	6785                	lui	a5,0x1
ffffffc05040ba04:	17fd                	addi	a5,a5,-1
ffffffc05040ba06:	973e                	add	a4,a4,a5
ffffffc05040ba08:	77fd                	lui	a5,0xfffff
ffffffc05040ba0a:	8ff9                	and	a5,a5,a4
ffffffc05040ba0c:	fef43023          	sd	a5,-32(s0)
ffffffc05040ba10:	fe042623          	sw	zero,-20(s0)
ffffffc05040ba14:	a09d                	j	ffffffc05040ba7a <create_pt+0x8a>
ffffffc05040ba16:	007f6717          	auipc	a4,0x7f6
ffffffc05040ba1a:	faa70713          	addi	a4,a4,-86 # ffffffc050c019c0 <pt_mem_occupied>
ffffffc05040ba1e:	fec42783          	lw	a5,-20(s0)
ffffffc05040ba22:	078a                	slli	a5,a5,0x2
ffffffc05040ba24:	97ba                	add	a5,a5,a4
ffffffc05040ba26:	439c                	lw	a5,0(a5)
ffffffc05040ba28:	e7a1                	bnez	a5,ffffffc05040ba70 <create_pt+0x80>
ffffffc05040ba2a:	007f6717          	auipc	a4,0x7f6
ffffffc05040ba2e:	f9670713          	addi	a4,a4,-106 # ffffffc050c019c0 <pt_mem_occupied>
ffffffc05040ba32:	fec42783          	lw	a5,-20(s0)
ffffffc05040ba36:	078a                	slli	a5,a5,0x2
ffffffc05040ba38:	97ba                	add	a5,a5,a4
ffffffc05040ba3a:	4705                	li	a4,1
ffffffc05040ba3c:	c398                	sw	a4,0(a5)
ffffffc05040ba3e:	fec42783          	lw	a5,-20(s0)
ffffffc05040ba42:	00c7979b          	slliw	a5,a5,0xc
ffffffc05040ba46:	2781                	sext.w	a5,a5
ffffffc05040ba48:	873e                	mv	a4,a5
ffffffc05040ba4a:	0001f797          	auipc	a5,0x1f
ffffffc05040ba4e:	dc678793          	addi	a5,a5,-570 # ffffffc05042a810 <ptCurr>
ffffffc05040ba52:	639c                	ld	a5,0(a5)
ffffffc05040ba54:	97ba                	add	a5,a5,a4
ffffffc05040ba56:	fef43023          	sd	a5,-32(s0)
ffffffc05040ba5a:	fe043503          	ld	a0,-32(s0)
ffffffc05040ba5e:	a25fe0ef          	jal	ra,ffffffc05040a482 <pa2kva>
ffffffc05040ba62:	87aa                	mv	a5,a0
ffffffc05040ba64:	853e                	mv	a0,a5
ffffffc05040ba66:	ac5fe0ef          	jal	ra,ffffffc05040a52a <clear_pgdir>
ffffffc05040ba6a:	fe043783          	ld	a5,-32(s0)
ffffffc05040ba6e:	a831                	j	ffffffc05040ba8a <create_pt+0x9a>
ffffffc05040ba70:	fec42783          	lw	a5,-20(s0)
ffffffc05040ba74:	2785                	addiw	a5,a5,1
ffffffc05040ba76:	fef42623          	sw	a5,-20(s0)
ffffffc05040ba7a:	fec42783          	lw	a5,-20(s0)
ffffffc05040ba7e:	0007871b          	sext.w	a4,a5
ffffffc05040ba82:	0ff00793          	li	a5,255
ffffffc05040ba86:	f8e7d8e3          	bge	a5,a4,ffffffc05040ba16 <create_pt+0x26>
ffffffc05040ba8a:	853e                	mv	a0,a5
ffffffc05040ba8c:	60e2                	ld	ra,24(sp)
ffffffc05040ba8e:	6442                	ld	s0,16(sp)
ffffffc05040ba90:	6105                	addi	sp,sp,32
ffffffc05040ba92:	8082                	ret

ffffffc05040ba94 <clean_and_rebuild>:
ffffffc05040ba94:	715d                	addi	sp,sp,-80
ffffffc05040ba96:	e486                	sd	ra,72(sp)
ffffffc05040ba98:	e0a2                	sd	s0,64(sp)
ffffffc05040ba9a:	0880                	addi	s0,sp,80
ffffffc05040ba9c:	faa43c23          	sd	a0,-72(s0)
ffffffc05040baa0:	fab43823          	sd	a1,-80(s0)
ffffffc05040baa4:	fb043703          	ld	a4,-80(s0)
ffffffc05040baa8:	57fd                	li	a5,-1
ffffffc05040baaa:	83e5                	srli	a5,a5,0x19
ffffffc05040baac:	8ff9                	and	a5,a5,a4
ffffffc05040baae:	faf43823          	sd	a5,-80(s0)
ffffffc05040bab2:	fb043783          	ld	a5,-80(s0)
ffffffc05040bab6:	83f9                	srli	a5,a5,0x1e
ffffffc05040bab8:	fef43423          	sd	a5,-24(s0)
ffffffc05040babc:	fe843783          	ld	a5,-24(s0)
ffffffc05040bac0:	00979713          	slli	a4,a5,0x9
ffffffc05040bac4:	fb043783          	ld	a5,-80(s0)
ffffffc05040bac8:	83d5                	srli	a5,a5,0x15
ffffffc05040baca:	8fb9                	xor	a5,a5,a4
ffffffc05040bacc:	fef43023          	sd	a5,-32(s0)
ffffffc05040bad0:	fb843503          	ld	a0,-72(s0)
ffffffc05040bad4:	9affe0ef          	jal	ra,ffffffc05040a482 <pa2kva>
ffffffc05040bad8:	87aa                	mv	a5,a0
ffffffc05040bada:	fcf43c23          	sd	a5,-40(s0)
ffffffc05040bade:	fe843783          	ld	a5,-24(s0)
ffffffc05040bae2:	078e                	slli	a5,a5,0x3
ffffffc05040bae4:	fd843703          	ld	a4,-40(s0)
ffffffc05040bae8:	97ba                	add	a5,a5,a4
ffffffc05040baea:	639c                	ld	a5,0(a5)
ffffffc05040baec:	cbb9                	beqz	a5,ffffffc05040bb42 <clean_and_rebuild+0xae>
ffffffc05040baee:	fe843783          	ld	a5,-24(s0)
ffffffc05040baf2:	078e                	slli	a5,a5,0x3
ffffffc05040baf4:	fd843703          	ld	a4,-40(s0)
ffffffc05040baf8:	97ba                	add	a5,a5,a4
ffffffc05040bafa:	639c                	ld	a5,0(a5)
ffffffc05040bafc:	853e                	mv	a0,a5
ffffffc05040bafe:	9a1fe0ef          	jal	ra,ffffffc05040a49e <get_pa>
ffffffc05040bb02:	87aa                	mv	a5,a0
ffffffc05040bb04:	853e                	mv	a0,a5
ffffffc05040bb06:	97dfe0ef          	jal	ra,ffffffc05040a482 <pa2kva>
ffffffc05040bb0a:	87aa                	mv	a5,a0
ffffffc05040bb0c:	fcf43823          	sd	a5,-48(s0)
ffffffc05040bb10:	fe043783          	ld	a5,-32(s0)
ffffffc05040bb14:	078e                	slli	a5,a5,0x3
ffffffc05040bb16:	fd043703          	ld	a4,-48(s0)
ffffffc05040bb1a:	97ba                	add	a5,a5,a4
ffffffc05040bb1c:	639c                	ld	a5,0(a5)
ffffffc05040bb1e:	8b85                	andi	a5,a5,1
ffffffc05040bb20:	cb89                	beqz	a5,ffffffc05040bb32 <clean_and_rebuild+0x9e>
ffffffc05040bb22:	fe043783          	ld	a5,-32(s0)
ffffffc05040bb26:	078e                	slli	a5,a5,0x3
ffffffc05040bb28:	fd043703          	ld	a4,-48(s0)
ffffffc05040bb2c:	97ba                	add	a5,a5,a4
ffffffc05040bb2e:	0007b023          	sd	zero,0(a5)
ffffffc05040bb32:	fe843783          	ld	a5,-24(s0)
ffffffc05040bb36:	078e                	slli	a5,a5,0x3
ffffffc05040bb38:	fd843703          	ld	a4,-40(s0)
ffffffc05040bb3c:	97ba                	add	a5,a5,a4
ffffffc05040bb3e:	0007b023          	sd	zero,0(a5)
ffffffc05040bb42:	fb043503          	ld	a0,-80(s0)
ffffffc05040bb46:	93dfe0ef          	jal	ra,ffffffc05040a482 <pa2kva>
ffffffc05040bb4a:	fca43423          	sd	a0,-56(s0)
ffffffc05040bb4e:	907fe0ef          	jal	ra,ffffffc05040a454 <local_flush_tlb_all>
ffffffc05040bb52:	4781                	li	a5,0
ffffffc05040bb54:	853e                	mv	a0,a5
ffffffc05040bb56:	60a6                	ld	ra,72(sp)
ffffffc05040bb58:	6406                	ld	s0,64(sp)
ffffffc05040bb5a:	6161                	addi	sp,sp,80
ffffffc05040bb5c:	8082                	ret

ffffffc05040bb5e <clean_direct_pg>:
ffffffc05040bb5e:	1101                	addi	sp,sp,-32
ffffffc05040bb60:	ec06                	sd	ra,24(sp)
ffffffc05040bb62:	e822                	sd	s0,16(sp)
ffffffc05040bb64:	1000                	addi	s0,sp,32
ffffffc05040bb66:	500007b7          	lui	a5,0x50000
ffffffc05040bb6a:	fef43423          	sd	a5,-24(s0)
ffffffc05040bb6e:	a005                	j	ffffffc05040bb8e <clean_direct_pg+0x30>
ffffffc05040bb70:	fe843583          	ld	a1,-24(s0)
ffffffc05040bb74:	5e000537          	lui	a0,0x5e000
ffffffc05040bb78:	f1dff0ef          	jal	ra,ffffffc05040ba94 <clean_and_rebuild>
ffffffc05040bb7c:	fe843703          	ld	a4,-24(s0)
ffffffc05040bb80:	000317b7          	lui	a5,0x31
ffffffc05040bb84:	d4078793          	addi	a5,a5,-704 # 30d40 <_start-0xffffffc0503cf2c0>
ffffffc05040bb88:	97ba                	add	a5,a5,a4
ffffffc05040bb8a:	fef43423          	sd	a5,-24(s0)
ffffffc05040bb8e:	fe843703          	ld	a4,-24(s0)
ffffffc05040bb92:	504007b7          	lui	a5,0x50400
ffffffc05040bb96:	fcf76de3          	bltu	a4,a5,ffffffc05040bb70 <clean_direct_pg+0x12>
ffffffc05040bb9a:	0001                	nop
ffffffc05040bb9c:	0001                	nop
ffffffc05040bb9e:	60e2                	ld	ra,24(sp)
ffffffc05040bba0:	6442                	ld	s0,16(sp)
ffffffc05040bba2:	6105                	addi	sp,sp,32
ffffffc05040bba4:	8082                	ret

ffffffc05040bba6 <local_flush_tlb_all>:
ffffffc05040bba6:	1141                	addi	sp,sp,-16
ffffffc05040bba8:	e422                	sd	s0,8(sp)
ffffffc05040bbaa:	0800                	addi	s0,sp,16
ffffffc05040bbac:	12000073          	sfence.vma
ffffffc05040bbb0:	0001                	nop
ffffffc05040bbb2:	6422                	ld	s0,8(sp)
ffffffc05040bbb4:	0141                	addi	sp,sp,16
ffffffc05040bbb6:	8082                	ret

ffffffc05040bbb8 <pa2kva>:
ffffffc05040bbb8:	1101                	addi	sp,sp,-32
ffffffc05040bbba:	ec22                	sd	s0,24(sp)
ffffffc05040bbbc:	1000                	addi	s0,sp,32
ffffffc05040bbbe:	fea43423          	sd	a0,-24(s0)
ffffffc05040bbc2:	fe843703          	ld	a4,-24(s0)
ffffffc05040bbc6:	57fd                	li	a5,-1
ffffffc05040bbc8:	179a                	slli	a5,a5,0x26
ffffffc05040bbca:	97ba                	add	a5,a5,a4
ffffffc05040bbcc:	853e                	mv	a0,a5
ffffffc05040bbce:	6462                	ld	s0,24(sp)
ffffffc05040bbd0:	6105                	addi	sp,sp,32
ffffffc05040bbd2:	8082                	ret

ffffffc05040bbd4 <ioremap>:
ffffffc05040bbd4:	7179                	addi	sp,sp,-48
ffffffc05040bbd6:	f406                	sd	ra,40(sp)
ffffffc05040bbd8:	f022                	sd	s0,32(sp)
ffffffc05040bbda:	1800                	addi	s0,sp,48
ffffffc05040bbdc:	fca43c23          	sd	a0,-40(s0)
ffffffc05040bbe0:	fcb43823          	sd	a1,-48(s0)
ffffffc05040bbe4:	0001f797          	auipc	a5,0x1f
ffffffc05040bbe8:	c7478793          	addi	a5,a5,-908 # ffffffc05042a858 <map_count>
ffffffc05040bbec:	639c                	ld	a5,0(a5)
ffffffc05040bbee:	fef43423          	sd	a5,-24(s0)
ffffffc05040bbf2:	a0a5                	j	ffffffc05040bc5a <ioremap+0x86>
ffffffc05040bbf4:	0001f797          	auipc	a5,0x1f
ffffffc05040bbf8:	c6478793          	addi	a5,a5,-924 # ffffffc05042a858 <map_count>
ffffffc05040bbfc:	639c                	ld	a5,0(a5)
ffffffc05040bbfe:	00c79713          	slli	a4,a5,0xc
ffffffc05040bc02:	0001f797          	auipc	a5,0x1f
ffffffc05040bc06:	c1678793          	addi	a5,a5,-1002 # ffffffc05042a818 <io_base>
ffffffc05040bc0a:	639c                	ld	a5,0(a5)
ffffffc05040bc0c:	97ba                	add	a5,a5,a4
ffffffc05040bc0e:	fef43023          	sd	a5,-32(s0)
ffffffc05040bc12:	0001f797          	auipc	a5,0x1f
ffffffc05040bc16:	c4678793          	addi	a5,a5,-954 # ffffffc05042a858 <map_count>
ffffffc05040bc1a:	639c                	ld	a5,0(a5)
ffffffc05040bc1c:	00178713          	addi	a4,a5,1
ffffffc05040bc20:	0001f797          	auipc	a5,0x1f
ffffffc05040bc24:	c3878793          	addi	a5,a5,-968 # ffffffc05042a858 <map_count>
ffffffc05040bc28:	e398                	sd	a4,0(a5)
ffffffc05040bc2a:	5e000537          	lui	a0,0x5e000
ffffffc05040bc2e:	f8bff0ef          	jal	ra,ffffffc05040bbb8 <pa2kva>
ffffffc05040bc32:	87aa                	mv	a5,a0
ffffffc05040bc34:	863e                	mv	a2,a5
ffffffc05040bc36:	fd843583          	ld	a1,-40(s0)
ffffffc05040bc3a:	fe043503          	ld	a0,-32(s0)
ffffffc05040bc3e:	877ff0ef          	jal	ra,ffffffc05040b4b4 <map_net_page>
ffffffc05040bc42:	fd043703          	ld	a4,-48(s0)
ffffffc05040bc46:	77fd                	lui	a5,0xfffff
ffffffc05040bc48:	97ba                	add	a5,a5,a4
ffffffc05040bc4a:	fcf43823          	sd	a5,-48(s0)
ffffffc05040bc4e:	fd843703          	ld	a4,-40(s0)
ffffffc05040bc52:	6785                	lui	a5,0x1
ffffffc05040bc54:	97ba                	add	a5,a5,a4
ffffffc05040bc56:	fcf43c23          	sd	a5,-40(s0)
ffffffc05040bc5a:	fd043783          	ld	a5,-48(s0)
ffffffc05040bc5e:	fbd9                	bnez	a5,ffffffc05040bbf4 <ioremap+0x20>
ffffffc05040bc60:	f47ff0ef          	jal	ra,ffffffc05040bba6 <local_flush_tlb_all>
ffffffc05040bc64:	fe843783          	ld	a5,-24(s0)
ffffffc05040bc68:	00c79713          	slli	a4,a5,0xc
ffffffc05040bc6c:	0001f797          	auipc	a5,0x1f
ffffffc05040bc70:	bac78793          	addi	a5,a5,-1108 # ffffffc05042a818 <io_base>
ffffffc05040bc74:	639c                	ld	a5,0(a5)
ffffffc05040bc76:	97ba                	add	a5,a5,a4
ffffffc05040bc78:	853e                	mv	a0,a5
ffffffc05040bc7a:	70a2                	ld	ra,40(sp)
ffffffc05040bc7c:	7402                	ld	s0,32(sp)
ffffffc05040bc7e:	6145                	addi	sp,sp,48
ffffffc05040bc80:	8082                	ret

ffffffc05040bc82 <iounmap>:
ffffffc05040bc82:	1101                	addi	sp,sp,-32
ffffffc05040bc84:	ec22                	sd	s0,24(sp)
ffffffc05040bc86:	1000                	addi	s0,sp,32
ffffffc05040bc88:	fea43423          	sd	a0,-24(s0)
ffffffc05040bc8c:	0001                	nop
ffffffc05040bc8e:	6462                	ld	s0,24(sp)
ffffffc05040bc90:	6105                	addi	sp,sp,32
ffffffc05040bc92:	8082                	ret

ffffffc05040bc94 <handle_syscall>:
ffffffc05040bc94:	7179                	addi	sp,sp,-48
ffffffc05040bc96:	f406                	sd	ra,40(sp)
ffffffc05040bc98:	f022                	sd	s0,32(sp)
ffffffc05040bc9a:	1800                	addi	s0,sp,48
ffffffc05040bc9c:	fea43423          	sd	a0,-24(s0)
ffffffc05040bca0:	feb43023          	sd	a1,-32(s0)
ffffffc05040bca4:	fcc43c23          	sd	a2,-40(s0)
ffffffc05040bca8:	fe843783          	ld	a5,-24(s0)
ffffffc05040bcac:	1087b783          	ld	a5,264(a5)
ffffffc05040bcb0:	00478713          	addi	a4,a5,4
ffffffc05040bcb4:	fe843783          	ld	a5,-24(s0)
ffffffc05040bcb8:	10e7b423          	sd	a4,264(a5)
ffffffc05040bcbc:	fe843783          	ld	a5,-24(s0)
ffffffc05040bcc0:	67dc                	ld	a5,136(a5)
ffffffc05040bcc2:	007f6717          	auipc	a4,0x7f6
ffffffc05040bcc6:	73e70713          	addi	a4,a4,1854 # ffffffc050c02400 <syscall>
ffffffc05040bcca:	078e                	slli	a5,a5,0x3
ffffffc05040bccc:	97ba                	add	a5,a5,a4
ffffffc05040bcce:	0007b803          	ld	a6,0(a5)
ffffffc05040bcd2:	fe843783          	ld	a5,-24(s0)
ffffffc05040bcd6:	6bb8                	ld	a4,80(a5)
ffffffc05040bcd8:	fe843783          	ld	a5,-24(s0)
ffffffc05040bcdc:	6fac                	ld	a1,88(a5)
ffffffc05040bcde:	fe843783          	ld	a5,-24(s0)
ffffffc05040bce2:	73b0                	ld	a2,96(a5)
ffffffc05040bce4:	fe843783          	ld	a5,-24(s0)
ffffffc05040bce8:	77bc                	ld	a5,104(a5)
ffffffc05040bcea:	86be                	mv	a3,a5
ffffffc05040bcec:	853a                	mv	a0,a4
ffffffc05040bcee:	9802                	jalr	a6
ffffffc05040bcf0:	87aa                	mv	a5,a0
ffffffc05040bcf2:	873e                	mv	a4,a5
ffffffc05040bcf4:	fe843783          	ld	a5,-24(s0)
ffffffc05040bcf8:	ebb8                	sd	a4,80(a5)
ffffffc05040bcfa:	0001                	nop
ffffffc05040bcfc:	70a2                	ld	ra,40(sp)
ffffffc05040bcfe:	7402                	ld	s0,32(sp)
ffffffc05040bd00:	6145                	addi	sp,sp,48
ffffffc05040bd02:	8082                	ret

ffffffc05040bd04 <kstrlen>:
ffffffc05040bd04:	7179                	addi	sp,sp,-48
ffffffc05040bd06:	f422                	sd	s0,40(sp)
ffffffc05040bd08:	1800                	addi	s0,sp,48
ffffffc05040bd0a:	fca43c23          	sd	a0,-40(s0)
ffffffc05040bd0e:	fe042623          	sw	zero,-20(s0)
ffffffc05040bd12:	a031                	j	ffffffc05040bd1e <kstrlen+0x1a>
ffffffc05040bd14:	fec42783          	lw	a5,-20(s0)
ffffffc05040bd18:	2785                	addiw	a5,a5,1
ffffffc05040bd1a:	fef42623          	sw	a5,-20(s0)
ffffffc05040bd1e:	fec42783          	lw	a5,-20(s0)
ffffffc05040bd22:	fd843703          	ld	a4,-40(s0)
ffffffc05040bd26:	97ba                	add	a5,a5,a4
ffffffc05040bd28:	0007c783          	lbu	a5,0(a5)
ffffffc05040bd2c:	f7e5                	bnez	a5,ffffffc05040bd14 <kstrlen+0x10>
ffffffc05040bd2e:	fec42783          	lw	a5,-20(s0)
ffffffc05040bd32:	853e                	mv	a0,a5
ffffffc05040bd34:	7422                	ld	s0,40(sp)
ffffffc05040bd36:	6145                	addi	sp,sp,48
ffffffc05040bd38:	8082                	ret

ffffffc05040bd3a <kmemcpy>:
ffffffc05040bd3a:	7179                	addi	sp,sp,-48
ffffffc05040bd3c:	f422                	sd	s0,40(sp)
ffffffc05040bd3e:	1800                	addi	s0,sp,48
ffffffc05040bd40:	fea43423          	sd	a0,-24(s0)
ffffffc05040bd44:	feb43023          	sd	a1,-32(s0)
ffffffc05040bd48:	87b2                	mv	a5,a2
ffffffc05040bd4a:	fcf42e23          	sw	a5,-36(s0)
ffffffc05040bd4e:	a035                	j	ffffffc05040bd7a <kmemcpy+0x40>
ffffffc05040bd50:	fe043703          	ld	a4,-32(s0)
ffffffc05040bd54:	00170793          	addi	a5,a4,1
ffffffc05040bd58:	fef43023          	sd	a5,-32(s0)
ffffffc05040bd5c:	fe843783          	ld	a5,-24(s0)
ffffffc05040bd60:	00178693          	addi	a3,a5,1
ffffffc05040bd64:	fed43423          	sd	a3,-24(s0)
ffffffc05040bd68:	00074703          	lbu	a4,0(a4)
ffffffc05040bd6c:	00e78023          	sb	a4,0(a5)
ffffffc05040bd70:	fdc42783          	lw	a5,-36(s0)
ffffffc05040bd74:	37fd                	addiw	a5,a5,-1
ffffffc05040bd76:	fcf42e23          	sw	a5,-36(s0)
ffffffc05040bd7a:	fdc42783          	lw	a5,-36(s0)
ffffffc05040bd7e:	2781                	sext.w	a5,a5
ffffffc05040bd80:	fbe1                	bnez	a5,ffffffc05040bd50 <kmemcpy+0x16>
ffffffc05040bd82:	0001                	nop
ffffffc05040bd84:	0001                	nop
ffffffc05040bd86:	7422                	ld	s0,40(sp)
ffffffc05040bd88:	6145                	addi	sp,sp,48
ffffffc05040bd8a:	8082                	ret

ffffffc05040bd8c <memcpy>:
ffffffc05040bd8c:	7179                	addi	sp,sp,-48
ffffffc05040bd8e:	f422                	sd	s0,40(sp)
ffffffc05040bd90:	1800                	addi	s0,sp,48
ffffffc05040bd92:	fea43423          	sd	a0,-24(s0)
ffffffc05040bd96:	feb43023          	sd	a1,-32(s0)
ffffffc05040bd9a:	87b2                	mv	a5,a2
ffffffc05040bd9c:	fcf42e23          	sw	a5,-36(s0)
ffffffc05040bda0:	a035                	j	ffffffc05040bdcc <memcpy+0x40>
ffffffc05040bda2:	fe043703          	ld	a4,-32(s0)
ffffffc05040bda6:	00170793          	addi	a5,a4,1
ffffffc05040bdaa:	fef43023          	sd	a5,-32(s0)
ffffffc05040bdae:	fe843783          	ld	a5,-24(s0)
ffffffc05040bdb2:	00178693          	addi	a3,a5,1
ffffffc05040bdb6:	fed43423          	sd	a3,-24(s0)
ffffffc05040bdba:	00074703          	lbu	a4,0(a4)
ffffffc05040bdbe:	00e78023          	sb	a4,0(a5)
ffffffc05040bdc2:	fdc42783          	lw	a5,-36(s0)
ffffffc05040bdc6:	37fd                	addiw	a5,a5,-1
ffffffc05040bdc8:	fcf42e23          	sw	a5,-36(s0)
ffffffc05040bdcc:	fdc42783          	lw	a5,-36(s0)
ffffffc05040bdd0:	2781                	sext.w	a5,a5
ffffffc05040bdd2:	fbe1                	bnez	a5,ffffffc05040bda2 <memcpy+0x16>
ffffffc05040bdd4:	0001                	nop
ffffffc05040bdd6:	0001                	nop
ffffffc05040bdd8:	7422                	ld	s0,40(sp)
ffffffc05040bdda:	6145                	addi	sp,sp,48
ffffffc05040bddc:	8082                	ret

ffffffc05040bdde <kmemset>:
ffffffc05040bdde:	7179                	addi	sp,sp,-48
ffffffc05040bde0:	f422                	sd	s0,40(sp)
ffffffc05040bde2:	1800                	addi	s0,sp,48
ffffffc05040bde4:	fca43c23          	sd	a0,-40(s0)
ffffffc05040bde8:	87ae                	mv	a5,a1
ffffffc05040bdea:	8732                	mv	a4,a2
ffffffc05040bdec:	fcf40ba3          	sb	a5,-41(s0)
ffffffc05040bdf0:	87ba                	mv	a5,a4
ffffffc05040bdf2:	fcf42823          	sw	a5,-48(s0)
ffffffc05040bdf6:	fd843783          	ld	a5,-40(s0)
ffffffc05040bdfa:	fef43423          	sd	a5,-24(s0)
ffffffc05040bdfe:	a005                	j	ffffffc05040be1e <kmemset+0x40>
ffffffc05040be00:	fe843783          	ld	a5,-24(s0)
ffffffc05040be04:	00178713          	addi	a4,a5,1
ffffffc05040be08:	fee43423          	sd	a4,-24(s0)
ffffffc05040be0c:	fd744703          	lbu	a4,-41(s0)
ffffffc05040be10:	00e78023          	sb	a4,0(a5)
ffffffc05040be14:	fd042783          	lw	a5,-48(s0)
ffffffc05040be18:	37fd                	addiw	a5,a5,-1
ffffffc05040be1a:	fcf42823          	sw	a5,-48(s0)
ffffffc05040be1e:	fd042783          	lw	a5,-48(s0)
ffffffc05040be22:	2781                	sext.w	a5,a5
ffffffc05040be24:	fff1                	bnez	a5,ffffffc05040be00 <kmemset+0x22>
ffffffc05040be26:	0001                	nop
ffffffc05040be28:	0001                	nop
ffffffc05040be2a:	7422                	ld	s0,40(sp)
ffffffc05040be2c:	6145                	addi	sp,sp,48
ffffffc05040be2e:	8082                	ret

ffffffc05040be30 <memset>:
ffffffc05040be30:	7179                	addi	sp,sp,-48
ffffffc05040be32:	f422                	sd	s0,40(sp)
ffffffc05040be34:	1800                	addi	s0,sp,48
ffffffc05040be36:	fca43c23          	sd	a0,-40(s0)
ffffffc05040be3a:	87ae                	mv	a5,a1
ffffffc05040be3c:	8732                	mv	a4,a2
ffffffc05040be3e:	fcf40ba3          	sb	a5,-41(s0)
ffffffc05040be42:	87ba                	mv	a5,a4
ffffffc05040be44:	fcf42823          	sw	a5,-48(s0)
ffffffc05040be48:	fd843783          	ld	a5,-40(s0)
ffffffc05040be4c:	fef43423          	sd	a5,-24(s0)
ffffffc05040be50:	a005                	j	ffffffc05040be70 <memset+0x40>
ffffffc05040be52:	fe843783          	ld	a5,-24(s0)
ffffffc05040be56:	00178713          	addi	a4,a5,1
ffffffc05040be5a:	fee43423          	sd	a4,-24(s0)
ffffffc05040be5e:	fd744703          	lbu	a4,-41(s0)
ffffffc05040be62:	00e78023          	sb	a4,0(a5)
ffffffc05040be66:	fd042783          	lw	a5,-48(s0)
ffffffc05040be6a:	37fd                	addiw	a5,a5,-1
ffffffc05040be6c:	fcf42823          	sw	a5,-48(s0)
ffffffc05040be70:	fd042783          	lw	a5,-48(s0)
ffffffc05040be74:	2781                	sext.w	a5,a5
ffffffc05040be76:	fff1                	bnez	a5,ffffffc05040be52 <memset+0x22>
ffffffc05040be78:	0001                	nop
ffffffc05040be7a:	0001                	nop
ffffffc05040be7c:	7422                	ld	s0,40(sp)
ffffffc05040be7e:	6145                	addi	sp,sp,48
ffffffc05040be80:	8082                	ret

ffffffc05040be82 <kbzero>:
ffffffc05040be82:	1101                	addi	sp,sp,-32
ffffffc05040be84:	ec06                	sd	ra,24(sp)
ffffffc05040be86:	e822                	sd	s0,16(sp)
ffffffc05040be88:	1000                	addi	s0,sp,32
ffffffc05040be8a:	fea43423          	sd	a0,-24(s0)
ffffffc05040be8e:	87ae                	mv	a5,a1
ffffffc05040be90:	fef42223          	sw	a5,-28(s0)
ffffffc05040be94:	fe442783          	lw	a5,-28(s0)
ffffffc05040be98:	863e                	mv	a2,a5
ffffffc05040be9a:	4581                	li	a1,0
ffffffc05040be9c:	fe843503          	ld	a0,-24(s0)
ffffffc05040bea0:	f3fff0ef          	jal	ra,ffffffc05040bdde <kmemset>
ffffffc05040bea4:	0001                	nop
ffffffc05040bea6:	60e2                	ld	ra,24(sp)
ffffffc05040bea8:	6442                	ld	s0,16(sp)
ffffffc05040beaa:	6105                	addi	sp,sp,32
ffffffc05040beac:	8082                	ret

ffffffc05040beae <kstrcmp>:
ffffffc05040beae:	1101                	addi	sp,sp,-32
ffffffc05040beb0:	ec22                	sd	s0,24(sp)
ffffffc05040beb2:	1000                	addi	s0,sp,32
ffffffc05040beb4:	fea43423          	sd	a0,-24(s0)
ffffffc05040beb8:	feb43023          	sd	a1,-32(s0)
ffffffc05040bebc:	a0a1                	j	ffffffc05040bf04 <kstrcmp+0x56>
ffffffc05040bebe:	fe843783          	ld	a5,-24(s0)
ffffffc05040bec2:	0007c703          	lbu	a4,0(a5)
ffffffc05040bec6:	fe043783          	ld	a5,-32(s0)
ffffffc05040beca:	0007c783          	lbu	a5,0(a5)
ffffffc05040bece:	02f70163          	beq	a4,a5,ffffffc05040bef0 <kstrcmp+0x42>
ffffffc05040bed2:	fe843783          	ld	a5,-24(s0)
ffffffc05040bed6:	0007c783          	lbu	a5,0(a5)
ffffffc05040beda:	0007871b          	sext.w	a4,a5
ffffffc05040bede:	fe043783          	ld	a5,-32(s0)
ffffffc05040bee2:	0007c783          	lbu	a5,0(a5)
ffffffc05040bee6:	2781                	sext.w	a5,a5
ffffffc05040bee8:	40f707bb          	subw	a5,a4,a5
ffffffc05040beec:	2781                	sext.w	a5,a5
ffffffc05040beee:	a099                	j	ffffffc05040bf34 <kstrcmp+0x86>
ffffffc05040bef0:	fe843783          	ld	a5,-24(s0)
ffffffc05040bef4:	0785                	addi	a5,a5,1
ffffffc05040bef6:	fef43423          	sd	a5,-24(s0)
ffffffc05040befa:	fe043783          	ld	a5,-32(s0)
ffffffc05040befe:	0785                	addi	a5,a5,1
ffffffc05040bf00:	fef43023          	sd	a5,-32(s0)
ffffffc05040bf04:	fe843783          	ld	a5,-24(s0)
ffffffc05040bf08:	0007c783          	lbu	a5,0(a5)
ffffffc05040bf0c:	c791                	beqz	a5,ffffffc05040bf18 <kstrcmp+0x6a>
ffffffc05040bf0e:	fe043783          	ld	a5,-32(s0)
ffffffc05040bf12:	0007c783          	lbu	a5,0(a5)
ffffffc05040bf16:	f7c5                	bnez	a5,ffffffc05040bebe <kstrcmp+0x10>
ffffffc05040bf18:	fe843783          	ld	a5,-24(s0)
ffffffc05040bf1c:	0007c783          	lbu	a5,0(a5)
ffffffc05040bf20:	0007871b          	sext.w	a4,a5
ffffffc05040bf24:	fe043783          	ld	a5,-32(s0)
ffffffc05040bf28:	0007c783          	lbu	a5,0(a5)
ffffffc05040bf2c:	2781                	sext.w	a5,a5
ffffffc05040bf2e:	40f707bb          	subw	a5,a4,a5
ffffffc05040bf32:	2781                	sext.w	a5,a5
ffffffc05040bf34:	853e                	mv	a0,a5
ffffffc05040bf36:	6462                	ld	s0,24(sp)
ffffffc05040bf38:	6105                	addi	sp,sp,32
ffffffc05040bf3a:	8082                	ret

ffffffc05040bf3c <strcmp>:
ffffffc05040bf3c:	1101                	addi	sp,sp,-32
ffffffc05040bf3e:	ec22                	sd	s0,24(sp)
ffffffc05040bf40:	1000                	addi	s0,sp,32
ffffffc05040bf42:	fea43423          	sd	a0,-24(s0)
ffffffc05040bf46:	feb43023          	sd	a1,-32(s0)
ffffffc05040bf4a:	a0a1                	j	ffffffc05040bf92 <strcmp+0x56>
ffffffc05040bf4c:	fe843783          	ld	a5,-24(s0)
ffffffc05040bf50:	0007c703          	lbu	a4,0(a5)
ffffffc05040bf54:	fe043783          	ld	a5,-32(s0)
ffffffc05040bf58:	0007c783          	lbu	a5,0(a5)
ffffffc05040bf5c:	02f70163          	beq	a4,a5,ffffffc05040bf7e <strcmp+0x42>
ffffffc05040bf60:	fe843783          	ld	a5,-24(s0)
ffffffc05040bf64:	0007c783          	lbu	a5,0(a5)
ffffffc05040bf68:	0007871b          	sext.w	a4,a5
ffffffc05040bf6c:	fe043783          	ld	a5,-32(s0)
ffffffc05040bf70:	0007c783          	lbu	a5,0(a5)
ffffffc05040bf74:	2781                	sext.w	a5,a5
ffffffc05040bf76:	40f707bb          	subw	a5,a4,a5
ffffffc05040bf7a:	2781                	sext.w	a5,a5
ffffffc05040bf7c:	a099                	j	ffffffc05040bfc2 <strcmp+0x86>
ffffffc05040bf7e:	fe843783          	ld	a5,-24(s0)
ffffffc05040bf82:	0785                	addi	a5,a5,1
ffffffc05040bf84:	fef43423          	sd	a5,-24(s0)
ffffffc05040bf88:	fe043783          	ld	a5,-32(s0)
ffffffc05040bf8c:	0785                	addi	a5,a5,1
ffffffc05040bf8e:	fef43023          	sd	a5,-32(s0)
ffffffc05040bf92:	fe843783          	ld	a5,-24(s0)
ffffffc05040bf96:	0007c783          	lbu	a5,0(a5)
ffffffc05040bf9a:	c791                	beqz	a5,ffffffc05040bfa6 <strcmp+0x6a>
ffffffc05040bf9c:	fe043783          	ld	a5,-32(s0)
ffffffc05040bfa0:	0007c783          	lbu	a5,0(a5)
ffffffc05040bfa4:	f7c5                	bnez	a5,ffffffc05040bf4c <strcmp+0x10>
ffffffc05040bfa6:	fe843783          	ld	a5,-24(s0)
ffffffc05040bfaa:	0007c783          	lbu	a5,0(a5)
ffffffc05040bfae:	0007871b          	sext.w	a4,a5
ffffffc05040bfb2:	fe043783          	ld	a5,-32(s0)
ffffffc05040bfb6:	0007c783          	lbu	a5,0(a5)
ffffffc05040bfba:	2781                	sext.w	a5,a5
ffffffc05040bfbc:	40f707bb          	subw	a5,a4,a5
ffffffc05040bfc0:	2781                	sext.w	a5,a5
ffffffc05040bfc2:	853e                	mv	a0,a5
ffffffc05040bfc4:	6462                	ld	s0,24(sp)
ffffffc05040bfc6:	6105                	addi	sp,sp,32
ffffffc05040bfc8:	8082                	ret

ffffffc05040bfca <kstrcpy>:
ffffffc05040bfca:	7179                	addi	sp,sp,-48
ffffffc05040bfcc:	f422                	sd	s0,40(sp)
ffffffc05040bfce:	1800                	addi	s0,sp,48
ffffffc05040bfd0:	fca43c23          	sd	a0,-40(s0)
ffffffc05040bfd4:	fcb43823          	sd	a1,-48(s0)
ffffffc05040bfd8:	fd843783          	ld	a5,-40(s0)
ffffffc05040bfdc:	fef43423          	sd	a5,-24(s0)
ffffffc05040bfe0:	a00d                	j	ffffffc05040c002 <kstrcpy+0x38>
ffffffc05040bfe2:	fd043703          	ld	a4,-48(s0)
ffffffc05040bfe6:	00170793          	addi	a5,a4,1
ffffffc05040bfea:	fcf43823          	sd	a5,-48(s0)
ffffffc05040bfee:	fd843783          	ld	a5,-40(s0)
ffffffc05040bff2:	00178693          	addi	a3,a5,1
ffffffc05040bff6:	fcd43c23          	sd	a3,-40(s0)
ffffffc05040bffa:	00074703          	lbu	a4,0(a4)
ffffffc05040bffe:	00e78023          	sb	a4,0(a5)
ffffffc05040c002:	fd043783          	ld	a5,-48(s0)
ffffffc05040c006:	0007c783          	lbu	a5,0(a5)
ffffffc05040c00a:	ffe1                	bnez	a5,ffffffc05040bfe2 <kstrcpy+0x18>
ffffffc05040c00c:	fd843783          	ld	a5,-40(s0)
ffffffc05040c010:	00078023          	sb	zero,0(a5)
ffffffc05040c014:	fe843783          	ld	a5,-24(s0)
ffffffc05040c018:	853e                	mv	a0,a5
ffffffc05040c01a:	7422                	ld	s0,40(sp)
ffffffc05040c01c:	6145                	addi	sp,sp,48
ffffffc05040c01e:	8082                	ret

ffffffc05040c020 <kstrcat>:
ffffffc05040c020:	7179                	addi	sp,sp,-48
ffffffc05040c022:	f422                	sd	s0,40(sp)
ffffffc05040c024:	1800                	addi	s0,sp,48
ffffffc05040c026:	fca43c23          	sd	a0,-40(s0)
ffffffc05040c02a:	fcb43823          	sd	a1,-48(s0)
ffffffc05040c02e:	fd843783          	ld	a5,-40(s0)
ffffffc05040c032:	fef43423          	sd	a5,-24(s0)
ffffffc05040c036:	a031                	j	ffffffc05040c042 <kstrcat+0x22>
ffffffc05040c038:	fd843783          	ld	a5,-40(s0)
ffffffc05040c03c:	0785                	addi	a5,a5,1
ffffffc05040c03e:	fcf43c23          	sd	a5,-40(s0)
ffffffc05040c042:	fd843783          	ld	a5,-40(s0)
ffffffc05040c046:	0007c783          	lbu	a5,0(a5)
ffffffc05040c04a:	f7fd                	bnez	a5,ffffffc05040c038 <kstrcat+0x18>
ffffffc05040c04c:	a00d                	j	ffffffc05040c06e <kstrcat+0x4e>
ffffffc05040c04e:	fd043703          	ld	a4,-48(s0)
ffffffc05040c052:	00170793          	addi	a5,a4,1
ffffffc05040c056:	fcf43823          	sd	a5,-48(s0)
ffffffc05040c05a:	fd843783          	ld	a5,-40(s0)
ffffffc05040c05e:	00178693          	addi	a3,a5,1
ffffffc05040c062:	fcd43c23          	sd	a3,-40(s0)
ffffffc05040c066:	00074703          	lbu	a4,0(a4)
ffffffc05040c06a:	00e78023          	sb	a4,0(a5)
ffffffc05040c06e:	fd043783          	ld	a5,-48(s0)
ffffffc05040c072:	0007c783          	lbu	a5,0(a5)
ffffffc05040c076:	ffe1                	bnez	a5,ffffffc05040c04e <kstrcat+0x2e>
ffffffc05040c078:	fd843783          	ld	a5,-40(s0)
ffffffc05040c07c:	00078023          	sb	zero,0(a5)
ffffffc05040c080:	fe843783          	ld	a5,-24(s0)
ffffffc05040c084:	853e                	mv	a0,a5
ffffffc05040c086:	7422                	ld	s0,40(sp)
ffffffc05040c088:	6145                	addi	sp,sp,48
ffffffc05040c08a:	8082                	ret

ffffffc05040c08c <mini_strlen>:
ffffffc05040c08c:	7179                	addi	sp,sp,-48
ffffffc05040c08e:	f422                	sd	s0,40(sp)
ffffffc05040c090:	1800                	addi	s0,sp,48
ffffffc05040c092:	fca43c23          	sd	a0,-40(s0)
ffffffc05040c096:	fe042623          	sw	zero,-20(s0)
ffffffc05040c09a:	a031                	j	ffffffc05040c0a6 <mini_strlen+0x1a>
ffffffc05040c09c:	fec42783          	lw	a5,-20(s0)
ffffffc05040c0a0:	2785                	addiw	a5,a5,1
ffffffc05040c0a2:	fef42623          	sw	a5,-20(s0)
ffffffc05040c0a6:	fec46783          	lwu	a5,-20(s0)
ffffffc05040c0aa:	fd843703          	ld	a4,-40(s0)
ffffffc05040c0ae:	97ba                	add	a5,a5,a4
ffffffc05040c0b0:	0007c783          	lbu	a5,0(a5)
ffffffc05040c0b4:	f7e5                	bnez	a5,ffffffc05040c09c <mini_strlen+0x10>
ffffffc05040c0b6:	fec42783          	lw	a5,-20(s0)
ffffffc05040c0ba:	853e                	mv	a0,a5
ffffffc05040c0bc:	7422                	ld	s0,40(sp)
ffffffc05040c0be:	6145                	addi	sp,sp,48
ffffffc05040c0c0:	8082                	ret

ffffffc05040c0c2 <mini_itoa>:
ffffffc05040c0c2:	715d                	addi	sp,sp,-80
ffffffc05040c0c4:	e4a2                	sd	s0,72(sp)
ffffffc05040c0c6:	0880                	addi	s0,sp,80
ffffffc05040c0c8:	fca43423          	sd	a0,-56(s0)
ffffffc05040c0cc:	fae43823          	sd	a4,-80(s0)
ffffffc05040c0d0:	873e                	mv	a4,a5
ffffffc05040c0d2:	87ae                	mv	a5,a1
ffffffc05040c0d4:	fcf42223          	sw	a5,-60(s0)
ffffffc05040c0d8:	87b2                	mv	a5,a2
ffffffc05040c0da:	fcf42023          	sw	a5,-64(s0)
ffffffc05040c0de:	87b6                	mv	a5,a3
ffffffc05040c0e0:	faf42e23          	sw	a5,-68(s0)
ffffffc05040c0e4:	87ba                	mv	a5,a4
ffffffc05040c0e6:	faf42c23          	sw	a5,-72(s0)
ffffffc05040c0ea:	fb043783          	ld	a5,-80(s0)
ffffffc05040c0ee:	fef43423          	sd	a5,-24(s0)
ffffffc05040c0f2:	fe042223          	sw	zero,-28(s0)
ffffffc05040c0f6:	fc442783          	lw	a5,-60(s0)
ffffffc05040c0fa:	0007871b          	sext.w	a4,a5
ffffffc05040c0fe:	47c1                	li	a5,16
ffffffc05040c100:	00e7f463          	bgeu	a5,a4,ffffffc05040c108 <mini_itoa+0x46>
ffffffc05040c104:	4781                	li	a5,0
ffffffc05040c106:	aae9                	j	ffffffc05040c2e0 <mini_itoa+0x21e>
ffffffc05040c108:	fc843783          	ld	a5,-56(s0)
ffffffc05040c10c:	0007df63          	bgez	a5,ffffffc05040c12a <mini_itoa+0x68>
ffffffc05040c110:	fbc42783          	lw	a5,-68(s0)
ffffffc05040c114:	2781                	sext.w	a5,a5
ffffffc05040c116:	eb91                	bnez	a5,ffffffc05040c12a <mini_itoa+0x68>
ffffffc05040c118:	4785                	li	a5,1
ffffffc05040c11a:	fef42223          	sw	a5,-28(s0)
ffffffc05040c11e:	fc843783          	ld	a5,-56(s0)
ffffffc05040c122:	40f007b3          	neg	a5,a5
ffffffc05040c126:	fcf43423          	sd	a5,-56(s0)
ffffffc05040c12a:	fc042e23          	sw	zero,-36(s0)
ffffffc05040c12e:	fbc42783          	lw	a5,-68(s0)
ffffffc05040c132:	2781                	sext.w	a5,a5
ffffffc05040c134:	cb91                	beqz	a5,ffffffc05040c148 <mini_itoa+0x86>
ffffffc05040c136:	fc843703          	ld	a4,-56(s0)
ffffffc05040c13a:	fc446783          	lwu	a5,-60(s0)
ffffffc05040c13e:	02f777b3          	remu	a5,a4,a5
ffffffc05040c142:	fcf42e23          	sw	a5,-36(s0)
ffffffc05040c146:	a809                	j	ffffffc05040c158 <mini_itoa+0x96>
ffffffc05040c148:	fc446783          	lwu	a5,-60(s0)
ffffffc05040c14c:	fc843703          	ld	a4,-56(s0)
ffffffc05040c150:	02f767b3          	rem	a5,a4,a5
ffffffc05040c154:	fcf42e23          	sw	a5,-36(s0)
ffffffc05040c158:	fdc42783          	lw	a5,-36(s0)
ffffffc05040c15c:	0007871b          	sext.w	a4,a5
ffffffc05040c160:	47a5                	li	a5,9
ffffffc05040c162:	00e7cb63          	blt	a5,a4,ffffffc05040c178 <mini_itoa+0xb6>
ffffffc05040c166:	fdc42783          	lw	a5,-36(s0)
ffffffc05040c16a:	0ff7f793          	andi	a5,a5,255
ffffffc05040c16e:	0307879b          	addiw	a5,a5,48
ffffffc05040c172:	0ff7f713          	andi	a4,a5,255
ffffffc05040c176:	a025                	j	ffffffc05040c19e <mini_itoa+0xdc>
ffffffc05040c178:	fc042783          	lw	a5,-64(s0)
ffffffc05040c17c:	2781                	sext.w	a5,a5
ffffffc05040c17e:	c781                	beqz	a5,ffffffc05040c186 <mini_itoa+0xc4>
ffffffc05040c180:	04100793          	li	a5,65
ffffffc05040c184:	a019                	j	ffffffc05040c18a <mini_itoa+0xc8>
ffffffc05040c186:	06100793          	li	a5,97
ffffffc05040c18a:	fdc42703          	lw	a4,-36(s0)
ffffffc05040c18e:	0ff77713          	andi	a4,a4,255
ffffffc05040c192:	9fb9                	addw	a5,a5,a4
ffffffc05040c194:	0ff7f793          	andi	a5,a5,255
ffffffc05040c198:	37d9                	addiw	a5,a5,-10
ffffffc05040c19a:	0ff7f713          	andi	a4,a5,255
ffffffc05040c19e:	fe843783          	ld	a5,-24(s0)
ffffffc05040c1a2:	00178693          	addi	a3,a5,1
ffffffc05040c1a6:	fed43423          	sd	a3,-24(s0)
ffffffc05040c1aa:	00e78023          	sb	a4,0(a5)
ffffffc05040c1ae:	fbc42783          	lw	a5,-68(s0)
ffffffc05040c1b2:	2781                	sext.w	a5,a5
ffffffc05040c1b4:	cb91                	beqz	a5,ffffffc05040c1c8 <mini_itoa+0x106>
ffffffc05040c1b6:	fc843703          	ld	a4,-56(s0)
ffffffc05040c1ba:	fc446783          	lwu	a5,-60(s0)
ffffffc05040c1be:	02f757b3          	divu	a5,a4,a5
ffffffc05040c1c2:	fcf43423          	sd	a5,-56(s0)
ffffffc05040c1c6:	a809                	j	ffffffc05040c1d8 <mini_itoa+0x116>
ffffffc05040c1c8:	fc446783          	lwu	a5,-60(s0)
ffffffc05040c1cc:	fc843703          	ld	a4,-56(s0)
ffffffc05040c1d0:	02f747b3          	div	a5,a4,a5
ffffffc05040c1d4:	fcf43423          	sd	a5,-56(s0)
ffffffc05040c1d8:	fc843783          	ld	a5,-56(s0)
ffffffc05040c1dc:	f7b9                	bnez	a5,ffffffc05040c12a <mini_itoa+0x68>
ffffffc05040c1de:	fe843703          	ld	a4,-24(s0)
ffffffc05040c1e2:	fb043783          	ld	a5,-80(s0)
ffffffc05040c1e6:	40f707b3          	sub	a5,a4,a5
ffffffc05040c1ea:	fef42023          	sw	a5,-32(s0)
ffffffc05040c1ee:	a005                	j	ffffffc05040c20e <mini_itoa+0x14c>
ffffffc05040c1f0:	fe843783          	ld	a5,-24(s0)
ffffffc05040c1f4:	00178713          	addi	a4,a5,1
ffffffc05040c1f8:	fee43423          	sd	a4,-24(s0)
ffffffc05040c1fc:	03000713          	li	a4,48
ffffffc05040c200:	00e78023          	sb	a4,0(a5)
ffffffc05040c204:	fe042783          	lw	a5,-32(s0)
ffffffc05040c208:	2785                	addiw	a5,a5,1
ffffffc05040c20a:	fef42023          	sw	a5,-32(s0)
ffffffc05040c20e:	fe042703          	lw	a4,-32(s0)
ffffffc05040c212:	fb842783          	lw	a5,-72(s0)
ffffffc05040c216:	2701                	sext.w	a4,a4
ffffffc05040c218:	2781                	sext.w	a5,a5
ffffffc05040c21a:	fcf76be3          	bltu	a4,a5,ffffffc05040c1f0 <mini_itoa+0x12e>
ffffffc05040c21e:	fe442783          	lw	a5,-28(s0)
ffffffc05040c222:	2781                	sext.w	a5,a5
ffffffc05040c224:	cb99                	beqz	a5,ffffffc05040c23a <mini_itoa+0x178>
ffffffc05040c226:	fe843783          	ld	a5,-24(s0)
ffffffc05040c22a:	00178713          	addi	a4,a5,1
ffffffc05040c22e:	fee43423          	sd	a4,-24(s0)
ffffffc05040c232:	02d00713          	li	a4,45
ffffffc05040c236:	00e78023          	sb	a4,0(a5)
ffffffc05040c23a:	fe843783          	ld	a5,-24(s0)
ffffffc05040c23e:	00078023          	sb	zero,0(a5)
ffffffc05040c242:	fe843703          	ld	a4,-24(s0)
ffffffc05040c246:	fb043783          	ld	a5,-80(s0)
ffffffc05040c24a:	40f707b3          	sub	a5,a4,a5
ffffffc05040c24e:	fcf42c23          	sw	a5,-40(s0)
ffffffc05040c252:	fe042023          	sw	zero,-32(s0)
ffffffc05040c256:	a885                	j	ffffffc05040c2c6 <mini_itoa+0x204>
ffffffc05040c258:	fe046783          	lwu	a5,-32(s0)
ffffffc05040c25c:	fb043703          	ld	a4,-80(s0)
ffffffc05040c260:	97ba                	add	a5,a5,a4
ffffffc05040c262:	0007c783          	lbu	a5,0(a5)
ffffffc05040c266:	fcf40ba3          	sb	a5,-41(s0)
ffffffc05040c26a:	fd842703          	lw	a4,-40(s0)
ffffffc05040c26e:	fe042783          	lw	a5,-32(s0)
ffffffc05040c272:	40f707bb          	subw	a5,a4,a5
ffffffc05040c276:	2781                	sext.w	a5,a5
ffffffc05040c278:	37fd                	addiw	a5,a5,-1
ffffffc05040c27a:	2781                	sext.w	a5,a5
ffffffc05040c27c:	1782                	slli	a5,a5,0x20
ffffffc05040c27e:	9381                	srli	a5,a5,0x20
ffffffc05040c280:	fb043703          	ld	a4,-80(s0)
ffffffc05040c284:	973e                	add	a4,a4,a5
ffffffc05040c286:	fe046783          	lwu	a5,-32(s0)
ffffffc05040c28a:	fb043683          	ld	a3,-80(s0)
ffffffc05040c28e:	97b6                	add	a5,a5,a3
ffffffc05040c290:	00074703          	lbu	a4,0(a4)
ffffffc05040c294:	00e78023          	sb	a4,0(a5)
ffffffc05040c298:	fd842703          	lw	a4,-40(s0)
ffffffc05040c29c:	fe042783          	lw	a5,-32(s0)
ffffffc05040c2a0:	40f707bb          	subw	a5,a4,a5
ffffffc05040c2a4:	2781                	sext.w	a5,a5
ffffffc05040c2a6:	37fd                	addiw	a5,a5,-1
ffffffc05040c2a8:	2781                	sext.w	a5,a5
ffffffc05040c2aa:	1782                	slli	a5,a5,0x20
ffffffc05040c2ac:	9381                	srli	a5,a5,0x20
ffffffc05040c2ae:	fb043703          	ld	a4,-80(s0)
ffffffc05040c2b2:	97ba                	add	a5,a5,a4
ffffffc05040c2b4:	fd744703          	lbu	a4,-41(s0)
ffffffc05040c2b8:	00e78023          	sb	a4,0(a5)
ffffffc05040c2bc:	fe042783          	lw	a5,-32(s0)
ffffffc05040c2c0:	2785                	addiw	a5,a5,1
ffffffc05040c2c2:	fef42023          	sw	a5,-32(s0)
ffffffc05040c2c6:	fd842783          	lw	a5,-40(s0)
ffffffc05040c2ca:	0017d79b          	srliw	a5,a5,0x1
ffffffc05040c2ce:	0007871b          	sext.w	a4,a5
ffffffc05040c2d2:	fe042783          	lw	a5,-32(s0)
ffffffc05040c2d6:	2781                	sext.w	a5,a5
ffffffc05040c2d8:	f8e7e0e3          	bltu	a5,a4,ffffffc05040c258 <mini_itoa+0x196>
ffffffc05040c2dc:	fd842783          	lw	a5,-40(s0)
ffffffc05040c2e0:	853e                	mv	a0,a5
ffffffc05040c2e2:	6426                	ld	s0,72(sp)
ffffffc05040c2e4:	6161                	addi	sp,sp,80
ffffffc05040c2e6:	8082                	ret

ffffffc05040c2e8 <_putc>:
ffffffc05040c2e8:	1101                	addi	sp,sp,-32
ffffffc05040c2ea:	ec22                	sd	s0,24(sp)
ffffffc05040c2ec:	1000                	addi	s0,sp,32
ffffffc05040c2ee:	87aa                	mv	a5,a0
ffffffc05040c2f0:	feb43023          	sd	a1,-32(s0)
ffffffc05040c2f4:	fef42623          	sw	a5,-20(s0)
ffffffc05040c2f8:	fe043783          	ld	a5,-32(s0)
ffffffc05040c2fc:	6798                	ld	a4,8(a5)
ffffffc05040c2fe:	fe043783          	ld	a5,-32(s0)
ffffffc05040c302:	639c                	ld	a5,0(a5)
ffffffc05040c304:	40f707b3          	sub	a5,a4,a5
ffffffc05040c308:	2781                	sext.w	a5,a5
ffffffc05040c30a:	2785                	addiw	a5,a5,1
ffffffc05040c30c:	0007871b          	sext.w	a4,a5
ffffffc05040c310:	fe043783          	ld	a5,-32(s0)
ffffffc05040c314:	4b9c                	lw	a5,16(a5)
ffffffc05040c316:	00f76463          	bltu	a4,a5,ffffffc05040c31e <_putc+0x36>
ffffffc05040c31a:	4781                	li	a5,0
ffffffc05040c31c:	a02d                	j	ffffffc05040c346 <_putc+0x5e>
ffffffc05040c31e:	fe043783          	ld	a5,-32(s0)
ffffffc05040c322:	679c                	ld	a5,8(a5)
ffffffc05040c324:	00178693          	addi	a3,a5,1
ffffffc05040c328:	fe043703          	ld	a4,-32(s0)
ffffffc05040c32c:	e714                	sd	a3,8(a4)
ffffffc05040c32e:	fec42703          	lw	a4,-20(s0)
ffffffc05040c332:	0ff77713          	andi	a4,a4,255
ffffffc05040c336:	00e78023          	sb	a4,0(a5)
ffffffc05040c33a:	fe043783          	ld	a5,-32(s0)
ffffffc05040c33e:	679c                	ld	a5,8(a5)
ffffffc05040c340:	00078023          	sb	zero,0(a5)
ffffffc05040c344:	4785                	li	a5,1
ffffffc05040c346:	853e                	mv	a0,a5
ffffffc05040c348:	6462                	ld	s0,24(sp)
ffffffc05040c34a:	6105                	addi	sp,sp,32
ffffffc05040c34c:	8082                	ret

ffffffc05040c34e <_puts>:
ffffffc05040c34e:	7139                	addi	sp,sp,-64
ffffffc05040c350:	fc22                	sd	s0,56(sp)
ffffffc05040c352:	0080                	addi	s0,sp,64
ffffffc05040c354:	fca43c23          	sd	a0,-40(s0)
ffffffc05040c358:	87ae                	mv	a5,a1
ffffffc05040c35a:	fcc43423          	sd	a2,-56(s0)
ffffffc05040c35e:	fcf42a23          	sw	a5,-44(s0)
ffffffc05040c362:	fc843783          	ld	a5,-56(s0)
ffffffc05040c366:	4b9c                	lw	a5,16(a5)
ffffffc05040c368:	02079713          	slli	a4,a5,0x20
ffffffc05040c36c:	9301                	srli	a4,a4,0x20
ffffffc05040c36e:	fc843783          	ld	a5,-56(s0)
ffffffc05040c372:	6794                	ld	a3,8(a5)
ffffffc05040c374:	fc843783          	ld	a5,-56(s0)
ffffffc05040c378:	639c                	ld	a5,0(a5)
ffffffc05040c37a:	40f687b3          	sub	a5,a3,a5
ffffffc05040c37e:	8f1d                	sub	a4,a4,a5
ffffffc05040c380:	fd446783          	lwu	a5,-44(s0)
ffffffc05040c384:	02e7c463          	blt	a5,a4,ffffffc05040c3ac <_puts+0x5e>
ffffffc05040c388:	fc843783          	ld	a5,-56(s0)
ffffffc05040c38c:	4b98                	lw	a4,16(a5)
ffffffc05040c38e:	fc843783          	ld	a5,-56(s0)
ffffffc05040c392:	6794                	ld	a3,8(a5)
ffffffc05040c394:	fc843783          	ld	a5,-56(s0)
ffffffc05040c398:	639c                	ld	a5,0(a5)
ffffffc05040c39a:	40f687b3          	sub	a5,a3,a5
ffffffc05040c39e:	2781                	sext.w	a5,a5
ffffffc05040c3a0:	40f707bb          	subw	a5,a4,a5
ffffffc05040c3a4:	2781                	sext.w	a5,a5
ffffffc05040c3a6:	37fd                	addiw	a5,a5,-1
ffffffc05040c3a8:	fcf42a23          	sw	a5,-44(s0)
ffffffc05040c3ac:	fe042623          	sw	zero,-20(s0)
ffffffc05040c3b0:	a03d                	j	ffffffc05040c3de <_puts+0x90>
ffffffc05040c3b2:	fec46783          	lwu	a5,-20(s0)
ffffffc05040c3b6:	fd843703          	ld	a4,-40(s0)
ffffffc05040c3ba:	973e                	add	a4,a4,a5
ffffffc05040c3bc:	fc843783          	ld	a5,-56(s0)
ffffffc05040c3c0:	679c                	ld	a5,8(a5)
ffffffc05040c3c2:	00178613          	addi	a2,a5,1
ffffffc05040c3c6:	fc843683          	ld	a3,-56(s0)
ffffffc05040c3ca:	e690                	sd	a2,8(a3)
ffffffc05040c3cc:	00074703          	lbu	a4,0(a4)
ffffffc05040c3d0:	00e78023          	sb	a4,0(a5)
ffffffc05040c3d4:	fec42783          	lw	a5,-20(s0)
ffffffc05040c3d8:	2785                	addiw	a5,a5,1
ffffffc05040c3da:	fef42623          	sw	a5,-20(s0)
ffffffc05040c3de:	fec42703          	lw	a4,-20(s0)
ffffffc05040c3e2:	fd442783          	lw	a5,-44(s0)
ffffffc05040c3e6:	2701                	sext.w	a4,a4
ffffffc05040c3e8:	2781                	sext.w	a5,a5
ffffffc05040c3ea:	fcf764e3          	bltu	a4,a5,ffffffc05040c3b2 <_puts+0x64>
ffffffc05040c3ee:	fc843783          	ld	a5,-56(s0)
ffffffc05040c3f2:	679c                	ld	a5,8(a5)
ffffffc05040c3f4:	00078023          	sb	zero,0(a5)
ffffffc05040c3f8:	fd442783          	lw	a5,-44(s0)
ffffffc05040c3fc:	853e                	mv	a0,a5
ffffffc05040c3fe:	7462                	ld	s0,56(sp)
ffffffc05040c400:	6121                	addi	sp,sp,64
ffffffc05040c402:	8082                	ret

ffffffc05040c404 <mini_vsnprintf>:
ffffffc05040c404:	7119                	addi	sp,sp,-128
ffffffc05040c406:	fc86                	sd	ra,120(sp)
ffffffc05040c408:	f8a2                	sd	s0,112(sp)
ffffffc05040c40a:	0100                	addi	s0,sp,128
ffffffc05040c40c:	f8a43c23          	sd	a0,-104(s0)
ffffffc05040c410:	87ae                	mv	a5,a1
ffffffc05040c412:	f8c43423          	sd	a2,-120(s0)
ffffffc05040c416:	f8d43023          	sd	a3,-128(s0)
ffffffc05040c41a:	f8f42a23          	sw	a5,-108(s0)
ffffffc05040c41e:	f9843783          	ld	a5,-104(s0)
ffffffc05040c422:	fcf43023          	sd	a5,-64(s0)
ffffffc05040c426:	f9843783          	ld	a5,-104(s0)
ffffffc05040c42a:	fcf43423          	sd	a5,-56(s0)
ffffffc05040c42e:	f9442783          	lw	a5,-108(s0)
ffffffc05040c432:	fcf42823          	sw	a5,-48(s0)
ffffffc05040c436:	a4f9                	j	ffffffc05040c704 <mini_vsnprintf+0x300>
ffffffc05040c438:	fc843703          	ld	a4,-56(s0)
ffffffc05040c43c:	fc043783          	ld	a5,-64(s0)
ffffffc05040c440:	40f707b3          	sub	a5,a4,a5
ffffffc05040c444:	2781                	sext.w	a5,a5
ffffffc05040c446:	2785                	addiw	a5,a5,1
ffffffc05040c448:	0007871b          	sext.w	a4,a5
ffffffc05040c44c:	fd042783          	lw	a5,-48(s0)
ffffffc05040c450:	2cf77b63          	bgeu	a4,a5,ffffffc05040c726 <mini_vsnprintf+0x322>
ffffffc05040c454:	fef44783          	lbu	a5,-17(s0)
ffffffc05040c458:	0ff7f713          	andi	a4,a5,255
ffffffc05040c45c:	02500793          	li	a5,37
ffffffc05040c460:	00f70c63          	beq	a4,a5,ffffffc05040c478 <mini_vsnprintf+0x74>
ffffffc05040c464:	fef44783          	lbu	a5,-17(s0)
ffffffc05040c468:	2781                	sext.w	a5,a5
ffffffc05040c46a:	fc040713          	addi	a4,s0,-64
ffffffc05040c46e:	85ba                	mv	a1,a4
ffffffc05040c470:	853e                	mv	a0,a5
ffffffc05040c472:	e77ff0ef          	jal	ra,ffffffc05040c2e8 <_putc>
ffffffc05040c476:	a479                	j	ffffffc05040c704 <mini_vsnprintf+0x300>
ffffffc05040c478:	fe040723          	sb	zero,-18(s0)
ffffffc05040c47c:	fe042423          	sw	zero,-24(s0)
ffffffc05040c480:	f8843783          	ld	a5,-120(s0)
ffffffc05040c484:	00178713          	addi	a4,a5,1
ffffffc05040c488:	f8e43423          	sd	a4,-120(s0)
ffffffc05040c48c:	0007c783          	lbu	a5,0(a5)
ffffffc05040c490:	fef407a3          	sb	a5,-17(s0)
ffffffc05040c494:	fef44783          	lbu	a5,-17(s0)
ffffffc05040c498:	0ff7f713          	andi	a4,a5,255
ffffffc05040c49c:	03000793          	li	a5,48
ffffffc05040c4a0:	06f71b63          	bne	a4,a5,ffffffc05040c516 <mini_vsnprintf+0x112>
ffffffc05040c4a4:	a891                	j	ffffffc05040c4f8 <mini_vsnprintf+0xf4>
ffffffc05040c4a6:	fef44783          	lbu	a5,-17(s0)
ffffffc05040c4aa:	0ff7f793          	andi	a5,a5,255
ffffffc05040c4ae:	26078e63          	beqz	a5,ffffffc05040c72a <mini_vsnprintf+0x326>
ffffffc05040c4b2:	fef44783          	lbu	a5,-17(s0)
ffffffc05040c4b6:	0ff7f713          	andi	a4,a5,255
ffffffc05040c4ba:	02f00793          	li	a5,47
ffffffc05040c4be:	04e7fc63          	bgeu	a5,a4,ffffffc05040c516 <mini_vsnprintf+0x112>
ffffffc05040c4c2:	fef44783          	lbu	a5,-17(s0)
ffffffc05040c4c6:	0ff7f713          	andi	a4,a5,255
ffffffc05040c4ca:	03900793          	li	a5,57
ffffffc05040c4ce:	04e7e463          	bltu	a5,a4,ffffffc05040c516 <mini_vsnprintf+0x112>
ffffffc05040c4d2:	fee44703          	lbu	a4,-18(s0)
ffffffc05040c4d6:	87ba                	mv	a5,a4
ffffffc05040c4d8:	0027979b          	slliw	a5,a5,0x2
ffffffc05040c4dc:	9fb9                	addw	a5,a5,a4
ffffffc05040c4de:	0017979b          	slliw	a5,a5,0x1
ffffffc05040c4e2:	0ff7f793          	andi	a5,a5,255
ffffffc05040c4e6:	fef44703          	lbu	a4,-17(s0)
ffffffc05040c4ea:	9fb9                	addw	a5,a5,a4
ffffffc05040c4ec:	0ff7f793          	andi	a5,a5,255
ffffffc05040c4f0:	fd07879b          	addiw	a5,a5,-48
ffffffc05040c4f4:	fef40723          	sb	a5,-18(s0)
ffffffc05040c4f8:	f8843783          	ld	a5,-120(s0)
ffffffc05040c4fc:	00178713          	addi	a4,a5,1
ffffffc05040c500:	f8e43423          	sd	a4,-120(s0)
ffffffc05040c504:	0007c783          	lbu	a5,0(a5)
ffffffc05040c508:	fef407a3          	sb	a5,-17(s0)
ffffffc05040c50c:	fef44783          	lbu	a5,-17(s0)
ffffffc05040c510:	0ff7f793          	andi	a5,a5,255
ffffffc05040c514:	fbc9                	bnez	a5,ffffffc05040c4a6 <mini_vsnprintf+0xa2>
ffffffc05040c516:	fef44783          	lbu	a5,-17(s0)
ffffffc05040c51a:	0ff7f713          	andi	a4,a5,255
ffffffc05040c51e:	06c00793          	li	a5,108
ffffffc05040c522:	00f71f63          	bne	a4,a5,ffffffc05040c540 <mini_vsnprintf+0x13c>
ffffffc05040c526:	4785                	li	a5,1
ffffffc05040c528:	fef42423          	sw	a5,-24(s0)
ffffffc05040c52c:	f8843783          	ld	a5,-120(s0)
ffffffc05040c530:	00178713          	addi	a4,a5,1
ffffffc05040c534:	f8e43423          	sd	a4,-120(s0)
ffffffc05040c538:	0007c783          	lbu	a5,0(a5)
ffffffc05040c53c:	fef407a3          	sb	a5,-17(s0)
ffffffc05040c540:	fef44783          	lbu	a5,-17(s0)
ffffffc05040c544:	2781                	sext.w	a5,a5
ffffffc05040c546:	1e078463          	beqz	a5,ffffffc05040c72e <mini_vsnprintf+0x32a>
ffffffc05040c54a:	873e                	mv	a4,a5
ffffffc05040c54c:	1a074263          	bltz	a4,ffffffc05040c6f0 <mini_vsnprintf+0x2ec>
ffffffc05040c550:	86be                	mv	a3,a5
ffffffc05040c552:	07800713          	li	a4,120
ffffffc05040c556:	18d74d63          	blt	a4,a3,ffffffc05040c6f0 <mini_vsnprintf+0x2ec>
ffffffc05040c55a:	86be                	mv	a3,a5
ffffffc05040c55c:	05800713          	li	a4,88
ffffffc05040c560:	18e6c863          	blt	a3,a4,ffffffc05040c6f0 <mini_vsnprintf+0x2ec>
ffffffc05040c564:	fa87869b          	addiw	a3,a5,-88
ffffffc05040c568:	0006871b          	sext.w	a4,a3
ffffffc05040c56c:	02000793          	li	a5,32
ffffffc05040c570:	18e7e063          	bltu	a5,a4,ffffffc05040c6f0 <mini_vsnprintf+0x2ec>
ffffffc05040c574:	02069793          	slli	a5,a3,0x20
ffffffc05040c578:	9381                	srli	a5,a5,0x20
ffffffc05040c57a:	00279713          	slli	a4,a5,0x2
ffffffc05040c57e:	00001797          	auipc	a5,0x1
ffffffc05040c582:	30278793          	addi	a5,a5,770 # ffffffc05040d880 <__FUNCTION__.1526+0x10>
ffffffc05040c586:	97ba                	add	a5,a5,a4
ffffffc05040c588:	439c                	lw	a5,0(a5)
ffffffc05040c58a:	0007871b          	sext.w	a4,a5
ffffffc05040c58e:	00001797          	auipc	a5,0x1
ffffffc05040c592:	2f278793          	addi	a5,a5,754 # ffffffc05040d880 <__FUNCTION__.1526+0x10>
ffffffc05040c596:	97ba                	add	a5,a5,a4
ffffffc05040c598:	8782                	jr	a5
ffffffc05040c59a:	4785                	li	a5,1
ffffffc05040c59c:	fef42423          	sw	a5,-24(s0)
ffffffc05040c5a0:	a295                	j	ffffffc05040c704 <mini_vsnprintf+0x300>
ffffffc05040c5a2:	fe842783          	lw	a5,-24(s0)
ffffffc05040c5a6:	2781                	sext.w	a5,a5
ffffffc05040c5a8:	ef81                	bnez	a5,ffffffc05040c5c0 <mini_vsnprintf+0x1bc>
ffffffc05040c5aa:	f8043783          	ld	a5,-128(s0)
ffffffc05040c5ae:	00878713          	addi	a4,a5,8
ffffffc05040c5b2:	f8e43023          	sd	a4,-128(s0)
ffffffc05040c5b6:	439c                	lw	a5,0(a5)
ffffffc05040c5b8:	02079513          	slli	a0,a5,0x20
ffffffc05040c5bc:	9101                	srli	a0,a0,0x20
ffffffc05040c5be:	a809                	j	ffffffc05040c5d0 <mini_vsnprintf+0x1cc>
ffffffc05040c5c0:	f8043783          	ld	a5,-128(s0)
ffffffc05040c5c4:	00878713          	addi	a4,a5,8
ffffffc05040c5c8:	f8e43023          	sd	a4,-128(s0)
ffffffc05040c5cc:	639c                	ld	a5,0(a5)
ffffffc05040c5ce:	853e                	mv	a0,a5
ffffffc05040c5d0:	fef44783          	lbu	a5,-17(s0)
ffffffc05040c5d4:	0007871b          	sext.w	a4,a5
ffffffc05040c5d8:	07500793          	li	a5,117
ffffffc05040c5dc:	40f707b3          	sub	a5,a4,a5
ffffffc05040c5e0:	0017b793          	seqz	a5,a5
ffffffc05040c5e4:	0ff7f793          	andi	a5,a5,255
ffffffc05040c5e8:	0007869b          	sext.w	a3,a5
ffffffc05040c5ec:	fee44783          	lbu	a5,-18(s0)
ffffffc05040c5f0:	2781                	sext.w	a5,a5
ffffffc05040c5f2:	fa840713          	addi	a4,s0,-88
ffffffc05040c5f6:	4601                	li	a2,0
ffffffc05040c5f8:	45a9                	li	a1,10
ffffffc05040c5fa:	ac9ff0ef          	jal	ra,ffffffc05040c0c2 <mini_itoa>
ffffffc05040c5fe:	87aa                	mv	a5,a0
ffffffc05040c600:	fcf42e23          	sw	a5,-36(s0)
ffffffc05040c604:	fc040693          	addi	a3,s0,-64
ffffffc05040c608:	fdc42703          	lw	a4,-36(s0)
ffffffc05040c60c:	fa840793          	addi	a5,s0,-88
ffffffc05040c610:	8636                	mv	a2,a3
ffffffc05040c612:	85ba                	mv	a1,a4
ffffffc05040c614:	853e                	mv	a0,a5
ffffffc05040c616:	d39ff0ef          	jal	ra,ffffffc05040c34e <_puts>
ffffffc05040c61a:	fe042423          	sw	zero,-24(s0)
ffffffc05040c61e:	a0dd                	j	ffffffc05040c704 <mini_vsnprintf+0x300>
ffffffc05040c620:	fe842783          	lw	a5,-24(s0)
ffffffc05040c624:	2781                	sext.w	a5,a5
ffffffc05040c626:	ef81                	bnez	a5,ffffffc05040c63e <mini_vsnprintf+0x23a>
ffffffc05040c628:	f8043783          	ld	a5,-128(s0)
ffffffc05040c62c:	00878713          	addi	a4,a5,8
ffffffc05040c630:	f8e43023          	sd	a4,-128(s0)
ffffffc05040c634:	439c                	lw	a5,0(a5)
ffffffc05040c636:	02079513          	slli	a0,a5,0x20
ffffffc05040c63a:	9101                	srli	a0,a0,0x20
ffffffc05040c63c:	a809                	j	ffffffc05040c64e <mini_vsnprintf+0x24a>
ffffffc05040c63e:	f8043783          	ld	a5,-128(s0)
ffffffc05040c642:	00878713          	addi	a4,a5,8
ffffffc05040c646:	f8e43023          	sd	a4,-128(s0)
ffffffc05040c64a:	639c                	ld	a5,0(a5)
ffffffc05040c64c:	853e                	mv	a0,a5
ffffffc05040c64e:	fef44783          	lbu	a5,-17(s0)
ffffffc05040c652:	0007871b          	sext.w	a4,a5
ffffffc05040c656:	05800793          	li	a5,88
ffffffc05040c65a:	40f707b3          	sub	a5,a4,a5
ffffffc05040c65e:	0017b793          	seqz	a5,a5
ffffffc05040c662:	0ff7f793          	andi	a5,a5,255
ffffffc05040c666:	0007861b          	sext.w	a2,a5
ffffffc05040c66a:	fee44783          	lbu	a5,-18(s0)
ffffffc05040c66e:	2781                	sext.w	a5,a5
ffffffc05040c670:	fa840713          	addi	a4,s0,-88
ffffffc05040c674:	4685                	li	a3,1
ffffffc05040c676:	45c1                	li	a1,16
ffffffc05040c678:	a4bff0ef          	jal	ra,ffffffc05040c0c2 <mini_itoa>
ffffffc05040c67c:	87aa                	mv	a5,a0
ffffffc05040c67e:	fcf42e23          	sw	a5,-36(s0)
ffffffc05040c682:	fc040693          	addi	a3,s0,-64
ffffffc05040c686:	fdc42703          	lw	a4,-36(s0)
ffffffc05040c68a:	fa840793          	addi	a5,s0,-88
ffffffc05040c68e:	8636                	mv	a2,a3
ffffffc05040c690:	85ba                	mv	a1,a4
ffffffc05040c692:	853e                	mv	a0,a5
ffffffc05040c694:	cbbff0ef          	jal	ra,ffffffc05040c34e <_puts>
ffffffc05040c698:	fe042423          	sw	zero,-24(s0)
ffffffc05040c69c:	a0a5                	j	ffffffc05040c704 <mini_vsnprintf+0x300>
ffffffc05040c69e:	f8043783          	ld	a5,-128(s0)
ffffffc05040c6a2:	00878713          	addi	a4,a5,8
ffffffc05040c6a6:	f8e43023          	sd	a4,-128(s0)
ffffffc05040c6aa:	439c                	lw	a5,0(a5)
ffffffc05040c6ac:	0ff7f793          	andi	a5,a5,255
ffffffc05040c6b0:	2781                	sext.w	a5,a5
ffffffc05040c6b2:	fc040713          	addi	a4,s0,-64
ffffffc05040c6b6:	85ba                	mv	a1,a4
ffffffc05040c6b8:	853e                	mv	a0,a5
ffffffc05040c6ba:	c2fff0ef          	jal	ra,ffffffc05040c2e8 <_putc>
ffffffc05040c6be:	a099                	j	ffffffc05040c704 <mini_vsnprintf+0x300>
ffffffc05040c6c0:	f8043783          	ld	a5,-128(s0)
ffffffc05040c6c4:	00878713          	addi	a4,a5,8
ffffffc05040c6c8:	f8e43023          	sd	a4,-128(s0)
ffffffc05040c6cc:	639c                	ld	a5,0(a5)
ffffffc05040c6ce:	fef43023          	sd	a5,-32(s0)
ffffffc05040c6d2:	fe043503          	ld	a0,-32(s0)
ffffffc05040c6d6:	9b7ff0ef          	jal	ra,ffffffc05040c08c <mini_strlen>
ffffffc05040c6da:	87aa                	mv	a5,a0
ffffffc05040c6dc:	2781                	sext.w	a5,a5
ffffffc05040c6de:	fc040713          	addi	a4,s0,-64
ffffffc05040c6e2:	863a                	mv	a2,a4
ffffffc05040c6e4:	85be                	mv	a1,a5
ffffffc05040c6e6:	fe043503          	ld	a0,-32(s0)
ffffffc05040c6ea:	c65ff0ef          	jal	ra,ffffffc05040c34e <_puts>
ffffffc05040c6ee:	a819                	j	ffffffc05040c704 <mini_vsnprintf+0x300>
ffffffc05040c6f0:	fef44783          	lbu	a5,-17(s0)
ffffffc05040c6f4:	2781                	sext.w	a5,a5
ffffffc05040c6f6:	fc040713          	addi	a4,s0,-64
ffffffc05040c6fa:	85ba                	mv	a1,a4
ffffffc05040c6fc:	853e                	mv	a0,a5
ffffffc05040c6fe:	bebff0ef          	jal	ra,ffffffc05040c2e8 <_putc>
ffffffc05040c702:	0001                	nop
ffffffc05040c704:	f8843783          	ld	a5,-120(s0)
ffffffc05040c708:	00178713          	addi	a4,a5,1
ffffffc05040c70c:	f8e43423          	sd	a4,-120(s0)
ffffffc05040c710:	0007c783          	lbu	a5,0(a5)
ffffffc05040c714:	fef407a3          	sb	a5,-17(s0)
ffffffc05040c718:	fef44783          	lbu	a5,-17(s0)
ffffffc05040c71c:	0ff7f793          	andi	a5,a5,255
ffffffc05040c720:	d0079ce3          	bnez	a5,ffffffc05040c438 <mini_vsnprintf+0x34>
ffffffc05040c724:	a031                	j	ffffffc05040c730 <mini_vsnprintf+0x32c>
ffffffc05040c726:	0001                	nop
ffffffc05040c728:	a021                	j	ffffffc05040c730 <mini_vsnprintf+0x32c>
ffffffc05040c72a:	0001                	nop
ffffffc05040c72c:	a011                	j	ffffffc05040c730 <mini_vsnprintf+0x32c>
ffffffc05040c72e:	0001                	nop
ffffffc05040c730:	fc843703          	ld	a4,-56(s0)
ffffffc05040c734:	fc043783          	ld	a5,-64(s0)
ffffffc05040c738:	40f707b3          	sub	a5,a4,a5
ffffffc05040c73c:	2781                	sext.w	a5,a5
ffffffc05040c73e:	853e                	mv	a0,a5
ffffffc05040c740:	70e6                	ld	ra,120(sp)
ffffffc05040c742:	7446                	ld	s0,112(sp)
ffffffc05040c744:	6109                	addi	sp,sp,128
ffffffc05040c746:	8082                	ret

ffffffc05040c748 <_vprint>:
ffffffc05040c748:	714d                	addi	sp,sp,-336
ffffffc05040c74a:	e686                	sd	ra,328(sp)
ffffffc05040c74c:	e2a2                	sd	s0,320(sp)
ffffffc05040c74e:	0a80                	addi	s0,sp,336
ffffffc05040c750:	eca43423          	sd	a0,-312(s0)
ffffffc05040c754:	ecb43023          	sd	a1,-320(s0)
ffffffc05040c758:	eac43c23          	sd	a2,-328(s0)
ffffffc05040c75c:	ec043783          	ld	a5,-320(s0)
ffffffc05040c760:	fcf43c23          	sd	a5,-40(s0)
ffffffc05040c764:	fd843703          	ld	a4,-40(s0)
ffffffc05040c768:	ed840793          	addi	a5,s0,-296
ffffffc05040c76c:	86ba                	mv	a3,a4
ffffffc05040c76e:	ec843603          	ld	a2,-312(s0)
ffffffc05040c772:	10000593          	li	a1,256
ffffffc05040c776:	853e                	mv	a0,a5
ffffffc05040c778:	c8dff0ef          	jal	ra,ffffffc05040c404 <mini_vsnprintf>
ffffffc05040c77c:	87aa                	mv	a5,a0
ffffffc05040c77e:	fef42623          	sw	a5,-20(s0)
ffffffc05040c782:	fec42783          	lw	a5,-20(s0)
ffffffc05040c786:	ff040713          	addi	a4,s0,-16
ffffffc05040c78a:	97ba                	add	a5,a5,a4
ffffffc05040c78c:	ee078423          	sb	zero,-280(a5)
ffffffc05040c790:	911f30ef          	jal	ra,ffffffc0504000a0 <disable_preempt>
ffffffc05040c794:	b35f30ef          	jal	ra,ffffffc0504002c8 <get_current_cpu_id>
ffffffc05040c798:	fea43023          	sd	a0,-32(s0)
ffffffc05040c79c:	ed840793          	addi	a5,s0,-296
ffffffc05040c7a0:	eb843703          	ld	a4,-328(s0)
ffffffc05040c7a4:	853e                	mv	a0,a5
ffffffc05040c7a6:	9702                	jalr	a4
ffffffc05040c7a8:	8f5f30ef          	jal	ra,ffffffc05040009c <enable_preempt>
ffffffc05040c7ac:	fec42783          	lw	a5,-20(s0)
ffffffc05040c7b0:	853e                	mv	a0,a5
ffffffc05040c7b2:	60b6                	ld	ra,328(sp)
ffffffc05040c7b4:	6416                	ld	s0,320(sp)
ffffffc05040c7b6:	6171                	addi	sp,sp,336
ffffffc05040c7b8:	8082                	ret

ffffffc05040c7ba <vprintk>:
ffffffc05040c7ba:	1101                	addi	sp,sp,-32
ffffffc05040c7bc:	ec06                	sd	ra,24(sp)
ffffffc05040c7be:	e822                	sd	s0,16(sp)
ffffffc05040c7c0:	1000                	addi	s0,sp,32
ffffffc05040c7c2:	fea43423          	sd	a0,-24(s0)
ffffffc05040c7c6:	feb43023          	sd	a1,-32(s0)
ffffffc05040c7ca:	ffff4617          	auipc	a2,0xffff4
ffffffc05040c7ce:	ade60613          	addi	a2,a2,-1314 # ffffffc0504002a8 <port_write>
ffffffc05040c7d2:	fe043583          	ld	a1,-32(s0)
ffffffc05040c7d6:	fe843503          	ld	a0,-24(s0)
ffffffc05040c7da:	f6fff0ef          	jal	ra,ffffffc05040c748 <_vprint>
ffffffc05040c7de:	87aa                	mv	a5,a0
ffffffc05040c7e0:	853e                	mv	a0,a5
ffffffc05040c7e2:	60e2                	ld	ra,24(sp)
ffffffc05040c7e4:	6442                	ld	s0,16(sp)
ffffffc05040c7e6:	6105                	addi	sp,sp,32
ffffffc05040c7e8:	8082                	ret

ffffffc05040c7ea <printk>:
ffffffc05040c7ea:	7159                	addi	sp,sp,-112
ffffffc05040c7ec:	f406                	sd	ra,40(sp)
ffffffc05040c7ee:	f022                	sd	s0,32(sp)
ffffffc05040c7f0:	1800                	addi	s0,sp,48
ffffffc05040c7f2:	fca43c23          	sd	a0,-40(s0)
ffffffc05040c7f6:	e40c                	sd	a1,8(s0)
ffffffc05040c7f8:	e810                	sd	a2,16(s0)
ffffffc05040c7fa:	ec14                	sd	a3,24(s0)
ffffffc05040c7fc:	f018                	sd	a4,32(s0)
ffffffc05040c7fe:	f41c                	sd	a5,40(s0)
ffffffc05040c800:	03043823          	sd	a6,48(s0)
ffffffc05040c804:	03143c23          	sd	a7,56(s0)
ffffffc05040c808:	fe042623          	sw	zero,-20(s0)
ffffffc05040c80c:	04040793          	addi	a5,s0,64
ffffffc05040c810:	fcf43823          	sd	a5,-48(s0)
ffffffc05040c814:	fd043783          	ld	a5,-48(s0)
ffffffc05040c818:	fc878793          	addi	a5,a5,-56
ffffffc05040c81c:	fef43023          	sd	a5,-32(s0)
ffffffc05040c820:	fe043783          	ld	a5,-32(s0)
ffffffc05040c824:	85be                	mv	a1,a5
ffffffc05040c826:	fd843503          	ld	a0,-40(s0)
ffffffc05040c82a:	f91ff0ef          	jal	ra,ffffffc05040c7ba <vprintk>
ffffffc05040c82e:	87aa                	mv	a5,a0
ffffffc05040c830:	fef42623          	sw	a5,-20(s0)
ffffffc05040c834:	fec42783          	lw	a5,-20(s0)
ffffffc05040c838:	853e                	mv	a0,a5
ffffffc05040c83a:	70a2                	ld	ra,40(sp)
ffffffc05040c83c:	7402                	ld	s0,32(sp)
ffffffc05040c83e:	6165                	addi	sp,sp,112
ffffffc05040c840:	8082                	ret

ffffffc05040c842 <vprints>:
ffffffc05040c842:	1101                	addi	sp,sp,-32
ffffffc05040c844:	ec06                	sd	ra,24(sp)
ffffffc05040c846:	e822                	sd	s0,16(sp)
ffffffc05040c848:	1000                	addi	s0,sp,32
ffffffc05040c84a:	fea43423          	sd	a0,-24(s0)
ffffffc05040c84e:	feb43023          	sd	a1,-32(s0)
ffffffc05040c852:	ffff5617          	auipc	a2,0xffff5
ffffffc05040c856:	22a60613          	addi	a2,a2,554 # ffffffc050401a7c <screen_write>
ffffffc05040c85a:	fe043583          	ld	a1,-32(s0)
ffffffc05040c85e:	fe843503          	ld	a0,-24(s0)
ffffffc05040c862:	ee7ff0ef          	jal	ra,ffffffc05040c748 <_vprint>
ffffffc05040c866:	87aa                	mv	a5,a0
ffffffc05040c868:	853e                	mv	a0,a5
ffffffc05040c86a:	60e2                	ld	ra,24(sp)
ffffffc05040c86c:	6442                	ld	s0,16(sp)
ffffffc05040c86e:	6105                	addi	sp,sp,32
ffffffc05040c870:	8082                	ret

ffffffc05040c872 <prints>:
ffffffc05040c872:	7159                	addi	sp,sp,-112
ffffffc05040c874:	f406                	sd	ra,40(sp)
ffffffc05040c876:	f022                	sd	s0,32(sp)
ffffffc05040c878:	1800                	addi	s0,sp,48
ffffffc05040c87a:	fca43c23          	sd	a0,-40(s0)
ffffffc05040c87e:	e40c                	sd	a1,8(s0)
ffffffc05040c880:	e810                	sd	a2,16(s0)
ffffffc05040c882:	ec14                	sd	a3,24(s0)
ffffffc05040c884:	f018                	sd	a4,32(s0)
ffffffc05040c886:	f41c                	sd	a5,40(s0)
ffffffc05040c888:	03043823          	sd	a6,48(s0)
ffffffc05040c88c:	03143c23          	sd	a7,56(s0)
ffffffc05040c890:	fe042623          	sw	zero,-20(s0)
ffffffc05040c894:	04040793          	addi	a5,s0,64
ffffffc05040c898:	fcf43823          	sd	a5,-48(s0)
ffffffc05040c89c:	fd043783          	ld	a5,-48(s0)
ffffffc05040c8a0:	fc878793          	addi	a5,a5,-56
ffffffc05040c8a4:	fef43023          	sd	a5,-32(s0)
ffffffc05040c8a8:	fe043783          	ld	a5,-32(s0)
ffffffc05040c8ac:	85be                	mv	a1,a5
ffffffc05040c8ae:	fd843503          	ld	a0,-40(s0)
ffffffc05040c8b2:	f91ff0ef          	jal	ra,ffffffc05040c842 <vprints>
ffffffc05040c8b6:	87aa                	mv	a5,a0
ffffffc05040c8b8:	fef42623          	sw	a5,-20(s0)
ffffffc05040c8bc:	fec42783          	lw	a5,-20(s0)
ffffffc05040c8c0:	853e                	mv	a0,a5
ffffffc05040c8c2:	70a2                	ld	ra,40(sp)
ffffffc05040c8c4:	7402                	ld	s0,32(sp)
ffffffc05040c8c6:	6165                	addi	sp,sp,112
ffffffc05040c8c8:	8082                	ret

ffffffc05040c8ca <get_elf_file>:
ffffffc05040c8ca:	7139                	addi	sp,sp,-64
ffffffc05040c8cc:	fc06                	sd	ra,56(sp)
ffffffc05040c8ce:	f822                	sd	s0,48(sp)
ffffffc05040c8d0:	0080                	addi	s0,sp,64
ffffffc05040c8d2:	fca43c23          	sd	a0,-40(s0)
ffffffc05040c8d6:	fcb43823          	sd	a1,-48(s0)
ffffffc05040c8da:	fcc43423          	sd	a2,-56(s0)
ffffffc05040c8de:	fe042623          	sw	zero,-20(s0)
ffffffc05040c8e2:	a895                	j	ffffffc05040c956 <get_elf_file+0x8c>
ffffffc05040c8e4:	0001e697          	auipc	a3,0x1e
ffffffc05040c8e8:	e9468693          	addi	a3,a3,-364 # ffffffc05042a778 <elf_files>
ffffffc05040c8ec:	fec42703          	lw	a4,-20(s0)
ffffffc05040c8f0:	87ba                	mv	a5,a4
ffffffc05040c8f2:	0786                	slli	a5,a5,0x1
ffffffc05040c8f4:	97ba                	add	a5,a5,a4
ffffffc05040c8f6:	078e                	slli	a5,a5,0x3
ffffffc05040c8f8:	97b6                	add	a5,a5,a3
ffffffc05040c8fa:	639c                	ld	a5,0(a5)
ffffffc05040c8fc:	fd843583          	ld	a1,-40(s0)
ffffffc05040c900:	853e                	mv	a0,a5
ffffffc05040c902:	e3aff0ef          	jal	ra,ffffffc05040bf3c <strcmp>
ffffffc05040c906:	87aa                	mv	a5,a0
ffffffc05040c908:	e3b1                	bnez	a5,ffffffc05040c94c <get_elf_file+0x82>
ffffffc05040c90a:	0001e697          	auipc	a3,0x1e
ffffffc05040c90e:	e6e68693          	addi	a3,a3,-402 # ffffffc05042a778 <elf_files>
ffffffc05040c912:	fec42703          	lw	a4,-20(s0)
ffffffc05040c916:	87ba                	mv	a5,a4
ffffffc05040c918:	0786                	slli	a5,a5,0x1
ffffffc05040c91a:	97ba                	add	a5,a5,a4
ffffffc05040c91c:	078e                	slli	a5,a5,0x3
ffffffc05040c91e:	97b6                	add	a5,a5,a3
ffffffc05040c920:	6798                	ld	a4,8(a5)
ffffffc05040c922:	fd043783          	ld	a5,-48(s0)
ffffffc05040c926:	e398                	sd	a4,0(a5)
ffffffc05040c928:	0001e697          	auipc	a3,0x1e
ffffffc05040c92c:	e5068693          	addi	a3,a3,-432 # ffffffc05042a778 <elf_files>
ffffffc05040c930:	fec42703          	lw	a4,-20(s0)
ffffffc05040c934:	87ba                	mv	a5,a4
ffffffc05040c936:	0786                	slli	a5,a5,0x1
ffffffc05040c938:	97ba                	add	a5,a5,a4
ffffffc05040c93a:	078e                	slli	a5,a5,0x3
ffffffc05040c93c:	97b6                	add	a5,a5,a3
ffffffc05040c93e:	6b9c                	ld	a5,16(a5)
ffffffc05040c940:	4398                	lw	a4,0(a5)
ffffffc05040c942:	fc843783          	ld	a5,-56(s0)
ffffffc05040c946:	c398                	sw	a4,0(a5)
ffffffc05040c948:	4785                	li	a5,1
ffffffc05040c94a:	a831                	j	ffffffc05040c966 <get_elf_file+0x9c>
ffffffc05040c94c:	fec42783          	lw	a5,-20(s0)
ffffffc05040c950:	2785                	addiw	a5,a5,1
ffffffc05040c952:	fef42623          	sw	a5,-20(s0)
ffffffc05040c956:	fec42783          	lw	a5,-20(s0)
ffffffc05040c95a:	0007871b          	sext.w	a4,a5
ffffffc05040c95e:	4789                	li	a5,2
ffffffc05040c960:	f8e7d2e3          	bge	a5,a4,ffffffc05040c8e4 <get_elf_file+0x1a>
ffffffc05040c964:	4781                	li	a5,0
ffffffc05040c966:	853e                	mv	a0,a5
ffffffc05040c968:	70e2                	ld	ra,56(sp)
ffffffc05040c96a:	7442                	ld	s0,48(sp)
ffffffc05040c96c:	6121                	addi	sp,sp,64
ffffffc05040c96e:	8082                	ret
